(dp1
S'image'
p2
(dp3
S'type'
p4
S'reference image'
p5
sS'sortable'
p6
I2
sS'sql'
p7
S'INTEGER REFERENCES image(id) ON DELETE CASCADE'
p8
ssS'tag'
p9
(dp10
g4
S'reference tag'
p11
sg6
I3
sg7
S'INTEGER REFERENCES tag(id) ON DELETE CASCADE'
p12
ssS'id'
p13
(dp14
g4
g13
sg6
I1
sg7
S'INTEGER PRIMARY KEY AUTOINCREMENT'
p15
ss.