(dp1
S'output'
p2
S''
sS'layer'
p3
S'/home/brencam/web2py/applications/gallery/controllers/search.py'
p4
sS'code'
p5
S'# Search Controller\nimport datetime\n\ndef getnames():\n    # for ajax search -  find list of images - match on search string\n    # (need to return list in json format ??)\n    print \'*************  processing ajax request *********** at %s\' %datetime.datetime.now().ctime()\n\n    sval =\'\'\n    if  request.vars[\'q\']:\n        sval = request.vars[\'q\']\n\n        #queries with %LIKE% ****HERE BE THE DRAGONS!!!!******\n\n        images = db(db.image.title.like(sval+\'%\')).select()\n    else:\n        images = db(db.image.ALL).select()\n\n#    html =  XML( <img src="{{=URL(\'download\', args=image.file)}}" width="120"  height="100"  for image in images)\n\n#    print \'***************   html **********\' html\n  \n    r = images[0]\n    return XML(DIV(LI(A=r.title, (IMG(_src=URL(\'default\',\'download\', args= r.file), _alt="", _width="120",  _height="100"), _href=URL(\'default\',\'index\')))))\n\n\n#    return XML( A(IMG(_src=URL(\'default\',\'download\', args= r.file), _alt="", _width="120",  _height="100"), _href=URL(\'default\',\'index\')))\n\n    \n\n#<li><img  src="{{=URL(\'download\', args=image.file)}}" width="120"  height="100" />{{=A(image.title, _href=URL("show", args=image.id))}}\n#</li>\n\n\n    # Can I do a redirect from ajax request with the search results ??\n    #redirect (URL(\'default\', \'showcss\'))\n\n    # Note the URL Syntax here to create a link to a different controller (the default)\n    # How to show thumbnails for selected images here as well ??\n#    return XML(UL(*[LI(A(\'%s \' % (img.title),_href=URL(\'default\',\'show\',args=img.id)))\\\n#                    for img in images]))\n\n\n\nresponse._vars=response._caller(getnames)\n'
p6
sS'snapshot'
p7
(dp8
S'exception'
p9
(dp10
S'__getslice__'
p11
S"<method-wrapper '__getslice__' of exceptions.SyntaxError object>"
p12
sS'text'
p13
S'\'    return XML(DIV(LI(A=r.title, (IMG(_src=URL(\\\'..._height="100"), _href=URL(\\\'default\\\',\\\'index\\\')))))\\n\''
p14
sS'__str__'
p15
S"<method-wrapper '__str__' of exceptions.SyntaxError object>"
p16
sS'__reduce__'
p17
S'<built-in method __reduce__ of exceptions.SyntaxError object>'
p18
sS'__dict__'
p19
S'{}'
p20
sS'__sizeof__'
p21
S'<built-in method __sizeof__ of exceptions.SyntaxError object>'
p22
sS'__init__'
p23
S"<method-wrapper '__init__' of exceptions.SyntaxError object>"
p24
sS'__setattr__'
p25
S"<method-wrapper '__setattr__' of exceptions.SyntaxError object>"
p26
sS'__reduce_ex__'
p27
S'<built-in method __reduce_ex__ of exceptions.SyntaxError object>'
p28
sS'__new__'
p29
S'<built-in method __new__ of type object>'
p30
sS'__format__'
p31
S'<built-in method __format__ of exceptions.SyntaxError object>'
p32
sS'__class__'
p33
S"<type 'exceptions.SyntaxError'>"
p34
sS'filename'
p35
S"'/home/brencam/web2py/applications/gallery/controllers/search.py'"
p36
sS'lineno'
p37
S'24'
p38
sS'msg'
p39
S"'invalid syntax'"
p40
sS'__doc__'
p41
S"'Invalid syntax.'"
p42
sS'__getitem__'
p43
S"<method-wrapper '__getitem__' of exceptions.SyntaxError object>"
p44
sS'__setstate__'
p45
S'<built-in method __setstate__ of exceptions.SyntaxError object>'
p46
sS'__getattribute__'
p47
S"<method-wrapper '__getattribute__' of exceptions.SyntaxError object>"
p48
sS'print_file_and_line'
p49
S'None'
p50
sS'args'
p51
S'(\'invalid syntax\', (\'/home/brencam/web2py/applications/gallery/controllers/search.py\', 24, 130, \'    return XML(DIV(LI(A=r.title, (IMG(_src=URL(\\\'..._height="100"), _href=URL(\\\'default\\\',\\\'index\\\')))))\\n\'))'
p52
sS'__subclasshook__'
p53
S'<built-in method __subclasshook__ of type object>'
p54
sS'offset'
p55
S'130'
p56
sS'__unicode__'
p57
S'<built-in method __unicode__ of exceptions.SyntaxError object>'
p58
sS'__delattr__'
p59
S"<method-wrapper '__delattr__' of exceptions.SyntaxError object>"
p60
sS'__repr__'
p61
S"<method-wrapper '__repr__' of exceptions.SyntaxError object>"
p62
sS'__hash__'
p63
S"<method-wrapper '__hash__' of exceptions.SyntaxError object>"
p64
ssS'evalue'
p65
S'invalid syntax (search.py, line 24)'
p66
sS'request'
p67
ccopy_reg
_reconstructor
p68
(cgluon.html
BEAUTIFY
p69
c__builtin__
object
p70
NtRp71
(dp72
S'attributes'
p73
(dp74
sS'components'
p75
(lp76
g68
(cgluon.html
TABLE
p77
g70
NtRp78
(dp79
g73
(dp80
S'level'
p81
I5
ssS'parent'
p82
Nsg75
(lp83
g68
(cgluon.html
TR
p84
g70
NtRp85
(dp86
g73
(dp87
sg82
g78
sg75
(lp88
g68
(cgluon.html
TD
p89
g70
NtRp90
(dp91
g73
(dp92
S'_style'
p93
S'font-weight:bold;'
p94
ssg82
g85
sg75
(lp95
S'ajax'
p96
asbag68
(g89
g70
NtRp97
(dp98
g73
(dp99
S'_valign'
p100
S'top'
p101
ssg82
g85
sg75
(lp102
S':'
asbag68
(g89
g70
NtRp103
(dp104
g73
(dp105
sg82
g85
sg75
(lp106
g68
(g69
g70
NtRp107
(dp108
g73
(dp109
g81
I5
ssg82
g103
sg75
(lp110
S'True'
p111
asbasbasbag68
(g84
g70
NtRp112
(dp113
g73
(dp114
sg82
g78
sg75
(lp115
g68
(g89
g70
NtRp116
(dp117
g73
(dp118
g93
g94
ssg82
g112
sg75
(lp119
S'application'
p120
asbag68
(g89
g70
NtRp121
(dp122
g73
(dp123
g100
g101
ssg82
g112
sg75
(lp124
S':'
asbag68
(g89
g70
NtRp125
(dp126
g73
(dp127
sg82
g112
sg75
(lp128
g68
(g69
g70
NtRp129
(dp130
g73
(dp131
g81
I5
ssg82
g125
sg75
(lp132
S'gallery'
p133
asbasbasbag68
(g84
g70
NtRp134
(dp135
g73
(dp136
sg82
g78
sg75
(lp137
g68
(g89
g70
NtRp138
(dp139
g73
(dp140
g93
g94
ssg82
g134
sg75
(lp141
g51
asbag68
(g89
g70
NtRp142
(dp143
g73
(dp144
g100
g101
ssg82
g134
sg75
(lp145
S':'
asbag68
(g89
g70
NtRp146
(dp147
g73
(dp148
sg82
g134
sg75
(lp149
g68
(g69
g70
NtRp150
(dp151
g73
(dp152
g81
I5
ssg82
g146
sg75
(lp153
g68
(g77
g70
NtRp154
(dp155
g73
(dp156
g81
I4
ssg82
Nsg75
(lp157
sbasbasbasbag68
(g84
g70
NtRp158
(dp159
g73
(dp160
sg82
g78
sg75
(lp161
g68
(g89
g70
NtRp162
(dp163
g73
(dp164
g93
g94
ssg82
g158
sg75
(lp165
S'body'
p166
asbag68
(g89
g70
NtRp167
(dp168
g73
(dp169
g100
g101
ssg82
g158
sg75
(lp170
S':'
asbag68
(g89
g70
NtRp171
(dp172
g73
(dp173
sg82
g158
sg75
(lp174
g68
(g69
g70
NtRp175
(dp176
g73
(dp177
g81
I5
ssg82
g171
sg75
(lp178
S'<cStringIO.StringO object at 0xaf77b0c0>'
p179
asbasbasbag68
(g84
g70
NtRp180
(dp181
g73
(dp182
sg82
g78
sg75
(lp183
g68
(g89
g70
NtRp184
(dp185
g73
(dp186
g93
g94
ssg82
g180
sg75
(lp187
S'client'
p188
asbag68
(g89
g70
NtRp189
(dp190
g73
(dp191
g100
g101
ssg82
g180
sg75
(lp192
S':'
asbag68
(g89
g70
NtRp193
(dp194
g73
(dp195
sg82
g180
sg75
(lp196
g68
(g69
g70
NtRp197
(dp198
g73
(dp199
g81
I5
ssg82
g193
sg75
(lp200
S'127.0.0.1'
p201
asbasbasbag68
(g84
g70
NtRp202
(dp203
g73
(dp204
sg82
g78
sg75
(lp205
g68
(g89
g70
NtRp206
(dp207
g73
(dp208
g93
g94
ssg82
g202
sg75
(lp209
S'controller'
p210
asbag68
(g89
g70
NtRp211
(dp212
g73
(dp213
g100
g101
ssg82
g202
sg75
(lp214
S':'
asbag68
(g89
g70
NtRp215
(dp216
g73
(dp217
sg82
g202
sg75
(lp218
g68
(g69
g70
NtRp219
(dp220
g73
(dp221
g81
I5
ssg82
g215
sg75
(lp222
S'search'
p223
asbasbasbag68
(g84
g70
NtRp224
(dp225
g73
(dp226
sg82
g78
sg75
(lp227
g68
(g89
g70
NtRp228
(dp229
g73
(dp230
g93
g94
ssg82
g224
sg75
(lp231
S'cookies'
p232
asbag68
(g89
g70
NtRp233
(dp234
g73
(dp235
g100
g101
ssg82
g224
sg75
(lp236
S':'
asbag68
(g89
g70
NtRp237
(dp238
g73
(dp239
sg82
g224
sg75
(lp240
g68
(g69
g70
NtRp241
(dp242
g73
(dp243
g81
I5
ssg82
g237
sg75
(lp244
g68
(g77
g70
NtRp245
(dp246
g73
(dp247
g81
I4
ssg82
Nsg75
(lp248
g68
(g84
g70
NtRp249
(dp250
g73
(dp251
sg82
g245
sg75
(lp252
g68
(g89
g70
NtRp253
(dp254
g73
(dp255
g93
g94
ssg82
g249
sg75
(lp256
S'csrftoken'
p257
asbag68
(g89
g70
NtRp258
(dp259
g73
(dp260
g100
g101
ssg82
g249
sg75
(lp261
S':'
asbag68
(g89
g70
NtRp262
(dp263
g73
(dp264
sg82
g249
sg75
(lp265
g68
(g69
g70
NtRp266
(dp267
g73
(dp268
g81
I4
ssg82
g262
sg75
(lp269
g68
(g77
g70
NtRp270
(dp271
g73
(dp272
g81
I3
ssg82
Nsg75
(lp273
g68
(g84
g70
NtRp274
(dp275
g73
(dp276
sg82
g270
sg75
(lp277
g68
(g89
g70
NtRp278
(dp279
g73
(dp280
g93
g94
ssg82
g274
sg75
(lp281
S'comment'
p282
asbag68
(g89
g70
NtRp283
(dp284
g73
(dp285
g100
g101
ssg82
g274
sg75
(lp286
S':'
asbag68
(g89
g70
NtRp287
(dp288
g73
(dp289
sg82
g274
sg75
(lp290
g68
(g69
g70
NtRp291
(dp292
g73
(dp293
g81
I3
ssg82
g287
sg75
(lp294
S''
asbasbasbag68
(g84
g70
NtRp295
(dp296
g73
(dp297
sg82
g270
sg75
(lp298
g68
(g89
g70
NtRp299
(dp300
g73
(dp301
g93
g94
ssg82
g295
sg75
(lp302
S'domain'
p303
asbag68
(g89
g70
NtRp304
(dp305
g73
(dp306
g100
g101
ssg82
g295
sg75
(lp307
S':'
asbag68
(g89
g70
NtRp308
(dp309
g73
(dp310
sg82
g295
sg75
(lp311
g68
(g69
g70
NtRp312
(dp313
g73
(dp314
g81
I3
ssg82
g308
sg75
(lp315
S''
asbasbasbag68
(g84
g70
NtRp316
(dp317
g73
(dp318
sg82
g270
sg75
(lp319
g68
(g89
g70
NtRp320
(dp321
g73
(dp322
g93
g94
ssg82
g316
sg75
(lp323
S'expires'
p324
asbag68
(g89
g70
NtRp325
(dp326
g73
(dp327
g100
g101
ssg82
g316
sg75
(lp328
S':'
asbag68
(g89
g70
NtRp329
(dp330
g73
(dp331
sg82
g316
sg75
(lp332
g68
(g69
g70
NtRp333
(dp334
g73
(dp335
g81
I3
ssg82
g329
sg75
(lp336
S''
asbasbasbag68
(g84
g70
NtRp337
(dp338
g73
(dp339
sg82
g270
sg75
(lp340
g68
(g89
g70
NtRp341
(dp342
g73
(dp343
g93
g94
ssg82
g337
sg75
(lp344
S'httponly'
p345
asbag68
(g89
g70
NtRp346
(dp347
g73
(dp348
g100
g101
ssg82
g337
sg75
(lp349
S':'
asbag68
(g89
g70
NtRp350
(dp351
g73
(dp352
sg82
g337
sg75
(lp353
g68
(g69
g70
NtRp354
(dp355
g73
(dp356
g81
I3
ssg82
g350
sg75
(lp357
S''
asbasbasbag68
(g84
g70
NtRp358
(dp359
g73
(dp360
sg82
g270
sg75
(lp361
g68
(g89
g70
NtRp362
(dp363
g73
(dp364
g93
g94
ssg82
g358
sg75
(lp365
S'max-age'
p366
asbag68
(g89
g70
NtRp367
(dp368
g73
(dp369
g100
g101
ssg82
g358
sg75
(lp370
S':'
asbag68
(g89
g70
NtRp371
(dp372
g73
(dp373
sg82
g358
sg75
(lp374
g68
(g69
g70
NtRp375
(dp376
g73
(dp377
g81
I3
ssg82
g371
sg75
(lp378
S''
asbasbasbag68
(g84
g70
NtRp379
(dp380
g73
(dp381
sg82
g270
sg75
(lp382
g68
(g89
g70
NtRp383
(dp384
g73
(dp385
g93
g94
ssg82
g379
sg75
(lp386
S'path'
p387
asbag68
(g89
g70
NtRp388
(dp389
g73
(dp390
g100
g101
ssg82
g379
sg75
(lp391
S':'
asbag68
(g89
g70
NtRp392
(dp393
g73
(dp394
sg82
g379
sg75
(lp395
g68
(g69
g70
NtRp396
(dp397
g73
(dp398
g81
I3
ssg82
g392
sg75
(lp399
S''
asbasbasbag68
(g84
g70
NtRp400
(dp401
g73
(dp402
sg82
g270
sg75
(lp403
g68
(g89
g70
NtRp404
(dp405
g73
(dp406
g93
g94
ssg82
g400
sg75
(lp407
S'secure'
p408
asbag68
(g89
g70
NtRp409
(dp410
g73
(dp411
g100
g101
ssg82
g400
sg75
(lp412
S':'
asbag68
(g89
g70
NtRp413
(dp414
g73
(dp415
sg82
g400
sg75
(lp416
g68
(g69
g70
NtRp417
(dp418
g73
(dp419
g81
I3
ssg82
g413
sg75
(lp420
S''
asbasbasbag68
(g84
g70
NtRp421
(dp422
g73
(dp423
sg82
g270
sg75
(lp424
g68
(g89
g70
NtRp425
(dp426
g73
(dp427
g93
g94
ssg82
g421
sg75
(lp428
S'version'
p429
asbag68
(g89
g70
NtRp430
(dp431
g73
(dp432
g100
g101
ssg82
g421
sg75
(lp433
S':'
asbag68
(g89
g70
NtRp434
(dp435
g73
(dp436
sg82
g421
sg75
(lp437
g68
(g69
g70
NtRp438
(dp439
g73
(dp440
g81
I3
ssg82
g434
sg75
(lp441
S''
asbasbasbasbasbasbasbag68
(g84
g70
NtRp442
(dp443
g73
(dp444
sg82
g245
sg75
(lp445
g68
(g89
g70
NtRp446
(dp447
g73
(dp448
g93
g94
ssg82
g442
sg75
(lp449
S'session_id_admin'
p450
asbag68
(g89
g70
NtRp451
(dp452
g73
(dp453
g100
g101
ssg82
g442
sg75
(lp454
S':'
asbag68
(g89
g70
NtRp455
(dp456
g73
(dp457
sg82
g442
sg75
(lp458
g68
(g69
g70
NtRp459
(dp460
g73
(dp461
g81
I4
ssg82
g455
sg75
(lp462
g68
(g77
g70
NtRp463
(dp464
g73
(dp465
g81
I3
ssg82
Nsg75
(lp466
g68
(g84
g70
NtRp467
(dp468
g73
(dp469
sg82
g463
sg75
(lp470
g68
(g89
g70
NtRp471
(dp472
g73
(dp473
g93
g94
ssg82
g467
sg75
(lp474
g282
asbag68
(g89
g70
NtRp475
(dp476
g73
(dp477
g100
g101
ssg82
g467
sg75
(lp478
S':'
asbag68
(g89
g70
NtRp479
(dp480
g73
(dp481
sg82
g467
sg75
(lp482
g68
(g69
g70
NtRp483
(dp484
g73
(dp485
g81
I3
ssg82
g479
sg75
(lp486
S''
asbasbasbag68
(g84
g70
NtRp487
(dp488
g73
(dp489
sg82
g463
sg75
(lp490
g68
(g89
g70
NtRp491
(dp492
g73
(dp493
g93
g94
ssg82
g487
sg75
(lp494
g303
asbag68
(g89
g70
NtRp495
(dp496
g73
(dp497
g100
g101
ssg82
g487
sg75
(lp498
S':'
asbag68
(g89
g70
NtRp499
(dp500
g73
(dp501
sg82
g487
sg75
(lp502
g68
(g69
g70
NtRp503
(dp504
g73
(dp505
g81
I3
ssg82
g499
sg75
(lp506
S''
asbasbasbag68
(g84
g70
NtRp507
(dp508
g73
(dp509
sg82
g463
sg75
(lp510
g68
(g89
g70
NtRp511
(dp512
g73
(dp513
g93
g94
ssg82
g507
sg75
(lp514
g324
asbag68
(g89
g70
NtRp515
(dp516
g73
(dp517
g100
g101
ssg82
g507
sg75
(lp518
S':'
asbag68
(g89
g70
NtRp519
(dp520
g73
(dp521
sg82
g507
sg75
(lp522
g68
(g69
g70
NtRp523
(dp524
g73
(dp525
g81
I3
ssg82
g519
sg75
(lp526
S''
asbasbasbag68
(g84
g70
NtRp527
(dp528
g73
(dp529
sg82
g463
sg75
(lp530
g68
(g89
g70
NtRp531
(dp532
g73
(dp533
g93
g94
ssg82
g527
sg75
(lp534
g345
asbag68
(g89
g70
NtRp535
(dp536
g73
(dp537
g100
g101
ssg82
g527
sg75
(lp538
S':'
asbag68
(g89
g70
NtRp539
(dp540
g73
(dp541
sg82
g527
sg75
(lp542
g68
(g69
g70
NtRp543
(dp544
g73
(dp545
g81
I3
ssg82
g539
sg75
(lp546
S''
asbasbasbag68
(g84
g70
NtRp547
(dp548
g73
(dp549
sg82
g463
sg75
(lp550
g68
(g89
g70
NtRp551
(dp552
g73
(dp553
g93
g94
ssg82
g547
sg75
(lp554
g366
asbag68
(g89
g70
NtRp555
(dp556
g73
(dp557
g100
g101
ssg82
g547
sg75
(lp558
S':'
asbag68
(g89
g70
NtRp559
(dp560
g73
(dp561
sg82
g547
sg75
(lp562
g68
(g69
g70
NtRp563
(dp564
g73
(dp565
g81
I3
ssg82
g559
sg75
(lp566
S''
asbasbasbag68
(g84
g70
NtRp567
(dp568
g73
(dp569
sg82
g463
sg75
(lp570
g68
(g89
g70
NtRp571
(dp572
g73
(dp573
g93
g94
ssg82
g567
sg75
(lp574
g387
asbag68
(g89
g70
NtRp575
(dp576
g73
(dp577
g100
g101
ssg82
g567
sg75
(lp578
S':'
asbag68
(g89
g70
NtRp579
(dp580
g73
(dp581
sg82
g567
sg75
(lp582
g68
(g69
g70
NtRp583
(dp584
g73
(dp585
g81
I3
ssg82
g579
sg75
(lp586
S''
asbasbasbag68
(g84
g70
NtRp587
(dp588
g73
(dp589
sg82
g463
sg75
(lp590
g68
(g89
g70
NtRp591
(dp592
g73
(dp593
g93
g94
ssg82
g587
sg75
(lp594
g408
asbag68
(g89
g70
NtRp595
(dp596
g73
(dp597
g100
g101
ssg82
g587
sg75
(lp598
S':'
asbag68
(g89
g70
NtRp599
(dp600
g73
(dp601
sg82
g587
sg75
(lp602
g68
(g69
g70
NtRp603
(dp604
g73
(dp605
g81
I3
ssg82
g599
sg75
(lp606
S''
asbasbasbag68
(g84
g70
NtRp607
(dp608
g73
(dp609
sg82
g463
sg75
(lp610
g68
(g89
g70
NtRp611
(dp612
g73
(dp613
g93
g94
ssg82
g607
sg75
(lp614
g429
asbag68
(g89
g70
NtRp615
(dp616
g73
(dp617
g100
g101
ssg82
g607
sg75
(lp618
S':'
asbag68
(g89
g70
NtRp619
(dp620
g73
(dp621
sg82
g607
sg75
(lp622
g68
(g69
g70
NtRp623
(dp624
g73
(dp625
g81
I3
ssg82
g619
sg75
(lp626
S''
asbasbasbasbasbasbasbag68
(g84
g70
NtRp627
(dp628
g73
(dp629
sg82
g245
sg75
(lp630
g68
(g89
g70
NtRp631
(dp632
g73
(dp633
g93
g94
ssg82
g627
sg75
(lp634
S'session_id_gallery'
p635
asbag68
(g89
g70
NtRp636
(dp637
g73
(dp638
g100
g101
ssg82
g627
sg75
(lp639
S':'
asbag68
(g89
g70
NtRp640
(dp641
g73
(dp642
sg82
g627
sg75
(lp643
g68
(g69
g70
NtRp644
(dp645
g73
(dp646
g81
I4
ssg82
g640
sg75
(lp647
g68
(g77
g70
NtRp648
(dp649
g73
(dp650
g81
I3
ssg82
Nsg75
(lp651
g68
(g84
g70
NtRp652
(dp653
g73
(dp654
sg82
g648
sg75
(lp655
g68
(g89
g70
NtRp656
(dp657
g73
(dp658
g93
g94
ssg82
g652
sg75
(lp659
g282
asbag68
(g89
g70
NtRp660
(dp661
g73
(dp662
g100
g101
ssg82
g652
sg75
(lp663
S':'
asbag68
(g89
g70
NtRp664
(dp665
g73
(dp666
sg82
g652
sg75
(lp667
g68
(g69
g70
NtRp668
(dp669
g73
(dp670
g81
I3
ssg82
g664
sg75
(lp671
S''
asbasbasbag68
(g84
g70
NtRp672
(dp673
g73
(dp674
sg82
g648
sg75
(lp675
g68
(g89
g70
NtRp676
(dp677
g73
(dp678
g93
g94
ssg82
g672
sg75
(lp679
g303
asbag68
(g89
g70
NtRp680
(dp681
g73
(dp682
g100
g101
ssg82
g672
sg75
(lp683
S':'
asbag68
(g89
g70
NtRp684
(dp685
g73
(dp686
sg82
g672
sg75
(lp687
g68
(g69
g70
NtRp688
(dp689
g73
(dp690
g81
I3
ssg82
g684
sg75
(lp691
S''
asbasbasbag68
(g84
g70
NtRp692
(dp693
g73
(dp694
sg82
g648
sg75
(lp695
g68
(g89
g70
NtRp696
(dp697
g73
(dp698
g93
g94
ssg82
g692
sg75
(lp699
g324
asbag68
(g89
g70
NtRp700
(dp701
g73
(dp702
g100
g101
ssg82
g692
sg75
(lp703
S':'
asbag68
(g89
g70
NtRp704
(dp705
g73
(dp706
sg82
g692
sg75
(lp707
g68
(g69
g70
NtRp708
(dp709
g73
(dp710
g81
I3
ssg82
g704
sg75
(lp711
S''
asbasbasbag68
(g84
g70
NtRp712
(dp713
g73
(dp714
sg82
g648
sg75
(lp715
g68
(g89
g70
NtRp716
(dp717
g73
(dp718
g93
g94
ssg82
g712
sg75
(lp719
g345
asbag68
(g89
g70
NtRp720
(dp721
g73
(dp722
g100
g101
ssg82
g712
sg75
(lp723
S':'
asbag68
(g89
g70
NtRp724
(dp725
g73
(dp726
sg82
g712
sg75
(lp727
g68
(g69
g70
NtRp728
(dp729
g73
(dp730
g81
I3
ssg82
g724
sg75
(lp731
S''
asbasbasbag68
(g84
g70
NtRp732
(dp733
g73
(dp734
sg82
g648
sg75
(lp735
g68
(g89
g70
NtRp736
(dp737
g73
(dp738
g93
g94
ssg82
g732
sg75
(lp739
g366
asbag68
(g89
g70
NtRp740
(dp741
g73
(dp742
g100
g101
ssg82
g732
sg75
(lp743
S':'
asbag68
(g89
g70
NtRp744
(dp745
g73
(dp746
sg82
g732
sg75
(lp747
g68
(g69
g70
NtRp748
(dp749
g73
(dp750
g81
I3
ssg82
g744
sg75
(lp751
S''
asbasbasbag68
(g84
g70
NtRp752
(dp753
g73
(dp754
sg82
g648
sg75
(lp755
g68
(g89
g70
NtRp756
(dp757
g73
(dp758
g93
g94
ssg82
g752
sg75
(lp759
g387
asbag68
(g89
g70
NtRp760
(dp761
g73
(dp762
g100
g101
ssg82
g752
sg75
(lp763
S':'
asbag68
(g89
g70
NtRp764
(dp765
g73
(dp766
sg82
g752
sg75
(lp767
g68
(g69
g70
NtRp768
(dp769
g73
(dp770
g81
I3
ssg82
g764
sg75
(lp771
S''
asbasbasbag68
(g84
g70
NtRp772
(dp773
g73
(dp774
sg82
g648
sg75
(lp775
g68
(g89
g70
NtRp776
(dp777
g73
(dp778
g93
g94
ssg82
g772
sg75
(lp779
g408
asbag68
(g89
g70
NtRp780
(dp781
g73
(dp782
g100
g101
ssg82
g772
sg75
(lp783
S':'
asbag68
(g89
g70
NtRp784
(dp785
g73
(dp786
sg82
g772
sg75
(lp787
g68
(g69
g70
NtRp788
(dp789
g73
(dp790
g81
I3
ssg82
g784
sg75
(lp791
S''
asbasbasbag68
(g84
g70
NtRp792
(dp793
g73
(dp794
sg82
g648
sg75
(lp795
g68
(g89
g70
NtRp796
(dp797
g73
(dp798
g93
g94
ssg82
g792
sg75
(lp799
g429
asbag68
(g89
g70
NtRp800
(dp801
g73
(dp802
g100
g101
ssg82
g792
sg75
(lp803
S':'
asbag68
(g89
g70
NtRp804
(dp805
g73
(dp806
sg82
g792
sg75
(lp807
g68
(g69
g70
NtRp808
(dp809
g73
(dp810
g81
I3
ssg82
g804
sg75
(lp811
S''
asbasbasbasbasbasbasbag68
(g84
g70
NtRp812
(dp813
g73
(dp814
sg82
g245
sg75
(lp815
g68
(g89
g70
NtRp816
(dp817
g73
(dp818
g93
g94
ssg82
g812
sg75
(lp819
S'session_id_welcome'
p820
asbag68
(g89
g70
NtRp821
(dp822
g73
(dp823
g100
g101
ssg82
g812
sg75
(lp824
S':'
asbag68
(g89
g70
NtRp825
(dp826
g73
(dp827
sg82
g812
sg75
(lp828
g68
(g69
g70
NtRp829
(dp830
g73
(dp831
g81
I4
ssg82
g825
sg75
(lp832
g68
(g77
g70
NtRp833
(dp834
g73
(dp835
g81
I3
ssg82
Nsg75
(lp836
g68
(g84
g70
NtRp837
(dp838
g73
(dp839
sg82
g833
sg75
(lp840
g68
(g89
g70
NtRp841
(dp842
g73
(dp843
g93
g94
ssg82
g837
sg75
(lp844
g282
asbag68
(g89
g70
NtRp845
(dp846
g73
(dp847
g100
g101
ssg82
g837
sg75
(lp848
S':'
asbag68
(g89
g70
NtRp849
(dp850
g73
(dp851
sg82
g837
sg75
(lp852
g68
(g69
g70
NtRp853
(dp854
g73
(dp855
g81
I3
ssg82
g849
sg75
(lp856
S''
asbasbasbag68
(g84
g70
NtRp857
(dp858
g73
(dp859
sg82
g833
sg75
(lp860
g68
(g89
g70
NtRp861
(dp862
g73
(dp863
g93
g94
ssg82
g857
sg75
(lp864
g303
asbag68
(g89
g70
NtRp865
(dp866
g73
(dp867
g100
g101
ssg82
g857
sg75
(lp868
S':'
asbag68
(g89
g70
NtRp869
(dp870
g73
(dp871
sg82
g857
sg75
(lp872
g68
(g69
g70
NtRp873
(dp874
g73
(dp875
g81
I3
ssg82
g869
sg75
(lp876
S''
asbasbasbag68
(g84
g70
NtRp877
(dp878
g73
(dp879
sg82
g833
sg75
(lp880
g68
(g89
g70
NtRp881
(dp882
g73
(dp883
g93
g94
ssg82
g877
sg75
(lp884
g324
asbag68
(g89
g70
NtRp885
(dp886
g73
(dp887
g100
g101
ssg82
g877
sg75
(lp888
S':'
asbag68
(g89
g70
NtRp889
(dp890
g73
(dp891
sg82
g877
sg75
(lp892
g68
(g69
g70
NtRp893
(dp894
g73
(dp895
g81
I3
ssg82
g889
sg75
(lp896
S''
asbasbasbag68
(g84
g70
NtRp897
(dp898
g73
(dp899
sg82
g833
sg75
(lp900
g68
(g89
g70
NtRp901
(dp902
g73
(dp903
g93
g94
ssg82
g897
sg75
(lp904
g345
asbag68
(g89
g70
NtRp905
(dp906
g73
(dp907
g100
g101
ssg82
g897
sg75
(lp908
S':'
asbag68
(g89
g70
NtRp909
(dp910
g73
(dp911
sg82
g897
sg75
(lp912
g68
(g69
g70
NtRp913
(dp914
g73
(dp915
g81
I3
ssg82
g909
sg75
(lp916
S''
asbasbasbag68
(g84
g70
NtRp917
(dp918
g73
(dp919
sg82
g833
sg75
(lp920
g68
(g89
g70
NtRp921
(dp922
g73
(dp923
g93
g94
ssg82
g917
sg75
(lp924
g366
asbag68
(g89
g70
NtRp925
(dp926
g73
(dp927
g100
g101
ssg82
g917
sg75
(lp928
S':'
asbag68
(g89
g70
NtRp929
(dp930
g73
(dp931
sg82
g917
sg75
(lp932
g68
(g69
g70
NtRp933
(dp934
g73
(dp935
g81
I3
ssg82
g929
sg75
(lp936
S''
asbasbasbag68
(g84
g70
NtRp937
(dp938
g73
(dp939
sg82
g833
sg75
(lp940
g68
(g89
g70
NtRp941
(dp942
g73
(dp943
g93
g94
ssg82
g937
sg75
(lp944
g387
asbag68
(g89
g70
NtRp945
(dp946
g73
(dp947
g100
g101
ssg82
g937
sg75
(lp948
S':'
asbag68
(g89
g70
NtRp949
(dp950
g73
(dp951
sg82
g937
sg75
(lp952
g68
(g69
g70
NtRp953
(dp954
g73
(dp955
g81
I3
ssg82
g949
sg75
(lp956
S''
asbasbasbag68
(g84
g70
NtRp957
(dp958
g73
(dp959
sg82
g833
sg75
(lp960
g68
(g89
g70
NtRp961
(dp962
g73
(dp963
g93
g94
ssg82
g957
sg75
(lp964
g408
asbag68
(g89
g70
NtRp965
(dp966
g73
(dp967
g100
g101
ssg82
g957
sg75
(lp968
S':'
asbag68
(g89
g70
NtRp969
(dp970
g73
(dp971
sg82
g957
sg75
(lp972
g68
(g69
g70
NtRp973
(dp974
g73
(dp975
g81
I3
ssg82
g969
sg75
(lp976
S''
asbasbasbag68
(g84
g70
NtRp977
(dp978
g73
(dp979
sg82
g833
sg75
(lp980
g68
(g89
g70
NtRp981
(dp982
g73
(dp983
g93
g94
ssg82
g977
sg75
(lp984
g429
asbag68
(g89
g70
NtRp985
(dp986
g73
(dp987
g100
g101
ssg82
g977
sg75
(lp988
S':'
asbag68
(g89
g70
NtRp989
(dp990
g73
(dp991
sg82
g977
sg75
(lp992
g68
(g69
g70
NtRp993
(dp994
g73
(dp995
g81
I3
ssg82
g989
sg75
(lp996
S''
asbasbasbasbasbasbasbasbasbasbasbag68
(g84
g70
NtRp997
(dp998
g73
(dp999
sg82
g78
sg75
(lp1000
g68
(g89
g70
NtRp1001
(dp1002
g73
(dp1003
g93
g94
ssg82
g997
sg75
(lp1004
S'env'
p1005
asbag68
(g89
g70
NtRp1006
(dp1007
g73
(dp1008
g100
g101
ssg82
g997
sg75
(lp1009
S':'
asbag68
(g89
g70
NtRp1010
(dp1011
g73
(dp1012
sg82
g997
sg75
(lp1013
g68
(g69
g70
NtRp1014
(dp1015
g73
(dp1016
g81
I5
ssg82
g1010
sg75
(lp1017
g68
(g77
g70
NtRp1018
(dp1019
g73
(dp1020
g81
I4
ssg82
Nsg75
(lp1021
g68
(g84
g70
NtRp1022
(dp1023
g73
(dp1024
sg82
g1018
sg75
(lp1025
g68
(g89
g70
NtRp1026
(dp1027
g73
(dp1028
g93
g94
ssg82
g1022
sg75
(lp1029
S'app_folders'
p1030
asbag68
(g89
g70
NtRp1031
(dp1032
g73
(dp1033
g100
g101
ssg82
g1022
sg75
(lp1034
S':'
asbag68
(g89
g70
NtRp1035
(dp1036
g73
(dp1037
sg82
g1022
sg75
(lp1038
g68
(g69
g70
NtRp1039
(dp1040
g73
(dp1041
g81
I4
ssg82
g1035
sg75
(lp1042
S"set(['/home/brencam/web2py/applications/gallery/'])"
p1043
asbasbasbag68
(g84
g70
NtRp1044
(dp1045
g73
(dp1046
sg82
g1018
sg75
(lp1047
g68
(g89
g70
NtRp1048
(dp1049
g73
(dp1050
g93
g94
ssg82
g1044
sg75
(lp1051
S'applications_parent'
p1052
asbag68
(g89
g70
NtRp1053
(dp1054
g73
(dp1055
g100
g101
ssg82
g1044
sg75
(lp1056
S':'
asbag68
(g89
g70
NtRp1057
(dp1058
g73
(dp1059
sg82
g1044
sg75
(lp1060
g68
(g69
g70
NtRp1061
(dp1062
g73
(dp1063
g81
I4
ssg82
g1057
sg75
(lp1064
S'/home/brencam/web2py'
p1065
asbasbasbag68
(g84
g70
NtRp1066
(dp1067
g73
(dp1068
sg82
g1018
sg75
(lp1069
g68
(g89
g70
NtRp1070
(dp1071
g73
(dp1072
g93
g94
ssg82
g1066
sg75
(lp1073
S'cmd_args'
p1074
asbag68
(g89
g70
NtRp1075
(dp1076
g73
(dp1077
g100
g101
ssg82
g1066
sg75
(lp1078
S':'
asbag68
(g89
g70
NtRp1079
(dp1080
g73
(dp1081
sg82
g1066
sg75
(lp1082
g68
(g69
g70
NtRp1083
(dp1084
g73
(dp1085
g81
I4
ssg82
g1079
sg75
(lp1086
g68
(g77
g70
NtRp1087
(dp1088
g73
(dp1089
g81
I3
ssg82
Nsg75
(lp1090
sbasbasbasbag68
(g84
g70
NtRp1091
(dp1092
g73
(dp1093
sg82
g1018
sg75
(lp1094
g68
(g89
g70
NtRp1095
(dp1096
g73
(dp1097
g93
g94
ssg82
g1091
sg75
(lp1098
S'cmd_options'
p1099
asbag68
(g89
g70
NtRp1100
(dp1101
g73
(dp1102
g100
g101
ssg82
g1091
sg75
(lp1103
S':'
asbag68
(g89
g70
NtRp1104
(dp1105
g73
(dp1106
sg82
g1091
sg75
(lp1107
g68
(g69
g70
NtRp1108
(dp1109
g73
(dp1110
g81
I4
ssg82
g1104
sg75
(lp1111
S"<Values at 0x8e5026c: {'verbose': False, 'ip': '127.0.0.1', 'shutdown_timeout': 5, 'taskbar': False, 'nocron': False, 'pid_filename': 'httpserver.pid', 'maxthreads': None, 'softcron': False, 'server_name': 'localhost.localdomain', 'bpython': False, 'nogui': False, 'port': 8000, 'extcron': False, 'debuglevel': 30, 'test': None, 'folder': '/home/brencam/web2py', 'config': '', 'import_models': False, 'winservice': '', 'shell': None, 'run': '', 'log_filename': 'httpserver.log', 'args': [''], 'ssl_ca_certificate': None, 'scheduler': None, 'profiler_filename': None, 'ssl_private_key': '', 'password': 'admin', 'request_queue_size': 5, 'ssl_certificate': '', 'cronjob': False, 'plain': False, 'quiet': False, 'interfaces': None, 'minthreads': None, 'timeout': 10, 'numthreads': None, 'nobanner': False}>"
p1112
asbasbasbag68
(g84
g70
NtRp1113
(dp1114
g73
(dp1115
sg82
g1018
sg75
(lp1116
g68
(g89
g70
NtRp1117
(dp1118
g73
(dp1119
g93
g94
ssg82
g1113
sg75
(lp1120
S'content_type'
p1121
asbag68
(g89
g70
NtRp1122
(dp1123
g73
(dp1124
g100
g101
ssg82
g1113
sg75
(lp1125
S':'
asbag68
(g89
g70
NtRp1126
(dp1127
g73
(dp1128
sg82
g1113
sg75
(lp1129
g68
(g69
g70
NtRp1130
(dp1131
g73
(dp1132
g81
I4
ssg82
g1126
sg75
(lp1133
S'application/x-www-form-urlencoded'
p1134
asbasbasbag68
(g84
g70
NtRp1135
(dp1136
g73
(dp1137
sg82
g1018
sg75
(lp1138
g68
(g89
g70
NtRp1139
(dp1140
g73
(dp1141
g93
g94
ssg82
g1135
sg75
(lp1142
S'db_sessions'
p1143
asbag68
(g89
g70
NtRp1144
(dp1145
g73
(dp1146
g100
g101
ssg82
g1135
sg75
(lp1147
S':'
asbag68
(g89
g70
NtRp1148
(dp1149
g73
(dp1150
sg82
g1135
sg75
(lp1151
g68
(g69
g70
NtRp1152
(dp1153
g73
(dp1154
g81
I4
ssg82
g1148
sg75
(lp1155
S'set([])'
p1156
asbasbasbag68
(g84
g70
NtRp1157
(dp1158
g73
(dp1159
sg82
g1018
sg75
(lp1160
g68
(g89
g70
NtRp1161
(dp1162
g73
(dp1163
g93
g94
ssg82
g1157
sg75
(lp1164
S'debugging'
p1165
asbag68
(g89
g70
NtRp1166
(dp1167
g73
(dp1168
g100
g101
ssg82
g1157
sg75
(lp1169
S':'
asbag68
(g89
g70
NtRp1170
(dp1171
g73
(dp1172
sg82
g1157
sg75
(lp1173
g68
(g69
g70
NtRp1174
(dp1175
g73
(dp1176
g81
I4
ssg82
g1170
sg75
(lp1177
S'False'
p1178
asbasbasbag68
(g84
g70
NtRp1179
(dp1180
g73
(dp1181
sg82
g1018
sg75
(lp1182
g68
(g89
g70
NtRp1183
(dp1184
g73
(dp1185
g93
g94
ssg82
g1179
sg75
(lp1186
S'gluon_parent'
p1187
asbag68
(g89
g70
NtRp1188
(dp1189
g73
(dp1190
g100
g101
ssg82
g1179
sg75
(lp1191
S':'
asbag68
(g89
g70
NtRp1192
(dp1193
g73
(dp1194
sg82
g1179
sg75
(lp1195
g68
(g69
g70
NtRp1196
(dp1197
g73
(dp1198
g81
I4
ssg82
g1192
sg75
(lp1199
S'/home/brencam/web2py'
p1200
asbasbasbag68
(g84
g70
NtRp1201
(dp1202
g73
(dp1203
sg82
g1018
sg75
(lp1204
g68
(g89
g70
NtRp1205
(dp1206
g73
(dp1207
g93
g94
ssg82
g1201
sg75
(lp1208
S'http_accept'
p1209
asbag68
(g89
g70
NtRp1210
(dp1211
g73
(dp1212
g100
g101
ssg82
g1201
sg75
(lp1213
S':'
asbag68
(g89
g70
NtRp1214
(dp1215
g73
(dp1216
sg82
g1201
sg75
(lp1217
g68
(g69
g70
NtRp1218
(dp1219
g73
(dp1220
g81
I4
ssg82
g1214
sg75
(lp1221
S'*/*'
p1222
asbasbasbag68
(g84
g70
NtRp1223
(dp1224
g73
(dp1225
sg82
g1018
sg75
(lp1226
g68
(g89
g70
NtRp1227
(dp1228
g73
(dp1229
g93
g94
ssg82
g1223
sg75
(lp1230
S'http_accept_charset'
p1231
asbag68
(g89
g70
NtRp1232
(dp1233
g73
(dp1234
g100
g101
ssg82
g1223
sg75
(lp1235
S':'
asbag68
(g89
g70
NtRp1236
(dp1237
g73
(dp1238
sg82
g1223
sg75
(lp1239
g68
(g69
g70
NtRp1240
(dp1241
g73
(dp1242
g81
I4
ssg82
g1236
sg75
(lp1243
S'ISO-8859-1,utf-8;q=0.7,*;q=0.3'
p1244
asbasbasbag68
(g84
g70
NtRp1245
(dp1246
g73
(dp1247
sg82
g1018
sg75
(lp1248
g68
(g89
g70
NtRp1249
(dp1250
g73
(dp1251
g93
g94
ssg82
g1245
sg75
(lp1252
S'http_accept_encoding'
p1253
asbag68
(g89
g70
NtRp1254
(dp1255
g73
(dp1256
g100
g101
ssg82
g1245
sg75
(lp1257
S':'
asbag68
(g89
g70
NtRp1258
(dp1259
g73
(dp1260
sg82
g1245
sg75
(lp1261
g68
(g69
g70
NtRp1262
(dp1263
g73
(dp1264
g81
I4
ssg82
g1258
sg75
(lp1265
S'gzip,deflate,sdch'
p1266
asbasbasbag68
(g84
g70
NtRp1267
(dp1268
g73
(dp1269
sg82
g1018
sg75
(lp1270
g68
(g89
g70
NtRp1271
(dp1272
g73
(dp1273
g93
g94
ssg82
g1267
sg75
(lp1274
S'http_accept_language'
p1275
asbag68
(g89
g70
NtRp1276
(dp1277
g73
(dp1278
g100
g101
ssg82
g1267
sg75
(lp1279
S':'
asbag68
(g89
g70
NtRp1280
(dp1281
g73
(dp1282
sg82
g1267
sg75
(lp1283
g68
(g69
g70
NtRp1284
(dp1285
g73
(dp1286
g81
I4
ssg82
g1280
sg75
(lp1287
S'en-US,en;q=0.8'
p1288
asbasbasbag68
(g84
g70
NtRp1289
(dp1290
g73
(dp1291
sg82
g1018
sg75
(lp1292
g68
(g89
g70
NtRp1293
(dp1294
g73
(dp1295
g93
g94
ssg82
g1289
sg75
(lp1296
S'http_connection'
p1297
asbag68
(g89
g70
NtRp1298
(dp1299
g73
(dp1300
g100
g101
ssg82
g1289
sg75
(lp1301
S':'
asbag68
(g89
g70
NtRp1302
(dp1303
g73
(dp1304
sg82
g1289
sg75
(lp1305
g68
(g69
g70
NtRp1306
(dp1307
g73
(dp1308
g81
I4
ssg82
g1302
sg75
(lp1309
S'keep-alive'
p1310
asbasbasbag68
(g84
g70
NtRp1311
(dp1312
g73
(dp1313
sg82
g1018
sg75
(lp1314
g68
(g89
g70
NtRp1315
(dp1316
g73
(dp1317
g93
g94
ssg82
g1311
sg75
(lp1318
S'http_content_type'
p1319
asbag68
(g89
g70
NtRp1320
(dp1321
g73
(dp1322
g100
g101
ssg82
g1311
sg75
(lp1323
S':'
asbag68
(g89
g70
NtRp1324
(dp1325
g73
(dp1326
sg82
g1311
sg75
(lp1327
g68
(g69
g70
NtRp1328
(dp1329
g73
(dp1330
g81
I4
ssg82
g1324
sg75
(lp1331
g1134
asbasbasbag68
(g84
g70
NtRp1332
(dp1333
g73
(dp1334
sg82
g1018
sg75
(lp1335
g68
(g89
g70
NtRp1336
(dp1337
g73
(dp1338
g93
g94
ssg82
g1332
sg75
(lp1339
S'http_cookie'
p1340
asbag68
(g89
g70
NtRp1341
(dp1342
g73
(dp1343
g100
g101
ssg82
g1332
sg75
(lp1344
S':'
asbag68
(g89
g70
NtRp1345
(dp1346
g73
(dp1347
sg82
g1332
sg75
(lp1348
g68
(g69
g70
NtRp1349
(dp1350
g73
(dp1351
g81
I4
ssg82
g1345
sg75
(lp1352
S'__utma=96992031.552746526.1281494094.1291180555.1291186411.9; csrftoken=7b3621df70ed8d65c15785486fff8908; __utma_a2a=7438973308.1350086890.1318529964.1318645324.1318645410.28; session_id_welcome=127.0.0.1-9322c3cc-e1a6-4fc2-b7c8-5cd888a9f623; session_id_admin=127.0.0.1-b8619749-4c92-404b-8804-b812f3f5a3ed; session_id_gallery=127.0.0.1-5764d7f9-8178-4db1-bc94-76589577a2e3'
p1353
asbasbasbag68
(g84
g70
NtRp1354
(dp1355
g73
(dp1356
sg82
g1018
sg75
(lp1357
g68
(g89
g70
NtRp1358
(dp1359
g73
(dp1360
g93
g94
ssg82
g1354
sg75
(lp1361
S'http_host'
p1362
asbag68
(g89
g70
NtRp1363
(dp1364
g73
(dp1365
g100
g101
ssg82
g1354
sg75
(lp1366
S':'
asbag68
(g89
g70
NtRp1367
(dp1368
g73
(dp1369
sg82
g1354
sg75
(lp1370
g68
(g69
g70
NtRp1371
(dp1372
g73
(dp1373
g81
I4
ssg82
g1367
sg75
(lp1374
S'127.0.0.1:8000'
p1375
asbasbasbag68
(g84
g70
NtRp1376
(dp1377
g73
(dp1378
sg82
g1018
sg75
(lp1379
g68
(g89
g70
NtRp1380
(dp1381
g73
(dp1382
g93
g94
ssg82
g1376
sg75
(lp1383
S'http_referer'
p1384
asbag68
(g89
g70
NtRp1385
(dp1386
g73
(dp1387
g100
g101
ssg82
g1376
sg75
(lp1388
S':'
asbag68
(g89
g70
NtRp1389
(dp1390
g73
(dp1391
sg82
g1376
sg75
(lp1392
g68
(g69
g70
NtRp1393
(dp1394
g73
(dp1395
g81
I4
ssg82
g1389
sg75
(lp1396
S'http://127.0.0.1:8000/gallery/default/sendform'
p1397
asbasbasbag68
(g84
g70
NtRp1398
(dp1399
g73
(dp1400
sg82
g1018
sg75
(lp1401
g68
(g89
g70
NtRp1402
(dp1403
g73
(dp1404
g93
g94
ssg82
g1398
sg75
(lp1405
S'http_user_agent'
p1406
asbag68
(g89
g70
NtRp1407
(dp1408
g73
(dp1409
g100
g101
ssg82
g1398
sg75
(lp1410
S':'
asbag68
(g89
g70
NtRp1411
(dp1412
g73
(dp1413
sg82
g1398
sg75
(lp1414
g68
(g69
g70
NtRp1415
(dp1416
g73
(dp1417
g81
I4
ssg82
g1411
sg75
(lp1418
S'Mozilla/5.0 (X11; Linux i686) AppleWebKit/535.1 (KHTML, like Gecko) Chrome/14.0.835.204 Safari/535.1'
p1419
asbasbasbag68
(g84
g70
NtRp1420
(dp1421
g73
(dp1422
sg82
g1018
sg75
(lp1423
g68
(g89
g70
NtRp1424
(dp1425
g73
(dp1426
g93
g94
ssg82
g1420
sg75
(lp1427
S'http_x_requested_with'
p1428
asbag68
(g89
g70
NtRp1429
(dp1430
g73
(dp1431
g100
g101
ssg82
g1420
sg75
(lp1432
S':'
asbag68
(g89
g70
NtRp1433
(dp1434
g73
(dp1435
sg82
g1420
sg75
(lp1436
g68
(g69
g70
NtRp1437
(dp1438
g73
(dp1439
g81
I4
ssg82
g1433
sg75
(lp1440
S'XMLHttpRequest'
p1441
asbasbasbag68
(g84
g70
NtRp1442
(dp1443
g73
(dp1444
sg82
g1018
sg75
(lp1445
g68
(g89
g70
NtRp1446
(dp1447
g73
(dp1448
g93
g94
ssg82
g1442
sg75
(lp1449
S'is_jython'
p1450
asbag68
(g89
g70
NtRp1451
(dp1452
g73
(dp1453
g100
g101
ssg82
g1442
sg75
(lp1454
S':'
asbag68
(g89
g70
NtRp1455
(dp1456
g73
(dp1457
sg82
g1442
sg75
(lp1458
g68
(g69
g70
NtRp1459
(dp1460
g73
(dp1461
g81
I4
ssg82
g1455
sg75
(lp1462
g1178
asbasbasbag68
(g84
g70
NtRp1463
(dp1464
g73
(dp1465
sg82
g1018
sg75
(lp1466
g68
(g89
g70
NtRp1467
(dp1468
g73
(dp1469
g93
g94
ssg82
g1463
sg75
(lp1470
S'path_info'
p1471
asbag68
(g89
g70
NtRp1472
(dp1473
g73
(dp1474
g100
g101
ssg82
g1463
sg75
(lp1475
S':'
asbag68
(g89
g70
NtRp1476
(dp1477
g73
(dp1478
sg82
g1463
sg75
(lp1479
g68
(g69
g70
NtRp1480
(dp1481
g73
(dp1482
g81
I4
ssg82
g1476
sg75
(lp1483
S'/gallery/search/getnames'
p1484
asbasbasbag68
(g84
g70
NtRp1485
(dp1486
g73
(dp1487
sg82
g1018
sg75
(lp1488
g68
(g89
g70
NtRp1489
(dp1490
g73
(dp1491
g93
g94
ssg82
g1485
sg75
(lp1492
S'query_string'
p1493
asbag68
(g89
g70
NtRp1494
(dp1495
g73
(dp1496
g100
g101
ssg82
g1485
sg75
(lp1497
S':'
asbag68
(g89
g70
NtRp1498
(dp1499
g73
(dp1500
sg82
g1485
sg75
(lp1501
g68
(g69
g70
NtRp1502
(dp1503
g73
(dp1504
g81
I4
ssg82
g1498
sg75
(lp1505
S'q=p'
p1506
asbasbasbag68
(g84
g70
NtRp1507
(dp1508
g73
(dp1509
sg82
g1018
sg75
(lp1510
g68
(g89
g70
NtRp1511
(dp1512
g73
(dp1513
g93
g94
ssg82
g1507
sg75
(lp1514
S'remote_addr'
p1515
asbag68
(g89
g70
NtRp1516
(dp1517
g73
(dp1518
g100
g101
ssg82
g1507
sg75
(lp1519
S':'
asbag68
(g89
g70
NtRp1520
(dp1521
g73
(dp1522
sg82
g1507
sg75
(lp1523
g68
(g69
g70
NtRp1524
(dp1525
g73
(dp1526
g81
I4
ssg82
g1520
sg75
(lp1527
g201
asbasbasbag68
(g84
g70
NtRp1528
(dp1529
g73
(dp1530
sg82
g1018
sg75
(lp1531
g68
(g89
g70
NtRp1532
(dp1533
g73
(dp1534
g93
g94
ssg82
g1528
sg75
(lp1535
S'remote_port'
p1536
asbag68
(g89
g70
NtRp1537
(dp1538
g73
(dp1539
g100
g101
ssg82
g1528
sg75
(lp1540
S':'
asbag68
(g89
g70
NtRp1541
(dp1542
g73
(dp1543
sg82
g1528
sg75
(lp1544
g68
(g69
g70
NtRp1545
(dp1546
g73
(dp1547
g81
I4
ssg82
g1541
sg75
(lp1548
S'58176'
p1549
asbasbasbag68
(g84
g70
NtRp1550
(dp1551
g73
(dp1552
sg82
g1018
sg75
(lp1553
g68
(g89
g70
NtRp1554
(dp1555
g73
(dp1556
g93
g94
ssg82
g1550
sg75
(lp1557
S'request_method'
p1558
asbag68
(g89
g70
NtRp1559
(dp1560
g73
(dp1561
g100
g101
ssg82
g1550
sg75
(lp1562
S':'
asbag68
(g89
g70
NtRp1563
(dp1564
g73
(dp1565
sg82
g1550
sg75
(lp1566
g68
(g69
g70
NtRp1567
(dp1568
g73
(dp1569
g81
I4
ssg82
g1563
sg75
(lp1570
S'GET'
p1571
asbasbasbag68
(g84
g70
NtRp1572
(dp1573
g73
(dp1574
sg82
g1018
sg75
(lp1575
g68
(g89
g70
NtRp1576
(dp1577
g73
(dp1578
g93
g94
ssg82
g1572
sg75
(lp1579
S'script_name'
p1580
asbag68
(g89
g70
NtRp1581
(dp1582
g73
(dp1583
g100
g101
ssg82
g1572
sg75
(lp1584
S':'
asbag68
(g89
g70
NtRp1585
(dp1586
g73
(dp1587
sg82
g1572
sg75
(lp1588
g68
(g69
g70
NtRp1589
(dp1590
g73
(dp1591
g81
I4
ssg82
g1585
sg75
(lp1592
S''
asbasbasbag68
(g84
g70
NtRp1593
(dp1594
g73
(dp1595
sg82
g1018
sg75
(lp1596
g68
(g89
g70
NtRp1597
(dp1598
g73
(dp1599
g93
g94
ssg82
g1593
sg75
(lp1600
S'server_name'
p1601
asbag68
(g89
g70
NtRp1602
(dp1603
g73
(dp1604
g100
g101
ssg82
g1593
sg75
(lp1605
S':'
asbag68
(g89
g70
NtRp1606
(dp1607
g73
(dp1608
sg82
g1593
sg75
(lp1609
g68
(g69
g70
NtRp1610
(dp1611
g73
(dp1612
g81
I4
ssg82
g1606
sg75
(lp1613
S'localhost.localdomain'
p1614
asbasbasbag68
(g84
g70
NtRp1615
(dp1616
g73
(dp1617
sg82
g1018
sg75
(lp1618
g68
(g89
g70
NtRp1619
(dp1620
g73
(dp1621
g93
g94
ssg82
g1615
sg75
(lp1622
S'server_port'
p1623
asbag68
(g89
g70
NtRp1624
(dp1625
g73
(dp1626
g100
g101
ssg82
g1615
sg75
(lp1627
S':'
asbag68
(g89
g70
NtRp1628
(dp1629
g73
(dp1630
sg82
g1615
sg75
(lp1631
g68
(g69
g70
NtRp1632
(dp1633
g73
(dp1634
g81
I4
ssg82
g1628
sg75
(lp1635
S'8000'
p1636
asbasbasbag68
(g84
g70
NtRp1637
(dp1638
g73
(dp1639
sg82
g1018
sg75
(lp1640
g68
(g89
g70
NtRp1641
(dp1642
g73
(dp1643
g93
g94
ssg82
g1637
sg75
(lp1644
S'server_protocol'
p1645
asbag68
(g89
g70
NtRp1646
(dp1647
g73
(dp1648
g100
g101
ssg82
g1637
sg75
(lp1649
S':'
asbag68
(g89
g70
NtRp1650
(dp1651
g73
(dp1652
sg82
g1637
sg75
(lp1653
g68
(g69
g70
NtRp1654
(dp1655
g73
(dp1656
g81
I4
ssg82
g1650
sg75
(lp1657
S'HTTP/1.1'
p1658
asbasbasbag68
(g84
g70
NtRp1659
(dp1660
g73
(dp1661
sg82
g1018
sg75
(lp1662
g68
(g89
g70
NtRp1663
(dp1664
g73
(dp1665
g93
g94
ssg82
g1659
sg75
(lp1666
S'server_software'
p1667
asbag68
(g89
g70
NtRp1668
(dp1669
g73
(dp1670
g100
g101
ssg82
g1659
sg75
(lp1671
S':'
asbag68
(g89
g70
NtRp1672
(dp1673
g73
(dp1674
sg82
g1659
sg75
(lp1675
g68
(g69
g70
NtRp1676
(dp1677
g73
(dp1678
g81
I4
ssg82
g1672
sg75
(lp1679
S'Rocket 1.2.4'
p1680
asbasbasbag68
(g84
g70
NtRp1681
(dp1682
g73
(dp1683
sg82
g1018
sg75
(lp1684
g68
(g89
g70
NtRp1685
(dp1686
g73
(dp1687
g93
g94
ssg82
g1681
sg75
(lp1688
S'web2py_crontype'
p1689
asbag68
(g89
g70
NtRp1690
(dp1691
g73
(dp1692
g100
g101
ssg82
g1681
sg75
(lp1693
S':'
asbag68
(g89
g70
NtRp1694
(dp1695
g73
(dp1696
sg82
g1681
sg75
(lp1697
g68
(g69
g70
NtRp1698
(dp1699
g73
(dp1700
g81
I4
ssg82
g1694
sg75
(lp1701
S'hard'
p1702
asbasbasbag68
(g84
g70
NtRp1703
(dp1704
g73
(dp1705
sg82
g1018
sg75
(lp1706
g68
(g89
g70
NtRp1707
(dp1708
g73
(dp1709
g93
g94
ssg82
g1703
sg75
(lp1710
S'web2py_path'
p1711
asbag68
(g89
g70
NtRp1712
(dp1713
g73
(dp1714
g100
g101
ssg82
g1703
sg75
(lp1715
S':'
asbag68
(g89
g70
NtRp1716
(dp1717
g73
(dp1718
sg82
g1703
sg75
(lp1719
g68
(g69
g70
NtRp1720
(dp1721
g73
(dp1722
g81
I4
ssg82
g1716
sg75
(lp1723
g1065
asbasbasbag68
(g84
g70
NtRp1724
(dp1725
g73
(dp1726
sg82
g1018
sg75
(lp1727
g68
(g89
g70
NtRp1728
(dp1729
g73
(dp1730
g93
g94
ssg82
g1724
sg75
(lp1731
S'web2py_version'
p1732
asbag68
(g89
g70
NtRp1733
(dp1734
g73
(dp1735
g100
g101
ssg82
g1724
sg75
(lp1736
S':'
asbag68
(g89
g70
NtRp1737
(dp1738
g73
(dp1739
sg82
g1724
sg75
(lp1740
g68
(g69
g70
NtRp1741
(dp1742
g73
(dp1743
g81
I4
ssg82
g1737
sg75
(lp1744
g68
(g77
g70
NtRp1745
(dp1746
g73
(dp1747
g81
I3
ssg82
Nsg75
(lp1748
g68
(g84
g70
NtRp1749
(dp1750
g73
(dp1751
sg82
g1745
sg75
(lp1752
g68
(g89
g70
NtRp1753
(dp1754
g73
(dp1755
sg82
g1749
sg75
(lp1756
g68
(g69
g70
NtRp1757
(dp1758
g73
(dp1759
g81
I3
ssg82
g1753
sg75
(lp1760
S'1'
asbasbasbag68
(g84
g70
NtRp1761
(dp1762
g73
(dp1763
sg82
g1745
sg75
(lp1764
g68
(g89
g70
NtRp1765
(dp1766
g73
(dp1767
sg82
g1761
sg75
(lp1768
g68
(g69
g70
NtRp1769
(dp1770
g73
(dp1771
g81
I3
ssg82
g1765
sg75
(lp1772
S'99'
p1773
asbasbasbag68
(g84
g70
NtRp1774
(dp1775
g73
(dp1776
sg82
g1745
sg75
(lp1777
g68
(g89
g70
NtRp1778
(dp1779
g73
(dp1780
sg82
g1774
sg75
(lp1781
g68
(g69
g70
NtRp1782
(dp1783
g73
(dp1784
g81
I3
ssg82
g1778
sg75
(lp1785
S'2'
asbasbasbag68
(g84
g70
NtRp1786
(dp1787
g73
(dp1788
sg82
g1745
sg75
(lp1789
g68
(g89
g70
NtRp1790
(dp1791
g73
(dp1792
sg82
g1786
sg75
(lp1793
g68
(g69
g70
NtRp1794
(dp1795
g73
(dp1796
g81
I3
ssg82
g1790
sg75
(lp1797
S'datetime.datetime(2011, 9, 26, 6, 55, 33)'
p1798
asbasbasbag68
(g84
g70
NtRp1799
(dp1800
g73
(dp1801
sg82
g1745
sg75
(lp1802
g68
(g89
g70
NtRp1803
(dp1804
g73
(dp1805
sg82
g1799
sg75
(lp1806
g68
(g69
g70
NtRp1807
(dp1808
g73
(dp1809
g81
I3
ssg82
g1803
sg75
(lp1810
S'stable'
p1811
asbasbasbasbasbasbasbag68
(g84
g70
NtRp1812
(dp1813
g73
(dp1814
sg82
g1018
sg75
(lp1815
g68
(g89
g70
NtRp1816
(dp1817
g73
(dp1818
g93
g94
ssg82
g1812
sg75
(lp1819
S'wsgi_errors'
p1820
asbag68
(g89
g70
NtRp1821
(dp1822
g73
(dp1823
g100
g101
ssg82
g1812
sg75
(lp1824
S':'
asbag68
(g89
g70
NtRp1825
(dp1826
g73
(dp1827
sg82
g1812
sg75
(lp1828
g68
(g69
g70
NtRp1829
(dp1830
g73
(dp1831
g81
I4
ssg82
g1825
sg75
(lp1832
S"<open file '<stderr>', mode 'w' at 0xb75610d0>"
p1833
asbasbasbag68
(g84
g70
NtRp1834
(dp1835
g73
(dp1836
sg82
g1018
sg75
(lp1837
g68
(g89
g70
NtRp1838
(dp1839
g73
(dp1840
g93
g94
ssg82
g1834
sg75
(lp1841
S'wsgi_file_wrapper'
p1842
asbag68
(g89
g70
NtRp1843
(dp1844
g73
(dp1845
g100
g101
ssg82
g1834
sg75
(lp1846
S':'
asbag68
(g89
g70
NtRp1847
(dp1848
g73
(dp1849
sg82
g1834
sg75
(lp1850
g68
(g69
g70
NtRp1851
(dp1852
g73
(dp1853
g81
I4
ssg82
g1847
sg75
(lp1854
S'<class wsgiref.util.FileWrapper at 0x8a4d50c>'
p1855
asbasbasbag68
(g84
g70
NtRp1856
(dp1857
g73
(dp1858
sg82
g1018
sg75
(lp1859
g68
(g89
g70
NtRp1860
(dp1861
g73
(dp1862
g93
g94
ssg82
g1856
sg75
(lp1863
S'wsgi_input'
p1864
asbag68
(g89
g70
NtRp1865
(dp1866
g73
(dp1867
g100
g101
ssg82
g1856
sg75
(lp1868
S':'
asbag68
(g89
g70
NtRp1869
(dp1870
g73
(dp1871
sg82
g1856
sg75
(lp1872
g68
(g69
g70
NtRp1873
(dp1874
g73
(dp1875
g81
I4
ssg82
g1869
sg75
(lp1876
S'<socket._fileobject object at 0xaf7118ec>'
p1877
asbasbasbag68
(g84
g70
NtRp1878
(dp1879
g73
(dp1880
sg82
g1018
sg75
(lp1881
g68
(g89
g70
NtRp1882
(dp1883
g73
(dp1884
g93
g94
ssg82
g1878
sg75
(lp1885
S'wsgi_multiprocess'
p1886
asbag68
(g89
g70
NtRp1887
(dp1888
g73
(dp1889
g100
g101
ssg82
g1878
sg75
(lp1890
S':'
asbag68
(g89
g70
NtRp1891
(dp1892
g73
(dp1893
sg82
g1878
sg75
(lp1894
g68
(g69
g70
NtRp1895
(dp1896
g73
(dp1897
g81
I4
ssg82
g1891
sg75
(lp1898
g1178
asbasbasbag68
(g84
g70
NtRp1899
(dp1900
g73
(dp1901
sg82
g1018
sg75
(lp1902
g68
(g89
g70
NtRp1903
(dp1904
g73
(dp1905
g93
g94
ssg82
g1899
sg75
(lp1906
S'wsgi_multithread'
p1907
asbag68
(g89
g70
NtRp1908
(dp1909
g73
(dp1910
g100
g101
ssg82
g1899
sg75
(lp1911
S':'
asbag68
(g89
g70
NtRp1912
(dp1913
g73
(dp1914
sg82
g1899
sg75
(lp1915
g68
(g69
g70
NtRp1916
(dp1917
g73
(dp1918
g81
I4
ssg82
g1912
sg75
(lp1919
g111
asbasbasbag68
(g84
g70
NtRp1920
(dp1921
g73
(dp1922
sg82
g1018
sg75
(lp1923
g68
(g89
g70
NtRp1924
(dp1925
g73
(dp1926
g93
g94
ssg82
g1920
sg75
(lp1927
S'wsgi_run_once'
p1928
asbag68
(g89
g70
NtRp1929
(dp1930
g73
(dp1931
g100
g101
ssg82
g1920
sg75
(lp1932
S':'
asbag68
(g89
g70
NtRp1933
(dp1934
g73
(dp1935
sg82
g1920
sg75
(lp1936
g68
(g69
g70
NtRp1937
(dp1938
g73
(dp1939
g81
I4
ssg82
g1933
sg75
(lp1940
g1178
asbasbasbag68
(g84
g70
NtRp1941
(dp1942
g73
(dp1943
sg82
g1018
sg75
(lp1944
g68
(g89
g70
NtRp1945
(dp1946
g73
(dp1947
g93
g94
ssg82
g1941
sg75
(lp1948
S'wsgi_url_scheme'
p1949
asbag68
(g89
g70
NtRp1950
(dp1951
g73
(dp1952
g100
g101
ssg82
g1941
sg75
(lp1953
S':'
asbag68
(g89
g70
NtRp1954
(dp1955
g73
(dp1956
sg82
g1941
sg75
(lp1957
g68
(g69
g70
NtRp1958
(dp1959
g73
(dp1960
g81
I4
ssg82
g1954
sg75
(lp1961
S'http'
p1962
asbasbasbag68
(g84
g70
NtRp1963
(dp1964
g73
(dp1965
sg82
g1018
sg75
(lp1966
g68
(g89
g70
NtRp1967
(dp1968
g73
(dp1969
g93
g94
ssg82
g1963
sg75
(lp1970
S'wsgi_version'
p1971
asbag68
(g89
g70
NtRp1972
(dp1973
g73
(dp1974
g100
g101
ssg82
g1963
sg75
(lp1975
S':'
asbag68
(g89
g70
NtRp1976
(dp1977
g73
(dp1978
sg82
g1963
sg75
(lp1979
g68
(g69
g70
NtRp1980
(dp1981
g73
(dp1982
g81
I4
ssg82
g1976
sg75
(lp1983
g68
(g77
g70
NtRp1984
(dp1985
g73
(dp1986
g81
I3
ssg82
Nsg75
(lp1987
g68
(g84
g70
NtRp1988
(dp1989
g73
(dp1990
sg82
g1984
sg75
(lp1991
g68
(g89
g70
NtRp1992
(dp1993
g73
(dp1994
sg82
g1988
sg75
(lp1995
g68
(g69
g70
NtRp1996
(dp1997
g73
(dp1998
g81
I3
ssg82
g1992
sg75
(lp1999
S'1'
asbasbasbag68
(g84
g70
NtRp2000
(dp2001
g73
(dp2002
sg82
g1984
sg75
(lp2003
g68
(g89
g70
NtRp2004
(dp2005
g73
(dp2006
sg82
g2000
sg75
(lp2007
g68
(g69
g70
NtRp2008
(dp2009
g73
(dp2010
g81
I3
ssg82
g2004
sg75
(lp2011
S'0'
asbasbasbasbasbasbasbasbasbasbasbag68
(g84
g70
NtRp2012
(dp2013
g73
(dp2014
sg82
g78
sg75
(lp2015
g68
(g89
g70
NtRp2016
(dp2017
g73
(dp2018
g93
g94
ssg82
g2012
sg75
(lp2019
S'extension'
p2020
asbag68
(g89
g70
NtRp2021
(dp2022
g73
(dp2023
g100
g101
ssg82
g2012
sg75
(lp2024
S':'
asbag68
(g89
g70
NtRp2025
(dp2026
g73
(dp2027
sg82
g2012
sg75
(lp2028
g68
(g69
g70
NtRp2029
(dp2030
g73
(dp2031
g81
I5
ssg82
g2025
sg75
(lp2032
S'html'
p2033
asbasbasbag68
(g84
g70
NtRp2034
(dp2035
g73
(dp2036
sg82
g78
sg75
(lp2037
g68
(g89
g70
NtRp2038
(dp2039
g73
(dp2040
g93
g94
ssg82
g2034
sg75
(lp2041
S'folder'
p2042
asbag68
(g89
g70
NtRp2043
(dp2044
g73
(dp2045
g100
g101
ssg82
g2034
sg75
(lp2046
S':'
asbag68
(g89
g70
NtRp2047
(dp2048
g73
(dp2049
sg82
g2034
sg75
(lp2050
g68
(g69
g70
NtRp2051
(dp2052
g73
(dp2053
g81
I5
ssg82
g2047
sg75
(lp2054
S'/home/brencam/web2py/applications/gallery/'
p2055
asbasbasbag68
(g84
g70
NtRp2056
(dp2057
g73
(dp2058
sg82
g78
sg75
(lp2059
g68
(g89
g70
NtRp2060
(dp2061
g73
(dp2062
g93
g94
ssg82
g2056
sg75
(lp2063
S'function'
p2064
asbag68
(g89
g70
NtRp2065
(dp2066
g73
(dp2067
g100
g101
ssg82
g2056
sg75
(lp2068
S':'
asbag68
(g89
g70
NtRp2069
(dp2070
g73
(dp2071
sg82
g2056
sg75
(lp2072
g68
(g69
g70
NtRp2073
(dp2074
g73
(dp2075
g81
I5
ssg82
g2069
sg75
(lp2076
S'getnames'
p2077
asbasbasbag68
(g84
g70
NtRp2078
(dp2079
g73
(dp2080
sg82
g78
sg75
(lp2081
g68
(g89
g70
NtRp2082
(dp2083
g73
(dp2084
g93
g94
ssg82
g2078
sg75
(lp2085
S'get_vars'
p2086
asbag68
(g89
g70
NtRp2087
(dp2088
g73
(dp2089
g100
g101
ssg82
g2078
sg75
(lp2090
S':'
asbag68
(g89
g70
NtRp2091
(dp2092
g73
(dp2093
sg82
g2078
sg75
(lp2094
g68
(g69
g70
NtRp2095
(dp2096
g73
(dp2097
g81
I5
ssg82
g2091
sg75
(lp2098
g68
(g77
g70
NtRp2099
(dp2100
g73
(dp2101
g81
I4
ssg82
Nsg75
(lp2102
g68
(g84
g70
NtRp2103
(dp2104
g73
(dp2105
sg82
g2099
sg75
(lp2106
g68
(g89
g70
NtRp2107
(dp2108
g73
(dp2109
g93
g94
ssg82
g2103
sg75
(lp2110
S'q'
asbag68
(g89
g70
NtRp2111
(dp2112
g73
(dp2113
g100
g101
ssg82
g2103
sg75
(lp2114
S':'
asbag68
(g89
g70
NtRp2115
(dp2116
g73
(dp2117
sg82
g2103
sg75
(lp2118
g68
(g69
g70
NtRp2119
(dp2120
g73
(dp2121
g81
I4
ssg82
g2115
sg75
(lp2122
S'p'
asbasbasbasbasbasbasbag68
(g84
g70
NtRp2123
(dp2124
g73
(dp2125
sg82
g78
sg75
(lp2126
g68
(g89
g70
NtRp2127
(dp2128
g73
(dp2129
g93
g94
ssg82
g2123
sg75
(lp2130
S'global_settings'
p2131
asbag68
(g89
g70
NtRp2132
(dp2133
g73
(dp2134
g100
g101
ssg82
g2123
sg75
(lp2135
S':'
asbag68
(g89
g70
NtRp2136
(dp2137
g73
(dp2138
sg82
g2123
sg75
(lp2139
g68
(g69
g70
NtRp2140
(dp2141
g73
(dp2142
g81
I5
ssg82
g2136
sg75
(lp2143
g68
(g77
g70
NtRp2144
(dp2145
g73
(dp2146
g81
I4
ssg82
Nsg75
(lp2147
g68
(g84
g70
NtRp2148
(dp2149
g73
(dp2150
sg82
g2144
sg75
(lp2151
g68
(g89
g70
NtRp2152
(dp2153
g73
(dp2154
g93
g94
ssg82
g2148
sg75
(lp2155
g1030
asbag68
(g89
g70
NtRp2156
(dp2157
g73
(dp2158
g100
g101
ssg82
g2148
sg75
(lp2159
S':'
asbag68
(g89
g70
NtRp2160
(dp2161
g73
(dp2162
sg82
g2148
sg75
(lp2163
g68
(g69
g70
NtRp2164
(dp2165
g73
(dp2166
g81
I4
ssg82
g2160
sg75
(lp2167
S"set(['/home/brencam/web2py/applications/gallery/'])"
p2168
asbasbasbag68
(g84
g70
NtRp2169
(dp2170
g73
(dp2171
sg82
g2144
sg75
(lp2172
g68
(g89
g70
NtRp2173
(dp2174
g73
(dp2175
g93
g94
ssg82
g2169
sg75
(lp2176
g1052
asbag68
(g89
g70
NtRp2177
(dp2178
g73
(dp2179
g100
g101
ssg82
g2169
sg75
(lp2180
S':'
asbag68
(g89
g70
NtRp2181
(dp2182
g73
(dp2183
sg82
g2169
sg75
(lp2184
g68
(g69
g70
NtRp2185
(dp2186
g73
(dp2187
g81
I4
ssg82
g2181
sg75
(lp2188
g1065
asbasbasbag68
(g84
g70
NtRp2189
(dp2190
g73
(dp2191
sg82
g2144
sg75
(lp2192
g68
(g89
g70
NtRp2193
(dp2194
g73
(dp2195
g93
g94
ssg82
g2189
sg75
(lp2196
g1074
asbag68
(g89
g70
NtRp2197
(dp2198
g73
(dp2199
g100
g101
ssg82
g2189
sg75
(lp2200
S':'
asbag68
(g89
g70
NtRp2201
(dp2202
g73
(dp2203
sg82
g2189
sg75
(lp2204
g68
(g69
g70
NtRp2205
(dp2206
g73
(dp2207
g81
I4
ssg82
g2201
sg75
(lp2208
g68
(g77
g70
NtRp2209
(dp2210
g73
(dp2211
g81
I3
ssg82
Nsg75
(lp2212
sbasbasbasbag68
(g84
g70
NtRp2213
(dp2214
g73
(dp2215
sg82
g2144
sg75
(lp2216
g68
(g89
g70
NtRp2217
(dp2218
g73
(dp2219
g93
g94
ssg82
g2213
sg75
(lp2220
g1099
asbag68
(g89
g70
NtRp2221
(dp2222
g73
(dp2223
g100
g101
ssg82
g2213
sg75
(lp2224
S':'
asbag68
(g89
g70
NtRp2225
(dp2226
g73
(dp2227
sg82
g2213
sg75
(lp2228
g68
(g69
g70
NtRp2229
(dp2230
g73
(dp2231
g81
I4
ssg82
g2225
sg75
(lp2232
S"<Values at 0x8e5026c: {'verbose': False, 'ip': '127.0.0.1', 'shutdown_timeout': 5, 'taskbar': False, 'nocron': False, 'pid_filename': 'httpserver.pid', 'maxthreads': None, 'softcron': False, 'server_name': 'localhost.localdomain', 'bpython': False, 'nogui': False, 'port': 8000, 'extcron': False, 'debuglevel': 30, 'test': None, 'folder': '/home/brencam/web2py', 'config': '', 'import_models': False, 'winservice': '', 'shell': None, 'run': '', 'log_filename': 'httpserver.log', 'args': [''], 'ssl_ca_certificate': None, 'scheduler': None, 'profiler_filename': None, 'ssl_private_key': '', 'password': 'admin', 'request_queue_size': 5, 'ssl_certificate': '', 'cronjob': False, 'plain': False, 'quiet': False, 'interfaces': None, 'minthreads': None, 'timeout': 10, 'numthreads': None, 'nobanner': False}>"
p2233
asbasbasbag68
(g84
g70
NtRp2234
(dp2235
g73
(dp2236
sg82
g2144
sg75
(lp2237
g68
(g89
g70
NtRp2238
(dp2239
g73
(dp2240
g93
g94
ssg82
g2234
sg75
(lp2241
g1143
asbag68
(g89
g70
NtRp2242
(dp2243
g73
(dp2244
g100
g101
ssg82
g2234
sg75
(lp2245
S':'
asbag68
(g89
g70
NtRp2246
(dp2247
g73
(dp2248
sg82
g2234
sg75
(lp2249
g68
(g69
g70
NtRp2250
(dp2251
g73
(dp2252
g81
I4
ssg82
g2246
sg75
(lp2253
S'set([])'
p2254
asbasbasbag68
(g84
g70
NtRp2255
(dp2256
g73
(dp2257
sg82
g2144
sg75
(lp2258
g68
(g89
g70
NtRp2259
(dp2260
g73
(dp2261
g93
g94
ssg82
g2255
sg75
(lp2262
g1165
asbag68
(g89
g70
NtRp2263
(dp2264
g73
(dp2265
g100
g101
ssg82
g2255
sg75
(lp2266
S':'
asbag68
(g89
g70
NtRp2267
(dp2268
g73
(dp2269
sg82
g2255
sg75
(lp2270
g68
(g69
g70
NtRp2271
(dp2272
g73
(dp2273
g81
I4
ssg82
g2267
sg75
(lp2274
g1178
asbasbasbag68
(g84
g70
NtRp2275
(dp2276
g73
(dp2277
sg82
g2144
sg75
(lp2278
g68
(g89
g70
NtRp2279
(dp2280
g73
(dp2281
g93
g94
ssg82
g2275
sg75
(lp2282
g1187
asbag68
(g89
g70
NtRp2283
(dp2284
g73
(dp2285
g100
g101
ssg82
g2275
sg75
(lp2286
S':'
asbag68
(g89
g70
NtRp2287
(dp2288
g73
(dp2289
sg82
g2275
sg75
(lp2290
g68
(g69
g70
NtRp2291
(dp2292
g73
(dp2293
g81
I4
ssg82
g2287
sg75
(lp2294
g1200
asbasbasbag68
(g84
g70
NtRp2295
(dp2296
g73
(dp2297
sg82
g2144
sg75
(lp2298
g68
(g89
g70
NtRp2299
(dp2300
g73
(dp2301
g93
g94
ssg82
g2295
sg75
(lp2302
g1450
asbag68
(g89
g70
NtRp2303
(dp2304
g73
(dp2305
g100
g101
ssg82
g2295
sg75
(lp2306
S':'
asbag68
(g89
g70
NtRp2307
(dp2308
g73
(dp2309
sg82
g2295
sg75
(lp2310
g68
(g69
g70
NtRp2311
(dp2312
g73
(dp2313
g81
I4
ssg82
g2307
sg75
(lp2314
g1178
asbasbasbag68
(g84
g70
NtRp2315
(dp2316
g73
(dp2317
sg82
g2144
sg75
(lp2318
g68
(g89
g70
NtRp2319
(dp2320
g73
(dp2321
g93
g94
ssg82
g2315
sg75
(lp2322
g1689
asbag68
(g89
g70
NtRp2323
(dp2324
g73
(dp2325
g100
g101
ssg82
g2315
sg75
(lp2326
S':'
asbag68
(g89
g70
NtRp2327
(dp2328
g73
(dp2329
sg82
g2315
sg75
(lp2330
g68
(g69
g70
NtRp2331
(dp2332
g73
(dp2333
g81
I4
ssg82
g2327
sg75
(lp2334
g1702
asbasbasbag68
(g84
g70
NtRp2335
(dp2336
g73
(dp2337
sg82
g2144
sg75
(lp2338
g68
(g89
g70
NtRp2339
(dp2340
g73
(dp2341
g93
g94
ssg82
g2335
sg75
(lp2342
g1732
asbag68
(g89
g70
NtRp2343
(dp2344
g73
(dp2345
g100
g101
ssg82
g2335
sg75
(lp2346
S':'
asbag68
(g89
g70
NtRp2347
(dp2348
g73
(dp2349
sg82
g2335
sg75
(lp2350
g68
(g69
g70
NtRp2351
(dp2352
g73
(dp2353
g81
I4
ssg82
g2347
sg75
(lp2354
g68
(g77
g70
NtRp2355
(dp2356
g73
(dp2357
g81
I3
ssg82
Nsg75
(lp2358
g68
(g84
g70
NtRp2359
(dp2360
g73
(dp2361
sg82
g2355
sg75
(lp2362
g68
(g89
g70
NtRp2363
(dp2364
g73
(dp2365
sg82
g2359
sg75
(lp2366
g68
(g69
g70
NtRp2367
(dp2368
g73
(dp2369
g81
I3
ssg82
g2363
sg75
(lp2370
S'1'
asbasbasbag68
(g84
g70
NtRp2371
(dp2372
g73
(dp2373
sg82
g2355
sg75
(lp2374
g68
(g89
g70
NtRp2375
(dp2376
g73
(dp2377
sg82
g2371
sg75
(lp2378
g68
(g69
g70
NtRp2379
(dp2380
g73
(dp2381
g81
I3
ssg82
g2375
sg75
(lp2382
S'99'
p2383
asbasbasbag68
(g84
g70
NtRp2384
(dp2385
g73
(dp2386
sg82
g2355
sg75
(lp2387
g68
(g89
g70
NtRp2388
(dp2389
g73
(dp2390
sg82
g2384
sg75
(lp2391
g68
(g69
g70
NtRp2392
(dp2393
g73
(dp2394
g81
I3
ssg82
g2388
sg75
(lp2395
S'2'
asbasbasbag68
(g84
g70
NtRp2396
(dp2397
g73
(dp2398
sg82
g2355
sg75
(lp2399
g68
(g89
g70
NtRp2400
(dp2401
g73
(dp2402
sg82
g2396
sg75
(lp2403
g68
(g69
g70
NtRp2404
(dp2405
g73
(dp2406
g81
I3
ssg82
g2400
sg75
(lp2407
S'datetime.datetime(2011, 9, 26, 6, 55, 33)'
p2408
asbasbasbag68
(g84
g70
NtRp2409
(dp2410
g73
(dp2411
sg82
g2355
sg75
(lp2412
g68
(g89
g70
NtRp2413
(dp2414
g73
(dp2415
sg82
g2409
sg75
(lp2416
g68
(g69
g70
NtRp2417
(dp2418
g73
(dp2419
g81
I3
ssg82
g2413
sg75
(lp2420
g1811
asbasbasbasbasbasbasbasbasbasbasbag68
(g84
g70
NtRp2421
(dp2422
g73
(dp2423
sg82
g78
sg75
(lp2424
g68
(g89
g70
NtRp2425
(dp2426
g73
(dp2427
g93
g94
ssg82
g2421
sg75
(lp2428
S'is_https'
p2429
asbag68
(g89
g70
NtRp2430
(dp2431
g73
(dp2432
g100
g101
ssg82
g2421
sg75
(lp2433
S':'
asbag68
(g89
g70
NtRp2434
(dp2435
g73
(dp2436
sg82
g2421
sg75
(lp2437
g68
(g69
g70
NtRp2438
(dp2439
g73
(dp2440
g81
I5
ssg82
g2434
sg75
(lp2441
g1178
asbasbasbag68
(g84
g70
NtRp2442
(dp2443
g73
(dp2444
sg82
g78
sg75
(lp2445
g68
(g89
g70
NtRp2446
(dp2447
g73
(dp2448
g93
g94
ssg82
g2442
sg75
(lp2449
S'is_local'
p2450
asbag68
(g89
g70
NtRp2451
(dp2452
g73
(dp2453
g100
g101
ssg82
g2442
sg75
(lp2454
S':'
asbag68
(g89
g70
NtRp2455
(dp2456
g73
(dp2457
sg82
g2442
sg75
(lp2458
g68
(g69
g70
NtRp2459
(dp2460
g73
(dp2461
g81
I5
ssg82
g2455
sg75
(lp2462
g111
asbasbasbag68
(g84
g70
NtRp2463
(dp2464
g73
(dp2465
sg82
g78
sg75
(lp2466
g68
(g89
g70
NtRp2467
(dp2468
g73
(dp2469
g93
g94
ssg82
g2463
sg75
(lp2470
S'is_restful'
p2471
asbag68
(g89
g70
NtRp2472
(dp2473
g73
(dp2474
g100
g101
ssg82
g2463
sg75
(lp2475
S':'
asbag68
(g89
g70
NtRp2476
(dp2477
g73
(dp2478
sg82
g2463
sg75
(lp2479
g68
(g69
g70
NtRp2480
(dp2481
g73
(dp2482
g81
I5
ssg82
g2476
sg75
(lp2483
g1178
asbasbasbag68
(g84
g70
NtRp2484
(dp2485
g73
(dp2486
sg82
g78
sg75
(lp2487
g68
(g89
g70
NtRp2488
(dp2489
g73
(dp2490
g93
g94
ssg82
g2484
sg75
(lp2491
S'now'
p2492
asbag68
(g89
g70
NtRp2493
(dp2494
g73
(dp2495
g100
g101
ssg82
g2484
sg75
(lp2496
S':'
asbag68
(g89
g70
NtRp2497
(dp2498
g73
(dp2499
sg82
g2484
sg75
(lp2500
g68
(g69
g70
NtRp2501
(dp2502
g73
(dp2503
g81
I5
ssg82
g2497
sg75
(lp2504
S'datetime.datetime(2011, 11, 2, 22, 7, 18, 324707)'
p2505
asbasbasbag68
(g84
g70
NtRp2506
(dp2507
g73
(dp2508
sg82
g78
sg75
(lp2509
g68
(g89
g70
NtRp2510
(dp2511
g73
(dp2512
g93
g94
ssg82
g2506
sg75
(lp2513
S'post_vars'
p2514
asbag68
(g89
g70
NtRp2515
(dp2516
g73
(dp2517
g100
g101
ssg82
g2506
sg75
(lp2518
S':'
asbag68
(g89
g70
NtRp2519
(dp2520
g73
(dp2521
sg82
g2506
sg75
(lp2522
g68
(g69
g70
NtRp2523
(dp2524
g73
(dp2525
g81
I5
ssg82
g2519
sg75
(lp2526
g68
(g77
g70
NtRp2527
(dp2528
g73
(dp2529
g81
I4
ssg82
Nsg75
(lp2530
sbasbasbasbag68
(g84
g70
NtRp2531
(dp2532
g73
(dp2533
sg82
g78
sg75
(lp2534
g68
(g89
g70
NtRp2535
(dp2536
g73
(dp2537
g93
g94
ssg82
g2531
sg75
(lp2538
S'url'
p2539
asbag68
(g89
g70
NtRp2540
(dp2541
g73
(dp2542
g100
g101
ssg82
g2531
sg75
(lp2543
S':'
asbag68
(g89
g70
NtRp2544
(dp2545
g73
(dp2546
sg82
g2531
sg75
(lp2547
g68
(g69
g70
NtRp2548
(dp2549
g73
(dp2550
g81
I5
ssg82
g2544
sg75
(lp2551
S'/gallery/search/getnames'
p2552
asbasbasbag68
(g84
g70
NtRp2553
(dp2554
g73
(dp2555
sg82
g78
sg75
(lp2556
g68
(g89
g70
NtRp2557
(dp2558
g73
(dp2559
g93
g94
ssg82
g2553
sg75
(lp2560
S'utcnow'
p2561
asbag68
(g89
g70
NtRp2562
(dp2563
g73
(dp2564
g100
g101
ssg82
g2553
sg75
(lp2565
S':'
asbag68
(g89
g70
NtRp2566
(dp2567
g73
(dp2568
sg82
g2553
sg75
(lp2569
g68
(g69
g70
NtRp2570
(dp2571
g73
(dp2572
g81
I5
ssg82
g2566
sg75
(lp2573
S'datetime.datetime(2011, 11, 3, 5, 7, 18, 324744)'
p2574
asbasbasbag68
(g84
g70
NtRp2575
(dp2576
g73
(dp2577
sg82
g78
sg75
(lp2578
g68
(g89
g70
NtRp2579
(dp2580
g73
(dp2581
g93
g94
ssg82
g2575
sg75
(lp2582
S'uuid'
p2583
asbag68
(g89
g70
NtRp2584
(dp2585
g73
(dp2586
g100
g101
ssg82
g2575
sg75
(lp2587
S':'
asbag68
(g89
g70
NtRp2588
(dp2589
g73
(dp2590
sg82
g2575
sg75
(lp2591
g68
(g69
g70
NtRp2592
(dp2593
g73
(dp2594
g81
I5
ssg82
g2588
sg75
(lp2595
S'gallery/127.0.0.1.2011-11-02.22-07-18.835dfce7-ede2-4b8a-b597-f446a46f7f53'
p2596
asbasbasbag68
(g84
g70
NtRp2597
(dp2598
g73
(dp2599
sg82
g78
sg75
(lp2600
g68
(g89
g70
NtRp2601
(dp2602
g73
(dp2603
g93
g94
ssg82
g2597
sg75
(lp2604
S'vars'
p2605
asbag68
(g89
g70
NtRp2606
(dp2607
g73
(dp2608
g100
g101
ssg82
g2597
sg75
(lp2609
S':'
asbag68
(g89
g70
NtRp2610
(dp2611
g73
(dp2612
sg82
g2597
sg75
(lp2613
g68
(g69
g70
NtRp2614
(dp2615
g73
(dp2616
g81
I5
ssg82
g2610
sg75
(lp2617
g68
(g77
g70
NtRp2618
(dp2619
g73
(dp2620
g81
I4
ssg82
Nsg75
(lp2621
g68
(g84
g70
NtRp2622
(dp2623
g73
(dp2624
sg82
g2618
sg75
(lp2625
g68
(g89
g70
NtRp2626
(dp2627
g73
(dp2628
g93
g94
ssg82
g2622
sg75
(lp2629
S'q'
asbag68
(g89
g70
NtRp2630
(dp2631
g73
(dp2632
g100
g101
ssg82
g2622
sg75
(lp2633
S':'
asbag68
(g89
g70
NtRp2634
(dp2635
g73
(dp2636
sg82
g2622
sg75
(lp2637
g68
(g69
g70
NtRp2638
(dp2639
g73
(dp2640
g81
I4
ssg82
g2634
sg75
(lp2641
S'p'
asbasbasbasbasbasbasbag68
(g84
g70
NtRp2642
(dp2643
g73
(dp2644
sg82
g78
sg75
(lp2645
g68
(g89
g70
NtRp2646
(dp2647
g73
(dp2648
g93
g94
ssg82
g2642
sg75
(lp2649
S'wsgi'
p2650
asbag68
(g89
g70
NtRp2651
(dp2652
g73
(dp2653
g100
g101
ssg82
g2642
sg75
(lp2654
S':'
asbag68
(g89
g70
NtRp2655
(dp2656
g73
(dp2657
sg82
g2642
sg75
(lp2658
g68
(g69
g70
NtRp2659
(dp2660
g73
(dp2661
g81
I5
ssg82
g2655
sg75
(lp2662
g68
(g77
g70
NtRp2663
(dp2664
g73
(dp2665
g81
I4
ssg82
Nsg75
(lp2666
g68
(g84
g70
NtRp2667
(dp2668
g73
(dp2669
sg82
g2663
sg75
(lp2670
g68
(g89
g70
NtRp2671
(dp2672
g73
(dp2673
g93
g94
ssg82
g2667
sg75
(lp2674
S'environ'
p2675
asbag68
(g89
g70
NtRp2676
(dp2677
g73
(dp2678
g100
g101
ssg82
g2667
sg75
(lp2679
S':'
asbag68
(g89
g70
NtRp2680
(dp2681
g73
(dp2682
sg82
g2667
sg75
(lp2683
g68
(g69
g70
NtRp2684
(dp2685
g73
(dp2686
g81
I4
ssg82
g2680
sg75
(lp2687
g68
(g77
g70
NtRp2688
(dp2689
g73
(dp2690
g81
I3
ssg82
Nsg75
(lp2691
g68
(g84
g70
NtRp2692
(dp2693
g73
(dp2694
sg82
g2688
sg75
(lp2695
g68
(g89
g70
NtRp2696
(dp2697
g73
(dp2698
g93
g94
ssg82
g2692
sg75
(lp2699
S'CONTENT_TYPE'
p2700
asbag68
(g89
g70
NtRp2701
(dp2702
g73
(dp2703
g100
g101
ssg82
g2692
sg75
(lp2704
S':'
asbag68
(g89
g70
NtRp2705
(dp2706
g73
(dp2707
sg82
g2692
sg75
(lp2708
g68
(g69
g70
NtRp2709
(dp2710
g73
(dp2711
g81
I3
ssg82
g2705
sg75
(lp2712
g1134
asbasbasbag68
(g84
g70
NtRp2713
(dp2714
g73
(dp2715
sg82
g2688
sg75
(lp2716
g68
(g89
g70
NtRp2717
(dp2718
g73
(dp2719
g93
g94
ssg82
g2713
sg75
(lp2720
S'HTTP_ACCEPT'
p2721
asbag68
(g89
g70
NtRp2722
(dp2723
g73
(dp2724
g100
g101
ssg82
g2713
sg75
(lp2725
S':'
asbag68
(g89
g70
NtRp2726
(dp2727
g73
(dp2728
sg82
g2713
sg75
(lp2729
g68
(g69
g70
NtRp2730
(dp2731
g73
(dp2732
g81
I3
ssg82
g2726
sg75
(lp2733
g1222
asbasbasbag68
(g84
g70
NtRp2734
(dp2735
g73
(dp2736
sg82
g2688
sg75
(lp2737
g68
(g89
g70
NtRp2738
(dp2739
g73
(dp2740
g93
g94
ssg82
g2734
sg75
(lp2741
S'HTTP_ACCEPT_CHARSET'
p2742
asbag68
(g89
g70
NtRp2743
(dp2744
g73
(dp2745
g100
g101
ssg82
g2734
sg75
(lp2746
S':'
asbag68
(g89
g70
NtRp2747
(dp2748
g73
(dp2749
sg82
g2734
sg75
(lp2750
g68
(g69
g70
NtRp2751
(dp2752
g73
(dp2753
g81
I3
ssg82
g2747
sg75
(lp2754
g1244
asbasbasbag68
(g84
g70
NtRp2755
(dp2756
g73
(dp2757
sg82
g2688
sg75
(lp2758
g68
(g89
g70
NtRp2759
(dp2760
g73
(dp2761
g93
g94
ssg82
g2755
sg75
(lp2762
S'HTTP_ACCEPT_ENCODING'
p2763
asbag68
(g89
g70
NtRp2764
(dp2765
g73
(dp2766
g100
g101
ssg82
g2755
sg75
(lp2767
S':'
asbag68
(g89
g70
NtRp2768
(dp2769
g73
(dp2770
sg82
g2755
sg75
(lp2771
g68
(g69
g70
NtRp2772
(dp2773
g73
(dp2774
g81
I3
ssg82
g2768
sg75
(lp2775
g1266
asbasbasbag68
(g84
g70
NtRp2776
(dp2777
g73
(dp2778
sg82
g2688
sg75
(lp2779
g68
(g89
g70
NtRp2780
(dp2781
g73
(dp2782
g93
g94
ssg82
g2776
sg75
(lp2783
S'HTTP_ACCEPT_LANGUAGE'
p2784
asbag68
(g89
g70
NtRp2785
(dp2786
g73
(dp2787
g100
g101
ssg82
g2776
sg75
(lp2788
S':'
asbag68
(g89
g70
NtRp2789
(dp2790
g73
(dp2791
sg82
g2776
sg75
(lp2792
g68
(g69
g70
NtRp2793
(dp2794
g73
(dp2795
g81
I3
ssg82
g2789
sg75
(lp2796
g1288
asbasbasbag68
(g84
g70
NtRp2797
(dp2798
g73
(dp2799
sg82
g2688
sg75
(lp2800
g68
(g89
g70
NtRp2801
(dp2802
g73
(dp2803
g93
g94
ssg82
g2797
sg75
(lp2804
S'HTTP_CONNECTION'
p2805
asbag68
(g89
g70
NtRp2806
(dp2807
g73
(dp2808
g100
g101
ssg82
g2797
sg75
(lp2809
S':'
asbag68
(g89
g70
NtRp2810
(dp2811
g73
(dp2812
sg82
g2797
sg75
(lp2813
g68
(g69
g70
NtRp2814
(dp2815
g73
(dp2816
g81
I3
ssg82
g2810
sg75
(lp2817
g1310
asbasbasbag68
(g84
g70
NtRp2818
(dp2819
g73
(dp2820
sg82
g2688
sg75
(lp2821
g68
(g89
g70
NtRp2822
(dp2823
g73
(dp2824
g93
g94
ssg82
g2818
sg75
(lp2825
S'HTTP_CONTENT_TYPE'
p2826
asbag68
(g89
g70
NtRp2827
(dp2828
g73
(dp2829
g100
g101
ssg82
g2818
sg75
(lp2830
S':'
asbag68
(g89
g70
NtRp2831
(dp2832
g73
(dp2833
sg82
g2818
sg75
(lp2834
g68
(g69
g70
NtRp2835
(dp2836
g73
(dp2837
g81
I3
ssg82
g2831
sg75
(lp2838
g1134
asbasbasbag68
(g84
g70
NtRp2839
(dp2840
g73
(dp2841
sg82
g2688
sg75
(lp2842
g68
(g89
g70
NtRp2843
(dp2844
g73
(dp2845
g93
g94
ssg82
g2839
sg75
(lp2846
S'HTTP_COOKIE'
p2847
asbag68
(g89
g70
NtRp2848
(dp2849
g73
(dp2850
g100
g101
ssg82
g2839
sg75
(lp2851
S':'
asbag68
(g89
g70
NtRp2852
(dp2853
g73
(dp2854
sg82
g2839
sg75
(lp2855
g68
(g69
g70
NtRp2856
(dp2857
g73
(dp2858
g81
I3
ssg82
g2852
sg75
(lp2859
g1353
asbasbasbag68
(g84
g70
NtRp2860
(dp2861
g73
(dp2862
sg82
g2688
sg75
(lp2863
g68
(g89
g70
NtRp2864
(dp2865
g73
(dp2866
g93
g94
ssg82
g2860
sg75
(lp2867
S'HTTP_HOST'
p2868
asbag68
(g89
g70
NtRp2869
(dp2870
g73
(dp2871
g100
g101
ssg82
g2860
sg75
(lp2872
S':'
asbag68
(g89
g70
NtRp2873
(dp2874
g73
(dp2875
sg82
g2860
sg75
(lp2876
g68
(g69
g70
NtRp2877
(dp2878
g73
(dp2879
g81
I3
ssg82
g2873
sg75
(lp2880
g1375
asbasbasbag68
(g84
g70
NtRp2881
(dp2882
g73
(dp2883
sg82
g2688
sg75
(lp2884
g68
(g89
g70
NtRp2885
(dp2886
g73
(dp2887
g93
g94
ssg82
g2881
sg75
(lp2888
S'HTTP_REFERER'
p2889
asbag68
(g89
g70
NtRp2890
(dp2891
g73
(dp2892
g100
g101
ssg82
g2881
sg75
(lp2893
S':'
asbag68
(g89
g70
NtRp2894
(dp2895
g73
(dp2896
sg82
g2881
sg75
(lp2897
g68
(g69
g70
NtRp2898
(dp2899
g73
(dp2900
g81
I3
ssg82
g2894
sg75
(lp2901
g1397
asbasbasbag68
(g84
g70
NtRp2902
(dp2903
g73
(dp2904
sg82
g2688
sg75
(lp2905
g68
(g89
g70
NtRp2906
(dp2907
g73
(dp2908
g93
g94
ssg82
g2902
sg75
(lp2909
S'HTTP_USER_AGENT'
p2910
asbag68
(g89
g70
NtRp2911
(dp2912
g73
(dp2913
g100
g101
ssg82
g2902
sg75
(lp2914
S':'
asbag68
(g89
g70
NtRp2915
(dp2916
g73
(dp2917
sg82
g2902
sg75
(lp2918
g68
(g69
g70
NtRp2919
(dp2920
g73
(dp2921
g81
I3
ssg82
g2915
sg75
(lp2922
g1419
asbasbasbag68
(g84
g70
NtRp2923
(dp2924
g73
(dp2925
sg82
g2688
sg75
(lp2926
g68
(g89
g70
NtRp2927
(dp2928
g73
(dp2929
g93
g94
ssg82
g2923
sg75
(lp2930
S'HTTP_X_REQUESTED_WITH'
p2931
asbag68
(g89
g70
NtRp2932
(dp2933
g73
(dp2934
g100
g101
ssg82
g2923
sg75
(lp2935
S':'
asbag68
(g89
g70
NtRp2936
(dp2937
g73
(dp2938
sg82
g2923
sg75
(lp2939
g68
(g69
g70
NtRp2940
(dp2941
g73
(dp2942
g81
I3
ssg82
g2936
sg75
(lp2943
g1441
asbasbasbag68
(g84
g70
NtRp2944
(dp2945
g73
(dp2946
sg82
g2688
sg75
(lp2947
g68
(g89
g70
NtRp2948
(dp2949
g73
(dp2950
g93
g94
ssg82
g2944
sg75
(lp2951
S'PATH_INFO'
p2952
asbag68
(g89
g70
NtRp2953
(dp2954
g73
(dp2955
g100
g101
ssg82
g2944
sg75
(lp2956
S':'
asbag68
(g89
g70
NtRp2957
(dp2958
g73
(dp2959
sg82
g2944
sg75
(lp2960
g68
(g69
g70
NtRp2961
(dp2962
g73
(dp2963
g81
I3
ssg82
g2957
sg75
(lp2964
g1484
asbasbasbag68
(g84
g70
NtRp2965
(dp2966
g73
(dp2967
sg82
g2688
sg75
(lp2968
g68
(g89
g70
NtRp2969
(dp2970
g73
(dp2971
g93
g94
ssg82
g2965
sg75
(lp2972
S'QUERY_STRING'
p2973
asbag68
(g89
g70
NtRp2974
(dp2975
g73
(dp2976
g100
g101
ssg82
g2965
sg75
(lp2977
S':'
asbag68
(g89
g70
NtRp2978
(dp2979
g73
(dp2980
sg82
g2965
sg75
(lp2981
g68
(g69
g70
NtRp2982
(dp2983
g73
(dp2984
g81
I3
ssg82
g2978
sg75
(lp2985
g1506
asbasbasbag68
(g84
g70
NtRp2986
(dp2987
g73
(dp2988
sg82
g2688
sg75
(lp2989
g68
(g89
g70
NtRp2990
(dp2991
g73
(dp2992
g93
g94
ssg82
g2986
sg75
(lp2993
S'REMOTE_ADDR'
p2994
asbag68
(g89
g70
NtRp2995
(dp2996
g73
(dp2997
g100
g101
ssg82
g2986
sg75
(lp2998
S':'
asbag68
(g89
g70
NtRp2999
(dp3000
g73
(dp3001
sg82
g2986
sg75
(lp3002
g68
(g69
g70
NtRp3003
(dp3004
g73
(dp3005
g81
I3
ssg82
g2999
sg75
(lp3006
g201
asbasbasbag68
(g84
g70
NtRp3007
(dp3008
g73
(dp3009
sg82
g2688
sg75
(lp3010
g68
(g89
g70
NtRp3011
(dp3012
g73
(dp3013
g93
g94
ssg82
g3007
sg75
(lp3014
S'REMOTE_PORT'
p3015
asbag68
(g89
g70
NtRp3016
(dp3017
g73
(dp3018
g100
g101
ssg82
g3007
sg75
(lp3019
S':'
asbag68
(g89
g70
NtRp3020
(dp3021
g73
(dp3022
sg82
g3007
sg75
(lp3023
g68
(g69
g70
NtRp3024
(dp3025
g73
(dp3026
g81
I3
ssg82
g3020
sg75
(lp3027
g1549
asbasbasbag68
(g84
g70
NtRp3028
(dp3029
g73
(dp3030
sg82
g2688
sg75
(lp3031
g68
(g89
g70
NtRp3032
(dp3033
g73
(dp3034
g93
g94
ssg82
g3028
sg75
(lp3035
S'REQUEST_METHOD'
p3036
asbag68
(g89
g70
NtRp3037
(dp3038
g73
(dp3039
g100
g101
ssg82
g3028
sg75
(lp3040
S':'
asbag68
(g89
g70
NtRp3041
(dp3042
g73
(dp3043
sg82
g3028
sg75
(lp3044
g68
(g69
g70
NtRp3045
(dp3046
g73
(dp3047
g81
I3
ssg82
g3041
sg75
(lp3048
g1571
asbasbasbag68
(g84
g70
NtRp3049
(dp3050
g73
(dp3051
sg82
g2688
sg75
(lp3052
g68
(g89
g70
NtRp3053
(dp3054
g73
(dp3055
g93
g94
ssg82
g3049
sg75
(lp3056
S'SCRIPT_NAME'
p3057
asbag68
(g89
g70
NtRp3058
(dp3059
g73
(dp3060
g100
g101
ssg82
g3049
sg75
(lp3061
S':'
asbag68
(g89
g70
NtRp3062
(dp3063
g73
(dp3064
sg82
g3049
sg75
(lp3065
g68
(g69
g70
NtRp3066
(dp3067
g73
(dp3068
g81
I3
ssg82
g3062
sg75
(lp3069
S''
asbasbasbag68
(g84
g70
NtRp3070
(dp3071
g73
(dp3072
sg82
g2688
sg75
(lp3073
g68
(g89
g70
NtRp3074
(dp3075
g73
(dp3076
g93
g94
ssg82
g3070
sg75
(lp3077
S'SERVER_NAME'
p3078
asbag68
(g89
g70
NtRp3079
(dp3080
g73
(dp3081
g100
g101
ssg82
g3070
sg75
(lp3082
S':'
asbag68
(g89
g70
NtRp3083
(dp3084
g73
(dp3085
sg82
g3070
sg75
(lp3086
g68
(g69
g70
NtRp3087
(dp3088
g73
(dp3089
g81
I3
ssg82
g3083
sg75
(lp3090
g1614
asbasbasbag68
(g84
g70
NtRp3091
(dp3092
g73
(dp3093
sg82
g2688
sg75
(lp3094
g68
(g89
g70
NtRp3095
(dp3096
g73
(dp3097
g93
g94
ssg82
g3091
sg75
(lp3098
S'SERVER_PORT'
p3099
asbag68
(g89
g70
NtRp3100
(dp3101
g73
(dp3102
g100
g101
ssg82
g3091
sg75
(lp3103
S':'
asbag68
(g89
g70
NtRp3104
(dp3105
g73
(dp3106
sg82
g3091
sg75
(lp3107
g68
(g69
g70
NtRp3108
(dp3109
g73
(dp3110
g81
I3
ssg82
g3104
sg75
(lp3111
g1636
asbasbasbag68
(g84
g70
NtRp3112
(dp3113
g73
(dp3114
sg82
g2688
sg75
(lp3115
g68
(g89
g70
NtRp3116
(dp3117
g73
(dp3118
g93
g94
ssg82
g3112
sg75
(lp3119
S'SERVER_PROTOCOL'
p3120
asbag68
(g89
g70
NtRp3121
(dp3122
g73
(dp3123
g100
g101
ssg82
g3112
sg75
(lp3124
S':'
asbag68
(g89
g70
NtRp3125
(dp3126
g73
(dp3127
sg82
g3112
sg75
(lp3128
g68
(g69
g70
NtRp3129
(dp3130
g73
(dp3131
g81
I3
ssg82
g3125
sg75
(lp3132
g1658
asbasbasbag68
(g84
g70
NtRp3133
(dp3134
g73
(dp3135
sg82
g2688
sg75
(lp3136
g68
(g89
g70
NtRp3137
(dp3138
g73
(dp3139
g93
g94
ssg82
g3133
sg75
(lp3140
S'SERVER_SOFTWARE'
p3141
asbag68
(g89
g70
NtRp3142
(dp3143
g73
(dp3144
g100
g101
ssg82
g3133
sg75
(lp3145
S':'
asbag68
(g89
g70
NtRp3146
(dp3147
g73
(dp3148
sg82
g3133
sg75
(lp3149
g68
(g69
g70
NtRp3150
(dp3151
g73
(dp3152
g81
I3
ssg82
g3146
sg75
(lp3153
g1680
asbasbasbag68
(g84
g70
NtRp3154
(dp3155
g73
(dp3156
sg82
g2688
sg75
(lp3157
g68
(g89
g70
NtRp3158
(dp3159
g73
(dp3160
g93
g94
ssg82
g3154
sg75
(lp3161
S'wsgi.errors'
p3162
asbag68
(g89
g70
NtRp3163
(dp3164
g73
(dp3165
g100
g101
ssg82
g3154
sg75
(lp3166
S':'
asbag68
(g89
g70
NtRp3167
(dp3168
g73
(dp3169
sg82
g3154
sg75
(lp3170
g68
(g69
g70
NtRp3171
(dp3172
g73
(dp3173
g81
I3
ssg82
g3167
sg75
(lp3174
S"<open file '<stderr>', mode 'w' at 0xb75610d0>"
p3175
asbasbasbag68
(g84
g70
NtRp3176
(dp3177
g73
(dp3178
sg82
g2688
sg75
(lp3179
g68
(g89
g70
NtRp3180
(dp3181
g73
(dp3182
g93
g94
ssg82
g3176
sg75
(lp3183
S'wsgi.file_wrapper'
p3184
asbag68
(g89
g70
NtRp3185
(dp3186
g73
(dp3187
g100
g101
ssg82
g3176
sg75
(lp3188
S':'
asbag68
(g89
g70
NtRp3189
(dp3190
g73
(dp3191
sg82
g3176
sg75
(lp3192
g68
(g69
g70
NtRp3193
(dp3194
g73
(dp3195
g81
I3
ssg82
g3189
sg75
(lp3196
S'<class wsgiref.util.FileWrapper at 0x8a4d50c>'
p3197
asbasbasbag68
(g84
g70
NtRp3198
(dp3199
g73
(dp3200
sg82
g2688
sg75
(lp3201
g68
(g89
g70
NtRp3202
(dp3203
g73
(dp3204
g93
g94
ssg82
g3198
sg75
(lp3205
S'wsgi.input'
p3206
asbag68
(g89
g70
NtRp3207
(dp3208
g73
(dp3209
g100
g101
ssg82
g3198
sg75
(lp3210
S':'
asbag68
(g89
g70
NtRp3211
(dp3212
g73
(dp3213
sg82
g3198
sg75
(lp3214
g68
(g69
g70
NtRp3215
(dp3216
g73
(dp3217
g81
I3
ssg82
g3211
sg75
(lp3218
S'<cStringIO.StringO object at 0xaf77b0c0>'
p3219
asbasbasbag68
(g84
g70
NtRp3220
(dp3221
g73
(dp3222
sg82
g2688
sg75
(lp3223
g68
(g89
g70
NtRp3224
(dp3225
g73
(dp3226
g93
g94
ssg82
g3220
sg75
(lp3227
S'wsgi.multiprocess'
p3228
asbag68
(g89
g70
NtRp3229
(dp3230
g73
(dp3231
g100
g101
ssg82
g3220
sg75
(lp3232
S':'
asbag68
(g89
g70
NtRp3233
(dp3234
g73
(dp3235
sg82
g3220
sg75
(lp3236
g68
(g69
g70
NtRp3237
(dp3238
g73
(dp3239
g81
I3
ssg82
g3233
sg75
(lp3240
g1178
asbasbasbag68
(g84
g70
NtRp3241
(dp3242
g73
(dp3243
sg82
g2688
sg75
(lp3244
g68
(g89
g70
NtRp3245
(dp3246
g73
(dp3247
g93
g94
ssg82
g3241
sg75
(lp3248
S'wsgi.multithread'
p3249
asbag68
(g89
g70
NtRp3250
(dp3251
g73
(dp3252
g100
g101
ssg82
g3241
sg75
(lp3253
S':'
asbag68
(g89
g70
NtRp3254
(dp3255
g73
(dp3256
sg82
g3241
sg75
(lp3257
g68
(g69
g70
NtRp3258
(dp3259
g73
(dp3260
g81
I3
ssg82
g3254
sg75
(lp3261
g111
asbasbasbag68
(g84
g70
NtRp3262
(dp3263
g73
(dp3264
sg82
g2688
sg75
(lp3265
g68
(g89
g70
NtRp3266
(dp3267
g73
(dp3268
g93
g94
ssg82
g3262
sg75
(lp3269
S'wsgi.run_once'
p3270
asbag68
(g89
g70
NtRp3271
(dp3272
g73
(dp3273
g100
g101
ssg82
g3262
sg75
(lp3274
S':'
asbag68
(g89
g70
NtRp3275
(dp3276
g73
(dp3277
sg82
g3262
sg75
(lp3278
g68
(g69
g70
NtRp3279
(dp3280
g73
(dp3281
g81
I3
ssg82
g3275
sg75
(lp3282
g1178
asbasbasbag68
(g84
g70
NtRp3283
(dp3284
g73
(dp3285
sg82
g2688
sg75
(lp3286
g68
(g89
g70
NtRp3287
(dp3288
g73
(dp3289
g93
g94
ssg82
g3283
sg75
(lp3290
S'wsgi.url_scheme'
p3291
asbag68
(g89
g70
NtRp3292
(dp3293
g73
(dp3294
g100
g101
ssg82
g3283
sg75
(lp3295
S':'
asbag68
(g89
g70
NtRp3296
(dp3297
g73
(dp3298
sg82
g3283
sg75
(lp3299
g68
(g69
g70
NtRp3300
(dp3301
g73
(dp3302
g81
I3
ssg82
g3296
sg75
(lp3303
g1962
asbasbasbag68
(g84
g70
NtRp3304
(dp3305
g73
(dp3306
sg82
g2688
sg75
(lp3307
g68
(g89
g70
NtRp3308
(dp3309
g73
(dp3310
g93
g94
ssg82
g3304
sg75
(lp3311
S'wsgi.version'
p3312
asbag68
(g89
g70
NtRp3313
(dp3314
g73
(dp3315
g100
g101
ssg82
g3304
sg75
(lp3316
S':'
asbag68
(g89
g70
NtRp3317
(dp3318
g73
(dp3319
sg82
g3304
sg75
(lp3320
g68
(g69
g70
NtRp3321
(dp3322
g73
(dp3323
g81
I3
ssg82
g3317
sg75
(lp3324
S'1'
asbasbasbasbasbasbasbasbasbasbasbasbasbsS'frames'
p3325
(lp3326
(dp3327
S'file'
p3328
S'/home/brencam/web2py/gluon/restricted.py'
p3329
sS'dump'
p3330
(dp3331
S'code'
p3332
S"'# Search Controller\\nimport datetime\\n\\ndef getname...]))\\n\\n\\n\\nresponse._vars=response._caller(getnames)\\n'"
p3333
sS'layer'
p3334
S"'/home/brencam/web2py/applications/gallery/controllers/search.py'"
p3335
sS'global compile2'
p3336
S'<function compile2>'
p3337
sS'ccode'
p3338
S'undefined'
p3339
ssS'lnum'
p3340
I193
sS'lines'
p3341
(dp3342
I192
S'        else:'
p3343
sI193
S'            ccode = compile2(code,layer)'
p3344
sI194
S'        exec ccode in environment'
p3345
sI195
S'    except HTTP:'
p3346
sI196
S'        raise'
p3347
sI197
S'    except Exception, error:'
p3348
sI188
S"    environment['__file__'] = layer"
p3349
sI189
S'    try:'
p3350
sI190
S'        if type(code) == types.CodeType:'
p3351
sI191
S'            ccode = code'
p3352
ssS'call'
p3353
S"(code='# Search Controller\\nimport datetime\\n\\ndef getname...]))\\n\\n\\n\\nresponse._vars=response._caller(getnames)\\n', environment={'A': <class 'gluon.html.A'>, 'Auth': <class 'gluon.tools.Auth'>, 'B': <class 'gluon.html.B'>, 'BEAUTIFY': <class 'gluon.html.BEAUTIFY'>, 'BODY': <class 'gluon.html.BODY'>, 'BR': <class 'gluon.html.BR'>, 'BUTTON': <class 'gluon.html.BUTTON'>, 'CAT': <class 'gluon.html.CAT'>, 'CENTER': <class 'gluon.html.CENTER'>, 'CLEANUP': <class 'gluon.validators.CLEANUP'>, ...}, layer='/home/brencam/web2py/applications/gallery/controllers/search.py')"
p3354
sS'func'
p3355
S'restricted'
p3356
sa(dp3357
g3328
S'/home/brencam/web2py/gluon/restricted.py'
p3358
sg3330
(dp3359
S'builtincompile'
p3360
S'<built-in function compile>'
p3361
sS'code'
p3362
S"'# Search Controller\\nimport datetime\\n\\ndef getname...]))\\n\\n\\n\\nresponse._vars=response._caller(getnames)\\n'"
p3363
sS'code.rstrip'
p3364
S'<built-in method rstrip of str object>'
p3365
sS').replace'
p3366
g3339
sS'layer'
p3367
S"'/home/brencam/web2py/applications/gallery/controllers/search.py'"
p3368
ssg3340
I179
sg3341
(dp3369
I174
S''
sI175
S'def compile2(code,layer):'
p3370
sI176
S'    """'
p3371
sI177
S"    The +'\\n' is necessary else compile fails when code ends in a comment."
p3372
sI178
S'    """'
p3373
sI179
S"    return compile(code.rstrip().replace('\\r\\n','\\n')+'\\n', layer, 'exec')"
p3374
sI180
S''
sI181
S"def restricted(code, environment=None, layer='Unknown'):"
p3375
sI182
S'    """'
p3376
sI183
S'    runs code in environment and returns the output. if an exception occurs'
p3377
ssg3353
S"(code='# Search Controller\\nimport datetime\\n\\ndef getname...]))\\n\\n\\n\\nresponse._vars=response._caller(getnames)\\n', layer='/home/brencam/web2py/applications/gallery/controllers/search.py')"
p3378
sg3355
S'compile2'
p3379
sasS'pyver'
p3380
S'Python 2.6.6: /usr/bin/python'
p3381
sS'session'
p3382
g68
(g69
g70
NtRp3383
(dp3384
g73
(dp3385
sg75
(lp3386
g68
(g77
g70
NtRp3387
(dp3388
g73
(dp3389
g81
I5
ssg82
Nsg75
(lp3390
sbasbsS'etype'
p3391
S"<type 'exceptions.SyntaxError'>"
p3392
sS'date'
p3393
S'Wed Nov  2 22:07:18 2011'
p3394
sS'response'
p3395
g68
(g69
g70
NtRp3396
(dp3397
g73
(dp3398
sg75
(lp3399
g68
(g77
g70
NtRp3400
(dp3401
g73
(dp3402
g81
I5
ssg82
Nsg75
(lp3403
g68
(g84
g70
NtRp3404
(dp3405
g73
(dp3406
sg82
g3400
sg75
(lp3407
g68
(g89
g70
NtRp3408
(dp3409
g73
(dp3410
g93
g94
ssg82
g3404
sg75
(lp3411
g166
asbag68
(g89
g70
NtRp3412
(dp3413
g73
(dp3414
g100
g101
ssg82
g3404
sg75
(lp3415
S':'
asbag68
(g89
g70
NtRp3416
(dp3417
g73
(dp3418
sg82
g3404
sg75
(lp3419
g68
(g69
g70
NtRp3420
(dp3421
g73
(dp3422
g81
I5
ssg82
g3416
sg75
(lp3423
S'<cStringIO.StringO object at 0xaf15fca0>'
p3424
asbasbasbag68
(g84
g70
NtRp3425
(dp3426
g73
(dp3427
sg82
g3400
sg75
(lp3428
g68
(g89
g70
NtRp3429
(dp3430
g73
(dp3431
g93
g94
ssg82
g3425
sg75
(lp3432
g232
asbag68
(g89
g70
NtRp3433
(dp3434
g73
(dp3435
g100
g101
ssg82
g3425
sg75
(lp3436
S':'
asbag68
(g89
g70
NtRp3437
(dp3438
g73
(dp3439
sg82
g3425
sg75
(lp3440
g68
(g69
g70
NtRp3441
(dp3442
g73
(dp3443
g81
I5
ssg82
g3437
sg75
(lp3444
g68
(g77
g70
NtRp3445
(dp3446
g73
(dp3447
g81
I4
ssg82
Nsg75
(lp3448
g68
(g84
g70
NtRp3449
(dp3450
g73
(dp3451
sg82
g3445
sg75
(lp3452
g68
(g89
g70
NtRp3453
(dp3454
g73
(dp3455
g93
g94
ssg82
g3449
sg75
(lp3456
S'session_id_gallery'
p3457
asbag68
(g89
g70
NtRp3458
(dp3459
g73
(dp3460
g100
g101
ssg82
g3449
sg75
(lp3461
S':'
asbag68
(g89
g70
NtRp3462
(dp3463
g73
(dp3464
sg82
g3449
sg75
(lp3465
g68
(g69
g70
NtRp3466
(dp3467
g73
(dp3468
g81
I4
ssg82
g3462
sg75
(lp3469
g68
(g77
g70
NtRp3470
(dp3471
g73
(dp3472
g81
I3
ssg82
Nsg75
(lp3473
g68
(g84
g70
NtRp3474
(dp3475
g73
(dp3476
sg82
g3470
sg75
(lp3477
g68
(g89
g70
NtRp3478
(dp3479
g73
(dp3480
g93
g94
ssg82
g3474
sg75
(lp3481
g282
asbag68
(g89
g70
NtRp3482
(dp3483
g73
(dp3484
g100
g101
ssg82
g3474
sg75
(lp3485
S':'
asbag68
(g89
g70
NtRp3486
(dp3487
g73
(dp3488
sg82
g3474
sg75
(lp3489
g68
(g69
g70
NtRp3490
(dp3491
g73
(dp3492
g81
I3
ssg82
g3486
sg75
(lp3493
S''
asbasbasbag68
(g84
g70
NtRp3494
(dp3495
g73
(dp3496
sg82
g3470
sg75
(lp3497
g68
(g89
g70
NtRp3498
(dp3499
g73
(dp3500
g93
g94
ssg82
g3494
sg75
(lp3501
g303
asbag68
(g89
g70
NtRp3502
(dp3503
g73
(dp3504
g100
g101
ssg82
g3494
sg75
(lp3505
S':'
asbag68
(g89
g70
NtRp3506
(dp3507
g73
(dp3508
sg82
g3494
sg75
(lp3509
g68
(g69
g70
NtRp3510
(dp3511
g73
(dp3512
g81
I3
ssg82
g3506
sg75
(lp3513
S''
asbasbasbag68
(g84
g70
NtRp3514
(dp3515
g73
(dp3516
sg82
g3470
sg75
(lp3517
g68
(g89
g70
NtRp3518
(dp3519
g73
(dp3520
g93
g94
ssg82
g3514
sg75
(lp3521
g324
asbag68
(g89
g70
NtRp3522
(dp3523
g73
(dp3524
g100
g101
ssg82
g3514
sg75
(lp3525
S':'
asbag68
(g89
g70
NtRp3526
(dp3527
g73
(dp3528
sg82
g3514
sg75
(lp3529
g68
(g69
g70
NtRp3530
(dp3531
g73
(dp3532
g81
I3
ssg82
g3526
sg75
(lp3533
S''
asbasbasbag68
(g84
g70
NtRp3534
(dp3535
g73
(dp3536
sg82
g3470
sg75
(lp3537
g68
(g89
g70
NtRp3538
(dp3539
g73
(dp3540
g93
g94
ssg82
g3534
sg75
(lp3541
g345
asbag68
(g89
g70
NtRp3542
(dp3543
g73
(dp3544
g100
g101
ssg82
g3534
sg75
(lp3545
S':'
asbag68
(g89
g70
NtRp3546
(dp3547
g73
(dp3548
sg82
g3534
sg75
(lp3549
g68
(g69
g70
NtRp3550
(dp3551
g73
(dp3552
g81
I3
ssg82
g3546
sg75
(lp3553
S''
asbasbasbag68
(g84
g70
NtRp3554
(dp3555
g73
(dp3556
sg82
g3470
sg75
(lp3557
g68
(g89
g70
NtRp3558
(dp3559
g73
(dp3560
g93
g94
ssg82
g3554
sg75
(lp3561
g366
asbag68
(g89
g70
NtRp3562
(dp3563
g73
(dp3564
g100
g101
ssg82
g3554
sg75
(lp3565
S':'
asbag68
(g89
g70
NtRp3566
(dp3567
g73
(dp3568
sg82
g3554
sg75
(lp3569
g68
(g69
g70
NtRp3570
(dp3571
g73
(dp3572
g81
I3
ssg82
g3566
sg75
(lp3573
S''
asbasbasbag68
(g84
g70
NtRp3574
(dp3575
g73
(dp3576
sg82
g3470
sg75
(lp3577
g68
(g89
g70
NtRp3578
(dp3579
g73
(dp3580
g93
g94
ssg82
g3574
sg75
(lp3581
g387
asbag68
(g89
g70
NtRp3582
(dp3583
g73
(dp3584
g100
g101
ssg82
g3574
sg75
(lp3585
S':'
asbag68
(g89
g70
NtRp3586
(dp3587
g73
(dp3588
sg82
g3574
sg75
(lp3589
g68
(g69
g70
NtRp3590
(dp3591
g73
(dp3592
g81
I3
ssg82
g3586
sg75
(lp3593
S'/'
asbasbasbag68
(g84
g70
NtRp3594
(dp3595
g73
(dp3596
sg82
g3470
sg75
(lp3597
g68
(g89
g70
NtRp3598
(dp3599
g73
(dp3600
g93
g94
ssg82
g3594
sg75
(lp3601
g408
asbag68
(g89
g70
NtRp3602
(dp3603
g73
(dp3604
g100
g101
ssg82
g3594
sg75
(lp3605
S':'
asbag68
(g89
g70
NtRp3606
(dp3607
g73
(dp3608
sg82
g3594
sg75
(lp3609
g68
(g69
g70
NtRp3610
(dp3611
g73
(dp3612
g81
I3
ssg82
g3606
sg75
(lp3613
S''
asbasbasbag68
(g84
g70
NtRp3614
(dp3615
g73
(dp3616
sg82
g3470
sg75
(lp3617
g68
(g89
g70
NtRp3618
(dp3619
g73
(dp3620
g93
g94
ssg82
g3614
sg75
(lp3621
g429
asbag68
(g89
g70
NtRp3622
(dp3623
g73
(dp3624
g100
g101
ssg82
g3614
sg75
(lp3625
S':'
asbag68
(g89
g70
NtRp3626
(dp3627
g73
(dp3628
sg82
g3614
sg75
(lp3629
g68
(g69
g70
NtRp3630
(dp3631
g73
(dp3632
g81
I3
ssg82
g3626
sg75
(lp3633
S''
asbasbasbasbasbasbasbasbasbasbasbag68
(g84
g70
NtRp3634
(dp3635
g73
(dp3636
sg82
g3400
sg75
(lp3637
g68
(g89
g70
NtRp3638
(dp3639
g73
(dp3640
g93
g94
ssg82
g3634
sg75
(lp3641
S'files'
p3642
asbag68
(g89
g70
NtRp3643
(dp3644
g73
(dp3645
g100
g101
ssg82
g3634
sg75
(lp3646
S':'
asbag68
(g89
g70
NtRp3647
(dp3648
g73
(dp3649
sg82
g3634
sg75
(lp3650
g68
(g69
g70
NtRp3651
(dp3652
g73
(dp3653
g81
I5
ssg82
g3647
sg75
(lp3654
g68
(g77
g70
NtRp3655
(dp3656
g73
(dp3657
g81
I4
ssg82
Nsg75
(lp3658
sbasbasbasbag68
(g84
g70
NtRp3659
(dp3660
g73
(dp3661
sg82
g3400
sg75
(lp3662
g68
(g89
g70
NtRp3663
(dp3664
g73
(dp3665
g93
g94
ssg82
g3659
sg75
(lp3666
S'flash'
p3667
asbag68
(g89
g70
NtRp3668
(dp3669
g73
(dp3670
g100
g101
ssg82
g3659
sg75
(lp3671
S':'
asbag68
(g89
g70
NtRp3672
(dp3673
g73
(dp3674
sg82
g3659
sg75
(lp3675
g68
(g69
g70
NtRp3676
(dp3677
g73
(dp3678
g81
I5
ssg82
g3672
sg75
(lp3679
S''
asbasbasbag68
(g84
g70
NtRp3680
(dp3681
g73
(dp3682
sg82
g3400
sg75
(lp3683
g68
(g89
g70
NtRp3684
(dp3685
g73
(dp3686
g93
g94
ssg82
g3680
sg75
(lp3687
S'generic_patterns'
p3688
asbag68
(g89
g70
NtRp3689
(dp3690
g73
(dp3691
g100
g101
ssg82
g3680
sg75
(lp3692
S':'
asbag68
(g89
g70
NtRp3693
(dp3694
g73
(dp3695
sg82
g3680
sg75
(lp3696
g68
(g69
g70
NtRp3697
(dp3698
g73
(dp3699
g81
I5
ssg82
g3693
sg75
(lp3700
g68
(g77
g70
NtRp3701
(dp3702
g73
(dp3703
g81
I4
ssg82
Nsg75
(lp3704
g68
(g84
g70
NtRp3705
(dp3706
g73
(dp3707
sg82
g3701
sg75
(lp3708
g68
(g89
g70
NtRp3709
(dp3710
g73
(dp3711
sg82
g3705
sg75
(lp3712
g68
(g69
g70
NtRp3713
(dp3714
g73
(dp3715
g81
I4
ssg82
g3709
sg75
(lp3716
S'*'
asbasbasbasbasbasbasbag68
(g84
g70
NtRp3717
(dp3718
g73
(dp3719
sg82
g3400
sg75
(lp3720
g68
(g89
g70
NtRp3721
(dp3722
g73
(dp3723
g93
g94
ssg82
g3717
sg75
(lp3724
S'headers'
p3725
asbag68
(g89
g70
NtRp3726
(dp3727
g73
(dp3728
g100
g101
ssg82
g3717
sg75
(lp3729
S':'
asbag68
(g89
g70
NtRp3730
(dp3731
g73
(dp3732
sg82
g3717
sg75
(lp3733
g68
(g69
g70
NtRp3734
(dp3735
g73
(dp3736
g81
I5
ssg82
g3730
sg75
(lp3737
g68
(g77
g70
NtRp3738
(dp3739
g73
(dp3740
g81
I4
ssg82
Nsg75
(lp3741
g68
(g84
g70
NtRp3742
(dp3743
g73
(dp3744
sg82
g3738
sg75
(lp3745
g68
(g89
g70
NtRp3746
(dp3747
g73
(dp3748
g93
g94
ssg82
g3742
sg75
(lp3749
S'Cache-Control'
p3750
asbag68
(g89
g70
NtRp3751
(dp3752
g73
(dp3753
g100
g101
ssg82
g3742
sg75
(lp3754
S':'
asbag68
(g89
g70
NtRp3755
(dp3756
g73
(dp3757
sg82
g3742
sg75
(lp3758
g68
(g69
g70
NtRp3759
(dp3760
g73
(dp3761
g81
I4
ssg82
g3755
sg75
(lp3762
S'no-store, no-cache, must-revalidate, post-check=0, pre-check=0'
p3763
asbasbasbag68
(g84
g70
NtRp3764
(dp3765
g73
(dp3766
sg82
g3738
sg75
(lp3767
g68
(g89
g70
NtRp3768
(dp3769
g73
(dp3770
g93
g94
ssg82
g3764
sg75
(lp3771
S'Content-Type'
p3772
asbag68
(g89
g70
NtRp3773
(dp3774
g73
(dp3775
g100
g101
ssg82
g3764
sg75
(lp3776
S':'
asbag68
(g89
g70
NtRp3777
(dp3778
g73
(dp3779
sg82
g3764
sg75
(lp3780
g68
(g69
g70
NtRp3781
(dp3782
g73
(dp3783
g81
I4
ssg82
g3777
sg75
(lp3784
S'text/html; charset=utf-8'
p3785
asbasbasbag68
(g84
g70
NtRp3786
(dp3787
g73
(dp3788
sg82
g3738
sg75
(lp3789
g68
(g89
g70
NtRp3790
(dp3791
g73
(dp3792
g93
g94
ssg82
g3786
sg75
(lp3793
S'Expires'
p3794
asbag68
(g89
g70
NtRp3795
(dp3796
g73
(dp3797
g100
g101
ssg82
g3786
sg75
(lp3798
S':'
asbag68
(g89
g70
NtRp3799
(dp3800
g73
(dp3801
sg82
g3786
sg75
(lp3802
g68
(g69
g70
NtRp3803
(dp3804
g73
(dp3805
g81
I4
ssg82
g3799
sg75
(lp3806
S'Thu, 03 Nov 2011 05:07:18 GMT'
p3807
asbasbasbag68
(g84
g70
NtRp3808
(dp3809
g73
(dp3810
sg82
g3738
sg75
(lp3811
g68
(g89
g70
NtRp3812
(dp3813
g73
(dp3814
g93
g94
ssg82
g3808
sg75
(lp3815
S'Pragma'
p3816
asbag68
(g89
g70
NtRp3817
(dp3818
g73
(dp3819
g100
g101
ssg82
g3808
sg75
(lp3820
S':'
asbag68
(g89
g70
NtRp3821
(dp3822
g73
(dp3823
sg82
g3808
sg75
(lp3824
g68
(g69
g70
NtRp3825
(dp3826
g73
(dp3827
g81
I4
ssg82
g3821
sg75
(lp3828
S'no-cache'
p3829
asbasbasbag68
(g84
g70
NtRp3830
(dp3831
g73
(dp3832
sg82
g3738
sg75
(lp3833
g68
(g89
g70
NtRp3834
(dp3835
g73
(dp3836
g93
g94
ssg82
g3830
sg75
(lp3837
S'X-Powered-By'
p3838
asbag68
(g89
g70
NtRp3839
(dp3840
g73
(dp3841
g100
g101
ssg82
g3830
sg75
(lp3842
S':'
asbag68
(g89
g70
NtRp3843
(dp3844
g73
(dp3845
sg82
g3830
sg75
(lp3846
g68
(g69
g70
NtRp3847
(dp3848
g73
(dp3849
g81
I4
ssg82
g3843
sg75
(lp3850
S'web2py'
p3851
asbasbasbasbasbasbasbag68
(g84
g70
NtRp3852
(dp3853
g73
(dp3854
sg82
g3400
sg75
(lp3855
g68
(g89
g70
NtRp3856
(dp3857
g73
(dp3858
g93
g94
ssg82
g3852
sg75
(lp3859
S'menu'
p3860
asbag68
(g89
g70
NtRp3861
(dp3862
g73
(dp3863
g100
g101
ssg82
g3852
sg75
(lp3864
S':'
asbag68
(g89
g70
NtRp3865
(dp3866
g73
(dp3867
sg82
g3852
sg75
(lp3868
g68
(g69
g70
NtRp3869
(dp3870
g73
(dp3871
g81
I5
ssg82
g3865
sg75
(lp3872
g68
(g77
g70
NtRp3873
(dp3874
g73
(dp3875
g81
I4
ssg82
Nsg75
(lp3876
g68
(g84
g70
NtRp3877
(dp3878
g73
(dp3879
sg82
g3873
sg75
(lp3880
g68
(g89
g70
NtRp3881
(dp3882
g73
(dp3883
sg82
g3877
sg75
(lp3884
g68
(g69
g70
NtRp3885
(dp3886
g73
(dp3887
g81
I4
ssg82
g3881
sg75
(lp3888
g68
(g77
g70
NtRp3889
(dp3890
g73
(dp3891
g81
I3
ssg82
Nsg75
(lp3892
g68
(g84
g70
NtRp3893
(dp3894
g73
(dp3895
sg82
g3889
sg75
(lp3896
g68
(g89
g70
NtRp3897
(dp3898
g73
(dp3899
sg82
g3893
sg75
(lp3900
g68
(g69
g70
NtRp3901
(dp3902
g73
(dp3903
g81
I3
ssg82
g3897
sg75
(lp3904
cgluon.languages
lazyT_unpickle
p3905
(S's\x04\x00\x00\x00Home'
tRp3906
asbasbasbag68
(g84
g70
NtRp3907
(dp3908
g73
(dp3909
sg82
g3889
sg75
(lp3910
g68
(g89
g70
NtRp3911
(dp3912
g73
(dp3913
sg82
g3907
sg75
(lp3914
g68
(g69
g70
NtRp3915
(dp3916
g73
(dp3917
g81
I3
ssg82
g3911
sg75
(lp3918
g1178
asbasbasbag68
(g84
g70
NtRp3919
(dp3920
g73
(dp3921
sg82
g3889
sg75
(lp3922
g68
(g89
g70
NtRp3923
(dp3924
g73
(dp3925
sg82
g3919
sg75
(lp3926
g68
(g69
g70
NtRp3927
(dp3928
g73
(dp3929
g81
I3
ssg82
g3923
sg75
(lp3930
S'/gallery/default/index'
p3931
asbasbasbag68
(g84
g70
NtRp3932
(dp3933
g73
(dp3934
sg82
g3889
sg75
(lp3935
g68
(g89
g70
NtRp3936
(dp3937
g73
(dp3938
sg82
g3932
sg75
(lp3939
g68
(g69
g70
NtRp3940
(dp3941
g73
(dp3942
g81
I3
ssg82
g3936
sg75
(lp3943
g68
(g77
g70
NtRp3944
(dp3945
g73
(dp3946
g81
I2
ssg82
Nsg75
(lp3947
sbasbasbasbasbasbasbasbag68
(g84
g70
NtRp3948
(dp3949
g73
(dp3950
sg82
g3873
sg75
(lp3951
g68
(g89
g70
NtRp3952
(dp3953
g73
(dp3954
sg82
g3948
sg75
(lp3955
g68
(g69
g70
NtRp3956
(dp3957
g73
(dp3958
g81
I4
ssg82
g3952
sg75
(lp3959
g68
(g77
g70
NtRp3960
(dp3961
g73
(dp3962
g81
I3
ssg82
Nsg75
(lp3963
g68
(g84
g70
NtRp3964
(dp3965
g73
(dp3966
sg82
g3960
sg75
(lp3967
g68
(g89
g70
NtRp3968
(dp3969
g73
(dp3970
sg82
g3964
sg75
(lp3971
g68
(g69
g70
NtRp3972
(dp3973
g73
(dp3974
g81
I3
ssg82
g3968
sg75
(lp3975
g3905
(S's\r\x00\x00\x00Gallery - CSS'
tRp3976
asbasbasbag68
(g84
g70
NtRp3977
(dp3978
g73
(dp3979
sg82
g3960
sg75
(lp3980
g68
(g89
g70
NtRp3981
(dp3982
g73
(dp3983
sg82
g3977
sg75
(lp3984
g68
(g69
g70
NtRp3985
(dp3986
g73
(dp3987
g81
I3
ssg82
g3981
sg75
(lp3988
g1178
asbasbasbag68
(g84
g70
NtRp3989
(dp3990
g73
(dp3991
sg82
g3960
sg75
(lp3992
g68
(g89
g70
NtRp3993
(dp3994
g73
(dp3995
sg82
g3989
sg75
(lp3996
g68
(g69
g70
NtRp3997
(dp3998
g73
(dp3999
g81
I3
ssg82
g3993
sg75
(lp4000
S'/gallery/default/showcss'
p4001
asbasbasbag68
(g84
g70
NtRp4002
(dp4003
g73
(dp4004
sg82
g3960
sg75
(lp4005
g68
(g89
g70
NtRp4006
(dp4007
g73
(dp4008
sg82
g4002
sg75
(lp4009
g68
(g69
g70
NtRp4010
(dp4011
g73
(dp4012
g81
I3
ssg82
g4006
sg75
(lp4013
g68
(g77
g70
NtRp4014
(dp4015
g73
(dp4016
g81
I2
ssg82
Nsg75
(lp4017
sbasbasbasbasbasbasbasbag68
(g84
g70
NtRp4018
(dp4019
g73
(dp4020
sg82
g3873
sg75
(lp4021
g68
(g89
g70
NtRp4022
(dp4023
g73
(dp4024
sg82
g4018
sg75
(lp4025
g68
(g69
g70
NtRp4026
(dp4027
g73
(dp4028
g81
I4
ssg82
g4022
sg75
(lp4029
g68
(g77
g70
NtRp4030
(dp4031
g73
(dp4032
g81
I3
ssg82
Nsg75
(lp4033
g68
(g84
g70
NtRp4034
(dp4035
g73
(dp4036
sg82
g4030
sg75
(lp4037
g68
(g89
g70
NtRp4038
(dp4039
g73
(dp4040
sg82
g4034
sg75
(lp4041
g68
(g69
g70
NtRp4042
(dp4043
g73
(dp4044
g81
I3
ssg82
g4038
sg75
(lp4045
g3905
(S's\x10\x00\x00\x00Gallery - JQuery'
tRp4046
asbasbasbag68
(g84
g70
NtRp4047
(dp4048
g73
(dp4049
sg82
g4030
sg75
(lp4050
g68
(g89
g70
NtRp4051
(dp4052
g73
(dp4053
sg82
g4047
sg75
(lp4054
g68
(g69
g70
NtRp4055
(dp4056
g73
(dp4057
g81
I3
ssg82
g4051
sg75
(lp4058
g1178
asbasbasbag68
(g84
g70
NtRp4059
(dp4060
g73
(dp4061
sg82
g4030
sg75
(lp4062
g68
(g89
g70
NtRp4063
(dp4064
g73
(dp4065
sg82
g4059
sg75
(lp4066
g68
(g69
g70
NtRp4067
(dp4068
g73
(dp4069
g81
I3
ssg82
g4063
sg75
(lp4070
S'/gallery/default/showjq'
p4071
asbasbasbag68
(g84
g70
NtRp4072
(dp4073
g73
(dp4074
sg82
g4030
sg75
(lp4075
g68
(g89
g70
NtRp4076
(dp4077
g73
(dp4078
sg82
g4072
sg75
(lp4079
g68
(g69
g70
NtRp4080
(dp4081
g73
(dp4082
g81
I3
ssg82
g4076
sg75
(lp4083
g68
(g77
g70
NtRp4084
(dp4085
g73
(dp4086
g81
I2
ssg82
Nsg75
(lp4087
sbasbasbasbasbasbasbasbag68
(g84
g70
NtRp4088
(dp4089
g73
(dp4090
sg82
g3873
sg75
(lp4091
g68
(g89
g70
NtRp4092
(dp4093
g73
(dp4094
sg82
g4088
sg75
(lp4095
g68
(g69
g70
NtRp4096
(dp4097
g73
(dp4098
g81
I4
ssg82
g4092
sg75
(lp4099
g68
(g77
g70
NtRp4100
(dp4101
g73
(dp4102
g81
I3
ssg82
Nsg75
(lp4103
g68
(g84
g70
NtRp4104
(dp4105
g73
(dp4106
sg82
g4100
sg75
(lp4107
g68
(g89
g70
NtRp4108
(dp4109
g73
(dp4110
sg82
g4104
sg75
(lp4111
g68
(g69
g70
NtRp4112
(dp4113
g73
(dp4114
g81
I3
ssg82
g4108
sg75
(lp4115
g3905
(S's\x0e\x00\x00\x00Gallery - Dojo'
tRp4116
asbasbasbag68
(g84
g70
NtRp4117
(dp4118
g73
(dp4119
sg82
g4100
sg75
(lp4120
g68
(g89
g70
NtRp4121
(dp4122
g73
(dp4123
sg82
g4117
sg75
(lp4124
g68
(g69
g70
NtRp4125
(dp4126
g73
(dp4127
g81
I3
ssg82
g4121
sg75
(lp4128
g1178
asbasbasbag68
(g84
g70
NtRp4129
(dp4130
g73
(dp4131
sg82
g4100
sg75
(lp4132
g68
(g89
g70
NtRp4133
(dp4134
g73
(dp4135
sg82
g4129
sg75
(lp4136
g68
(g69
g70
NtRp4137
(dp4138
g73
(dp4139
g81
I3
ssg82
g4133
sg75
(lp4140
S'/gallery/default/index'
p4141
asbasbasbag68
(g84
g70
NtRp4142
(dp4143
g73
(dp4144
sg82
g4100
sg75
(lp4145
g68
(g89
g70
NtRp4146
(dp4147
g73
(dp4148
sg82
g4142
sg75
(lp4149
g68
(g69
g70
NtRp4150
(dp4151
g73
(dp4152
g81
I3
ssg82
g4146
sg75
(lp4153
g68
(g77
g70
NtRp4154
(dp4155
g73
(dp4156
g81
I2
ssg82
Nsg75
(lp4157
sbasbasbasbasbasbasbasbag68
(g84
g70
NtRp4158
(dp4159
g73
(dp4160
sg82
g3873
sg75
(lp4161
g68
(g89
g70
NtRp4162
(dp4163
g73
(dp4164
sg82
g4158
sg75
(lp4165
g68
(g69
g70
NtRp4166
(dp4167
g73
(dp4168
g81
I4
ssg82
g4162
sg75
(lp4169
g68
(g77
g70
NtRp4170
(dp4171
g73
(dp4172
g81
I3
ssg82
Nsg75
(lp4173
g68
(g84
g70
NtRp4174
(dp4175
g73
(dp4176
sg82
g4170
sg75
(lp4177
g68
(g89
g70
NtRp4178
(dp4179
g73
(dp4180
sg82
g4174
sg75
(lp4181
g68
(g69
g70
NtRp4182
(dp4183
g73
(dp4184
g81
I3
ssg82
g4178
sg75
(lp4185
g3905
(S's\x0f\x00\x00\x00SendForm - Dojo'
tRp4186
asbasbasbag68
(g84
g70
NtRp4187
(dp4188
g73
(dp4189
sg82
g4170
sg75
(lp4190
g68
(g89
g70
NtRp4191
(dp4192
g73
(dp4193
sg82
g4187
sg75
(lp4194
g68
(g69
g70
NtRp4195
(dp4196
g73
(dp4197
g81
I3
ssg82
g4191
sg75
(lp4198
g1178
asbasbasbag68
(g84
g70
NtRp4199
(dp4200
g73
(dp4201
sg82
g4170
sg75
(lp4202
g68
(g89
g70
NtRp4203
(dp4204
g73
(dp4205
sg82
g4199
sg75
(lp4206
g68
(g69
g70
NtRp4207
(dp4208
g73
(dp4209
g81
I3
ssg82
g4203
sg75
(lp4210
S'/gallery/default/sendform'
p4211
asbasbasbag68
(g84
g70
NtRp4212
(dp4213
g73
(dp4214
sg82
g4170
sg75
(lp4215
g68
(g89
g70
NtRp4216
(dp4217
g73
(dp4218
sg82
g4212
sg75
(lp4219
g68
(g69
g70
NtRp4220
(dp4221
g73
(dp4222
g81
I3
ssg82
g4216
sg75
(lp4223
g68
(g77
g70
NtRp4224
(dp4225
g73
(dp4226
g81
I2
ssg82
Nsg75
(lp4227
sbasbasbasbasbasbasbasbasbasbasbasbag68
(g84
g70
NtRp4228
(dp4229
g73
(dp4230
sg82
g3400
sg75
(lp4231
g68
(g89
g70
NtRp4232
(dp4233
g73
(dp4234
g93
g94
ssg82
g4228
sg75
(lp4235
S'meta'
p4236
asbag68
(g89
g70
NtRp4237
(dp4238
g73
(dp4239
g100
g101
ssg82
g4228
sg75
(lp4240
S':'
asbag68
(g89
g70
NtRp4241
(dp4242
g73
(dp4243
sg82
g4228
sg75
(lp4244
g68
(g69
g70
NtRp4245
(dp4246
g73
(dp4247
g81
I5
ssg82
g4241
sg75
(lp4248
g68
(g77
g70
NtRp4249
(dp4250
g73
(dp4251
g81
I4
ssg82
Nsg75
(lp4252
g68
(g84
g70
NtRp4253
(dp4254
g73
(dp4255
sg82
g4249
sg75
(lp4256
g68
(g89
g70
NtRp4257
(dp4258
g73
(dp4259
g93
g94
ssg82
g4253
sg75
(lp4260
S'author'
p4261
asbag68
(g89
g70
NtRp4262
(dp4263
g73
(dp4264
g100
g101
ssg82
g4253
sg75
(lp4265
S':'
asbag68
(g89
g70
NtRp4266
(dp4267
g73
(dp4268
sg82
g4253
sg75
(lp4269
g68
(g69
g70
NtRp4270
(dp4271
g73
(dp4272
g81
I4
ssg82
g4266
sg75
(lp4273
S'Your Name <you@example.com>'
p4274
asbasbasbag68
(g84
g70
NtRp4275
(dp4276
g73
(dp4277
sg82
g4249
sg75
(lp4278
g68
(g89
g70
NtRp4279
(dp4280
g73
(dp4281
g93
g94
ssg82
g4275
sg75
(lp4282
S'copyright'
p4283
asbag68
(g89
g70
NtRp4284
(dp4285
g73
(dp4286
g100
g101
ssg82
g4275
sg75
(lp4287
S':'
asbag68
(g89
g70
NtRp4288
(dp4289
g73
(dp4290
sg82
g4275
sg75
(lp4291
g68
(g69
g70
NtRp4292
(dp4293
g73
(dp4294
g81
I4
ssg82
g4288
sg75
(lp4295
S'Copyright 2011'
p4296
asbasbasbag68
(g84
g70
NtRp4297
(dp4298
g73
(dp4299
sg82
g4249
sg75
(lp4300
g68
(g89
g70
NtRp4301
(dp4302
g73
(dp4303
g93
g94
ssg82
g4297
sg75
(lp4304
S'description'
p4305
asbag68
(g89
g70
NtRp4306
(dp4307
g73
(dp4308
g100
g101
ssg82
g4297
sg75
(lp4309
S':'
asbag68
(g89
g70
NtRp4310
(dp4311
g73
(dp4312
sg82
g4297
sg75
(lp4313
g68
(g69
g70
NtRp4314
(dp4315
g73
(dp4316
g81
I4
ssg82
g4310
sg75
(lp4317
S'a cool new app'
p4318
asbasbasbag68
(g84
g70
NtRp4319
(dp4320
g73
(dp4321
sg82
g4249
sg75
(lp4322
g68
(g89
g70
NtRp4323
(dp4324
g73
(dp4325
g93
g94
ssg82
g4319
sg75
(lp4326
S'generator'
p4327
asbag68
(g89
g70
NtRp4328
(dp4329
g73
(dp4330
g100
g101
ssg82
g4319
sg75
(lp4331
S':'
asbag68
(g89
g70
NtRp4332
(dp4333
g73
(dp4334
sg82
g4319
sg75
(lp4335
g68
(g69
g70
NtRp4336
(dp4337
g73
(dp4338
g81
I4
ssg82
g4332
sg75
(lp4339
S'Web2py Web Framework'
p4340
asbasbasbag68
(g84
g70
NtRp4341
(dp4342
g73
(dp4343
sg82
g4249
sg75
(lp4344
g68
(g89
g70
NtRp4345
(dp4346
g73
(dp4347
g93
g94
ssg82
g4341
sg75
(lp4348
S'keywords'
p4349
asbag68
(g89
g70
NtRp4350
(dp4351
g73
(dp4352
g100
g101
ssg82
g4341
sg75
(lp4353
S':'
asbag68
(g89
g70
NtRp4354
(dp4355
g73
(dp4356
sg82
g4341
sg75
(lp4357
g68
(g69
g70
NtRp4358
(dp4359
g73
(dp4360
g81
I4
ssg82
g4354
sg75
(lp4361
S'web2py, python, framework'
p4362
asbasbasbasbasbasbasbag68
(g84
g70
NtRp4363
(dp4364
g73
(dp4365
sg82
g3400
sg75
(lp4366
g68
(g89
g70
NtRp4367
(dp4368
g73
(dp4369
g93
g94
ssg82
g4363
sg75
(lp4370
S'postprocessing'
p4371
asbag68
(g89
g70
NtRp4372
(dp4373
g73
(dp4374
g100
g101
ssg82
g4363
sg75
(lp4375
S':'
asbag68
(g89
g70
NtRp4376
(dp4377
g73
(dp4378
sg82
g4363
sg75
(lp4379
g68
(g69
g70
NtRp4380
(dp4381
g73
(dp4382
g81
I5
ssg82
g4376
sg75
(lp4383
g68
(g77
g70
NtRp4384
(dp4385
g73
(dp4386
g81
I4
ssg82
Nsg75
(lp4387
sbasbasbasbag68
(g84
g70
NtRp4388
(dp4389
g73
(dp4390
sg82
g3400
sg75
(lp4391
g68
(g89
g70
NtRp4392
(dp4393
g73
(dp4394
g93
g94
ssg82
g4388
sg75
(lp4395
S'session_file'
p4396
asbag68
(g89
g70
NtRp4397
(dp4398
g73
(dp4399
g100
g101
ssg82
g4388
sg75
(lp4400
S':'
asbag68
(g89
g70
NtRp4401
(dp4402
g73
(dp4403
sg82
g4388
sg75
(lp4404
g68
(g69
g70
NtRp4405
(dp4406
g73
(dp4407
g81
I5
ssg82
g4401
sg75
(lp4408
S"<open file '/home/brencam/web2py/applications/gallery/sessions/127.0.0.1-5764d7f9-8178-4db1-bc94-76589577a2e3', mode 'rb+' at 0xaf725f40>"
p4409
asbasbasbag68
(g84
g70
NtRp4410
(dp4411
g73
(dp4412
sg82
g3400
sg75
(lp4413
g68
(g89
g70
NtRp4414
(dp4415
g73
(dp4416
g93
g94
ssg82
g4410
sg75
(lp4417
S'session_filename'
p4418
asbag68
(g89
g70
NtRp4419
(dp4420
g73
(dp4421
g100
g101
ssg82
g4410
sg75
(lp4422
S':'
asbag68
(g89
g70
NtRp4423
(dp4424
g73
(dp4425
sg82
g4410
sg75
(lp4426
g68
(g69
g70
NtRp4427
(dp4428
g73
(dp4429
g81
I5
ssg82
g4423
sg75
(lp4430
S'/home/brencam/web2py/applications/gallery/sessions/127.0.0.1-5764d7f9-8178-4db1-bc94-76589577a2e3'
p4431
asbasbasbag68
(g84
g70
NtRp4432
(dp4433
g73
(dp4434
sg82
g3400
sg75
(lp4435
g68
(g89
g70
NtRp4436
(dp4437
g73
(dp4438
g93
g94
ssg82
g4432
sg75
(lp4439
S'session_id'
p4440
asbag68
(g89
g70
NtRp4441
(dp4442
g73
(dp4443
g100
g101
ssg82
g4432
sg75
(lp4444
S':'
asbag68
(g89
g70
NtRp4445
(dp4446
g73
(dp4447
sg82
g4432
sg75
(lp4448
g68
(g69
g70
NtRp4449
(dp4450
g73
(dp4451
g81
I5
ssg82
g4445
sg75
(lp4452
S'127.0.0.1-5764d7f9-8178-4db1-bc94-76589577a2e3'
p4453
asbasbasbag68
(g84
g70
NtRp4454
(dp4455
g73
(dp4456
sg82
g3400
sg75
(lp4457
g68
(g89
g70
NtRp4458
(dp4459
g73
(dp4460
g93
g94
ssg82
g4454
sg75
(lp4461
S'session_id_name'
p4462
asbag68
(g89
g70
NtRp4463
(dp4464
g73
(dp4465
g100
g101
ssg82
g4454
sg75
(lp4466
S':'
asbag68
(g89
g70
NtRp4467
(dp4468
g73
(dp4469
sg82
g4454
sg75
(lp4470
g68
(g69
g70
NtRp4471
(dp4472
g73
(dp4473
g81
I5
ssg82
g4467
sg75
(lp4474
g3457
asbasbasbag68
(g84
g70
NtRp4475
(dp4476
g73
(dp4477
sg82
g3400
sg75
(lp4478
g68
(g89
g70
NtRp4479
(dp4480
g73
(dp4481
g93
g94
ssg82
g4475
sg75
(lp4482
S'session_locked'
p4483
asbag68
(g89
g70
NtRp4484
(dp4485
g73
(dp4486
g100
g101
ssg82
g4475
sg75
(lp4487
S':'
asbag68
(g89
g70
NtRp4488
(dp4489
g73
(dp4490
sg82
g4475
sg75
(lp4491
g68
(g69
g70
NtRp4492
(dp4493
g73
(dp4494
g81
I5
ssg82
g4488
sg75
(lp4495
g111
asbasbasbag68
(g84
g70
NtRp4496
(dp4497
g73
(dp4498
sg82
g3400
sg75
(lp4499
g68
(g89
g70
NtRp4500
(dp4501
g73
(dp4502
g93
g94
ssg82
g4496
sg75
(lp4503
S'session_new'
p4504
asbag68
(g89
g70
NtRp4505
(dp4506
g73
(dp4507
g100
g101
ssg82
g4496
sg75
(lp4508
S':'
asbag68
(g89
g70
NtRp4509
(dp4510
g73
(dp4511
sg82
g4496
sg75
(lp4512
g68
(g69
g70
NtRp4513
(dp4514
g73
(dp4515
g81
I5
ssg82
g4509
sg75
(lp4516
g1178
asbasbasbag68
(g84
g70
NtRp4517
(dp4518
g73
(dp4519
sg82
g3400
sg75
(lp4520
g68
(g89
g70
NtRp4521
(dp4522
g73
(dp4523
g93
g94
ssg82
g4517
sg75
(lp4524
S'status'
p4525
asbag68
(g89
g70
NtRp4526
(dp4527
g73
(dp4528
g100
g101
ssg82
g4517
sg75
(lp4529
S':'
asbag68
(g89
g70
NtRp4530
(dp4531
g73
(dp4532
sg82
g4517
sg75
(lp4533
g68
(g69
g70
NtRp4534
(dp4535
g73
(dp4536
g81
I5
ssg82
g4530
sg75
(lp4537
S'200'
p4538
asbasbasbag68
(g84
g70
NtRp4539
(dp4540
g73
(dp4541
sg82
g3400
sg75
(lp4542
g68
(g89
g70
NtRp4543
(dp4544
g73
(dp4545
g93
g94
ssg82
g4539
sg75
(lp4546
S'subtitle'
p4547
asbag68
(g89
g70
NtRp4548
(dp4549
g73
(dp4550
g100
g101
ssg82
g4539
sg75
(lp4551
S':'
asbag68
(g89
g70
NtRp4552
(dp4553
g73
(dp4554
sg82
g4539
sg75
(lp4555
g68
(g69
g70
NtRp4556
(dp4557
g73
(dp4558
g81
I5
ssg82
g4552
sg75
(lp4559
g3905
(S's1\x00\x00\x00Web2py and CSS, JQuery vs Dojo Image Gallery Demo'
tRp4560
asbasbasbag68
(g84
g70
NtRp4561
(dp4562
g73
(dp4563
sg82
g3400
sg75
(lp4564
g68
(g89
g70
NtRp4565
(dp4566
g73
(dp4567
g93
g94
ssg82
g4561
sg75
(lp4568
S'title'
p4569
asbag68
(g89
g70
NtRp4570
(dp4571
g73
(dp4572
g100
g101
ssg82
g4561
sg75
(lp4573
S':'
asbag68
(g89
g70
NtRp4574
(dp4575
g73
(dp4576
sg82
g4561
sg75
(lp4577
g68
(g69
g70
NtRp4578
(dp4579
g73
(dp4580
g81
I5
ssg82
g4574
sg75
(lp4581
S'My Photo Gallery Demo'
p4582
asbasbasbag68
(g84
g70
NtRp4583
(dp4584
g73
(dp4585
sg82
g3400
sg75
(lp4586
g68
(g89
g70
NtRp4587
(dp4588
g73
(dp4589
g93
g94
ssg82
g4583
sg75
(lp4590
g2583
asbag68
(g89
g70
NtRp4591
(dp4592
g73
(dp4593
g100
g101
ssg82
g4583
sg75
(lp4594
S':'
asbag68
(g89
g70
NtRp4595
(dp4596
g73
(dp4597
sg82
g4583
sg75
(lp4598
g68
(g69
g70
NtRp4599
(dp4600
g73
(dp4601
g81
I5
ssg82
g4595
sg75
(lp4602
g2596
asbasbasbag68
(g84
g70
NtRp4603
(dp4604
g73
(dp4605
sg82
g3400
sg75
(lp4606
g68
(g89
g70
NtRp4607
(dp4608
g73
(dp4609
g93
g94
ssg82
g4603
sg75
(lp4610
S'view'
p4611
asbag68
(g89
g70
NtRp4612
(dp4613
g73
(dp4614
g100
g101
ssg82
g4603
sg75
(lp4615
S':'
asbag68
(g89
g70
NtRp4616
(dp4617
g73
(dp4618
sg82
g4603
sg75
(lp4619
g68
(g69
g70
NtRp4620
(dp4621
g73
(dp4622
g81
I5
ssg82
g4616
sg75
(lp4623
S'search/getnames.html'
p4624
asbasbasbasbasbsS'locals'
p4625
(dp4626
g3
S"'/home/brencam/web2py/applications/gallery/controllers/search.py'"
p4627
sg5
S"'# Search Controller\\nimport datetime\\n\\ndef getname...]))\\n\\n\\n\\nresponse._vars=response._caller(getnames)\\n'"
p4628
sssS'traceback'
p4629
S'Traceback (most recent call last):\n  File "/home/brencam/web2py/gluon/restricted.py", line 193, in restricted\n    ccode = compile2(code,layer)\n  File "/home/brencam/web2py/gluon/restricted.py", line 179, in compile2\n    return compile(code.rstrip().replace(\'\\r\\n\',\'\\n\')+\'\\n\', layer, \'exec\')\n  File "/home/brencam/web2py/applications/gallery/controllers/search.py", line 24\n    return XML(DIV(LI(A=r.title, (IMG(_src=URL(\'default\',\'download\', args= r.file), _alt="", _width="120",  _height="100"), _href=URL(\'default\',\'index\')))))\n                                                                                                                                 ^\nSyntaxError: invalid syntax\n'
p4630
s.