(dp1
S'output'
p2
S''
sS'layer'
p3
S'/home/brencam/web2py/applications/gallery/controllers/search.py'
p4
sS'code'
p5
S'# Search Controller\nimport datetime\n\ndef getnames():\n    # for ajax search -  find list of images - match on search string\n    # (need to return list in json format ??)\n    print \'*************  processing ajax request *********** at %s\' %datetime.datetime.now().ctime()\n\n    sval =\'\'\n    if  request.vars[\'q\']:\n        sval = request.vars[\'q\']\n\n        #queries with %LIKE% ****HERE BE THE DRAGONS!!!!******\n\n        images = db(db.image.title.like(sval+\'%\')).select()\n    else:\n        images = db(db.image.ALL).select()\n\n#    html =  XML( <img src="{{=URL(\'download\', args=image.file)}}" width="120"  height="100"  for image in images)\n\n#    print \'***************   html **********\' html\n  \n    r = images[0]\n    return XML(DIV(LI(r.title, A(IMG(_src=URL(\'default\',\'download\', args= r.file), _alt="", _width="120",  _height="100"), _href=URL(\'default\',\'index\')))))\n\n\n#    return XML( A(IMG(_src=URL(\'default\',\'download\', args= r.file), _alt="", _width="120",  _height="100"), _href=URL(\'default\',\'index\')))\n\n    \n\n#<li><img  src="{{=URL(\'download\', args=image.file)}}" width="120"  height="100" />{{=A(image.title, _href=URL("show", args=image.id))}}\n#</li>\n\n\n    # Can I do a redirect from ajax request with the search results ??\n    #redirect (URL(\'default\', \'showcss\'))\n\n    # Note the URL Syntax here to create a link to a different controller (the default)\n    # How to show thumbnails for selected images here as well ??\n#    return XML(UL(*[LI(A(\'%s \' % (img.title),_href=URL(\'default\',\'show\',args=img.id)))\\\n#                    for img in images]))\n\n\n\nresponse._vars=response._caller(getnames)\n'
p6
sS'snapshot'
p7
(dp8
S'exception'
p9
(dp10
S'__hash__'
p11
S"<method-wrapper '__hash__' of exceptions.IndexError object>"
p12
sS'__setattr__'
p13
S"<method-wrapper '__setattr__' of exceptions.IndexError object>"
p14
sS'__reduce_ex__'
p15
S'<built-in method __reduce_ex__ of exceptions.IndexError object>'
p16
sS'__getslice__'
p17
S"<method-wrapper '__getslice__' of exceptions.IndexError object>"
p18
sS'__getitem__'
p19
S"<method-wrapper '__getitem__' of exceptions.IndexError object>"
p20
sS'__setstate__'
p21
S'<built-in method __setstate__ of exceptions.IndexError object>'
p22
sS'__reduce__'
p23
S'<built-in method __reduce__ of exceptions.IndexError object>'
p24
sS'__str__'
p25
S"<method-wrapper '__str__' of exceptions.IndexError object>"
p26
sS'__format__'
p27
S'<built-in method __format__ of exceptions.IndexError object>'
p28
sS'__getattribute__'
p29
S"<method-wrapper '__getattribute__' of exceptions.IndexError object>"
p30
sS'__class__'
p31
S"<type 'exceptions.IndexError'>"
p32
sS'__unicode__'
p33
S'<built-in method __unicode__ of exceptions.IndexError object>'
p34
sS'__delattr__'
p35
S"<method-wrapper '__delattr__' of exceptions.IndexError object>"
p36
sS'__subclasshook__'
p37
S'<built-in method __subclasshook__ of type object>'
p38
sS'__repr__'
p39
S"<method-wrapper '__repr__' of exceptions.IndexError object>"
p40
sS'args'
p41
S"('list index out of range',)"
p42
sS'__dict__'
p43
S'{}'
p44
sS'__sizeof__'
p45
S'<built-in method __sizeof__ of exceptions.IndexError object>'
p46
sS'__doc__'
p47
S"'Sequence index out of range.'"
p48
sS'__init__'
p49
S"<method-wrapper '__init__' of exceptions.IndexError object>"
p50
sS'__new__'
p51
S'<built-in method __new__ of type object>'
p52
ssS'evalue'
p53
S'list index out of range'
p54
sS'request'
p55
ccopy_reg
_reconstructor
p56
(cgluon.html
BEAUTIFY
p57
c__builtin__
object
p58
NtRp59
(dp60
S'attributes'
p61
(dp62
sS'components'
p63
(lp64
g56
(cgluon.html
TABLE
p65
g58
NtRp66
(dp67
g61
(dp68
S'level'
p69
I5
ssS'parent'
p70
Nsg63
(lp71
g56
(cgluon.html
TR
p72
g58
NtRp73
(dp74
g61
(dp75
sg70
g66
sg63
(lp76
g56
(cgluon.html
TD
p77
g58
NtRp78
(dp79
g61
(dp80
S'_style'
p81
S'font-weight:bold;'
p82
ssg70
g73
sg63
(lp83
S'ajax'
p84
asbag56
(g77
g58
NtRp85
(dp86
g61
(dp87
S'_valign'
p88
S'top'
p89
ssg70
g73
sg63
(lp90
S':'
asbag56
(g77
g58
NtRp91
(dp92
g61
(dp93
sg70
g73
sg63
(lp94
g56
(g57
g58
NtRp95
(dp96
g61
(dp97
g69
I5
ssg70
g91
sg63
(lp98
S'True'
p99
asbasbasbag56
(g72
g58
NtRp100
(dp101
g61
(dp102
sg70
g66
sg63
(lp103
g56
(g77
g58
NtRp104
(dp105
g61
(dp106
g81
g82
ssg70
g100
sg63
(lp107
S'application'
p108
asbag56
(g77
g58
NtRp109
(dp110
g61
(dp111
g88
g89
ssg70
g100
sg63
(lp112
S':'
asbag56
(g77
g58
NtRp113
(dp114
g61
(dp115
sg70
g100
sg63
(lp116
g56
(g57
g58
NtRp117
(dp118
g61
(dp119
g69
I5
ssg70
g113
sg63
(lp120
S'gallery'
p121
asbasbasbag56
(g72
g58
NtRp122
(dp123
g61
(dp124
sg70
g66
sg63
(lp125
g56
(g77
g58
NtRp126
(dp127
g61
(dp128
g81
g82
ssg70
g122
sg63
(lp129
g41
asbag56
(g77
g58
NtRp130
(dp131
g61
(dp132
g88
g89
ssg70
g122
sg63
(lp133
S':'
asbag56
(g77
g58
NtRp134
(dp135
g61
(dp136
sg70
g122
sg63
(lp137
g56
(g57
g58
NtRp138
(dp139
g61
(dp140
g69
I5
ssg70
g134
sg63
(lp141
g56
(g65
g58
NtRp142
(dp143
g61
(dp144
g69
I4
ssg70
Nsg63
(lp145
sbasbasbasbag56
(g72
g58
NtRp146
(dp147
g61
(dp148
sg70
g66
sg63
(lp149
g56
(g77
g58
NtRp150
(dp151
g61
(dp152
g81
g82
ssg70
g146
sg63
(lp153
S'body'
p154
asbag56
(g77
g58
NtRp155
(dp156
g61
(dp157
g88
g89
ssg70
g146
sg63
(lp158
S':'
asbag56
(g77
g58
NtRp159
(dp160
g61
(dp161
sg70
g146
sg63
(lp162
g56
(g57
g58
NtRp163
(dp164
g61
(dp165
g69
I5
ssg70
g159
sg63
(lp166
S'<cStringIO.StringO object at 0xaf15fe20>'
p167
asbasbasbag56
(g72
g58
NtRp168
(dp169
g61
(dp170
sg70
g66
sg63
(lp171
g56
(g77
g58
NtRp172
(dp173
g61
(dp174
g81
g82
ssg70
g168
sg63
(lp175
S'client'
p176
asbag56
(g77
g58
NtRp177
(dp178
g61
(dp179
g88
g89
ssg70
g168
sg63
(lp180
S':'
asbag56
(g77
g58
NtRp181
(dp182
g61
(dp183
sg70
g168
sg63
(lp184
g56
(g57
g58
NtRp185
(dp186
g61
(dp187
g69
I5
ssg70
g181
sg63
(lp188
S'127.0.0.1'
p189
asbasbasbag56
(g72
g58
NtRp190
(dp191
g61
(dp192
sg70
g66
sg63
(lp193
g56
(g77
g58
NtRp194
(dp195
g61
(dp196
g81
g82
ssg70
g190
sg63
(lp197
S'controller'
p198
asbag56
(g77
g58
NtRp199
(dp200
g61
(dp201
g88
g89
ssg70
g190
sg63
(lp202
S':'
asbag56
(g77
g58
NtRp203
(dp204
g61
(dp205
sg70
g190
sg63
(lp206
g56
(g57
g58
NtRp207
(dp208
g61
(dp209
g69
I5
ssg70
g203
sg63
(lp210
S'search'
p211
asbasbasbag56
(g72
g58
NtRp212
(dp213
g61
(dp214
sg70
g66
sg63
(lp215
g56
(g77
g58
NtRp216
(dp217
g61
(dp218
g81
g82
ssg70
g212
sg63
(lp219
S'cookies'
p220
asbag56
(g77
g58
NtRp221
(dp222
g61
(dp223
g88
g89
ssg70
g212
sg63
(lp224
S':'
asbag56
(g77
g58
NtRp225
(dp226
g61
(dp227
sg70
g212
sg63
(lp228
g56
(g57
g58
NtRp229
(dp230
g61
(dp231
g69
I5
ssg70
g225
sg63
(lp232
g56
(g65
g58
NtRp233
(dp234
g61
(dp235
g69
I4
ssg70
Nsg63
(lp236
g56
(g72
g58
NtRp237
(dp238
g61
(dp239
sg70
g233
sg63
(lp240
g56
(g77
g58
NtRp241
(dp242
g61
(dp243
g81
g82
ssg70
g237
sg63
(lp244
S'csrftoken'
p245
asbag56
(g77
g58
NtRp246
(dp247
g61
(dp248
g88
g89
ssg70
g237
sg63
(lp249
S':'
asbag56
(g77
g58
NtRp250
(dp251
g61
(dp252
sg70
g237
sg63
(lp253
g56
(g57
g58
NtRp254
(dp255
g61
(dp256
g69
I4
ssg70
g250
sg63
(lp257
g56
(g65
g58
NtRp258
(dp259
g61
(dp260
g69
I3
ssg70
Nsg63
(lp261
g56
(g72
g58
NtRp262
(dp263
g61
(dp264
sg70
g258
sg63
(lp265
g56
(g77
g58
NtRp266
(dp267
g61
(dp268
g81
g82
ssg70
g262
sg63
(lp269
S'comment'
p270
asbag56
(g77
g58
NtRp271
(dp272
g61
(dp273
g88
g89
ssg70
g262
sg63
(lp274
S':'
asbag56
(g77
g58
NtRp275
(dp276
g61
(dp277
sg70
g262
sg63
(lp278
g56
(g57
g58
NtRp279
(dp280
g61
(dp281
g69
I3
ssg70
g275
sg63
(lp282
S''
asbasbasbag56
(g72
g58
NtRp283
(dp284
g61
(dp285
sg70
g258
sg63
(lp286
g56
(g77
g58
NtRp287
(dp288
g61
(dp289
g81
g82
ssg70
g283
sg63
(lp290
S'domain'
p291
asbag56
(g77
g58
NtRp292
(dp293
g61
(dp294
g88
g89
ssg70
g283
sg63
(lp295
S':'
asbag56
(g77
g58
NtRp296
(dp297
g61
(dp298
sg70
g283
sg63
(lp299
g56
(g57
g58
NtRp300
(dp301
g61
(dp302
g69
I3
ssg70
g296
sg63
(lp303
S''
asbasbasbag56
(g72
g58
NtRp304
(dp305
g61
(dp306
sg70
g258
sg63
(lp307
g56
(g77
g58
NtRp308
(dp309
g61
(dp310
g81
g82
ssg70
g304
sg63
(lp311
S'expires'
p312
asbag56
(g77
g58
NtRp313
(dp314
g61
(dp315
g88
g89
ssg70
g304
sg63
(lp316
S':'
asbag56
(g77
g58
NtRp317
(dp318
g61
(dp319
sg70
g304
sg63
(lp320
g56
(g57
g58
NtRp321
(dp322
g61
(dp323
g69
I3
ssg70
g317
sg63
(lp324
S''
asbasbasbag56
(g72
g58
NtRp325
(dp326
g61
(dp327
sg70
g258
sg63
(lp328
g56
(g77
g58
NtRp329
(dp330
g61
(dp331
g81
g82
ssg70
g325
sg63
(lp332
S'httponly'
p333
asbag56
(g77
g58
NtRp334
(dp335
g61
(dp336
g88
g89
ssg70
g325
sg63
(lp337
S':'
asbag56
(g77
g58
NtRp338
(dp339
g61
(dp340
sg70
g325
sg63
(lp341
g56
(g57
g58
NtRp342
(dp343
g61
(dp344
g69
I3
ssg70
g338
sg63
(lp345
S''
asbasbasbag56
(g72
g58
NtRp346
(dp347
g61
(dp348
sg70
g258
sg63
(lp349
g56
(g77
g58
NtRp350
(dp351
g61
(dp352
g81
g82
ssg70
g346
sg63
(lp353
S'max-age'
p354
asbag56
(g77
g58
NtRp355
(dp356
g61
(dp357
g88
g89
ssg70
g346
sg63
(lp358
S':'
asbag56
(g77
g58
NtRp359
(dp360
g61
(dp361
sg70
g346
sg63
(lp362
g56
(g57
g58
NtRp363
(dp364
g61
(dp365
g69
I3
ssg70
g359
sg63
(lp366
S''
asbasbasbag56
(g72
g58
NtRp367
(dp368
g61
(dp369
sg70
g258
sg63
(lp370
g56
(g77
g58
NtRp371
(dp372
g61
(dp373
g81
g82
ssg70
g367
sg63
(lp374
S'path'
p375
asbag56
(g77
g58
NtRp376
(dp377
g61
(dp378
g88
g89
ssg70
g367
sg63
(lp379
S':'
asbag56
(g77
g58
NtRp380
(dp381
g61
(dp382
sg70
g367
sg63
(lp383
g56
(g57
g58
NtRp384
(dp385
g61
(dp386
g69
I3
ssg70
g380
sg63
(lp387
S''
asbasbasbag56
(g72
g58
NtRp388
(dp389
g61
(dp390
sg70
g258
sg63
(lp391
g56
(g77
g58
NtRp392
(dp393
g61
(dp394
g81
g82
ssg70
g388
sg63
(lp395
S'secure'
p396
asbag56
(g77
g58
NtRp397
(dp398
g61
(dp399
g88
g89
ssg70
g388
sg63
(lp400
S':'
asbag56
(g77
g58
NtRp401
(dp402
g61
(dp403
sg70
g388
sg63
(lp404
g56
(g57
g58
NtRp405
(dp406
g61
(dp407
g69
I3
ssg70
g401
sg63
(lp408
S''
asbasbasbag56
(g72
g58
NtRp409
(dp410
g61
(dp411
sg70
g258
sg63
(lp412
g56
(g77
g58
NtRp413
(dp414
g61
(dp415
g81
g82
ssg70
g409
sg63
(lp416
S'version'
p417
asbag56
(g77
g58
NtRp418
(dp419
g61
(dp420
g88
g89
ssg70
g409
sg63
(lp421
S':'
asbag56
(g77
g58
NtRp422
(dp423
g61
(dp424
sg70
g409
sg63
(lp425
g56
(g57
g58
NtRp426
(dp427
g61
(dp428
g69
I3
ssg70
g422
sg63
(lp429
S''
asbasbasbasbasbasbasbag56
(g72
g58
NtRp430
(dp431
g61
(dp432
sg70
g233
sg63
(lp433
g56
(g77
g58
NtRp434
(dp435
g61
(dp436
g81
g82
ssg70
g430
sg63
(lp437
S'session_id_admin'
p438
asbag56
(g77
g58
NtRp439
(dp440
g61
(dp441
g88
g89
ssg70
g430
sg63
(lp442
S':'
asbag56
(g77
g58
NtRp443
(dp444
g61
(dp445
sg70
g430
sg63
(lp446
g56
(g57
g58
NtRp447
(dp448
g61
(dp449
g69
I4
ssg70
g443
sg63
(lp450
g56
(g65
g58
NtRp451
(dp452
g61
(dp453
g69
I3
ssg70
Nsg63
(lp454
g56
(g72
g58
NtRp455
(dp456
g61
(dp457
sg70
g451
sg63
(lp458
g56
(g77
g58
NtRp459
(dp460
g61
(dp461
g81
g82
ssg70
g455
sg63
(lp462
g270
asbag56
(g77
g58
NtRp463
(dp464
g61
(dp465
g88
g89
ssg70
g455
sg63
(lp466
S':'
asbag56
(g77
g58
NtRp467
(dp468
g61
(dp469
sg70
g455
sg63
(lp470
g56
(g57
g58
NtRp471
(dp472
g61
(dp473
g69
I3
ssg70
g467
sg63
(lp474
S''
asbasbasbag56
(g72
g58
NtRp475
(dp476
g61
(dp477
sg70
g451
sg63
(lp478
g56
(g77
g58
NtRp479
(dp480
g61
(dp481
g81
g82
ssg70
g475
sg63
(lp482
g291
asbag56
(g77
g58
NtRp483
(dp484
g61
(dp485
g88
g89
ssg70
g475
sg63
(lp486
S':'
asbag56
(g77
g58
NtRp487
(dp488
g61
(dp489
sg70
g475
sg63
(lp490
g56
(g57
g58
NtRp491
(dp492
g61
(dp493
g69
I3
ssg70
g487
sg63
(lp494
S''
asbasbasbag56
(g72
g58
NtRp495
(dp496
g61
(dp497
sg70
g451
sg63
(lp498
g56
(g77
g58
NtRp499
(dp500
g61
(dp501
g81
g82
ssg70
g495
sg63
(lp502
g312
asbag56
(g77
g58
NtRp503
(dp504
g61
(dp505
g88
g89
ssg70
g495
sg63
(lp506
S':'
asbag56
(g77
g58
NtRp507
(dp508
g61
(dp509
sg70
g495
sg63
(lp510
g56
(g57
g58
NtRp511
(dp512
g61
(dp513
g69
I3
ssg70
g507
sg63
(lp514
S''
asbasbasbag56
(g72
g58
NtRp515
(dp516
g61
(dp517
sg70
g451
sg63
(lp518
g56
(g77
g58
NtRp519
(dp520
g61
(dp521
g81
g82
ssg70
g515
sg63
(lp522
g333
asbag56
(g77
g58
NtRp523
(dp524
g61
(dp525
g88
g89
ssg70
g515
sg63
(lp526
S':'
asbag56
(g77
g58
NtRp527
(dp528
g61
(dp529
sg70
g515
sg63
(lp530
g56
(g57
g58
NtRp531
(dp532
g61
(dp533
g69
I3
ssg70
g527
sg63
(lp534
S''
asbasbasbag56
(g72
g58
NtRp535
(dp536
g61
(dp537
sg70
g451
sg63
(lp538
g56
(g77
g58
NtRp539
(dp540
g61
(dp541
g81
g82
ssg70
g535
sg63
(lp542
g354
asbag56
(g77
g58
NtRp543
(dp544
g61
(dp545
g88
g89
ssg70
g535
sg63
(lp546
S':'
asbag56
(g77
g58
NtRp547
(dp548
g61
(dp549
sg70
g535
sg63
(lp550
g56
(g57
g58
NtRp551
(dp552
g61
(dp553
g69
I3
ssg70
g547
sg63
(lp554
S''
asbasbasbag56
(g72
g58
NtRp555
(dp556
g61
(dp557
sg70
g451
sg63
(lp558
g56
(g77
g58
NtRp559
(dp560
g61
(dp561
g81
g82
ssg70
g555
sg63
(lp562
g375
asbag56
(g77
g58
NtRp563
(dp564
g61
(dp565
g88
g89
ssg70
g555
sg63
(lp566
S':'
asbag56
(g77
g58
NtRp567
(dp568
g61
(dp569
sg70
g555
sg63
(lp570
g56
(g57
g58
NtRp571
(dp572
g61
(dp573
g69
I3
ssg70
g567
sg63
(lp574
S''
asbasbasbag56
(g72
g58
NtRp575
(dp576
g61
(dp577
sg70
g451
sg63
(lp578
g56
(g77
g58
NtRp579
(dp580
g61
(dp581
g81
g82
ssg70
g575
sg63
(lp582
g396
asbag56
(g77
g58
NtRp583
(dp584
g61
(dp585
g88
g89
ssg70
g575
sg63
(lp586
S':'
asbag56
(g77
g58
NtRp587
(dp588
g61
(dp589
sg70
g575
sg63
(lp590
g56
(g57
g58
NtRp591
(dp592
g61
(dp593
g69
I3
ssg70
g587
sg63
(lp594
S''
asbasbasbag56
(g72
g58
NtRp595
(dp596
g61
(dp597
sg70
g451
sg63
(lp598
g56
(g77
g58
NtRp599
(dp600
g61
(dp601
g81
g82
ssg70
g595
sg63
(lp602
g417
asbag56
(g77
g58
NtRp603
(dp604
g61
(dp605
g88
g89
ssg70
g595
sg63
(lp606
S':'
asbag56
(g77
g58
NtRp607
(dp608
g61
(dp609
sg70
g595
sg63
(lp610
g56
(g57
g58
NtRp611
(dp612
g61
(dp613
g69
I3
ssg70
g607
sg63
(lp614
S''
asbasbasbasbasbasbasbag56
(g72
g58
NtRp615
(dp616
g61
(dp617
sg70
g233
sg63
(lp618
g56
(g77
g58
NtRp619
(dp620
g61
(dp621
g81
g82
ssg70
g615
sg63
(lp622
S'session_id_gallery'
p623
asbag56
(g77
g58
NtRp624
(dp625
g61
(dp626
g88
g89
ssg70
g615
sg63
(lp627
S':'
asbag56
(g77
g58
NtRp628
(dp629
g61
(dp630
sg70
g615
sg63
(lp631
g56
(g57
g58
NtRp632
(dp633
g61
(dp634
g69
I4
ssg70
g628
sg63
(lp635
g56
(g65
g58
NtRp636
(dp637
g61
(dp638
g69
I3
ssg70
Nsg63
(lp639
g56
(g72
g58
NtRp640
(dp641
g61
(dp642
sg70
g636
sg63
(lp643
g56
(g77
g58
NtRp644
(dp645
g61
(dp646
g81
g82
ssg70
g640
sg63
(lp647
g270
asbag56
(g77
g58
NtRp648
(dp649
g61
(dp650
g88
g89
ssg70
g640
sg63
(lp651
S':'
asbag56
(g77
g58
NtRp652
(dp653
g61
(dp654
sg70
g640
sg63
(lp655
g56
(g57
g58
NtRp656
(dp657
g61
(dp658
g69
I3
ssg70
g652
sg63
(lp659
S''
asbasbasbag56
(g72
g58
NtRp660
(dp661
g61
(dp662
sg70
g636
sg63
(lp663
g56
(g77
g58
NtRp664
(dp665
g61
(dp666
g81
g82
ssg70
g660
sg63
(lp667
g291
asbag56
(g77
g58
NtRp668
(dp669
g61
(dp670
g88
g89
ssg70
g660
sg63
(lp671
S':'
asbag56
(g77
g58
NtRp672
(dp673
g61
(dp674
sg70
g660
sg63
(lp675
g56
(g57
g58
NtRp676
(dp677
g61
(dp678
g69
I3
ssg70
g672
sg63
(lp679
S''
asbasbasbag56
(g72
g58
NtRp680
(dp681
g61
(dp682
sg70
g636
sg63
(lp683
g56
(g77
g58
NtRp684
(dp685
g61
(dp686
g81
g82
ssg70
g680
sg63
(lp687
g312
asbag56
(g77
g58
NtRp688
(dp689
g61
(dp690
g88
g89
ssg70
g680
sg63
(lp691
S':'
asbag56
(g77
g58
NtRp692
(dp693
g61
(dp694
sg70
g680
sg63
(lp695
g56
(g57
g58
NtRp696
(dp697
g61
(dp698
g69
I3
ssg70
g692
sg63
(lp699
S''
asbasbasbag56
(g72
g58
NtRp700
(dp701
g61
(dp702
sg70
g636
sg63
(lp703
g56
(g77
g58
NtRp704
(dp705
g61
(dp706
g81
g82
ssg70
g700
sg63
(lp707
g333
asbag56
(g77
g58
NtRp708
(dp709
g61
(dp710
g88
g89
ssg70
g700
sg63
(lp711
S':'
asbag56
(g77
g58
NtRp712
(dp713
g61
(dp714
sg70
g700
sg63
(lp715
g56
(g57
g58
NtRp716
(dp717
g61
(dp718
g69
I3
ssg70
g712
sg63
(lp719
S''
asbasbasbag56
(g72
g58
NtRp720
(dp721
g61
(dp722
sg70
g636
sg63
(lp723
g56
(g77
g58
NtRp724
(dp725
g61
(dp726
g81
g82
ssg70
g720
sg63
(lp727
g354
asbag56
(g77
g58
NtRp728
(dp729
g61
(dp730
g88
g89
ssg70
g720
sg63
(lp731
S':'
asbag56
(g77
g58
NtRp732
(dp733
g61
(dp734
sg70
g720
sg63
(lp735
g56
(g57
g58
NtRp736
(dp737
g61
(dp738
g69
I3
ssg70
g732
sg63
(lp739
S''
asbasbasbag56
(g72
g58
NtRp740
(dp741
g61
(dp742
sg70
g636
sg63
(lp743
g56
(g77
g58
NtRp744
(dp745
g61
(dp746
g81
g82
ssg70
g740
sg63
(lp747
g375
asbag56
(g77
g58
NtRp748
(dp749
g61
(dp750
g88
g89
ssg70
g740
sg63
(lp751
S':'
asbag56
(g77
g58
NtRp752
(dp753
g61
(dp754
sg70
g740
sg63
(lp755
g56
(g57
g58
NtRp756
(dp757
g61
(dp758
g69
I3
ssg70
g752
sg63
(lp759
S''
asbasbasbag56
(g72
g58
NtRp760
(dp761
g61
(dp762
sg70
g636
sg63
(lp763
g56
(g77
g58
NtRp764
(dp765
g61
(dp766
g81
g82
ssg70
g760
sg63
(lp767
g396
asbag56
(g77
g58
NtRp768
(dp769
g61
(dp770
g88
g89
ssg70
g760
sg63
(lp771
S':'
asbag56
(g77
g58
NtRp772
(dp773
g61
(dp774
sg70
g760
sg63
(lp775
g56
(g57
g58
NtRp776
(dp777
g61
(dp778
g69
I3
ssg70
g772
sg63
(lp779
S''
asbasbasbag56
(g72
g58
NtRp780
(dp781
g61
(dp782
sg70
g636
sg63
(lp783
g56
(g77
g58
NtRp784
(dp785
g61
(dp786
g81
g82
ssg70
g780
sg63
(lp787
g417
asbag56
(g77
g58
NtRp788
(dp789
g61
(dp790
g88
g89
ssg70
g780
sg63
(lp791
S':'
asbag56
(g77
g58
NtRp792
(dp793
g61
(dp794
sg70
g780
sg63
(lp795
g56
(g57
g58
NtRp796
(dp797
g61
(dp798
g69
I3
ssg70
g792
sg63
(lp799
S''
asbasbasbasbasbasbasbag56
(g72
g58
NtRp800
(dp801
g61
(dp802
sg70
g233
sg63
(lp803
g56
(g77
g58
NtRp804
(dp805
g61
(dp806
g81
g82
ssg70
g800
sg63
(lp807
S'session_id_welcome'
p808
asbag56
(g77
g58
NtRp809
(dp810
g61
(dp811
g88
g89
ssg70
g800
sg63
(lp812
S':'
asbag56
(g77
g58
NtRp813
(dp814
g61
(dp815
sg70
g800
sg63
(lp816
g56
(g57
g58
NtRp817
(dp818
g61
(dp819
g69
I4
ssg70
g813
sg63
(lp820
g56
(g65
g58
NtRp821
(dp822
g61
(dp823
g69
I3
ssg70
Nsg63
(lp824
g56
(g72
g58
NtRp825
(dp826
g61
(dp827
sg70
g821
sg63
(lp828
g56
(g77
g58
NtRp829
(dp830
g61
(dp831
g81
g82
ssg70
g825
sg63
(lp832
g270
asbag56
(g77
g58
NtRp833
(dp834
g61
(dp835
g88
g89
ssg70
g825
sg63
(lp836
S':'
asbag56
(g77
g58
NtRp837
(dp838
g61
(dp839
sg70
g825
sg63
(lp840
g56
(g57
g58
NtRp841
(dp842
g61
(dp843
g69
I3
ssg70
g837
sg63
(lp844
S''
asbasbasbag56
(g72
g58
NtRp845
(dp846
g61
(dp847
sg70
g821
sg63
(lp848
g56
(g77
g58
NtRp849
(dp850
g61
(dp851
g81
g82
ssg70
g845
sg63
(lp852
g291
asbag56
(g77
g58
NtRp853
(dp854
g61
(dp855
g88
g89
ssg70
g845
sg63
(lp856
S':'
asbag56
(g77
g58
NtRp857
(dp858
g61
(dp859
sg70
g845
sg63
(lp860
g56
(g57
g58
NtRp861
(dp862
g61
(dp863
g69
I3
ssg70
g857
sg63
(lp864
S''
asbasbasbag56
(g72
g58
NtRp865
(dp866
g61
(dp867
sg70
g821
sg63
(lp868
g56
(g77
g58
NtRp869
(dp870
g61
(dp871
g81
g82
ssg70
g865
sg63
(lp872
g312
asbag56
(g77
g58
NtRp873
(dp874
g61
(dp875
g88
g89
ssg70
g865
sg63
(lp876
S':'
asbag56
(g77
g58
NtRp877
(dp878
g61
(dp879
sg70
g865
sg63
(lp880
g56
(g57
g58
NtRp881
(dp882
g61
(dp883
g69
I3
ssg70
g877
sg63
(lp884
S''
asbasbasbag56
(g72
g58
NtRp885
(dp886
g61
(dp887
sg70
g821
sg63
(lp888
g56
(g77
g58
NtRp889
(dp890
g61
(dp891
g81
g82
ssg70
g885
sg63
(lp892
g333
asbag56
(g77
g58
NtRp893
(dp894
g61
(dp895
g88
g89
ssg70
g885
sg63
(lp896
S':'
asbag56
(g77
g58
NtRp897
(dp898
g61
(dp899
sg70
g885
sg63
(lp900
g56
(g57
g58
NtRp901
(dp902
g61
(dp903
g69
I3
ssg70
g897
sg63
(lp904
S''
asbasbasbag56
(g72
g58
NtRp905
(dp906
g61
(dp907
sg70
g821
sg63
(lp908
g56
(g77
g58
NtRp909
(dp910
g61
(dp911
g81
g82
ssg70
g905
sg63
(lp912
g354
asbag56
(g77
g58
NtRp913
(dp914
g61
(dp915
g88
g89
ssg70
g905
sg63
(lp916
S':'
asbag56
(g77
g58
NtRp917
(dp918
g61
(dp919
sg70
g905
sg63
(lp920
g56
(g57
g58
NtRp921
(dp922
g61
(dp923
g69
I3
ssg70
g917
sg63
(lp924
S''
asbasbasbag56
(g72
g58
NtRp925
(dp926
g61
(dp927
sg70
g821
sg63
(lp928
g56
(g77
g58
NtRp929
(dp930
g61
(dp931
g81
g82
ssg70
g925
sg63
(lp932
g375
asbag56
(g77
g58
NtRp933
(dp934
g61
(dp935
g88
g89
ssg70
g925
sg63
(lp936
S':'
asbag56
(g77
g58
NtRp937
(dp938
g61
(dp939
sg70
g925
sg63
(lp940
g56
(g57
g58
NtRp941
(dp942
g61
(dp943
g69
I3
ssg70
g937
sg63
(lp944
S''
asbasbasbag56
(g72
g58
NtRp945
(dp946
g61
(dp947
sg70
g821
sg63
(lp948
g56
(g77
g58
NtRp949
(dp950
g61
(dp951
g81
g82
ssg70
g945
sg63
(lp952
g396
asbag56
(g77
g58
NtRp953
(dp954
g61
(dp955
g88
g89
ssg70
g945
sg63
(lp956
S':'
asbag56
(g77
g58
NtRp957
(dp958
g61
(dp959
sg70
g945
sg63
(lp960
g56
(g57
g58
NtRp961
(dp962
g61
(dp963
g69
I3
ssg70
g957
sg63
(lp964
S''
asbasbasbag56
(g72
g58
NtRp965
(dp966
g61
(dp967
sg70
g821
sg63
(lp968
g56
(g77
g58
NtRp969
(dp970
g61
(dp971
g81
g82
ssg70
g965
sg63
(lp972
g417
asbag56
(g77
g58
NtRp973
(dp974
g61
(dp975
g88
g89
ssg70
g965
sg63
(lp976
S':'
asbag56
(g77
g58
NtRp977
(dp978
g61
(dp979
sg70
g965
sg63
(lp980
g56
(g57
g58
NtRp981
(dp982
g61
(dp983
g69
I3
ssg70
g977
sg63
(lp984
S''
asbasbasbasbasbasbasbasbasbasbasbag56
(g72
g58
NtRp985
(dp986
g61
(dp987
sg70
g66
sg63
(lp988
g56
(g77
g58
NtRp989
(dp990
g61
(dp991
g81
g82
ssg70
g985
sg63
(lp992
S'env'
p993
asbag56
(g77
g58
NtRp994
(dp995
g61
(dp996
g88
g89
ssg70
g985
sg63
(lp997
S':'
asbag56
(g77
g58
NtRp998
(dp999
g61
(dp1000
sg70
g985
sg63
(lp1001
g56
(g57
g58
NtRp1002
(dp1003
g61
(dp1004
g69
I5
ssg70
g998
sg63
(lp1005
g56
(g65
g58
NtRp1006
(dp1007
g61
(dp1008
g69
I4
ssg70
Nsg63
(lp1009
g56
(g72
g58
NtRp1010
(dp1011
g61
(dp1012
sg70
g1006
sg63
(lp1013
g56
(g77
g58
NtRp1014
(dp1015
g61
(dp1016
g81
g82
ssg70
g1010
sg63
(lp1017
S'app_folders'
p1018
asbag56
(g77
g58
NtRp1019
(dp1020
g61
(dp1021
g88
g89
ssg70
g1010
sg63
(lp1022
S':'
asbag56
(g77
g58
NtRp1023
(dp1024
g61
(dp1025
sg70
g1010
sg63
(lp1026
g56
(g57
g58
NtRp1027
(dp1028
g61
(dp1029
g69
I4
ssg70
g1023
sg63
(lp1030
S"set(['/home/brencam/web2py/applications/gallery/'])"
p1031
asbasbasbag56
(g72
g58
NtRp1032
(dp1033
g61
(dp1034
sg70
g1006
sg63
(lp1035
g56
(g77
g58
NtRp1036
(dp1037
g61
(dp1038
g81
g82
ssg70
g1032
sg63
(lp1039
S'applications_parent'
p1040
asbag56
(g77
g58
NtRp1041
(dp1042
g61
(dp1043
g88
g89
ssg70
g1032
sg63
(lp1044
S':'
asbag56
(g77
g58
NtRp1045
(dp1046
g61
(dp1047
sg70
g1032
sg63
(lp1048
g56
(g57
g58
NtRp1049
(dp1050
g61
(dp1051
g69
I4
ssg70
g1045
sg63
(lp1052
S'/home/brencam/web2py'
p1053
asbasbasbag56
(g72
g58
NtRp1054
(dp1055
g61
(dp1056
sg70
g1006
sg63
(lp1057
g56
(g77
g58
NtRp1058
(dp1059
g61
(dp1060
g81
g82
ssg70
g1054
sg63
(lp1061
S'cmd_args'
p1062
asbag56
(g77
g58
NtRp1063
(dp1064
g61
(dp1065
g88
g89
ssg70
g1054
sg63
(lp1066
S':'
asbag56
(g77
g58
NtRp1067
(dp1068
g61
(dp1069
sg70
g1054
sg63
(lp1070
g56
(g57
g58
NtRp1071
(dp1072
g61
(dp1073
g69
I4
ssg70
g1067
sg63
(lp1074
g56
(g65
g58
NtRp1075
(dp1076
g61
(dp1077
g69
I3
ssg70
Nsg63
(lp1078
sbasbasbasbag56
(g72
g58
NtRp1079
(dp1080
g61
(dp1081
sg70
g1006
sg63
(lp1082
g56
(g77
g58
NtRp1083
(dp1084
g61
(dp1085
g81
g82
ssg70
g1079
sg63
(lp1086
S'cmd_options'
p1087
asbag56
(g77
g58
NtRp1088
(dp1089
g61
(dp1090
g88
g89
ssg70
g1079
sg63
(lp1091
S':'
asbag56
(g77
g58
NtRp1092
(dp1093
g61
(dp1094
sg70
g1079
sg63
(lp1095
g56
(g57
g58
NtRp1096
(dp1097
g61
(dp1098
g69
I4
ssg70
g1092
sg63
(lp1099
S"<Values at 0x8e5026c: {'verbose': False, 'ip': '127.0.0.1', 'shutdown_timeout': 5, 'taskbar': False, 'nocron': False, 'pid_filename': 'httpserver.pid', 'maxthreads': None, 'softcron': False, 'server_name': 'localhost.localdomain', 'bpython': False, 'nogui': False, 'port': 8000, 'extcron': False, 'debuglevel': 30, 'test': None, 'folder': '/home/brencam/web2py', 'config': '', 'import_models': False, 'winservice': '', 'shell': None, 'run': '', 'log_filename': 'httpserver.log', 'args': [''], 'ssl_ca_certificate': None, 'scheduler': None, 'profiler_filename': None, 'ssl_private_key': '', 'password': 'admin', 'request_queue_size': 5, 'ssl_certificate': '', 'cronjob': False, 'plain': False, 'quiet': False, 'interfaces': None, 'minthreads': None, 'timeout': 10, 'numthreads': None, 'nobanner': False}>"
p1100
asbasbasbag56
(g72
g58
NtRp1101
(dp1102
g61
(dp1103
sg70
g1006
sg63
(lp1104
g56
(g77
g58
NtRp1105
(dp1106
g61
(dp1107
g81
g82
ssg70
g1101
sg63
(lp1108
S'content_type'
p1109
asbag56
(g77
g58
NtRp1110
(dp1111
g61
(dp1112
g88
g89
ssg70
g1101
sg63
(lp1113
S':'
asbag56
(g77
g58
NtRp1114
(dp1115
g61
(dp1116
sg70
g1101
sg63
(lp1117
g56
(g57
g58
NtRp1118
(dp1119
g61
(dp1120
g69
I4
ssg70
g1114
sg63
(lp1121
S'application/x-www-form-urlencoded'
p1122
asbasbasbag56
(g72
g58
NtRp1123
(dp1124
g61
(dp1125
sg70
g1006
sg63
(lp1126
g56
(g77
g58
NtRp1127
(dp1128
g61
(dp1129
g81
g82
ssg70
g1123
sg63
(lp1130
S'db_sessions'
p1131
asbag56
(g77
g58
NtRp1132
(dp1133
g61
(dp1134
g88
g89
ssg70
g1123
sg63
(lp1135
S':'
asbag56
(g77
g58
NtRp1136
(dp1137
g61
(dp1138
sg70
g1123
sg63
(lp1139
g56
(g57
g58
NtRp1140
(dp1141
g61
(dp1142
g69
I4
ssg70
g1136
sg63
(lp1143
S'set([])'
p1144
asbasbasbag56
(g72
g58
NtRp1145
(dp1146
g61
(dp1147
sg70
g1006
sg63
(lp1148
g56
(g77
g58
NtRp1149
(dp1150
g61
(dp1151
g81
g82
ssg70
g1145
sg63
(lp1152
S'debugging'
p1153
asbag56
(g77
g58
NtRp1154
(dp1155
g61
(dp1156
g88
g89
ssg70
g1145
sg63
(lp1157
S':'
asbag56
(g77
g58
NtRp1158
(dp1159
g61
(dp1160
sg70
g1145
sg63
(lp1161
g56
(g57
g58
NtRp1162
(dp1163
g61
(dp1164
g69
I4
ssg70
g1158
sg63
(lp1165
S'False'
p1166
asbasbasbag56
(g72
g58
NtRp1167
(dp1168
g61
(dp1169
sg70
g1006
sg63
(lp1170
g56
(g77
g58
NtRp1171
(dp1172
g61
(dp1173
g81
g82
ssg70
g1167
sg63
(lp1174
S'gluon_parent'
p1175
asbag56
(g77
g58
NtRp1176
(dp1177
g61
(dp1178
g88
g89
ssg70
g1167
sg63
(lp1179
S':'
asbag56
(g77
g58
NtRp1180
(dp1181
g61
(dp1182
sg70
g1167
sg63
(lp1183
g56
(g57
g58
NtRp1184
(dp1185
g61
(dp1186
g69
I4
ssg70
g1180
sg63
(lp1187
S'/home/brencam/web2py'
p1188
asbasbasbag56
(g72
g58
NtRp1189
(dp1190
g61
(dp1191
sg70
g1006
sg63
(lp1192
g56
(g77
g58
NtRp1193
(dp1194
g61
(dp1195
g81
g82
ssg70
g1189
sg63
(lp1196
S'http_accept'
p1197
asbag56
(g77
g58
NtRp1198
(dp1199
g61
(dp1200
g88
g89
ssg70
g1189
sg63
(lp1201
S':'
asbag56
(g77
g58
NtRp1202
(dp1203
g61
(dp1204
sg70
g1189
sg63
(lp1205
g56
(g57
g58
NtRp1206
(dp1207
g61
(dp1208
g69
I4
ssg70
g1202
sg63
(lp1209
S'*/*'
p1210
asbasbasbag56
(g72
g58
NtRp1211
(dp1212
g61
(dp1213
sg70
g1006
sg63
(lp1214
g56
(g77
g58
NtRp1215
(dp1216
g61
(dp1217
g81
g82
ssg70
g1211
sg63
(lp1218
S'http_accept_charset'
p1219
asbag56
(g77
g58
NtRp1220
(dp1221
g61
(dp1222
g88
g89
ssg70
g1211
sg63
(lp1223
S':'
asbag56
(g77
g58
NtRp1224
(dp1225
g61
(dp1226
sg70
g1211
sg63
(lp1227
g56
(g57
g58
NtRp1228
(dp1229
g61
(dp1230
g69
I4
ssg70
g1224
sg63
(lp1231
S'ISO-8859-1,utf-8;q=0.7,*;q=0.3'
p1232
asbasbasbag56
(g72
g58
NtRp1233
(dp1234
g61
(dp1235
sg70
g1006
sg63
(lp1236
g56
(g77
g58
NtRp1237
(dp1238
g61
(dp1239
g81
g82
ssg70
g1233
sg63
(lp1240
S'http_accept_encoding'
p1241
asbag56
(g77
g58
NtRp1242
(dp1243
g61
(dp1244
g88
g89
ssg70
g1233
sg63
(lp1245
S':'
asbag56
(g77
g58
NtRp1246
(dp1247
g61
(dp1248
sg70
g1233
sg63
(lp1249
g56
(g57
g58
NtRp1250
(dp1251
g61
(dp1252
g69
I4
ssg70
g1246
sg63
(lp1253
S'gzip,deflate,sdch'
p1254
asbasbasbag56
(g72
g58
NtRp1255
(dp1256
g61
(dp1257
sg70
g1006
sg63
(lp1258
g56
(g77
g58
NtRp1259
(dp1260
g61
(dp1261
g81
g82
ssg70
g1255
sg63
(lp1262
S'http_accept_language'
p1263
asbag56
(g77
g58
NtRp1264
(dp1265
g61
(dp1266
g88
g89
ssg70
g1255
sg63
(lp1267
S':'
asbag56
(g77
g58
NtRp1268
(dp1269
g61
(dp1270
sg70
g1255
sg63
(lp1271
g56
(g57
g58
NtRp1272
(dp1273
g61
(dp1274
g69
I4
ssg70
g1268
sg63
(lp1275
S'en-US,en;q=0.8'
p1276
asbasbasbag56
(g72
g58
NtRp1277
(dp1278
g61
(dp1279
sg70
g1006
sg63
(lp1280
g56
(g77
g58
NtRp1281
(dp1282
g61
(dp1283
g81
g82
ssg70
g1277
sg63
(lp1284
S'http_connection'
p1285
asbag56
(g77
g58
NtRp1286
(dp1287
g61
(dp1288
g88
g89
ssg70
g1277
sg63
(lp1289
S':'
asbag56
(g77
g58
NtRp1290
(dp1291
g61
(dp1292
sg70
g1277
sg63
(lp1293
g56
(g57
g58
NtRp1294
(dp1295
g61
(dp1296
g69
I4
ssg70
g1290
sg63
(lp1297
S'keep-alive'
p1298
asbasbasbag56
(g72
g58
NtRp1299
(dp1300
g61
(dp1301
sg70
g1006
sg63
(lp1302
g56
(g77
g58
NtRp1303
(dp1304
g61
(dp1305
g81
g82
ssg70
g1299
sg63
(lp1306
S'http_content_type'
p1307
asbag56
(g77
g58
NtRp1308
(dp1309
g61
(dp1310
g88
g89
ssg70
g1299
sg63
(lp1311
S':'
asbag56
(g77
g58
NtRp1312
(dp1313
g61
(dp1314
sg70
g1299
sg63
(lp1315
g56
(g57
g58
NtRp1316
(dp1317
g61
(dp1318
g69
I4
ssg70
g1312
sg63
(lp1319
g1122
asbasbasbag56
(g72
g58
NtRp1320
(dp1321
g61
(dp1322
sg70
g1006
sg63
(lp1323
g56
(g77
g58
NtRp1324
(dp1325
g61
(dp1326
g81
g82
ssg70
g1320
sg63
(lp1327
S'http_cookie'
p1328
asbag56
(g77
g58
NtRp1329
(dp1330
g61
(dp1331
g88
g89
ssg70
g1320
sg63
(lp1332
S':'
asbag56
(g77
g58
NtRp1333
(dp1334
g61
(dp1335
sg70
g1320
sg63
(lp1336
g56
(g57
g58
NtRp1337
(dp1338
g61
(dp1339
g69
I4
ssg70
g1333
sg63
(lp1340
S'__utma=96992031.552746526.1281494094.1291180555.1291186411.9; csrftoken=7b3621df70ed8d65c15785486fff8908; __utma_a2a=7438973308.1350086890.1318529964.1318645324.1318645410.28; session_id_welcome=127.0.0.1-9322c3cc-e1a6-4fc2-b7c8-5cd888a9f623; session_id_admin=127.0.0.1-b8619749-4c92-404b-8804-b812f3f5a3ed; session_id_gallery=127.0.0.1-5764d7f9-8178-4db1-bc94-76589577a2e3'
p1341
asbasbasbag56
(g72
g58
NtRp1342
(dp1343
g61
(dp1344
sg70
g1006
sg63
(lp1345
g56
(g77
g58
NtRp1346
(dp1347
g61
(dp1348
g81
g82
ssg70
g1342
sg63
(lp1349
S'http_host'
p1350
asbag56
(g77
g58
NtRp1351
(dp1352
g61
(dp1353
g88
g89
ssg70
g1342
sg63
(lp1354
S':'
asbag56
(g77
g58
NtRp1355
(dp1356
g61
(dp1357
sg70
g1342
sg63
(lp1358
g56
(g57
g58
NtRp1359
(dp1360
g61
(dp1361
g69
I4
ssg70
g1355
sg63
(lp1362
S'127.0.0.1:8000'
p1363
asbasbasbag56
(g72
g58
NtRp1364
(dp1365
g61
(dp1366
sg70
g1006
sg63
(lp1367
g56
(g77
g58
NtRp1368
(dp1369
g61
(dp1370
g81
g82
ssg70
g1364
sg63
(lp1371
S'http_referer'
p1372
asbag56
(g77
g58
NtRp1373
(dp1374
g61
(dp1375
g88
g89
ssg70
g1364
sg63
(lp1376
S':'
asbag56
(g77
g58
NtRp1377
(dp1378
g61
(dp1379
sg70
g1364
sg63
(lp1380
g56
(g57
g58
NtRp1381
(dp1382
g61
(dp1383
g69
I4
ssg70
g1377
sg63
(lp1384
S'http://127.0.0.1:8000/gallery/default/sendform'
p1385
asbasbasbag56
(g72
g58
NtRp1386
(dp1387
g61
(dp1388
sg70
g1006
sg63
(lp1389
g56
(g77
g58
NtRp1390
(dp1391
g61
(dp1392
g81
g82
ssg70
g1386
sg63
(lp1393
S'http_user_agent'
p1394
asbag56
(g77
g58
NtRp1395
(dp1396
g61
(dp1397
g88
g89
ssg70
g1386
sg63
(lp1398
S':'
asbag56
(g77
g58
NtRp1399
(dp1400
g61
(dp1401
sg70
g1386
sg63
(lp1402
g56
(g57
g58
NtRp1403
(dp1404
g61
(dp1405
g69
I4
ssg70
g1399
sg63
(lp1406
S'Mozilla/5.0 (X11; Linux i686) AppleWebKit/535.1 (KHTML, like Gecko) Chrome/14.0.835.204 Safari/535.1'
p1407
asbasbasbag56
(g72
g58
NtRp1408
(dp1409
g61
(dp1410
sg70
g1006
sg63
(lp1411
g56
(g77
g58
NtRp1412
(dp1413
g61
(dp1414
g81
g82
ssg70
g1408
sg63
(lp1415
S'http_x_requested_with'
p1416
asbag56
(g77
g58
NtRp1417
(dp1418
g61
(dp1419
g88
g89
ssg70
g1408
sg63
(lp1420
S':'
asbag56
(g77
g58
NtRp1421
(dp1422
g61
(dp1423
sg70
g1408
sg63
(lp1424
g56
(g57
g58
NtRp1425
(dp1426
g61
(dp1427
g69
I4
ssg70
g1421
sg63
(lp1428
S'XMLHttpRequest'
p1429
asbasbasbag56
(g72
g58
NtRp1430
(dp1431
g61
(dp1432
sg70
g1006
sg63
(lp1433
g56
(g77
g58
NtRp1434
(dp1435
g61
(dp1436
g81
g82
ssg70
g1430
sg63
(lp1437
S'is_jython'
p1438
asbag56
(g77
g58
NtRp1439
(dp1440
g61
(dp1441
g88
g89
ssg70
g1430
sg63
(lp1442
S':'
asbag56
(g77
g58
NtRp1443
(dp1444
g61
(dp1445
sg70
g1430
sg63
(lp1446
g56
(g57
g58
NtRp1447
(dp1448
g61
(dp1449
g69
I4
ssg70
g1443
sg63
(lp1450
g1166
asbasbasbag56
(g72
g58
NtRp1451
(dp1452
g61
(dp1453
sg70
g1006
sg63
(lp1454
g56
(g77
g58
NtRp1455
(dp1456
g61
(dp1457
g81
g82
ssg70
g1451
sg63
(lp1458
S'path_info'
p1459
asbag56
(g77
g58
NtRp1460
(dp1461
g61
(dp1462
g88
g89
ssg70
g1451
sg63
(lp1463
S':'
asbag56
(g77
g58
NtRp1464
(dp1465
g61
(dp1466
sg70
g1451
sg63
(lp1467
g56
(g57
g58
NtRp1468
(dp1469
g61
(dp1470
g69
I4
ssg70
g1464
sg63
(lp1471
S'/gallery/search/getnames'
p1472
asbasbasbag56
(g72
g58
NtRp1473
(dp1474
g61
(dp1475
sg70
g1006
sg63
(lp1476
g56
(g77
g58
NtRp1477
(dp1478
g61
(dp1479
g81
g82
ssg70
g1473
sg63
(lp1480
S'query_string'
p1481
asbag56
(g77
g58
NtRp1482
(dp1483
g61
(dp1484
g88
g89
ssg70
g1473
sg63
(lp1485
S':'
asbag56
(g77
g58
NtRp1486
(dp1487
g61
(dp1488
sg70
g1473
sg63
(lp1489
g56
(g57
g58
NtRp1490
(dp1491
g61
(dp1492
g69
I4
ssg70
g1486
sg63
(lp1493
S'q=ph%20By%20Name'
p1494
asbasbasbag56
(g72
g58
NtRp1495
(dp1496
g61
(dp1497
sg70
g1006
sg63
(lp1498
g56
(g77
g58
NtRp1499
(dp1500
g61
(dp1501
g81
g82
ssg70
g1495
sg63
(lp1502
S'remote_addr'
p1503
asbag56
(g77
g58
NtRp1504
(dp1505
g61
(dp1506
g88
g89
ssg70
g1495
sg63
(lp1507
S':'
asbag56
(g77
g58
NtRp1508
(dp1509
g61
(dp1510
sg70
g1495
sg63
(lp1511
g56
(g57
g58
NtRp1512
(dp1513
g61
(dp1514
g69
I4
ssg70
g1508
sg63
(lp1515
g189
asbasbasbag56
(g72
g58
NtRp1516
(dp1517
g61
(dp1518
sg70
g1006
sg63
(lp1519
g56
(g77
g58
NtRp1520
(dp1521
g61
(dp1522
g81
g82
ssg70
g1516
sg63
(lp1523
S'remote_port'
p1524
asbag56
(g77
g58
NtRp1525
(dp1526
g61
(dp1527
g88
g89
ssg70
g1516
sg63
(lp1528
S':'
asbag56
(g77
g58
NtRp1529
(dp1530
g61
(dp1531
sg70
g1516
sg63
(lp1532
g56
(g57
g58
NtRp1533
(dp1534
g61
(dp1535
g69
I4
ssg70
g1529
sg63
(lp1536
S'48660'
p1537
asbasbasbag56
(g72
g58
NtRp1538
(dp1539
g61
(dp1540
sg70
g1006
sg63
(lp1541
g56
(g77
g58
NtRp1542
(dp1543
g61
(dp1544
g81
g82
ssg70
g1538
sg63
(lp1545
S'request_method'
p1546
asbag56
(g77
g58
NtRp1547
(dp1548
g61
(dp1549
g88
g89
ssg70
g1538
sg63
(lp1550
S':'
asbag56
(g77
g58
NtRp1551
(dp1552
g61
(dp1553
sg70
g1538
sg63
(lp1554
g56
(g57
g58
NtRp1555
(dp1556
g61
(dp1557
g69
I4
ssg70
g1551
sg63
(lp1558
S'GET'
p1559
asbasbasbag56
(g72
g58
NtRp1560
(dp1561
g61
(dp1562
sg70
g1006
sg63
(lp1563
g56
(g77
g58
NtRp1564
(dp1565
g61
(dp1566
g81
g82
ssg70
g1560
sg63
(lp1567
S'script_name'
p1568
asbag56
(g77
g58
NtRp1569
(dp1570
g61
(dp1571
g88
g89
ssg70
g1560
sg63
(lp1572
S':'
asbag56
(g77
g58
NtRp1573
(dp1574
g61
(dp1575
sg70
g1560
sg63
(lp1576
g56
(g57
g58
NtRp1577
(dp1578
g61
(dp1579
g69
I4
ssg70
g1573
sg63
(lp1580
S''
asbasbasbag56
(g72
g58
NtRp1581
(dp1582
g61
(dp1583
sg70
g1006
sg63
(lp1584
g56
(g77
g58
NtRp1585
(dp1586
g61
(dp1587
g81
g82
ssg70
g1581
sg63
(lp1588
S'server_name'
p1589
asbag56
(g77
g58
NtRp1590
(dp1591
g61
(dp1592
g88
g89
ssg70
g1581
sg63
(lp1593
S':'
asbag56
(g77
g58
NtRp1594
(dp1595
g61
(dp1596
sg70
g1581
sg63
(lp1597
g56
(g57
g58
NtRp1598
(dp1599
g61
(dp1600
g69
I4
ssg70
g1594
sg63
(lp1601
S'localhost.localdomain'
p1602
asbasbasbag56
(g72
g58
NtRp1603
(dp1604
g61
(dp1605
sg70
g1006
sg63
(lp1606
g56
(g77
g58
NtRp1607
(dp1608
g61
(dp1609
g81
g82
ssg70
g1603
sg63
(lp1610
S'server_port'
p1611
asbag56
(g77
g58
NtRp1612
(dp1613
g61
(dp1614
g88
g89
ssg70
g1603
sg63
(lp1615
S':'
asbag56
(g77
g58
NtRp1616
(dp1617
g61
(dp1618
sg70
g1603
sg63
(lp1619
g56
(g57
g58
NtRp1620
(dp1621
g61
(dp1622
g69
I4
ssg70
g1616
sg63
(lp1623
S'8000'
p1624
asbasbasbag56
(g72
g58
NtRp1625
(dp1626
g61
(dp1627
sg70
g1006
sg63
(lp1628
g56
(g77
g58
NtRp1629
(dp1630
g61
(dp1631
g81
g82
ssg70
g1625
sg63
(lp1632
S'server_protocol'
p1633
asbag56
(g77
g58
NtRp1634
(dp1635
g61
(dp1636
g88
g89
ssg70
g1625
sg63
(lp1637
S':'
asbag56
(g77
g58
NtRp1638
(dp1639
g61
(dp1640
sg70
g1625
sg63
(lp1641
g56
(g57
g58
NtRp1642
(dp1643
g61
(dp1644
g69
I4
ssg70
g1638
sg63
(lp1645
S'HTTP/1.1'
p1646
asbasbasbag56
(g72
g58
NtRp1647
(dp1648
g61
(dp1649
sg70
g1006
sg63
(lp1650
g56
(g77
g58
NtRp1651
(dp1652
g61
(dp1653
g81
g82
ssg70
g1647
sg63
(lp1654
S'server_software'
p1655
asbag56
(g77
g58
NtRp1656
(dp1657
g61
(dp1658
g88
g89
ssg70
g1647
sg63
(lp1659
S':'
asbag56
(g77
g58
NtRp1660
(dp1661
g61
(dp1662
sg70
g1647
sg63
(lp1663
g56
(g57
g58
NtRp1664
(dp1665
g61
(dp1666
g69
I4
ssg70
g1660
sg63
(lp1667
S'Rocket 1.2.4'
p1668
asbasbasbag56
(g72
g58
NtRp1669
(dp1670
g61
(dp1671
sg70
g1006
sg63
(lp1672
g56
(g77
g58
NtRp1673
(dp1674
g61
(dp1675
g81
g82
ssg70
g1669
sg63
(lp1676
S'web2py_crontype'
p1677
asbag56
(g77
g58
NtRp1678
(dp1679
g61
(dp1680
g88
g89
ssg70
g1669
sg63
(lp1681
S':'
asbag56
(g77
g58
NtRp1682
(dp1683
g61
(dp1684
sg70
g1669
sg63
(lp1685
g56
(g57
g58
NtRp1686
(dp1687
g61
(dp1688
g69
I4
ssg70
g1682
sg63
(lp1689
S'hard'
p1690
asbasbasbag56
(g72
g58
NtRp1691
(dp1692
g61
(dp1693
sg70
g1006
sg63
(lp1694
g56
(g77
g58
NtRp1695
(dp1696
g61
(dp1697
g81
g82
ssg70
g1691
sg63
(lp1698
S'web2py_path'
p1699
asbag56
(g77
g58
NtRp1700
(dp1701
g61
(dp1702
g88
g89
ssg70
g1691
sg63
(lp1703
S':'
asbag56
(g77
g58
NtRp1704
(dp1705
g61
(dp1706
sg70
g1691
sg63
(lp1707
g56
(g57
g58
NtRp1708
(dp1709
g61
(dp1710
g69
I4
ssg70
g1704
sg63
(lp1711
g1053
asbasbasbag56
(g72
g58
NtRp1712
(dp1713
g61
(dp1714
sg70
g1006
sg63
(lp1715
g56
(g77
g58
NtRp1716
(dp1717
g61
(dp1718
g81
g82
ssg70
g1712
sg63
(lp1719
S'web2py_version'
p1720
asbag56
(g77
g58
NtRp1721
(dp1722
g61
(dp1723
g88
g89
ssg70
g1712
sg63
(lp1724
S':'
asbag56
(g77
g58
NtRp1725
(dp1726
g61
(dp1727
sg70
g1712
sg63
(lp1728
g56
(g57
g58
NtRp1729
(dp1730
g61
(dp1731
g69
I4
ssg70
g1725
sg63
(lp1732
g56
(g65
g58
NtRp1733
(dp1734
g61
(dp1735
g69
I3
ssg70
Nsg63
(lp1736
g56
(g72
g58
NtRp1737
(dp1738
g61
(dp1739
sg70
g1733
sg63
(lp1740
g56
(g77
g58
NtRp1741
(dp1742
g61
(dp1743
sg70
g1737
sg63
(lp1744
g56
(g57
g58
NtRp1745
(dp1746
g61
(dp1747
g69
I3
ssg70
g1741
sg63
(lp1748
S'1'
asbasbasbag56
(g72
g58
NtRp1749
(dp1750
g61
(dp1751
sg70
g1733
sg63
(lp1752
g56
(g77
g58
NtRp1753
(dp1754
g61
(dp1755
sg70
g1749
sg63
(lp1756
g56
(g57
g58
NtRp1757
(dp1758
g61
(dp1759
g69
I3
ssg70
g1753
sg63
(lp1760
S'99'
p1761
asbasbasbag56
(g72
g58
NtRp1762
(dp1763
g61
(dp1764
sg70
g1733
sg63
(lp1765
g56
(g77
g58
NtRp1766
(dp1767
g61
(dp1768
sg70
g1762
sg63
(lp1769
g56
(g57
g58
NtRp1770
(dp1771
g61
(dp1772
g69
I3
ssg70
g1766
sg63
(lp1773
S'2'
asbasbasbag56
(g72
g58
NtRp1774
(dp1775
g61
(dp1776
sg70
g1733
sg63
(lp1777
g56
(g77
g58
NtRp1778
(dp1779
g61
(dp1780
sg70
g1774
sg63
(lp1781
g56
(g57
g58
NtRp1782
(dp1783
g61
(dp1784
g69
I3
ssg70
g1778
sg63
(lp1785
S'datetime.datetime(2011, 9, 26, 6, 55, 33)'
p1786
asbasbasbag56
(g72
g58
NtRp1787
(dp1788
g61
(dp1789
sg70
g1733
sg63
(lp1790
g56
(g77
g58
NtRp1791
(dp1792
g61
(dp1793
sg70
g1787
sg63
(lp1794
g56
(g57
g58
NtRp1795
(dp1796
g61
(dp1797
g69
I3
ssg70
g1791
sg63
(lp1798
S'stable'
p1799
asbasbasbasbasbasbasbag56
(g72
g58
NtRp1800
(dp1801
g61
(dp1802
sg70
g1006
sg63
(lp1803
g56
(g77
g58
NtRp1804
(dp1805
g61
(dp1806
g81
g82
ssg70
g1800
sg63
(lp1807
S'wsgi_errors'
p1808
asbag56
(g77
g58
NtRp1809
(dp1810
g61
(dp1811
g88
g89
ssg70
g1800
sg63
(lp1812
S':'
asbag56
(g77
g58
NtRp1813
(dp1814
g61
(dp1815
sg70
g1800
sg63
(lp1816
g56
(g57
g58
NtRp1817
(dp1818
g61
(dp1819
g69
I4
ssg70
g1813
sg63
(lp1820
S"<open file '<stderr>', mode 'w' at 0xb75610d0>"
p1821
asbasbasbag56
(g72
g58
NtRp1822
(dp1823
g61
(dp1824
sg70
g1006
sg63
(lp1825
g56
(g77
g58
NtRp1826
(dp1827
g61
(dp1828
g81
g82
ssg70
g1822
sg63
(lp1829
S'wsgi_file_wrapper'
p1830
asbag56
(g77
g58
NtRp1831
(dp1832
g61
(dp1833
g88
g89
ssg70
g1822
sg63
(lp1834
S':'
asbag56
(g77
g58
NtRp1835
(dp1836
g61
(dp1837
sg70
g1822
sg63
(lp1838
g56
(g57
g58
NtRp1839
(dp1840
g61
(dp1841
g69
I4
ssg70
g1835
sg63
(lp1842
S'<class wsgiref.util.FileWrapper at 0x8a4d50c>'
p1843
asbasbasbag56
(g72
g58
NtRp1844
(dp1845
g61
(dp1846
sg70
g1006
sg63
(lp1847
g56
(g77
g58
NtRp1848
(dp1849
g61
(dp1850
g81
g82
ssg70
g1844
sg63
(lp1851
S'wsgi_input'
p1852
asbag56
(g77
g58
NtRp1853
(dp1854
g61
(dp1855
g88
g89
ssg70
g1844
sg63
(lp1856
S':'
asbag56
(g77
g58
NtRp1857
(dp1858
g61
(dp1859
sg70
g1844
sg63
(lp1860
g56
(g57
g58
NtRp1861
(dp1862
g61
(dp1863
g69
I4
ssg70
g1857
sg63
(lp1864
S'<socket._fileobject object at 0xb5eecfac>'
p1865
asbasbasbag56
(g72
g58
NtRp1866
(dp1867
g61
(dp1868
sg70
g1006
sg63
(lp1869
g56
(g77
g58
NtRp1870
(dp1871
g61
(dp1872
g81
g82
ssg70
g1866
sg63
(lp1873
S'wsgi_multiprocess'
p1874
asbag56
(g77
g58
NtRp1875
(dp1876
g61
(dp1877
g88
g89
ssg70
g1866
sg63
(lp1878
S':'
asbag56
(g77
g58
NtRp1879
(dp1880
g61
(dp1881
sg70
g1866
sg63
(lp1882
g56
(g57
g58
NtRp1883
(dp1884
g61
(dp1885
g69
I4
ssg70
g1879
sg63
(lp1886
g1166
asbasbasbag56
(g72
g58
NtRp1887
(dp1888
g61
(dp1889
sg70
g1006
sg63
(lp1890
g56
(g77
g58
NtRp1891
(dp1892
g61
(dp1893
g81
g82
ssg70
g1887
sg63
(lp1894
S'wsgi_multithread'
p1895
asbag56
(g77
g58
NtRp1896
(dp1897
g61
(dp1898
g88
g89
ssg70
g1887
sg63
(lp1899
S':'
asbag56
(g77
g58
NtRp1900
(dp1901
g61
(dp1902
sg70
g1887
sg63
(lp1903
g56
(g57
g58
NtRp1904
(dp1905
g61
(dp1906
g69
I4
ssg70
g1900
sg63
(lp1907
g99
asbasbasbag56
(g72
g58
NtRp1908
(dp1909
g61
(dp1910
sg70
g1006
sg63
(lp1911
g56
(g77
g58
NtRp1912
(dp1913
g61
(dp1914
g81
g82
ssg70
g1908
sg63
(lp1915
S'wsgi_run_once'
p1916
asbag56
(g77
g58
NtRp1917
(dp1918
g61
(dp1919
g88
g89
ssg70
g1908
sg63
(lp1920
S':'
asbag56
(g77
g58
NtRp1921
(dp1922
g61
(dp1923
sg70
g1908
sg63
(lp1924
g56
(g57
g58
NtRp1925
(dp1926
g61
(dp1927
g69
I4
ssg70
g1921
sg63
(lp1928
g1166
asbasbasbag56
(g72
g58
NtRp1929
(dp1930
g61
(dp1931
sg70
g1006
sg63
(lp1932
g56
(g77
g58
NtRp1933
(dp1934
g61
(dp1935
g81
g82
ssg70
g1929
sg63
(lp1936
S'wsgi_url_scheme'
p1937
asbag56
(g77
g58
NtRp1938
(dp1939
g61
(dp1940
g88
g89
ssg70
g1929
sg63
(lp1941
S':'
asbag56
(g77
g58
NtRp1942
(dp1943
g61
(dp1944
sg70
g1929
sg63
(lp1945
g56
(g57
g58
NtRp1946
(dp1947
g61
(dp1948
g69
I4
ssg70
g1942
sg63
(lp1949
S'http'
p1950
asbasbasbag56
(g72
g58
NtRp1951
(dp1952
g61
(dp1953
sg70
g1006
sg63
(lp1954
g56
(g77
g58
NtRp1955
(dp1956
g61
(dp1957
g81
g82
ssg70
g1951
sg63
(lp1958
S'wsgi_version'
p1959
asbag56
(g77
g58
NtRp1960
(dp1961
g61
(dp1962
g88
g89
ssg70
g1951
sg63
(lp1963
S':'
asbag56
(g77
g58
NtRp1964
(dp1965
g61
(dp1966
sg70
g1951
sg63
(lp1967
g56
(g57
g58
NtRp1968
(dp1969
g61
(dp1970
g69
I4
ssg70
g1964
sg63
(lp1971
g56
(g65
g58
NtRp1972
(dp1973
g61
(dp1974
g69
I3
ssg70
Nsg63
(lp1975
g56
(g72
g58
NtRp1976
(dp1977
g61
(dp1978
sg70
g1972
sg63
(lp1979
g56
(g77
g58
NtRp1980
(dp1981
g61
(dp1982
sg70
g1976
sg63
(lp1983
g56
(g57
g58
NtRp1984
(dp1985
g61
(dp1986
g69
I3
ssg70
g1980
sg63
(lp1987
S'1'
asbasbasbag56
(g72
g58
NtRp1988
(dp1989
g61
(dp1990
sg70
g1972
sg63
(lp1991
g56
(g77
g58
NtRp1992
(dp1993
g61
(dp1994
sg70
g1988
sg63
(lp1995
g56
(g57
g58
NtRp1996
(dp1997
g61
(dp1998
g69
I3
ssg70
g1992
sg63
(lp1999
S'0'
asbasbasbasbasbasbasbasbasbasbasbag56
(g72
g58
NtRp2000
(dp2001
g61
(dp2002
sg70
g66
sg63
(lp2003
g56
(g77
g58
NtRp2004
(dp2005
g61
(dp2006
g81
g82
ssg70
g2000
sg63
(lp2007
S'extension'
p2008
asbag56
(g77
g58
NtRp2009
(dp2010
g61
(dp2011
g88
g89
ssg70
g2000
sg63
(lp2012
S':'
asbag56
(g77
g58
NtRp2013
(dp2014
g61
(dp2015
sg70
g2000
sg63
(lp2016
g56
(g57
g58
NtRp2017
(dp2018
g61
(dp2019
g69
I5
ssg70
g2013
sg63
(lp2020
S'html'
p2021
asbasbasbag56
(g72
g58
NtRp2022
(dp2023
g61
(dp2024
sg70
g66
sg63
(lp2025
g56
(g77
g58
NtRp2026
(dp2027
g61
(dp2028
g81
g82
ssg70
g2022
sg63
(lp2029
S'folder'
p2030
asbag56
(g77
g58
NtRp2031
(dp2032
g61
(dp2033
g88
g89
ssg70
g2022
sg63
(lp2034
S':'
asbag56
(g77
g58
NtRp2035
(dp2036
g61
(dp2037
sg70
g2022
sg63
(lp2038
g56
(g57
g58
NtRp2039
(dp2040
g61
(dp2041
g69
I5
ssg70
g2035
sg63
(lp2042
S'/home/brencam/web2py/applications/gallery/'
p2043
asbasbasbag56
(g72
g58
NtRp2044
(dp2045
g61
(dp2046
sg70
g66
sg63
(lp2047
g56
(g77
g58
NtRp2048
(dp2049
g61
(dp2050
g81
g82
ssg70
g2044
sg63
(lp2051
S'function'
p2052
asbag56
(g77
g58
NtRp2053
(dp2054
g61
(dp2055
g88
g89
ssg70
g2044
sg63
(lp2056
S':'
asbag56
(g77
g58
NtRp2057
(dp2058
g61
(dp2059
sg70
g2044
sg63
(lp2060
g56
(g57
g58
NtRp2061
(dp2062
g61
(dp2063
g69
I5
ssg70
g2057
sg63
(lp2064
S'getnames'
p2065
asbasbasbag56
(g72
g58
NtRp2066
(dp2067
g61
(dp2068
sg70
g66
sg63
(lp2069
g56
(g77
g58
NtRp2070
(dp2071
g61
(dp2072
g81
g82
ssg70
g2066
sg63
(lp2073
S'get_vars'
p2074
asbag56
(g77
g58
NtRp2075
(dp2076
g61
(dp2077
g88
g89
ssg70
g2066
sg63
(lp2078
S':'
asbag56
(g77
g58
NtRp2079
(dp2080
g61
(dp2081
sg70
g2066
sg63
(lp2082
g56
(g57
g58
NtRp2083
(dp2084
g61
(dp2085
g69
I5
ssg70
g2079
sg63
(lp2086
g56
(g65
g58
NtRp2087
(dp2088
g61
(dp2089
g69
I4
ssg70
Nsg63
(lp2090
g56
(g72
g58
NtRp2091
(dp2092
g61
(dp2093
sg70
g2087
sg63
(lp2094
g56
(g77
g58
NtRp2095
(dp2096
g61
(dp2097
g81
g82
ssg70
g2091
sg63
(lp2098
S'q'
asbag56
(g77
g58
NtRp2099
(dp2100
g61
(dp2101
g88
g89
ssg70
g2091
sg63
(lp2102
S':'
asbag56
(g77
g58
NtRp2103
(dp2104
g61
(dp2105
sg70
g2091
sg63
(lp2106
g56
(g57
g58
NtRp2107
(dp2108
g61
(dp2109
g69
I4
ssg70
g2103
sg63
(lp2110
S'ph By Name'
p2111
asbasbasbasbasbasbasbag56
(g72
g58
NtRp2112
(dp2113
g61
(dp2114
sg70
g66
sg63
(lp2115
g56
(g77
g58
NtRp2116
(dp2117
g61
(dp2118
g81
g82
ssg70
g2112
sg63
(lp2119
S'global_settings'
p2120
asbag56
(g77
g58
NtRp2121
(dp2122
g61
(dp2123
g88
g89
ssg70
g2112
sg63
(lp2124
S':'
asbag56
(g77
g58
NtRp2125
(dp2126
g61
(dp2127
sg70
g2112
sg63
(lp2128
g56
(g57
g58
NtRp2129
(dp2130
g61
(dp2131
g69
I5
ssg70
g2125
sg63
(lp2132
g56
(g65
g58
NtRp2133
(dp2134
g61
(dp2135
g69
I4
ssg70
Nsg63
(lp2136
g56
(g72
g58
NtRp2137
(dp2138
g61
(dp2139
sg70
g2133
sg63
(lp2140
g56
(g77
g58
NtRp2141
(dp2142
g61
(dp2143
g81
g82
ssg70
g2137
sg63
(lp2144
g1018
asbag56
(g77
g58
NtRp2145
(dp2146
g61
(dp2147
g88
g89
ssg70
g2137
sg63
(lp2148
S':'
asbag56
(g77
g58
NtRp2149
(dp2150
g61
(dp2151
sg70
g2137
sg63
(lp2152
g56
(g57
g58
NtRp2153
(dp2154
g61
(dp2155
g69
I4
ssg70
g2149
sg63
(lp2156
S"set(['/home/brencam/web2py/applications/gallery/'])"
p2157
asbasbasbag56
(g72
g58
NtRp2158
(dp2159
g61
(dp2160
sg70
g2133
sg63
(lp2161
g56
(g77
g58
NtRp2162
(dp2163
g61
(dp2164
g81
g82
ssg70
g2158
sg63
(lp2165
g1040
asbag56
(g77
g58
NtRp2166
(dp2167
g61
(dp2168
g88
g89
ssg70
g2158
sg63
(lp2169
S':'
asbag56
(g77
g58
NtRp2170
(dp2171
g61
(dp2172
sg70
g2158
sg63
(lp2173
g56
(g57
g58
NtRp2174
(dp2175
g61
(dp2176
g69
I4
ssg70
g2170
sg63
(lp2177
g1053
asbasbasbag56
(g72
g58
NtRp2178
(dp2179
g61
(dp2180
sg70
g2133
sg63
(lp2181
g56
(g77
g58
NtRp2182
(dp2183
g61
(dp2184
g81
g82
ssg70
g2178
sg63
(lp2185
g1062
asbag56
(g77
g58
NtRp2186
(dp2187
g61
(dp2188
g88
g89
ssg70
g2178
sg63
(lp2189
S':'
asbag56
(g77
g58
NtRp2190
(dp2191
g61
(dp2192
sg70
g2178
sg63
(lp2193
g56
(g57
g58
NtRp2194
(dp2195
g61
(dp2196
g69
I4
ssg70
g2190
sg63
(lp2197
g56
(g65
g58
NtRp2198
(dp2199
g61
(dp2200
g69
I3
ssg70
Nsg63
(lp2201
sbasbasbasbag56
(g72
g58
NtRp2202
(dp2203
g61
(dp2204
sg70
g2133
sg63
(lp2205
g56
(g77
g58
NtRp2206
(dp2207
g61
(dp2208
g81
g82
ssg70
g2202
sg63
(lp2209
g1087
asbag56
(g77
g58
NtRp2210
(dp2211
g61
(dp2212
g88
g89
ssg70
g2202
sg63
(lp2213
S':'
asbag56
(g77
g58
NtRp2214
(dp2215
g61
(dp2216
sg70
g2202
sg63
(lp2217
g56
(g57
g58
NtRp2218
(dp2219
g61
(dp2220
g69
I4
ssg70
g2214
sg63
(lp2221
S"<Values at 0x8e5026c: {'verbose': False, 'ip': '127.0.0.1', 'shutdown_timeout': 5, 'taskbar': False, 'nocron': False, 'pid_filename': 'httpserver.pid', 'maxthreads': None, 'softcron': False, 'server_name': 'localhost.localdomain', 'bpython': False, 'nogui': False, 'port': 8000, 'extcron': False, 'debuglevel': 30, 'test': None, 'folder': '/home/brencam/web2py', 'config': '', 'import_models': False, 'winservice': '', 'shell': None, 'run': '', 'log_filename': 'httpserver.log', 'args': [''], 'ssl_ca_certificate': None, 'scheduler': None, 'profiler_filename': None, 'ssl_private_key': '', 'password': 'admin', 'request_queue_size': 5, 'ssl_certificate': '', 'cronjob': False, 'plain': False, 'quiet': False, 'interfaces': None, 'minthreads': None, 'timeout': 10, 'numthreads': None, 'nobanner': False}>"
p2222
asbasbasbag56
(g72
g58
NtRp2223
(dp2224
g61
(dp2225
sg70
g2133
sg63
(lp2226
g56
(g77
g58
NtRp2227
(dp2228
g61
(dp2229
g81
g82
ssg70
g2223
sg63
(lp2230
g1131
asbag56
(g77
g58
NtRp2231
(dp2232
g61
(dp2233
g88
g89
ssg70
g2223
sg63
(lp2234
S':'
asbag56
(g77
g58
NtRp2235
(dp2236
g61
(dp2237
sg70
g2223
sg63
(lp2238
g56
(g57
g58
NtRp2239
(dp2240
g61
(dp2241
g69
I4
ssg70
g2235
sg63
(lp2242
S'set([])'
p2243
asbasbasbag56
(g72
g58
NtRp2244
(dp2245
g61
(dp2246
sg70
g2133
sg63
(lp2247
g56
(g77
g58
NtRp2248
(dp2249
g61
(dp2250
g81
g82
ssg70
g2244
sg63
(lp2251
g1153
asbag56
(g77
g58
NtRp2252
(dp2253
g61
(dp2254
g88
g89
ssg70
g2244
sg63
(lp2255
S':'
asbag56
(g77
g58
NtRp2256
(dp2257
g61
(dp2258
sg70
g2244
sg63
(lp2259
g56
(g57
g58
NtRp2260
(dp2261
g61
(dp2262
g69
I4
ssg70
g2256
sg63
(lp2263
g1166
asbasbasbag56
(g72
g58
NtRp2264
(dp2265
g61
(dp2266
sg70
g2133
sg63
(lp2267
g56
(g77
g58
NtRp2268
(dp2269
g61
(dp2270
g81
g82
ssg70
g2264
sg63
(lp2271
g1175
asbag56
(g77
g58
NtRp2272
(dp2273
g61
(dp2274
g88
g89
ssg70
g2264
sg63
(lp2275
S':'
asbag56
(g77
g58
NtRp2276
(dp2277
g61
(dp2278
sg70
g2264
sg63
(lp2279
g56
(g57
g58
NtRp2280
(dp2281
g61
(dp2282
g69
I4
ssg70
g2276
sg63
(lp2283
g1188
asbasbasbag56
(g72
g58
NtRp2284
(dp2285
g61
(dp2286
sg70
g2133
sg63
(lp2287
g56
(g77
g58
NtRp2288
(dp2289
g61
(dp2290
g81
g82
ssg70
g2284
sg63
(lp2291
g1438
asbag56
(g77
g58
NtRp2292
(dp2293
g61
(dp2294
g88
g89
ssg70
g2284
sg63
(lp2295
S':'
asbag56
(g77
g58
NtRp2296
(dp2297
g61
(dp2298
sg70
g2284
sg63
(lp2299
g56
(g57
g58
NtRp2300
(dp2301
g61
(dp2302
g69
I4
ssg70
g2296
sg63
(lp2303
g1166
asbasbasbag56
(g72
g58
NtRp2304
(dp2305
g61
(dp2306
sg70
g2133
sg63
(lp2307
g56
(g77
g58
NtRp2308
(dp2309
g61
(dp2310
g81
g82
ssg70
g2304
sg63
(lp2311
g1677
asbag56
(g77
g58
NtRp2312
(dp2313
g61
(dp2314
g88
g89
ssg70
g2304
sg63
(lp2315
S':'
asbag56
(g77
g58
NtRp2316
(dp2317
g61
(dp2318
sg70
g2304
sg63
(lp2319
g56
(g57
g58
NtRp2320
(dp2321
g61
(dp2322
g69
I4
ssg70
g2316
sg63
(lp2323
g1690
asbasbasbag56
(g72
g58
NtRp2324
(dp2325
g61
(dp2326
sg70
g2133
sg63
(lp2327
g56
(g77
g58
NtRp2328
(dp2329
g61
(dp2330
g81
g82
ssg70
g2324
sg63
(lp2331
g1720
asbag56
(g77
g58
NtRp2332
(dp2333
g61
(dp2334
g88
g89
ssg70
g2324
sg63
(lp2335
S':'
asbag56
(g77
g58
NtRp2336
(dp2337
g61
(dp2338
sg70
g2324
sg63
(lp2339
g56
(g57
g58
NtRp2340
(dp2341
g61
(dp2342
g69
I4
ssg70
g2336
sg63
(lp2343
g56
(g65
g58
NtRp2344
(dp2345
g61
(dp2346
g69
I3
ssg70
Nsg63
(lp2347
g56
(g72
g58
NtRp2348
(dp2349
g61
(dp2350
sg70
g2344
sg63
(lp2351
g56
(g77
g58
NtRp2352
(dp2353
g61
(dp2354
sg70
g2348
sg63
(lp2355
g56
(g57
g58
NtRp2356
(dp2357
g61
(dp2358
g69
I3
ssg70
g2352
sg63
(lp2359
S'1'
asbasbasbag56
(g72
g58
NtRp2360
(dp2361
g61
(dp2362
sg70
g2344
sg63
(lp2363
g56
(g77
g58
NtRp2364
(dp2365
g61
(dp2366
sg70
g2360
sg63
(lp2367
g56
(g57
g58
NtRp2368
(dp2369
g61
(dp2370
g69
I3
ssg70
g2364
sg63
(lp2371
S'99'
p2372
asbasbasbag56
(g72
g58
NtRp2373
(dp2374
g61
(dp2375
sg70
g2344
sg63
(lp2376
g56
(g77
g58
NtRp2377
(dp2378
g61
(dp2379
sg70
g2373
sg63
(lp2380
g56
(g57
g58
NtRp2381
(dp2382
g61
(dp2383
g69
I3
ssg70
g2377
sg63
(lp2384
S'2'
asbasbasbag56
(g72
g58
NtRp2385
(dp2386
g61
(dp2387
sg70
g2344
sg63
(lp2388
g56
(g77
g58
NtRp2389
(dp2390
g61
(dp2391
sg70
g2385
sg63
(lp2392
g56
(g57
g58
NtRp2393
(dp2394
g61
(dp2395
g69
I3
ssg70
g2389
sg63
(lp2396
S'datetime.datetime(2011, 9, 26, 6, 55, 33)'
p2397
asbasbasbag56
(g72
g58
NtRp2398
(dp2399
g61
(dp2400
sg70
g2344
sg63
(lp2401
g56
(g77
g58
NtRp2402
(dp2403
g61
(dp2404
sg70
g2398
sg63
(lp2405
g56
(g57
g58
NtRp2406
(dp2407
g61
(dp2408
g69
I3
ssg70
g2402
sg63
(lp2409
g1799
asbasbasbasbasbasbasbasbasbasbasbag56
(g72
g58
NtRp2410
(dp2411
g61
(dp2412
sg70
g66
sg63
(lp2413
g56
(g77
g58
NtRp2414
(dp2415
g61
(dp2416
g81
g82
ssg70
g2410
sg63
(lp2417
S'is_https'
p2418
asbag56
(g77
g58
NtRp2419
(dp2420
g61
(dp2421
g88
g89
ssg70
g2410
sg63
(lp2422
S':'
asbag56
(g77
g58
NtRp2423
(dp2424
g61
(dp2425
sg70
g2410
sg63
(lp2426
g56
(g57
g58
NtRp2427
(dp2428
g61
(dp2429
g69
I5
ssg70
g2423
sg63
(lp2430
g1166
asbasbasbag56
(g72
g58
NtRp2431
(dp2432
g61
(dp2433
sg70
g66
sg63
(lp2434
g56
(g77
g58
NtRp2435
(dp2436
g61
(dp2437
g81
g82
ssg70
g2431
sg63
(lp2438
S'is_local'
p2439
asbag56
(g77
g58
NtRp2440
(dp2441
g61
(dp2442
g88
g89
ssg70
g2431
sg63
(lp2443
S':'
asbag56
(g77
g58
NtRp2444
(dp2445
g61
(dp2446
sg70
g2431
sg63
(lp2447
g56
(g57
g58
NtRp2448
(dp2449
g61
(dp2450
g69
I5
ssg70
g2444
sg63
(lp2451
g99
asbasbasbag56
(g72
g58
NtRp2452
(dp2453
g61
(dp2454
sg70
g66
sg63
(lp2455
g56
(g77
g58
NtRp2456
(dp2457
g61
(dp2458
g81
g82
ssg70
g2452
sg63
(lp2459
S'is_restful'
p2460
asbag56
(g77
g58
NtRp2461
(dp2462
g61
(dp2463
g88
g89
ssg70
g2452
sg63
(lp2464
S':'
asbag56
(g77
g58
NtRp2465
(dp2466
g61
(dp2467
sg70
g2452
sg63
(lp2468
g56
(g57
g58
NtRp2469
(dp2470
g61
(dp2471
g69
I5
ssg70
g2465
sg63
(lp2472
g1166
asbasbasbag56
(g72
g58
NtRp2473
(dp2474
g61
(dp2475
sg70
g66
sg63
(lp2476
g56
(g77
g58
NtRp2477
(dp2478
g61
(dp2479
g81
g82
ssg70
g2473
sg63
(lp2480
S'now'
p2481
asbag56
(g77
g58
NtRp2482
(dp2483
g61
(dp2484
g88
g89
ssg70
g2473
sg63
(lp2485
S':'
asbag56
(g77
g58
NtRp2486
(dp2487
g61
(dp2488
sg70
g2473
sg63
(lp2489
g56
(g57
g58
NtRp2490
(dp2491
g61
(dp2492
g69
I5
ssg70
g2486
sg63
(lp2493
S'datetime.datetime(2011, 11, 2, 21, 55, 45, 588247)'
p2494
asbasbasbag56
(g72
g58
NtRp2495
(dp2496
g61
(dp2497
sg70
g66
sg63
(lp2498
g56
(g77
g58
NtRp2499
(dp2500
g61
(dp2501
g81
g82
ssg70
g2495
sg63
(lp2502
S'post_vars'
p2503
asbag56
(g77
g58
NtRp2504
(dp2505
g61
(dp2506
g88
g89
ssg70
g2495
sg63
(lp2507
S':'
asbag56
(g77
g58
NtRp2508
(dp2509
g61
(dp2510
sg70
g2495
sg63
(lp2511
g56
(g57
g58
NtRp2512
(dp2513
g61
(dp2514
g69
I5
ssg70
g2508
sg63
(lp2515
g56
(g65
g58
NtRp2516
(dp2517
g61
(dp2518
g69
I4
ssg70
Nsg63
(lp2519
sbasbasbasbag56
(g72
g58
NtRp2520
(dp2521
g61
(dp2522
sg70
g66
sg63
(lp2523
g56
(g77
g58
NtRp2524
(dp2525
g61
(dp2526
g81
g82
ssg70
g2520
sg63
(lp2527
S'url'
p2528
asbag56
(g77
g58
NtRp2529
(dp2530
g61
(dp2531
g88
g89
ssg70
g2520
sg63
(lp2532
S':'
asbag56
(g77
g58
NtRp2533
(dp2534
g61
(dp2535
sg70
g2520
sg63
(lp2536
g56
(g57
g58
NtRp2537
(dp2538
g61
(dp2539
g69
I5
ssg70
g2533
sg63
(lp2540
S'/gallery/search/getnames'
p2541
asbasbasbag56
(g72
g58
NtRp2542
(dp2543
g61
(dp2544
sg70
g66
sg63
(lp2545
g56
(g77
g58
NtRp2546
(dp2547
g61
(dp2548
g81
g82
ssg70
g2542
sg63
(lp2549
S'utcnow'
p2550
asbag56
(g77
g58
NtRp2551
(dp2552
g61
(dp2553
g88
g89
ssg70
g2542
sg63
(lp2554
S':'
asbag56
(g77
g58
NtRp2555
(dp2556
g61
(dp2557
sg70
g2542
sg63
(lp2558
g56
(g57
g58
NtRp2559
(dp2560
g61
(dp2561
g69
I5
ssg70
g2555
sg63
(lp2562
S'datetime.datetime(2011, 11, 3, 4, 55, 45, 588274)'
p2563
asbasbasbag56
(g72
g58
NtRp2564
(dp2565
g61
(dp2566
sg70
g66
sg63
(lp2567
g56
(g77
g58
NtRp2568
(dp2569
g61
(dp2570
g81
g82
ssg70
g2564
sg63
(lp2571
S'uuid'
p2572
asbag56
(g77
g58
NtRp2573
(dp2574
g61
(dp2575
g88
g89
ssg70
g2564
sg63
(lp2576
S':'
asbag56
(g77
g58
NtRp2577
(dp2578
g61
(dp2579
sg70
g2564
sg63
(lp2580
g56
(g57
g58
NtRp2581
(dp2582
g61
(dp2583
g69
I5
ssg70
g2577
sg63
(lp2584
S'gallery/127.0.0.1.2011-11-02.21-55-45.4337aa5c-6306-43cd-9670-8e5604ad7aca'
p2585
asbasbasbag56
(g72
g58
NtRp2586
(dp2587
g61
(dp2588
sg70
g66
sg63
(lp2589
g56
(g77
g58
NtRp2590
(dp2591
g61
(dp2592
g81
g82
ssg70
g2586
sg63
(lp2593
S'vars'
p2594
asbag56
(g77
g58
NtRp2595
(dp2596
g61
(dp2597
g88
g89
ssg70
g2586
sg63
(lp2598
S':'
asbag56
(g77
g58
NtRp2599
(dp2600
g61
(dp2601
sg70
g2586
sg63
(lp2602
g56
(g57
g58
NtRp2603
(dp2604
g61
(dp2605
g69
I5
ssg70
g2599
sg63
(lp2606
g56
(g65
g58
NtRp2607
(dp2608
g61
(dp2609
g69
I4
ssg70
Nsg63
(lp2610
g56
(g72
g58
NtRp2611
(dp2612
g61
(dp2613
sg70
g2607
sg63
(lp2614
g56
(g77
g58
NtRp2615
(dp2616
g61
(dp2617
g81
g82
ssg70
g2611
sg63
(lp2618
S'q'
asbag56
(g77
g58
NtRp2619
(dp2620
g61
(dp2621
g88
g89
ssg70
g2611
sg63
(lp2622
S':'
asbag56
(g77
g58
NtRp2623
(dp2624
g61
(dp2625
sg70
g2611
sg63
(lp2626
g56
(g57
g58
NtRp2627
(dp2628
g61
(dp2629
g69
I4
ssg70
g2623
sg63
(lp2630
g2111
asbasbasbasbasbasbasbag56
(g72
g58
NtRp2631
(dp2632
g61
(dp2633
sg70
g66
sg63
(lp2634
g56
(g77
g58
NtRp2635
(dp2636
g61
(dp2637
g81
g82
ssg70
g2631
sg63
(lp2638
S'wsgi'
p2639
asbag56
(g77
g58
NtRp2640
(dp2641
g61
(dp2642
g88
g89
ssg70
g2631
sg63
(lp2643
S':'
asbag56
(g77
g58
NtRp2644
(dp2645
g61
(dp2646
sg70
g2631
sg63
(lp2647
g56
(g57
g58
NtRp2648
(dp2649
g61
(dp2650
g69
I5
ssg70
g2644
sg63
(lp2651
g56
(g65
g58
NtRp2652
(dp2653
g61
(dp2654
g69
I4
ssg70
Nsg63
(lp2655
g56
(g72
g58
NtRp2656
(dp2657
g61
(dp2658
sg70
g2652
sg63
(lp2659
g56
(g77
g58
NtRp2660
(dp2661
g61
(dp2662
g81
g82
ssg70
g2656
sg63
(lp2663
S'environ'
p2664
asbag56
(g77
g58
NtRp2665
(dp2666
g61
(dp2667
g88
g89
ssg70
g2656
sg63
(lp2668
S':'
asbag56
(g77
g58
NtRp2669
(dp2670
g61
(dp2671
sg70
g2656
sg63
(lp2672
g56
(g57
g58
NtRp2673
(dp2674
g61
(dp2675
g69
I4
ssg70
g2669
sg63
(lp2676
g56
(g65
g58
NtRp2677
(dp2678
g61
(dp2679
g69
I3
ssg70
Nsg63
(lp2680
g56
(g72
g58
NtRp2681
(dp2682
g61
(dp2683
sg70
g2677
sg63
(lp2684
g56
(g77
g58
NtRp2685
(dp2686
g61
(dp2687
g81
g82
ssg70
g2681
sg63
(lp2688
S'CONTENT_TYPE'
p2689
asbag56
(g77
g58
NtRp2690
(dp2691
g61
(dp2692
g88
g89
ssg70
g2681
sg63
(lp2693
S':'
asbag56
(g77
g58
NtRp2694
(dp2695
g61
(dp2696
sg70
g2681
sg63
(lp2697
g56
(g57
g58
NtRp2698
(dp2699
g61
(dp2700
g69
I3
ssg70
g2694
sg63
(lp2701
g1122
asbasbasbag56
(g72
g58
NtRp2702
(dp2703
g61
(dp2704
sg70
g2677
sg63
(lp2705
g56
(g77
g58
NtRp2706
(dp2707
g61
(dp2708
g81
g82
ssg70
g2702
sg63
(lp2709
S'HTTP_ACCEPT'
p2710
asbag56
(g77
g58
NtRp2711
(dp2712
g61
(dp2713
g88
g89
ssg70
g2702
sg63
(lp2714
S':'
asbag56
(g77
g58
NtRp2715
(dp2716
g61
(dp2717
sg70
g2702
sg63
(lp2718
g56
(g57
g58
NtRp2719
(dp2720
g61
(dp2721
g69
I3
ssg70
g2715
sg63
(lp2722
g1210
asbasbasbag56
(g72
g58
NtRp2723
(dp2724
g61
(dp2725
sg70
g2677
sg63
(lp2726
g56
(g77
g58
NtRp2727
(dp2728
g61
(dp2729
g81
g82
ssg70
g2723
sg63
(lp2730
S'HTTP_ACCEPT_CHARSET'
p2731
asbag56
(g77
g58
NtRp2732
(dp2733
g61
(dp2734
g88
g89
ssg70
g2723
sg63
(lp2735
S':'
asbag56
(g77
g58
NtRp2736
(dp2737
g61
(dp2738
sg70
g2723
sg63
(lp2739
g56
(g57
g58
NtRp2740
(dp2741
g61
(dp2742
g69
I3
ssg70
g2736
sg63
(lp2743
g1232
asbasbasbag56
(g72
g58
NtRp2744
(dp2745
g61
(dp2746
sg70
g2677
sg63
(lp2747
g56
(g77
g58
NtRp2748
(dp2749
g61
(dp2750
g81
g82
ssg70
g2744
sg63
(lp2751
S'HTTP_ACCEPT_ENCODING'
p2752
asbag56
(g77
g58
NtRp2753
(dp2754
g61
(dp2755
g88
g89
ssg70
g2744
sg63
(lp2756
S':'
asbag56
(g77
g58
NtRp2757
(dp2758
g61
(dp2759
sg70
g2744
sg63
(lp2760
g56
(g57
g58
NtRp2761
(dp2762
g61
(dp2763
g69
I3
ssg70
g2757
sg63
(lp2764
g1254
asbasbasbag56
(g72
g58
NtRp2765
(dp2766
g61
(dp2767
sg70
g2677
sg63
(lp2768
g56
(g77
g58
NtRp2769
(dp2770
g61
(dp2771
g81
g82
ssg70
g2765
sg63
(lp2772
S'HTTP_ACCEPT_LANGUAGE'
p2773
asbag56
(g77
g58
NtRp2774
(dp2775
g61
(dp2776
g88
g89
ssg70
g2765
sg63
(lp2777
S':'
asbag56
(g77
g58
NtRp2778
(dp2779
g61
(dp2780
sg70
g2765
sg63
(lp2781
g56
(g57
g58
NtRp2782
(dp2783
g61
(dp2784
g69
I3
ssg70
g2778
sg63
(lp2785
g1276
asbasbasbag56
(g72
g58
NtRp2786
(dp2787
g61
(dp2788
sg70
g2677
sg63
(lp2789
g56
(g77
g58
NtRp2790
(dp2791
g61
(dp2792
g81
g82
ssg70
g2786
sg63
(lp2793
S'HTTP_CONNECTION'
p2794
asbag56
(g77
g58
NtRp2795
(dp2796
g61
(dp2797
g88
g89
ssg70
g2786
sg63
(lp2798
S':'
asbag56
(g77
g58
NtRp2799
(dp2800
g61
(dp2801
sg70
g2786
sg63
(lp2802
g56
(g57
g58
NtRp2803
(dp2804
g61
(dp2805
g69
I3
ssg70
g2799
sg63
(lp2806
g1298
asbasbasbag56
(g72
g58
NtRp2807
(dp2808
g61
(dp2809
sg70
g2677
sg63
(lp2810
g56
(g77
g58
NtRp2811
(dp2812
g61
(dp2813
g81
g82
ssg70
g2807
sg63
(lp2814
S'HTTP_CONTENT_TYPE'
p2815
asbag56
(g77
g58
NtRp2816
(dp2817
g61
(dp2818
g88
g89
ssg70
g2807
sg63
(lp2819
S':'
asbag56
(g77
g58
NtRp2820
(dp2821
g61
(dp2822
sg70
g2807
sg63
(lp2823
g56
(g57
g58
NtRp2824
(dp2825
g61
(dp2826
g69
I3
ssg70
g2820
sg63
(lp2827
g1122
asbasbasbag56
(g72
g58
NtRp2828
(dp2829
g61
(dp2830
sg70
g2677
sg63
(lp2831
g56
(g77
g58
NtRp2832
(dp2833
g61
(dp2834
g81
g82
ssg70
g2828
sg63
(lp2835
S'HTTP_COOKIE'
p2836
asbag56
(g77
g58
NtRp2837
(dp2838
g61
(dp2839
g88
g89
ssg70
g2828
sg63
(lp2840
S':'
asbag56
(g77
g58
NtRp2841
(dp2842
g61
(dp2843
sg70
g2828
sg63
(lp2844
g56
(g57
g58
NtRp2845
(dp2846
g61
(dp2847
g69
I3
ssg70
g2841
sg63
(lp2848
g1341
asbasbasbag56
(g72
g58
NtRp2849
(dp2850
g61
(dp2851
sg70
g2677
sg63
(lp2852
g56
(g77
g58
NtRp2853
(dp2854
g61
(dp2855
g81
g82
ssg70
g2849
sg63
(lp2856
S'HTTP_HOST'
p2857
asbag56
(g77
g58
NtRp2858
(dp2859
g61
(dp2860
g88
g89
ssg70
g2849
sg63
(lp2861
S':'
asbag56
(g77
g58
NtRp2862
(dp2863
g61
(dp2864
sg70
g2849
sg63
(lp2865
g56
(g57
g58
NtRp2866
(dp2867
g61
(dp2868
g69
I3
ssg70
g2862
sg63
(lp2869
g1363
asbasbasbag56
(g72
g58
NtRp2870
(dp2871
g61
(dp2872
sg70
g2677
sg63
(lp2873
g56
(g77
g58
NtRp2874
(dp2875
g61
(dp2876
g81
g82
ssg70
g2870
sg63
(lp2877
S'HTTP_REFERER'
p2878
asbag56
(g77
g58
NtRp2879
(dp2880
g61
(dp2881
g88
g89
ssg70
g2870
sg63
(lp2882
S':'
asbag56
(g77
g58
NtRp2883
(dp2884
g61
(dp2885
sg70
g2870
sg63
(lp2886
g56
(g57
g58
NtRp2887
(dp2888
g61
(dp2889
g69
I3
ssg70
g2883
sg63
(lp2890
g1385
asbasbasbag56
(g72
g58
NtRp2891
(dp2892
g61
(dp2893
sg70
g2677
sg63
(lp2894
g56
(g77
g58
NtRp2895
(dp2896
g61
(dp2897
g81
g82
ssg70
g2891
sg63
(lp2898
S'HTTP_USER_AGENT'
p2899
asbag56
(g77
g58
NtRp2900
(dp2901
g61
(dp2902
g88
g89
ssg70
g2891
sg63
(lp2903
S':'
asbag56
(g77
g58
NtRp2904
(dp2905
g61
(dp2906
sg70
g2891
sg63
(lp2907
g56
(g57
g58
NtRp2908
(dp2909
g61
(dp2910
g69
I3
ssg70
g2904
sg63
(lp2911
g1407
asbasbasbag56
(g72
g58
NtRp2912
(dp2913
g61
(dp2914
sg70
g2677
sg63
(lp2915
g56
(g77
g58
NtRp2916
(dp2917
g61
(dp2918
g81
g82
ssg70
g2912
sg63
(lp2919
S'HTTP_X_REQUESTED_WITH'
p2920
asbag56
(g77
g58
NtRp2921
(dp2922
g61
(dp2923
g88
g89
ssg70
g2912
sg63
(lp2924
S':'
asbag56
(g77
g58
NtRp2925
(dp2926
g61
(dp2927
sg70
g2912
sg63
(lp2928
g56
(g57
g58
NtRp2929
(dp2930
g61
(dp2931
g69
I3
ssg70
g2925
sg63
(lp2932
g1429
asbasbasbag56
(g72
g58
NtRp2933
(dp2934
g61
(dp2935
sg70
g2677
sg63
(lp2936
g56
(g77
g58
NtRp2937
(dp2938
g61
(dp2939
g81
g82
ssg70
g2933
sg63
(lp2940
S'PATH_INFO'
p2941
asbag56
(g77
g58
NtRp2942
(dp2943
g61
(dp2944
g88
g89
ssg70
g2933
sg63
(lp2945
S':'
asbag56
(g77
g58
NtRp2946
(dp2947
g61
(dp2948
sg70
g2933
sg63
(lp2949
g56
(g57
g58
NtRp2950
(dp2951
g61
(dp2952
g69
I3
ssg70
g2946
sg63
(lp2953
g1472
asbasbasbag56
(g72
g58
NtRp2954
(dp2955
g61
(dp2956
sg70
g2677
sg63
(lp2957
g56
(g77
g58
NtRp2958
(dp2959
g61
(dp2960
g81
g82
ssg70
g2954
sg63
(lp2961
S'QUERY_STRING'
p2962
asbag56
(g77
g58
NtRp2963
(dp2964
g61
(dp2965
g88
g89
ssg70
g2954
sg63
(lp2966
S':'
asbag56
(g77
g58
NtRp2967
(dp2968
g61
(dp2969
sg70
g2954
sg63
(lp2970
g56
(g57
g58
NtRp2971
(dp2972
g61
(dp2973
g69
I3
ssg70
g2967
sg63
(lp2974
g1494
asbasbasbag56
(g72
g58
NtRp2975
(dp2976
g61
(dp2977
sg70
g2677
sg63
(lp2978
g56
(g77
g58
NtRp2979
(dp2980
g61
(dp2981
g81
g82
ssg70
g2975
sg63
(lp2982
S'REMOTE_ADDR'
p2983
asbag56
(g77
g58
NtRp2984
(dp2985
g61
(dp2986
g88
g89
ssg70
g2975
sg63
(lp2987
S':'
asbag56
(g77
g58
NtRp2988
(dp2989
g61
(dp2990
sg70
g2975
sg63
(lp2991
g56
(g57
g58
NtRp2992
(dp2993
g61
(dp2994
g69
I3
ssg70
g2988
sg63
(lp2995
g189
asbasbasbag56
(g72
g58
NtRp2996
(dp2997
g61
(dp2998
sg70
g2677
sg63
(lp2999
g56
(g77
g58
NtRp3000
(dp3001
g61
(dp3002
g81
g82
ssg70
g2996
sg63
(lp3003
S'REMOTE_PORT'
p3004
asbag56
(g77
g58
NtRp3005
(dp3006
g61
(dp3007
g88
g89
ssg70
g2996
sg63
(lp3008
S':'
asbag56
(g77
g58
NtRp3009
(dp3010
g61
(dp3011
sg70
g2996
sg63
(lp3012
g56
(g57
g58
NtRp3013
(dp3014
g61
(dp3015
g69
I3
ssg70
g3009
sg63
(lp3016
g1537
asbasbasbag56
(g72
g58
NtRp3017
(dp3018
g61
(dp3019
sg70
g2677
sg63
(lp3020
g56
(g77
g58
NtRp3021
(dp3022
g61
(dp3023
g81
g82
ssg70
g3017
sg63
(lp3024
S'REQUEST_METHOD'
p3025
asbag56
(g77
g58
NtRp3026
(dp3027
g61
(dp3028
g88
g89
ssg70
g3017
sg63
(lp3029
S':'
asbag56
(g77
g58
NtRp3030
(dp3031
g61
(dp3032
sg70
g3017
sg63
(lp3033
g56
(g57
g58
NtRp3034
(dp3035
g61
(dp3036
g69
I3
ssg70
g3030
sg63
(lp3037
g1559
asbasbasbag56
(g72
g58
NtRp3038
(dp3039
g61
(dp3040
sg70
g2677
sg63
(lp3041
g56
(g77
g58
NtRp3042
(dp3043
g61
(dp3044
g81
g82
ssg70
g3038
sg63
(lp3045
S'SCRIPT_NAME'
p3046
asbag56
(g77
g58
NtRp3047
(dp3048
g61
(dp3049
g88
g89
ssg70
g3038
sg63
(lp3050
S':'
asbag56
(g77
g58
NtRp3051
(dp3052
g61
(dp3053
sg70
g3038
sg63
(lp3054
g56
(g57
g58
NtRp3055
(dp3056
g61
(dp3057
g69
I3
ssg70
g3051
sg63
(lp3058
S''
asbasbasbag56
(g72
g58
NtRp3059
(dp3060
g61
(dp3061
sg70
g2677
sg63
(lp3062
g56
(g77
g58
NtRp3063
(dp3064
g61
(dp3065
g81
g82
ssg70
g3059
sg63
(lp3066
S'SERVER_NAME'
p3067
asbag56
(g77
g58
NtRp3068
(dp3069
g61
(dp3070
g88
g89
ssg70
g3059
sg63
(lp3071
S':'
asbag56
(g77
g58
NtRp3072
(dp3073
g61
(dp3074
sg70
g3059
sg63
(lp3075
g56
(g57
g58
NtRp3076
(dp3077
g61
(dp3078
g69
I3
ssg70
g3072
sg63
(lp3079
g1602
asbasbasbag56
(g72
g58
NtRp3080
(dp3081
g61
(dp3082
sg70
g2677
sg63
(lp3083
g56
(g77
g58
NtRp3084
(dp3085
g61
(dp3086
g81
g82
ssg70
g3080
sg63
(lp3087
S'SERVER_PORT'
p3088
asbag56
(g77
g58
NtRp3089
(dp3090
g61
(dp3091
g88
g89
ssg70
g3080
sg63
(lp3092
S':'
asbag56
(g77
g58
NtRp3093
(dp3094
g61
(dp3095
sg70
g3080
sg63
(lp3096
g56
(g57
g58
NtRp3097
(dp3098
g61
(dp3099
g69
I3
ssg70
g3093
sg63
(lp3100
g1624
asbasbasbag56
(g72
g58
NtRp3101
(dp3102
g61
(dp3103
sg70
g2677
sg63
(lp3104
g56
(g77
g58
NtRp3105
(dp3106
g61
(dp3107
g81
g82
ssg70
g3101
sg63
(lp3108
S'SERVER_PROTOCOL'
p3109
asbag56
(g77
g58
NtRp3110
(dp3111
g61
(dp3112
g88
g89
ssg70
g3101
sg63
(lp3113
S':'
asbag56
(g77
g58
NtRp3114
(dp3115
g61
(dp3116
sg70
g3101
sg63
(lp3117
g56
(g57
g58
NtRp3118
(dp3119
g61
(dp3120
g69
I3
ssg70
g3114
sg63
(lp3121
g1646
asbasbasbag56
(g72
g58
NtRp3122
(dp3123
g61
(dp3124
sg70
g2677
sg63
(lp3125
g56
(g77
g58
NtRp3126
(dp3127
g61
(dp3128
g81
g82
ssg70
g3122
sg63
(lp3129
S'SERVER_SOFTWARE'
p3130
asbag56
(g77
g58
NtRp3131
(dp3132
g61
(dp3133
g88
g89
ssg70
g3122
sg63
(lp3134
S':'
asbag56
(g77
g58
NtRp3135
(dp3136
g61
(dp3137
sg70
g3122
sg63
(lp3138
g56
(g57
g58
NtRp3139
(dp3140
g61
(dp3141
g69
I3
ssg70
g3135
sg63
(lp3142
g1668
asbasbasbag56
(g72
g58
NtRp3143
(dp3144
g61
(dp3145
sg70
g2677
sg63
(lp3146
g56
(g77
g58
NtRp3147
(dp3148
g61
(dp3149
g81
g82
ssg70
g3143
sg63
(lp3150
S'wsgi.errors'
p3151
asbag56
(g77
g58
NtRp3152
(dp3153
g61
(dp3154
g88
g89
ssg70
g3143
sg63
(lp3155
S':'
asbag56
(g77
g58
NtRp3156
(dp3157
g61
(dp3158
sg70
g3143
sg63
(lp3159
g56
(g57
g58
NtRp3160
(dp3161
g61
(dp3162
g69
I3
ssg70
g3156
sg63
(lp3163
S"<open file '<stderr>', mode 'w' at 0xb75610d0>"
p3164
asbasbasbag56
(g72
g58
NtRp3165
(dp3166
g61
(dp3167
sg70
g2677
sg63
(lp3168
g56
(g77
g58
NtRp3169
(dp3170
g61
(dp3171
g81
g82
ssg70
g3165
sg63
(lp3172
S'wsgi.file_wrapper'
p3173
asbag56
(g77
g58
NtRp3174
(dp3175
g61
(dp3176
g88
g89
ssg70
g3165
sg63
(lp3177
S':'
asbag56
(g77
g58
NtRp3178
(dp3179
g61
(dp3180
sg70
g3165
sg63
(lp3181
g56
(g57
g58
NtRp3182
(dp3183
g61
(dp3184
g69
I3
ssg70
g3178
sg63
(lp3185
S'<class wsgiref.util.FileWrapper at 0x8a4d50c>'
p3186
asbasbasbag56
(g72
g58
NtRp3187
(dp3188
g61
(dp3189
sg70
g2677
sg63
(lp3190
g56
(g77
g58
NtRp3191
(dp3192
g61
(dp3193
g81
g82
ssg70
g3187
sg63
(lp3194
S'wsgi.input'
p3195
asbag56
(g77
g58
NtRp3196
(dp3197
g61
(dp3198
g88
g89
ssg70
g3187
sg63
(lp3199
S':'
asbag56
(g77
g58
NtRp3200
(dp3201
g61
(dp3202
sg70
g3187
sg63
(lp3203
g56
(g57
g58
NtRp3204
(dp3205
g61
(dp3206
g69
I3
ssg70
g3200
sg63
(lp3207
S'<cStringIO.StringO object at 0xaf15fe20>'
p3208
asbasbasbag56
(g72
g58
NtRp3209
(dp3210
g61
(dp3211
sg70
g2677
sg63
(lp3212
g56
(g77
g58
NtRp3213
(dp3214
g61
(dp3215
g81
g82
ssg70
g3209
sg63
(lp3216
S'wsgi.multiprocess'
p3217
asbag56
(g77
g58
NtRp3218
(dp3219
g61
(dp3220
g88
g89
ssg70
g3209
sg63
(lp3221
S':'
asbag56
(g77
g58
NtRp3222
(dp3223
g61
(dp3224
sg70
g3209
sg63
(lp3225
g56
(g57
g58
NtRp3226
(dp3227
g61
(dp3228
g69
I3
ssg70
g3222
sg63
(lp3229
g1166
asbasbasbag56
(g72
g58
NtRp3230
(dp3231
g61
(dp3232
sg70
g2677
sg63
(lp3233
g56
(g77
g58
NtRp3234
(dp3235
g61
(dp3236
g81
g82
ssg70
g3230
sg63
(lp3237
S'wsgi.multithread'
p3238
asbag56
(g77
g58
NtRp3239
(dp3240
g61
(dp3241
g88
g89
ssg70
g3230
sg63
(lp3242
S':'
asbag56
(g77
g58
NtRp3243
(dp3244
g61
(dp3245
sg70
g3230
sg63
(lp3246
g56
(g57
g58
NtRp3247
(dp3248
g61
(dp3249
g69
I3
ssg70
g3243
sg63
(lp3250
g99
asbasbasbag56
(g72
g58
NtRp3251
(dp3252
g61
(dp3253
sg70
g2677
sg63
(lp3254
g56
(g77
g58
NtRp3255
(dp3256
g61
(dp3257
g81
g82
ssg70
g3251
sg63
(lp3258
S'wsgi.run_once'
p3259
asbag56
(g77
g58
NtRp3260
(dp3261
g61
(dp3262
g88
g89
ssg70
g3251
sg63
(lp3263
S':'
asbag56
(g77
g58
NtRp3264
(dp3265
g61
(dp3266
sg70
g3251
sg63
(lp3267
g56
(g57
g58
NtRp3268
(dp3269
g61
(dp3270
g69
I3
ssg70
g3264
sg63
(lp3271
g1166
asbasbasbag56
(g72
g58
NtRp3272
(dp3273
g61
(dp3274
sg70
g2677
sg63
(lp3275
g56
(g77
g58
NtRp3276
(dp3277
g61
(dp3278
g81
g82
ssg70
g3272
sg63
(lp3279
S'wsgi.url_scheme'
p3280
asbag56
(g77
g58
NtRp3281
(dp3282
g61
(dp3283
g88
g89
ssg70
g3272
sg63
(lp3284
S':'
asbag56
(g77
g58
NtRp3285
(dp3286
g61
(dp3287
sg70
g3272
sg63
(lp3288
g56
(g57
g58
NtRp3289
(dp3290
g61
(dp3291
g69
I3
ssg70
g3285
sg63
(lp3292
g1950
asbasbasbag56
(g72
g58
NtRp3293
(dp3294
g61
(dp3295
sg70
g2677
sg63
(lp3296
g56
(g77
g58
NtRp3297
(dp3298
g61
(dp3299
g81
g82
ssg70
g3293
sg63
(lp3300
S'wsgi.version'
p3301
asbag56
(g77
g58
NtRp3302
(dp3303
g61
(dp3304
g88
g89
ssg70
g3293
sg63
(lp3305
S':'
asbag56
(g77
g58
NtRp3306
(dp3307
g61
(dp3308
sg70
g3293
sg63
(lp3309
g56
(g57
g58
NtRp3310
(dp3311
g61
(dp3312
g69
I3
ssg70
g3306
sg63
(lp3313
S'1'
asbasbasbasbasbasbasbasbasbasbasbasbasbsS'frames'
p3314
(lp3315
(dp3316
S'file'
p3317
S'/home/brencam/web2py/gluon/restricted.py'
p3318
sS'dump'
p3319
(dp3320
S'environment'
p3321
S"{'A': <class 'gluon.html.A'>, 'Auth': <class 'gluon.tools.Auth'>, 'B': <class 'gluon.html.B'>, 'BEAUTIFY': <class 'gluon.html.BEAUTIFY'>, 'BODY': <class 'gluon.html.BODY'>, 'BR': <class 'gluon.html.BR'>, 'BUTTON': <class 'gluon.html.BUTTON'>, 'CAT': <class 'gluon.html.CAT'>, 'CENTER': <class 'gluon.html.CENTER'>, 'CLEANUP': <class 'gluon.validators.CLEANUP'>, ...}"
p3322
sS'ccode'
p3323
S'<code object <module> at 0xb5eee2f0, file "/home...lications/gallery/controllers/search.py", line 2>'
p3324
ssS'lnum'
p3325
I194
sS'lines'
p3326
(dp3327
I192
S'        else:'
p3328
sI193
S'            ccode = compile2(code,layer)'
p3329
sI194
S'        exec ccode in environment'
p3330
sI195
S'    except HTTP:'
p3331
sI196
S'        raise'
p3332
sI197
S'    except Exception, error:'
p3333
sI198
S'        # XXX Show exception in Wing IDE if running in debugger'
p3334
sI189
S'    try:'
p3335
sI190
S'        if type(code) == types.CodeType:'
p3336
sI191
S'            ccode = code'
p3337
ssS'call'
p3338
S"(code='# Search Controller\\nimport datetime\\n\\ndef getname...]))\\n\\n\\n\\nresponse._vars=response._caller(getnames)\\n', environment={'A': <class 'gluon.html.A'>, 'Auth': <class 'gluon.tools.Auth'>, 'B': <class 'gluon.html.B'>, 'BEAUTIFY': <class 'gluon.html.BEAUTIFY'>, 'BODY': <class 'gluon.html.BODY'>, 'BR': <class 'gluon.html.BR'>, 'BUTTON': <class 'gluon.html.BUTTON'>, 'CAT': <class 'gluon.html.CAT'>, 'CENTER': <class 'gluon.html.CENTER'>, 'CLEANUP': <class 'gluon.validators.CLEANUP'>, ...}, layer='/home/brencam/web2py/applications/gallery/controllers/search.py')"
p3339
sS'func'
p3340
S'restricted'
p3341
sa(dp3342
g3317
S'/home/brencam/web2py/applications/gallery/controllers/search.py'
p3343
sg3319
(dp3344
sg3325
I45
sg3326
(dp3345
I34
S''
sI35
S'    # Can I do a redirect from ajax request with the search results ??'
p3346
sI36
S"    #redirect (URL('default', 'showcss'))"
p3347
sI37
S''
sI38
S'    # Note the URL Syntax here to create a link to a different controller (the default)'
p3348
sI39
S'    # How to show thumbnails for selected images here as well ??'
p3349
sI40
S"#    return XML(UL(*[LI(A('%s ' % (img.title),_href=URL('default','show',args=img.id)))\\"
p3350
sI41
S'#                    for img in images]))'
p3351
sI42
S''
sI43
S''
ssg3338
S'()'
p3352
sg3340
S'<module>'
p3353
sa(dp3354
g3317
S'/home/brencam/web2py/gluon/globals.py'
p3355
sg3319
(dp3356
S'self'
p3357
S'undefined'
p3358
sS'f'
S'<function getnames>'
p3359
ssg3325
I149
sg3326
(dp3360
I144
S'        self.meta = Storage()      # used by web2py_ajax.html'
p3361
sI145
S'        self.menu = []             # used by the default view layout'
p3362
sI146
S'        self.files = []            # used by web2py_ajax.html'
p3363
sI147
S'        self.generic_patterns = [] # patterns to allow generic views'
p3364
sI148
S'        self._vars = None'
p3365
sI149
S'        self._caller = lambda f: f()'
p3366
sI150
S'        self._view_environment = None'
p3367
sI151
S'        self._custom_commit = None'
p3368
sI152
S'        self._custom_rollback = None'
p3369
sI153
S''
ssg3338
S'(f=<function getnames>)'
p3370
sg3340
S'<lambda>'
p3371
sa(dp3372
g3317
S'/home/brencam/web2py/applications/gallery/controllers/search.py'
p3373
sg3319
(dp3374
S'images'
p3375
S'<gluon.dal.Rows object>'
p3376
sS'r'
g3358
ssg3325
I23
sg3326
(dp3377
I18
S''
sI19
S'#    html =  XML( <img src="{{=URL(\'download\', args=image.file)}}" width="120"  height="100"  for image in images)'
p3378
sI20
S''
sI21
S"#    print '***************   html **********' html"
p3379
sI22
S''
sI23
S'    r = images[0]'
p3380
sI24
S'    return XML(DIV(LI(r.title, A(IMG(_src=URL(\'default\',\'download\', args= r.file), _alt="", _width="120",  _height="100"), _href=URL(\'default\',\'index\')))))'
p3381
sI25
S''
sI26
S''
sI27
S'#    return XML( A(IMG(_src=URL(\'default\',\'download\', args= r.file), _alt="", _width="120",  _height="100"), _href=URL(\'default\',\'index\')))'
p3382
ssg3338
S'()'
p3383
sg3340
S'getnames'
p3384
sa(dp3385
g3317
S'/home/brencam/web2py/gluon/dal.py'
p3386
sg3319
(dp3387
S'i'
S'0'
sS'self'
p3388
S'<gluon.dal.Rows object>'
p3389
sS'self.records'
p3390
S'[]'
p3391
sS'row'
p3392
g3358
ssg3325
I5868
sg3326
(dp3393
I5863
S''
sI5864
S'    def __getslice__(self, a, b):'
p3394
sI5865
S'        return Rows(self.db,self.records[a:b],self.colnames)'
p3395
sI5866
S''
sI5867
S'    def __getitem__(self, i):'
p3396
sI5868
S'        row = self.records[i]'
p3397
sI5869
S'        keys = row.keys()'
p3398
sI5870
S"        if self.compact and len(keys) == 1 and keys[0] != '_extra':"
p3399
sI5871
S'            return row[row.keys()[0]]'
p3400
sI5872
S'        return row'
p3401
ssg3338
S'(self=<gluon.dal.Rows object>, i=0)'
p3402
sg3340
g19
sasS'pyver'
p3403
S'Python 2.6.6: /usr/bin/python'
p3404
sS'session'
p3405
g56
(g57
g58
NtRp3406
(dp3407
g61
(dp3408
sg63
(lp3409
g56
(g65
g58
NtRp3410
(dp3411
g61
(dp3412
g69
I5
ssg70
Nsg63
(lp3413
sbasbsS'etype'
p3414
S"<type 'exceptions.IndexError'>"
p3415
sS'date'
p3416
S'Wed Nov  2 21:55:45 2011'
p3417
sS'response'
p3418
g56
(g57
g58
NtRp3419
(dp3420
g61
(dp3421
sg63
(lp3422
g56
(g65
g58
NtRp3423
(dp3424
g61
(dp3425
g69
I5
ssg70
Nsg63
(lp3426
g56
(g72
g58
NtRp3427
(dp3428
g61
(dp3429
sg70
g3423
sg63
(lp3430
g56
(g77
g58
NtRp3431
(dp3432
g61
(dp3433
g81
g82
ssg70
g3427
sg63
(lp3434
g154
asbag56
(g77
g58
NtRp3435
(dp3436
g61
(dp3437
g88
g89
ssg70
g3427
sg63
(lp3438
S':'
asbag56
(g77
g58
NtRp3439
(dp3440
g61
(dp3441
sg70
g3427
sg63
(lp3442
g56
(g57
g58
NtRp3443
(dp3444
g61
(dp3445
g69
I5
ssg70
g3439
sg63
(lp3446
S'<cStringIO.StringO object at 0xaf15fa20>'
p3447
asbasbasbag56
(g72
g58
NtRp3448
(dp3449
g61
(dp3450
sg70
g3423
sg63
(lp3451
g56
(g77
g58
NtRp3452
(dp3453
g61
(dp3454
g81
g82
ssg70
g3448
sg63
(lp3455
g220
asbag56
(g77
g58
NtRp3456
(dp3457
g61
(dp3458
g88
g89
ssg70
g3448
sg63
(lp3459
S':'
asbag56
(g77
g58
NtRp3460
(dp3461
g61
(dp3462
sg70
g3448
sg63
(lp3463
g56
(g57
g58
NtRp3464
(dp3465
g61
(dp3466
g69
I5
ssg70
g3460
sg63
(lp3467
g56
(g65
g58
NtRp3468
(dp3469
g61
(dp3470
g69
I4
ssg70
Nsg63
(lp3471
g56
(g72
g58
NtRp3472
(dp3473
g61
(dp3474
sg70
g3468
sg63
(lp3475
g56
(g77
g58
NtRp3476
(dp3477
g61
(dp3478
g81
g82
ssg70
g3472
sg63
(lp3479
S'session_id_gallery'
p3480
asbag56
(g77
g58
NtRp3481
(dp3482
g61
(dp3483
g88
g89
ssg70
g3472
sg63
(lp3484
S':'
asbag56
(g77
g58
NtRp3485
(dp3486
g61
(dp3487
sg70
g3472
sg63
(lp3488
g56
(g57
g58
NtRp3489
(dp3490
g61
(dp3491
g69
I4
ssg70
g3485
sg63
(lp3492
g56
(g65
g58
NtRp3493
(dp3494
g61
(dp3495
g69
I3
ssg70
Nsg63
(lp3496
g56
(g72
g58
NtRp3497
(dp3498
g61
(dp3499
sg70
g3493
sg63
(lp3500
g56
(g77
g58
NtRp3501
(dp3502
g61
(dp3503
g81
g82
ssg70
g3497
sg63
(lp3504
g270
asbag56
(g77
g58
NtRp3505
(dp3506
g61
(dp3507
g88
g89
ssg70
g3497
sg63
(lp3508
S':'
asbag56
(g77
g58
NtRp3509
(dp3510
g61
(dp3511
sg70
g3497
sg63
(lp3512
g56
(g57
g58
NtRp3513
(dp3514
g61
(dp3515
g69
I3
ssg70
g3509
sg63
(lp3516
S''
asbasbasbag56
(g72
g58
NtRp3517
(dp3518
g61
(dp3519
sg70
g3493
sg63
(lp3520
g56
(g77
g58
NtRp3521
(dp3522
g61
(dp3523
g81
g82
ssg70
g3517
sg63
(lp3524
g291
asbag56
(g77
g58
NtRp3525
(dp3526
g61
(dp3527
g88
g89
ssg70
g3517
sg63
(lp3528
S':'
asbag56
(g77
g58
NtRp3529
(dp3530
g61
(dp3531
sg70
g3517
sg63
(lp3532
g56
(g57
g58
NtRp3533
(dp3534
g61
(dp3535
g69
I3
ssg70
g3529
sg63
(lp3536
S''
asbasbasbag56
(g72
g58
NtRp3537
(dp3538
g61
(dp3539
sg70
g3493
sg63
(lp3540
g56
(g77
g58
NtRp3541
(dp3542
g61
(dp3543
g81
g82
ssg70
g3537
sg63
(lp3544
g312
asbag56
(g77
g58
NtRp3545
(dp3546
g61
(dp3547
g88
g89
ssg70
g3537
sg63
(lp3548
S':'
asbag56
(g77
g58
NtRp3549
(dp3550
g61
(dp3551
sg70
g3537
sg63
(lp3552
g56
(g57
g58
NtRp3553
(dp3554
g61
(dp3555
g69
I3
ssg70
g3549
sg63
(lp3556
S''
asbasbasbag56
(g72
g58
NtRp3557
(dp3558
g61
(dp3559
sg70
g3493
sg63
(lp3560
g56
(g77
g58
NtRp3561
(dp3562
g61
(dp3563
g81
g82
ssg70
g3557
sg63
(lp3564
g333
asbag56
(g77
g58
NtRp3565
(dp3566
g61
(dp3567
g88
g89
ssg70
g3557
sg63
(lp3568
S':'
asbag56
(g77
g58
NtRp3569
(dp3570
g61
(dp3571
sg70
g3557
sg63
(lp3572
g56
(g57
g58
NtRp3573
(dp3574
g61
(dp3575
g69
I3
ssg70
g3569
sg63
(lp3576
S''
asbasbasbag56
(g72
g58
NtRp3577
(dp3578
g61
(dp3579
sg70
g3493
sg63
(lp3580
g56
(g77
g58
NtRp3581
(dp3582
g61
(dp3583
g81
g82
ssg70
g3577
sg63
(lp3584
g354
asbag56
(g77
g58
NtRp3585
(dp3586
g61
(dp3587
g88
g89
ssg70
g3577
sg63
(lp3588
S':'
asbag56
(g77
g58
NtRp3589
(dp3590
g61
(dp3591
sg70
g3577
sg63
(lp3592
g56
(g57
g58
NtRp3593
(dp3594
g61
(dp3595
g69
I3
ssg70
g3589
sg63
(lp3596
S''
asbasbasbag56
(g72
g58
NtRp3597
(dp3598
g61
(dp3599
sg70
g3493
sg63
(lp3600
g56
(g77
g58
NtRp3601
(dp3602
g61
(dp3603
g81
g82
ssg70
g3597
sg63
(lp3604
g375
asbag56
(g77
g58
NtRp3605
(dp3606
g61
(dp3607
g88
g89
ssg70
g3597
sg63
(lp3608
S':'
asbag56
(g77
g58
NtRp3609
(dp3610
g61
(dp3611
sg70
g3597
sg63
(lp3612
g56
(g57
g58
NtRp3613
(dp3614
g61
(dp3615
g69
I3
ssg70
g3609
sg63
(lp3616
S'/'
asbasbasbag56
(g72
g58
NtRp3617
(dp3618
g61
(dp3619
sg70
g3493
sg63
(lp3620
g56
(g77
g58
NtRp3621
(dp3622
g61
(dp3623
g81
g82
ssg70
g3617
sg63
(lp3624
g396
asbag56
(g77
g58
NtRp3625
(dp3626
g61
(dp3627
g88
g89
ssg70
g3617
sg63
(lp3628
S':'
asbag56
(g77
g58
NtRp3629
(dp3630
g61
(dp3631
sg70
g3617
sg63
(lp3632
g56
(g57
g58
NtRp3633
(dp3634
g61
(dp3635
g69
I3
ssg70
g3629
sg63
(lp3636
S''
asbasbasbag56
(g72
g58
NtRp3637
(dp3638
g61
(dp3639
sg70
g3493
sg63
(lp3640
g56
(g77
g58
NtRp3641
(dp3642
g61
(dp3643
g81
g82
ssg70
g3637
sg63
(lp3644
g417
asbag56
(g77
g58
NtRp3645
(dp3646
g61
(dp3647
g88
g89
ssg70
g3637
sg63
(lp3648
S':'
asbag56
(g77
g58
NtRp3649
(dp3650
g61
(dp3651
sg70
g3637
sg63
(lp3652
g56
(g57
g58
NtRp3653
(dp3654
g61
(dp3655
g69
I3
ssg70
g3649
sg63
(lp3656
S''
asbasbasbasbasbasbasbasbasbasbasbag56
(g72
g58
NtRp3657
(dp3658
g61
(dp3659
sg70
g3423
sg63
(lp3660
g56
(g77
g58
NtRp3661
(dp3662
g61
(dp3663
g81
g82
ssg70
g3657
sg63
(lp3664
S'files'
p3665
asbag56
(g77
g58
NtRp3666
(dp3667
g61
(dp3668
g88
g89
ssg70
g3657
sg63
(lp3669
S':'
asbag56
(g77
g58
NtRp3670
(dp3671
g61
(dp3672
sg70
g3657
sg63
(lp3673
g56
(g57
g58
NtRp3674
(dp3675
g61
(dp3676
g69
I5
ssg70
g3670
sg63
(lp3677
g56
(g65
g58
NtRp3678
(dp3679
g61
(dp3680
g69
I4
ssg70
Nsg63
(lp3681
sbasbasbasbag56
(g72
g58
NtRp3682
(dp3683
g61
(dp3684
sg70
g3423
sg63
(lp3685
g56
(g77
g58
NtRp3686
(dp3687
g61
(dp3688
g81
g82
ssg70
g3682
sg63
(lp3689
S'flash'
p3690
asbag56
(g77
g58
NtRp3691
(dp3692
g61
(dp3693
g88
g89
ssg70
g3682
sg63
(lp3694
S':'
asbag56
(g77
g58
NtRp3695
(dp3696
g61
(dp3697
sg70
g3682
sg63
(lp3698
g56
(g57
g58
NtRp3699
(dp3700
g61
(dp3701
g69
I5
ssg70
g3695
sg63
(lp3702
S''
asbasbasbag56
(g72
g58
NtRp3703
(dp3704
g61
(dp3705
sg70
g3423
sg63
(lp3706
g56
(g77
g58
NtRp3707
(dp3708
g61
(dp3709
g81
g82
ssg70
g3703
sg63
(lp3710
S'generic_patterns'
p3711
asbag56
(g77
g58
NtRp3712
(dp3713
g61
(dp3714
g88
g89
ssg70
g3703
sg63
(lp3715
S':'
asbag56
(g77
g58
NtRp3716
(dp3717
g61
(dp3718
sg70
g3703
sg63
(lp3719
g56
(g57
g58
NtRp3720
(dp3721
g61
(dp3722
g69
I5
ssg70
g3716
sg63
(lp3723
g56
(g65
g58
NtRp3724
(dp3725
g61
(dp3726
g69
I4
ssg70
Nsg63
(lp3727
g56
(g72
g58
NtRp3728
(dp3729
g61
(dp3730
sg70
g3724
sg63
(lp3731
g56
(g77
g58
NtRp3732
(dp3733
g61
(dp3734
sg70
g3728
sg63
(lp3735
g56
(g57
g58
NtRp3736
(dp3737
g61
(dp3738
g69
I4
ssg70
g3732
sg63
(lp3739
S'*'
asbasbasbasbasbasbasbag56
(g72
g58
NtRp3740
(dp3741
g61
(dp3742
sg70
g3423
sg63
(lp3743
g56
(g77
g58
NtRp3744
(dp3745
g61
(dp3746
g81
g82
ssg70
g3740
sg63
(lp3747
S'headers'
p3748
asbag56
(g77
g58
NtRp3749
(dp3750
g61
(dp3751
g88
g89
ssg70
g3740
sg63
(lp3752
S':'
asbag56
(g77
g58
NtRp3753
(dp3754
g61
(dp3755
sg70
g3740
sg63
(lp3756
g56
(g57
g58
NtRp3757
(dp3758
g61
(dp3759
g69
I5
ssg70
g3753
sg63
(lp3760
g56
(g65
g58
NtRp3761
(dp3762
g61
(dp3763
g69
I4
ssg70
Nsg63
(lp3764
g56
(g72
g58
NtRp3765
(dp3766
g61
(dp3767
sg70
g3761
sg63
(lp3768
g56
(g77
g58
NtRp3769
(dp3770
g61
(dp3771
g81
g82
ssg70
g3765
sg63
(lp3772
S'Cache-Control'
p3773
asbag56
(g77
g58
NtRp3774
(dp3775
g61
(dp3776
g88
g89
ssg70
g3765
sg63
(lp3777
S':'
asbag56
(g77
g58
NtRp3778
(dp3779
g61
(dp3780
sg70
g3765
sg63
(lp3781
g56
(g57
g58
NtRp3782
(dp3783
g61
(dp3784
g69
I4
ssg70
g3778
sg63
(lp3785
S'no-store, no-cache, must-revalidate, post-check=0, pre-check=0'
p3786
asbasbasbag56
(g72
g58
NtRp3787
(dp3788
g61
(dp3789
sg70
g3761
sg63
(lp3790
g56
(g77
g58
NtRp3791
(dp3792
g61
(dp3793
g81
g82
ssg70
g3787
sg63
(lp3794
S'Content-Type'
p3795
asbag56
(g77
g58
NtRp3796
(dp3797
g61
(dp3798
g88
g89
ssg70
g3787
sg63
(lp3799
S':'
asbag56
(g77
g58
NtRp3800
(dp3801
g61
(dp3802
sg70
g3787
sg63
(lp3803
g56
(g57
g58
NtRp3804
(dp3805
g61
(dp3806
g69
I4
ssg70
g3800
sg63
(lp3807
S'text/html; charset=utf-8'
p3808
asbasbasbag56
(g72
g58
NtRp3809
(dp3810
g61
(dp3811
sg70
g3761
sg63
(lp3812
g56
(g77
g58
NtRp3813
(dp3814
g61
(dp3815
g81
g82
ssg70
g3809
sg63
(lp3816
S'Expires'
p3817
asbag56
(g77
g58
NtRp3818
(dp3819
g61
(dp3820
g88
g89
ssg70
g3809
sg63
(lp3821
S':'
asbag56
(g77
g58
NtRp3822
(dp3823
g61
(dp3824
sg70
g3809
sg63
(lp3825
g56
(g57
g58
NtRp3826
(dp3827
g61
(dp3828
g69
I4
ssg70
g3822
sg63
(lp3829
S'Thu, 03 Nov 2011 04:55:45 GMT'
p3830
asbasbasbag56
(g72
g58
NtRp3831
(dp3832
g61
(dp3833
sg70
g3761
sg63
(lp3834
g56
(g77
g58
NtRp3835
(dp3836
g61
(dp3837
g81
g82
ssg70
g3831
sg63
(lp3838
S'Pragma'
p3839
asbag56
(g77
g58
NtRp3840
(dp3841
g61
(dp3842
g88
g89
ssg70
g3831
sg63
(lp3843
S':'
asbag56
(g77
g58
NtRp3844
(dp3845
g61
(dp3846
sg70
g3831
sg63
(lp3847
g56
(g57
g58
NtRp3848
(dp3849
g61
(dp3850
g69
I4
ssg70
g3844
sg63
(lp3851
S'no-cache'
p3852
asbasbasbag56
(g72
g58
NtRp3853
(dp3854
g61
(dp3855
sg70
g3761
sg63
(lp3856
g56
(g77
g58
NtRp3857
(dp3858
g61
(dp3859
g81
g82
ssg70
g3853
sg63
(lp3860
S'X-Powered-By'
p3861
asbag56
(g77
g58
NtRp3862
(dp3863
g61
(dp3864
g88
g89
ssg70
g3853
sg63
(lp3865
S':'
asbag56
(g77
g58
NtRp3866
(dp3867
g61
(dp3868
sg70
g3853
sg63
(lp3869
g56
(g57
g58
NtRp3870
(dp3871
g61
(dp3872
g69
I4
ssg70
g3866
sg63
(lp3873
S'web2py'
p3874
asbasbasbasbasbasbasbag56
(g72
g58
NtRp3875
(dp3876
g61
(dp3877
sg70
g3423
sg63
(lp3878
g56
(g77
g58
NtRp3879
(dp3880
g61
(dp3881
g81
g82
ssg70
g3875
sg63
(lp3882
S'menu'
p3883
asbag56
(g77
g58
NtRp3884
(dp3885
g61
(dp3886
g88
g89
ssg70
g3875
sg63
(lp3887
S':'
asbag56
(g77
g58
NtRp3888
(dp3889
g61
(dp3890
sg70
g3875
sg63
(lp3891
g56
(g57
g58
NtRp3892
(dp3893
g61
(dp3894
g69
I5
ssg70
g3888
sg63
(lp3895
g56
(g65
g58
NtRp3896
(dp3897
g61
(dp3898
g69
I4
ssg70
Nsg63
(lp3899
g56
(g72
g58
NtRp3900
(dp3901
g61
(dp3902
sg70
g3896
sg63
(lp3903
g56
(g77
g58
NtRp3904
(dp3905
g61
(dp3906
sg70
g3900
sg63
(lp3907
g56
(g57
g58
NtRp3908
(dp3909
g61
(dp3910
g69
I4
ssg70
g3904
sg63
(lp3911
g56
(g65
g58
NtRp3912
(dp3913
g61
(dp3914
g69
I3
ssg70
Nsg63
(lp3915
g56
(g72
g58
NtRp3916
(dp3917
g61
(dp3918
sg70
g3912
sg63
(lp3919
g56
(g77
g58
NtRp3920
(dp3921
g61
(dp3922
sg70
g3916
sg63
(lp3923
g56
(g57
g58
NtRp3924
(dp3925
g61
(dp3926
g69
I3
ssg70
g3920
sg63
(lp3927
cgluon.languages
lazyT_unpickle
p3928
(S's\x04\x00\x00\x00Home'
tRp3929
asbasbasbag56
(g72
g58
NtRp3930
(dp3931
g61
(dp3932
sg70
g3912
sg63
(lp3933
g56
(g77
g58
NtRp3934
(dp3935
g61
(dp3936
sg70
g3930
sg63
(lp3937
g56
(g57
g58
NtRp3938
(dp3939
g61
(dp3940
g69
I3
ssg70
g3934
sg63
(lp3941
g1166
asbasbasbag56
(g72
g58
NtRp3942
(dp3943
g61
(dp3944
sg70
g3912
sg63
(lp3945
g56
(g77
g58
NtRp3946
(dp3947
g61
(dp3948
sg70
g3942
sg63
(lp3949
g56
(g57
g58
NtRp3950
(dp3951
g61
(dp3952
g69
I3
ssg70
g3946
sg63
(lp3953
S'/gallery/default/index'
p3954
asbasbasbag56
(g72
g58
NtRp3955
(dp3956
g61
(dp3957
sg70
g3912
sg63
(lp3958
g56
(g77
g58
NtRp3959
(dp3960
g61
(dp3961
sg70
g3955
sg63
(lp3962
g56
(g57
g58
NtRp3963
(dp3964
g61
(dp3965
g69
I3
ssg70
g3959
sg63
(lp3966
g56
(g65
g58
NtRp3967
(dp3968
g61
(dp3969
g69
I2
ssg70
Nsg63
(lp3970
sbasbasbasbasbasbasbasbag56
(g72
g58
NtRp3971
(dp3972
g61
(dp3973
sg70
g3896
sg63
(lp3974
g56
(g77
g58
NtRp3975
(dp3976
g61
(dp3977
sg70
g3971
sg63
(lp3978
g56
(g57
g58
NtRp3979
(dp3980
g61
(dp3981
g69
I4
ssg70
g3975
sg63
(lp3982
g56
(g65
g58
NtRp3983
(dp3984
g61
(dp3985
g69
I3
ssg70
Nsg63
(lp3986
g56
(g72
g58
NtRp3987
(dp3988
g61
(dp3989
sg70
g3983
sg63
(lp3990
g56
(g77
g58
NtRp3991
(dp3992
g61
(dp3993
sg70
g3987
sg63
(lp3994
g56
(g57
g58
NtRp3995
(dp3996
g61
(dp3997
g69
I3
ssg70
g3991
sg63
(lp3998
g3928
(S's\r\x00\x00\x00Gallery - CSS'
tRp3999
asbasbasbag56
(g72
g58
NtRp4000
(dp4001
g61
(dp4002
sg70
g3983
sg63
(lp4003
g56
(g77
g58
NtRp4004
(dp4005
g61
(dp4006
sg70
g4000
sg63
(lp4007
g56
(g57
g58
NtRp4008
(dp4009
g61
(dp4010
g69
I3
ssg70
g4004
sg63
(lp4011
g1166
asbasbasbag56
(g72
g58
NtRp4012
(dp4013
g61
(dp4014
sg70
g3983
sg63
(lp4015
g56
(g77
g58
NtRp4016
(dp4017
g61
(dp4018
sg70
g4012
sg63
(lp4019
g56
(g57
g58
NtRp4020
(dp4021
g61
(dp4022
g69
I3
ssg70
g4016
sg63
(lp4023
S'/gallery/default/showcss'
p4024
asbasbasbag56
(g72
g58
NtRp4025
(dp4026
g61
(dp4027
sg70
g3983
sg63
(lp4028
g56
(g77
g58
NtRp4029
(dp4030
g61
(dp4031
sg70
g4025
sg63
(lp4032
g56
(g57
g58
NtRp4033
(dp4034
g61
(dp4035
g69
I3
ssg70
g4029
sg63
(lp4036
g56
(g65
g58
NtRp4037
(dp4038
g61
(dp4039
g69
I2
ssg70
Nsg63
(lp4040
sbasbasbasbasbasbasbasbag56
(g72
g58
NtRp4041
(dp4042
g61
(dp4043
sg70
g3896
sg63
(lp4044
g56
(g77
g58
NtRp4045
(dp4046
g61
(dp4047
sg70
g4041
sg63
(lp4048
g56
(g57
g58
NtRp4049
(dp4050
g61
(dp4051
g69
I4
ssg70
g4045
sg63
(lp4052
g56
(g65
g58
NtRp4053
(dp4054
g61
(dp4055
g69
I3
ssg70
Nsg63
(lp4056
g56
(g72
g58
NtRp4057
(dp4058
g61
(dp4059
sg70
g4053
sg63
(lp4060
g56
(g77
g58
NtRp4061
(dp4062
g61
(dp4063
sg70
g4057
sg63
(lp4064
g56
(g57
g58
NtRp4065
(dp4066
g61
(dp4067
g69
I3
ssg70
g4061
sg63
(lp4068
g3928
(S's\x10\x00\x00\x00Gallery - JQuery'
tRp4069
asbasbasbag56
(g72
g58
NtRp4070
(dp4071
g61
(dp4072
sg70
g4053
sg63
(lp4073
g56
(g77
g58
NtRp4074
(dp4075
g61
(dp4076
sg70
g4070
sg63
(lp4077
g56
(g57
g58
NtRp4078
(dp4079
g61
(dp4080
g69
I3
ssg70
g4074
sg63
(lp4081
g1166
asbasbasbag56
(g72
g58
NtRp4082
(dp4083
g61
(dp4084
sg70
g4053
sg63
(lp4085
g56
(g77
g58
NtRp4086
(dp4087
g61
(dp4088
sg70
g4082
sg63
(lp4089
g56
(g57
g58
NtRp4090
(dp4091
g61
(dp4092
g69
I3
ssg70
g4086
sg63
(lp4093
S'/gallery/default/showjq'
p4094
asbasbasbag56
(g72
g58
NtRp4095
(dp4096
g61
(dp4097
sg70
g4053
sg63
(lp4098
g56
(g77
g58
NtRp4099
(dp4100
g61
(dp4101
sg70
g4095
sg63
(lp4102
g56
(g57
g58
NtRp4103
(dp4104
g61
(dp4105
g69
I3
ssg70
g4099
sg63
(lp4106
g56
(g65
g58
NtRp4107
(dp4108
g61
(dp4109
g69
I2
ssg70
Nsg63
(lp4110
sbasbasbasbasbasbasbasbag56
(g72
g58
NtRp4111
(dp4112
g61
(dp4113
sg70
g3896
sg63
(lp4114
g56
(g77
g58
NtRp4115
(dp4116
g61
(dp4117
sg70
g4111
sg63
(lp4118
g56
(g57
g58
NtRp4119
(dp4120
g61
(dp4121
g69
I4
ssg70
g4115
sg63
(lp4122
g56
(g65
g58
NtRp4123
(dp4124
g61
(dp4125
g69
I3
ssg70
Nsg63
(lp4126
g56
(g72
g58
NtRp4127
(dp4128
g61
(dp4129
sg70
g4123
sg63
(lp4130
g56
(g77
g58
NtRp4131
(dp4132
g61
(dp4133
sg70
g4127
sg63
(lp4134
g56
(g57
g58
NtRp4135
(dp4136
g61
(dp4137
g69
I3
ssg70
g4131
sg63
(lp4138
g3928
(S's\x0e\x00\x00\x00Gallery - Dojo'
tRp4139
asbasbasbag56
(g72
g58
NtRp4140
(dp4141
g61
(dp4142
sg70
g4123
sg63
(lp4143
g56
(g77
g58
NtRp4144
(dp4145
g61
(dp4146
sg70
g4140
sg63
(lp4147
g56
(g57
g58
NtRp4148
(dp4149
g61
(dp4150
g69
I3
ssg70
g4144
sg63
(lp4151
g1166
asbasbasbag56
(g72
g58
NtRp4152
(dp4153
g61
(dp4154
sg70
g4123
sg63
(lp4155
g56
(g77
g58
NtRp4156
(dp4157
g61
(dp4158
sg70
g4152
sg63
(lp4159
g56
(g57
g58
NtRp4160
(dp4161
g61
(dp4162
g69
I3
ssg70
g4156
sg63
(lp4163
S'/gallery/default/index'
p4164
asbasbasbag56
(g72
g58
NtRp4165
(dp4166
g61
(dp4167
sg70
g4123
sg63
(lp4168
g56
(g77
g58
NtRp4169
(dp4170
g61
(dp4171
sg70
g4165
sg63
(lp4172
g56
(g57
g58
NtRp4173
(dp4174
g61
(dp4175
g69
I3
ssg70
g4169
sg63
(lp4176
g56
(g65
g58
NtRp4177
(dp4178
g61
(dp4179
g69
I2
ssg70
Nsg63
(lp4180
sbasbasbasbasbasbasbasbag56
(g72
g58
NtRp4181
(dp4182
g61
(dp4183
sg70
g3896
sg63
(lp4184
g56
(g77
g58
NtRp4185
(dp4186
g61
(dp4187
sg70
g4181
sg63
(lp4188
g56
(g57
g58
NtRp4189
(dp4190
g61
(dp4191
g69
I4
ssg70
g4185
sg63
(lp4192
g56
(g65
g58
NtRp4193
(dp4194
g61
(dp4195
g69
I3
ssg70
Nsg63
(lp4196
g56
(g72
g58
NtRp4197
(dp4198
g61
(dp4199
sg70
g4193
sg63
(lp4200
g56
(g77
g58
NtRp4201
(dp4202
g61
(dp4203
sg70
g4197
sg63
(lp4204
g56
(g57
g58
NtRp4205
(dp4206
g61
(dp4207
g69
I3
ssg70
g4201
sg63
(lp4208
g3928
(S's\x0f\x00\x00\x00SendForm - Dojo'
tRp4209
asbasbasbag56
(g72
g58
NtRp4210
(dp4211
g61
(dp4212
sg70
g4193
sg63
(lp4213
g56
(g77
g58
NtRp4214
(dp4215
g61
(dp4216
sg70
g4210
sg63
(lp4217
g56
(g57
g58
NtRp4218
(dp4219
g61
(dp4220
g69
I3
ssg70
g4214
sg63
(lp4221
g1166
asbasbasbag56
(g72
g58
NtRp4222
(dp4223
g61
(dp4224
sg70
g4193
sg63
(lp4225
g56
(g77
g58
NtRp4226
(dp4227
g61
(dp4228
sg70
g4222
sg63
(lp4229
g56
(g57
g58
NtRp4230
(dp4231
g61
(dp4232
g69
I3
ssg70
g4226
sg63
(lp4233
S'/gallery/default/sendform'
p4234
asbasbasbag56
(g72
g58
NtRp4235
(dp4236
g61
(dp4237
sg70
g4193
sg63
(lp4238
g56
(g77
g58
NtRp4239
(dp4240
g61
(dp4241
sg70
g4235
sg63
(lp4242
g56
(g57
g58
NtRp4243
(dp4244
g61
(dp4245
g69
I3
ssg70
g4239
sg63
(lp4246
g56
(g65
g58
NtRp4247
(dp4248
g61
(dp4249
g69
I2
ssg70
Nsg63
(lp4250
sbasbasbasbasbasbasbasbasbasbasbasbag56
(g72
g58
NtRp4251
(dp4252
g61
(dp4253
sg70
g3423
sg63
(lp4254
g56
(g77
g58
NtRp4255
(dp4256
g61
(dp4257
g81
g82
ssg70
g4251
sg63
(lp4258
S'meta'
p4259
asbag56
(g77
g58
NtRp4260
(dp4261
g61
(dp4262
g88
g89
ssg70
g4251
sg63
(lp4263
S':'
asbag56
(g77
g58
NtRp4264
(dp4265
g61
(dp4266
sg70
g4251
sg63
(lp4267
g56
(g57
g58
NtRp4268
(dp4269
g61
(dp4270
g69
I5
ssg70
g4264
sg63
(lp4271
g56
(g65
g58
NtRp4272
(dp4273
g61
(dp4274
g69
I4
ssg70
Nsg63
(lp4275
g56
(g72
g58
NtRp4276
(dp4277
g61
(dp4278
sg70
g4272
sg63
(lp4279
g56
(g77
g58
NtRp4280
(dp4281
g61
(dp4282
g81
g82
ssg70
g4276
sg63
(lp4283
S'author'
p4284
asbag56
(g77
g58
NtRp4285
(dp4286
g61
(dp4287
g88
g89
ssg70
g4276
sg63
(lp4288
S':'
asbag56
(g77
g58
NtRp4289
(dp4290
g61
(dp4291
sg70
g4276
sg63
(lp4292
g56
(g57
g58
NtRp4293
(dp4294
g61
(dp4295
g69
I4
ssg70
g4289
sg63
(lp4296
S'Your Name <you@example.com>'
p4297
asbasbasbag56
(g72
g58
NtRp4298
(dp4299
g61
(dp4300
sg70
g4272
sg63
(lp4301
g56
(g77
g58
NtRp4302
(dp4303
g61
(dp4304
g81
g82
ssg70
g4298
sg63
(lp4305
S'copyright'
p4306
asbag56
(g77
g58
NtRp4307
(dp4308
g61
(dp4309
g88
g89
ssg70
g4298
sg63
(lp4310
S':'
asbag56
(g77
g58
NtRp4311
(dp4312
g61
(dp4313
sg70
g4298
sg63
(lp4314
g56
(g57
g58
NtRp4315
(dp4316
g61
(dp4317
g69
I4
ssg70
g4311
sg63
(lp4318
S'Copyright 2011'
p4319
asbasbasbag56
(g72
g58
NtRp4320
(dp4321
g61
(dp4322
sg70
g4272
sg63
(lp4323
g56
(g77
g58
NtRp4324
(dp4325
g61
(dp4326
g81
g82
ssg70
g4320
sg63
(lp4327
S'description'
p4328
asbag56
(g77
g58
NtRp4329
(dp4330
g61
(dp4331
g88
g89
ssg70
g4320
sg63
(lp4332
S':'
asbag56
(g77
g58
NtRp4333
(dp4334
g61
(dp4335
sg70
g4320
sg63
(lp4336
g56
(g57
g58
NtRp4337
(dp4338
g61
(dp4339
g69
I4
ssg70
g4333
sg63
(lp4340
S'a cool new app'
p4341
asbasbasbag56
(g72
g58
NtRp4342
(dp4343
g61
(dp4344
sg70
g4272
sg63
(lp4345
g56
(g77
g58
NtRp4346
(dp4347
g61
(dp4348
g81
g82
ssg70
g4342
sg63
(lp4349
S'generator'
p4350
asbag56
(g77
g58
NtRp4351
(dp4352
g61
(dp4353
g88
g89
ssg70
g4342
sg63
(lp4354
S':'
asbag56
(g77
g58
NtRp4355
(dp4356
g61
(dp4357
sg70
g4342
sg63
(lp4358
g56
(g57
g58
NtRp4359
(dp4360
g61
(dp4361
g69
I4
ssg70
g4355
sg63
(lp4362
S'Web2py Web Framework'
p4363
asbasbasbag56
(g72
g58
NtRp4364
(dp4365
g61
(dp4366
sg70
g4272
sg63
(lp4367
g56
(g77
g58
NtRp4368
(dp4369
g61
(dp4370
g81
g82
ssg70
g4364
sg63
(lp4371
S'keywords'
p4372
asbag56
(g77
g58
NtRp4373
(dp4374
g61
(dp4375
g88
g89
ssg70
g4364
sg63
(lp4376
S':'
asbag56
(g77
g58
NtRp4377
(dp4378
g61
(dp4379
sg70
g4364
sg63
(lp4380
g56
(g57
g58
NtRp4381
(dp4382
g61
(dp4383
g69
I4
ssg70
g4377
sg63
(lp4384
S'web2py, python, framework'
p4385
asbasbasbasbasbasbasbag56
(g72
g58
NtRp4386
(dp4387
g61
(dp4388
sg70
g3423
sg63
(lp4389
g56
(g77
g58
NtRp4390
(dp4391
g61
(dp4392
g81
g82
ssg70
g4386
sg63
(lp4393
S'postprocessing'
p4394
asbag56
(g77
g58
NtRp4395
(dp4396
g61
(dp4397
g88
g89
ssg70
g4386
sg63
(lp4398
S':'
asbag56
(g77
g58
NtRp4399
(dp4400
g61
(dp4401
sg70
g4386
sg63
(lp4402
g56
(g57
g58
NtRp4403
(dp4404
g61
(dp4405
g69
I5
ssg70
g4399
sg63
(lp4406
g56
(g65
g58
NtRp4407
(dp4408
g61
(dp4409
g69
I4
ssg70
Nsg63
(lp4410
sbasbasbasbag56
(g72
g58
NtRp4411
(dp4412
g61
(dp4413
sg70
g3423
sg63
(lp4414
g56
(g77
g58
NtRp4415
(dp4416
g61
(dp4417
g81
g82
ssg70
g4411
sg63
(lp4418
S'session_file'
p4419
asbag56
(g77
g58
NtRp4420
(dp4421
g61
(dp4422
g88
g89
ssg70
g4411
sg63
(lp4423
S':'
asbag56
(g77
g58
NtRp4424
(dp4425
g61
(dp4426
sg70
g4411
sg63
(lp4427
g56
(g57
g58
NtRp4428
(dp4429
g61
(dp4430
g69
I5
ssg70
g4424
sg63
(lp4431
S"<open file '/home/brencam/web2py/applications/gallery/sessions/127.0.0.1-5764d7f9-8178-4db1-bc94-76589577a2e3', mode 'rb+' at 0xb5edc910>"
p4432
asbasbasbag56
(g72
g58
NtRp4433
(dp4434
g61
(dp4435
sg70
g3423
sg63
(lp4436
g56
(g77
g58
NtRp4437
(dp4438
g61
(dp4439
g81
g82
ssg70
g4433
sg63
(lp4440
S'session_filename'
p4441
asbag56
(g77
g58
NtRp4442
(dp4443
g61
(dp4444
g88
g89
ssg70
g4433
sg63
(lp4445
S':'
asbag56
(g77
g58
NtRp4446
(dp4447
g61
(dp4448
sg70
g4433
sg63
(lp4449
g56
(g57
g58
NtRp4450
(dp4451
g61
(dp4452
g69
I5
ssg70
g4446
sg63
(lp4453
S'/home/brencam/web2py/applications/gallery/sessions/127.0.0.1-5764d7f9-8178-4db1-bc94-76589577a2e3'
p4454
asbasbasbag56
(g72
g58
NtRp4455
(dp4456
g61
(dp4457
sg70
g3423
sg63
(lp4458
g56
(g77
g58
NtRp4459
(dp4460
g61
(dp4461
g81
g82
ssg70
g4455
sg63
(lp4462
S'session_id'
p4463
asbag56
(g77
g58
NtRp4464
(dp4465
g61
(dp4466
g88
g89
ssg70
g4455
sg63
(lp4467
S':'
asbag56
(g77
g58
NtRp4468
(dp4469
g61
(dp4470
sg70
g4455
sg63
(lp4471
g56
(g57
g58
NtRp4472
(dp4473
g61
(dp4474
g69
I5
ssg70
g4468
sg63
(lp4475
S'127.0.0.1-5764d7f9-8178-4db1-bc94-76589577a2e3'
p4476
asbasbasbag56
(g72
g58
NtRp4477
(dp4478
g61
(dp4479
sg70
g3423
sg63
(lp4480
g56
(g77
g58
NtRp4481
(dp4482
g61
(dp4483
g81
g82
ssg70
g4477
sg63
(lp4484
S'session_id_name'
p4485
asbag56
(g77
g58
NtRp4486
(dp4487
g61
(dp4488
g88
g89
ssg70
g4477
sg63
(lp4489
S':'
asbag56
(g77
g58
NtRp4490
(dp4491
g61
(dp4492
sg70
g4477
sg63
(lp4493
g56
(g57
g58
NtRp4494
(dp4495
g61
(dp4496
g69
I5
ssg70
g4490
sg63
(lp4497
g3480
asbasbasbag56
(g72
g58
NtRp4498
(dp4499
g61
(dp4500
sg70
g3423
sg63
(lp4501
g56
(g77
g58
NtRp4502
(dp4503
g61
(dp4504
g81
g82
ssg70
g4498
sg63
(lp4505
S'session_locked'
p4506
asbag56
(g77
g58
NtRp4507
(dp4508
g61
(dp4509
g88
g89
ssg70
g4498
sg63
(lp4510
S':'
asbag56
(g77
g58
NtRp4511
(dp4512
g61
(dp4513
sg70
g4498
sg63
(lp4514
g56
(g57
g58
NtRp4515
(dp4516
g61
(dp4517
g69
I5
ssg70
g4511
sg63
(lp4518
g99
asbasbasbag56
(g72
g58
NtRp4519
(dp4520
g61
(dp4521
sg70
g3423
sg63
(lp4522
g56
(g77
g58
NtRp4523
(dp4524
g61
(dp4525
g81
g82
ssg70
g4519
sg63
(lp4526
S'session_new'
p4527
asbag56
(g77
g58
NtRp4528
(dp4529
g61
(dp4530
g88
g89
ssg70
g4519
sg63
(lp4531
S':'
asbag56
(g77
g58
NtRp4532
(dp4533
g61
(dp4534
sg70
g4519
sg63
(lp4535
g56
(g57
g58
NtRp4536
(dp4537
g61
(dp4538
g69
I5
ssg70
g4532
sg63
(lp4539
g1166
asbasbasbag56
(g72
g58
NtRp4540
(dp4541
g61
(dp4542
sg70
g3423
sg63
(lp4543
g56
(g77
g58
NtRp4544
(dp4545
g61
(dp4546
g81
g82
ssg70
g4540
sg63
(lp4547
S'status'
p4548
asbag56
(g77
g58
NtRp4549
(dp4550
g61
(dp4551
g88
g89
ssg70
g4540
sg63
(lp4552
S':'
asbag56
(g77
g58
NtRp4553
(dp4554
g61
(dp4555
sg70
g4540
sg63
(lp4556
g56
(g57
g58
NtRp4557
(dp4558
g61
(dp4559
g69
I5
ssg70
g4553
sg63
(lp4560
S'200'
p4561
asbasbasbag56
(g72
g58
NtRp4562
(dp4563
g61
(dp4564
sg70
g3423
sg63
(lp4565
g56
(g77
g58
NtRp4566
(dp4567
g61
(dp4568
g81
g82
ssg70
g4562
sg63
(lp4569
S'subtitle'
p4570
asbag56
(g77
g58
NtRp4571
(dp4572
g61
(dp4573
g88
g89
ssg70
g4562
sg63
(lp4574
S':'
asbag56
(g77
g58
NtRp4575
(dp4576
g61
(dp4577
sg70
g4562
sg63
(lp4578
g56
(g57
g58
NtRp4579
(dp4580
g61
(dp4581
g69
I5
ssg70
g4575
sg63
(lp4582
g3928
(S's1\x00\x00\x00Web2py and CSS, JQuery vs Dojo Image Gallery Demo'
tRp4583
asbasbasbag56
(g72
g58
NtRp4584
(dp4585
g61
(dp4586
sg70
g3423
sg63
(lp4587
g56
(g77
g58
NtRp4588
(dp4589
g61
(dp4590
g81
g82
ssg70
g4584
sg63
(lp4591
S'title'
p4592
asbag56
(g77
g58
NtRp4593
(dp4594
g61
(dp4595
g88
g89
ssg70
g4584
sg63
(lp4596
S':'
asbag56
(g77
g58
NtRp4597
(dp4598
g61
(dp4599
sg70
g4584
sg63
(lp4600
g56
(g57
g58
NtRp4601
(dp4602
g61
(dp4603
g69
I5
ssg70
g4597
sg63
(lp4604
S'My Photo Gallery Demo'
p4605
asbasbasbag56
(g72
g58
NtRp4606
(dp4607
g61
(dp4608
sg70
g3423
sg63
(lp4609
g56
(g77
g58
NtRp4610
(dp4611
g61
(dp4612
g81
g82
ssg70
g4606
sg63
(lp4613
g2572
asbag56
(g77
g58
NtRp4614
(dp4615
g61
(dp4616
g88
g89
ssg70
g4606
sg63
(lp4617
S':'
asbag56
(g77
g58
NtRp4618
(dp4619
g61
(dp4620
sg70
g4606
sg63
(lp4621
g56
(g57
g58
NtRp4622
(dp4623
g61
(dp4624
g69
I5
ssg70
g4618
sg63
(lp4625
g2585
asbasbasbag56
(g72
g58
NtRp4626
(dp4627
g61
(dp4628
sg70
g3423
sg63
(lp4629
g56
(g77
g58
NtRp4630
(dp4631
g61
(dp4632
g81
g82
ssg70
g4626
sg63
(lp4633
S'view'
p4634
asbag56
(g77
g58
NtRp4635
(dp4636
g61
(dp4637
g88
g89
ssg70
g4626
sg63
(lp4638
S':'
asbag56
(g77
g58
NtRp4639
(dp4640
g61
(dp4641
sg70
g4626
sg63
(lp4642
g56
(g57
g58
NtRp4643
(dp4644
g61
(dp4645
g69
I5
ssg70
g4639
sg63
(lp4646
S'search/getnames.html'
p4647
asbasbasbasbasbsS'locals'
p4648
(dp4649
S'i'
S'0'
sS'self'
p4650
S'<gluon.dal.Rows object>'
p4651
sssS'traceback'
p4652
S'Traceback (most recent call last):\n  File "/home/brencam/web2py/gluon/restricted.py", line 194, in restricted\n    exec ccode in environment\n  File "/home/brencam/web2py/applications/gallery/controllers/search.py", line 45, in <module>\n  File "/home/brencam/web2py/gluon/globals.py", line 149, in <lambda>\n    self._caller = lambda f: f()\n  File "/home/brencam/web2py/applications/gallery/controllers/search.py", line 23, in getnames\n    r = images[0]\n  File "/home/brencam/web2py/gluon/dal.py", line 5868, in __getitem__\n    row = self.records[i]\nIndexError: list index out of range\n'
p4653
s.