(dp1
S'output'
p2
S''
sS'layer'
p3
S'/home/brencam/web2py/applications/gallery/controllers/search.py'
p4
sS'code'
p5
S'# Search Controller\nimport datetime\n\ndef getnames():\n    sval =\'\'\n    if  request.vars[\'q\']:\n        sval = request.vars[\'q\']\n\n        #queries with %LIKE% ****HERE BE THE DRAGONS!!!!******\n\n        images = db(db.image.title.like(sval+\'%\')).select()\n    else:\n        #images = db(db.image.ALL).select()\n        images = db().select(db.image.ALL)\n\n\n    # finally - got a working syntax - watch out for (mis) matching parens \n    # combine IMG and A tags in generated XML that is passed to the view\n    # tricky syntax\n    # the LI [] structure below creates a list from the generator created by the inner for \n    # !!GOTCHA!! - Assignment of params is position dependent - ???forum qn???\n    # Note the assignment of \'_id\' below needs to be at the end, not at the beginning\n    # ??Web2py documentation issue??\n\n    return XML( UL(*LI ([ (IMG (_src=URL(\'default\',\'download\', args= img.file), _width="120", _height="100"  ), A(img.title,_href=URL(\'default\',\'show\', args=img.id))) for img in images]) , _id=\'albumlist\'))\n\n    # the LI [] structure below creates a list from the generator created by the inner for \n    #return XML( UL(*LI ([ (IMG (_src=URL(\'default\',\'download\', args= img.file), _width="120", _height="100"  ), A(img.title,_href=URL(\'default\',\'show\', args=img.file))) for img in images])))\n    \n    \ndef gettags():\n    # get list of tagnames from tag table\n    tags  = db().select(db.tag.id, db.tag.name)\n    #return XML(tags)\n    return dict(tags=tags)        \n \ndef xmlgettags():\n    # get list of tagnames from tag table\n    # return in json format\n    tags  = db().select(db.tag.id, db.tag.name)\n    #return XML(tags)\n    return dict(tags)\n    \n\ndef getnames_v2():\n    sval =\'\'\n    if  request.vars[\'q\']:\n        sval = request.vars[\'q\']\n\n        #queries with %LIKE% ****HERE BE THE DRAGONS!!!!******\n\n        images = db(db.image.title.like(sval+\'%\')).select()\n    else:\n        images = db(db.image.ALL).select()\n    # finally - got a working syntax - watch out for (mis) matching parens \n    # combine IMG and A tags in generated XML that is passed to the view\n    # tricky syntax\n    # the LI [] structure below creates a list from the generator created by the inner for \n    s = "<ul id=\'albumlist\'>"\n    for r in images:\n        print  s\n        s += LI(IMG(_src=URL(\'default\',\'download\', args= r.file), _width="120", _height="100"  ), A(r.title, _href=URL(\'default\',\'show\',args=r.id))).xml()\n        #s +=  \', \'\n        #s += A(r.title, _href=URL(\'default\',\'show\',args=r.id)).xml()\n    s += "</UL>"\n    #print s\n    return XML(s)\n\n\n\ndef zz_getnames():\n    # for ajax search -  find list of images - match on search string\n    # (need to return list in json format ??)\n    print \'*************  processing ajax request *********** at %s\' %datetime.datetime.now().ctime()\n\n    sval =\'\'\n    if  request.vars[\'q\']:\n        sval = request.vars[\'q\']\n\n        #queries with %LIKE% ****HERE BE THE DRAGONS!!!!******\n\n        images = db(db.image.title.like(sval+\'%\')).select()\n    else:\n        images = db(db.image.ALL).select()\n\n#    html =  XML( <img src="{{=URL(\'download\', args=image.file)}}" width="120"  height="100"  for image in images)\n\n#    print \'***************   html **********\' html\n  \n    r = images[0]\n\n    # return image and title for all matches\n    #return XML(DIV(LI(*[IMG(_src=URL(\'default\',\'download\', args= r.file), _width="120", _height="100" ) for r in images])))\n\n    #s = "<div class=\'myclass\'>"\n    #s =""\n    s = "<ul id=\'albumlist\'>"\n    for r in images:\n        print  s\n        s += LI(IMG(_src=URL(\'default\',\'download\', args= r.file), _width="120", _height="100"  ), A(r.title, _href=URL(\'default\',\'show\',args=r.id))).xml()\n        #s +=  \', \'\n        #s += A(r.title, _href=URL(\'default\',\'show\',args=r.id)).xml()\n    s += "</UL>"\n    #print s\n\n    # finally - got a working syntax - watch out for (mis) matching parens \n    # combine IMG and A tags in generated XML that is passed to the view\n    # tricky syntax\n    # the LI [] structure below creates a list from the generator created by the inner for \n    return XML( UL(*LI ([ (IMG (_src=URL(\'default\',\'download\', args= img.file), _width="120", _height="100"  ), A(img.title,_href=URL(\'default\',\'show\', args=img.file))) for img in images])))\n    \n\n\n    #str = LI(IMG(_src=URL(\'default\',\'download\', args= r.file), _width="120", _height="100"  ), A(r.title, _href=URL(\'default\',\'show\',args=r.id)))\n    #print str.xml()\n\n#    return XML(LI(IMG(_src=URL(\'default\',\'download\', args= img.file), _width="120", _height="100"  ), A(r.title, _href=URL(\'default\',\'show\',args=img.id))) for img in images)\n    #return x\n\n    #return XML(s)\n\n#    return XML(UL(LI([IMG(_src=URL(\'default\',\'download\', args= r.file), _width="120", _height="100" ) \\\n#    for r in images])))\n\n    # working \n    #return XML(DIV(LI(*[IMG(_src=URL(\'default\',\'download\', args= r.file), _width="120", _height="100" ) \\\n    #for r in images])))\n\n\n\n# A(r.title, _href=URL(\'default\',\'show\',args=r.id)))))\n\n\n    # return image and title as link  - one image\n    #return XML(DIV(LI(IMG(_src=URL(\'default\',\'download\', args= r.file), _alt="", _width="120",  _height="100"), A(r.title, _href=URL(\'default\',\'show\',args=r.id)))))\n\n\n#    return XML( A(IMG(_src=URL(\'default\',\'download\', args= r.file), _alt="", _width="120",  _height="100"), _href=URL(\'default\',\'index\')))\n\n    \n\n#<li><img  src="{{=URL(\'download\', args=image.file)}}" width="120"  height="100" />{{=A(image.title, _href=URL("show", args=image.id))}}\n#</li>\n\n\n    # Can I do a redirect from ajax request with the search results ??\n    #redirect (URL(\'default\', \'showcss\'))\n\n    # Note the URL Syntax here to create a link to a different controller (the default)\n    # How to show thumbnails for selected images here as well ??\n#    return XML(UL(*[LI(A(\'%s \' % (img.title),_href=URL(\'default\',\'show\',args=img.id)))\\\n#                    for img in images]))\n\n\n\nresponse._vars=response._caller(xmlgettags)\n'
p6
sS'snapshot'
p7
(dp8
S'exception'
p9
(dp10
S'__hash__'
p11
S"<method-wrapper '__hash__' of exceptions.ValueError object>"
p12
sS'__setattr__'
p13
S"<method-wrapper '__setattr__' of exceptions.ValueError object>"
p14
sS'__reduce_ex__'
p15
S'<built-in method __reduce_ex__ of exceptions.ValueError object>'
p16
sS'__getslice__'
p17
S"<method-wrapper '__getslice__' of exceptions.ValueError object>"
p18
sS'__getitem__'
p19
S"<method-wrapper '__getitem__' of exceptions.ValueError object>"
p20
sS'__setstate__'
p21
S'<built-in method __setstate__ of exceptions.ValueError object>'
p22
sS'__reduce__'
p23
S'<built-in method __reduce__ of exceptions.ValueError object>'
p24
sS'__str__'
p25
S"<method-wrapper '__str__' of exceptions.ValueError object>"
p26
sS'__format__'
p27
S'<built-in method __format__ of exceptions.ValueError object>'
p28
sS'__getattribute__'
p29
S"<method-wrapper '__getattribute__' of exceptions.ValueError object>"
p30
sS'__class__'
p31
S"<type 'exceptions.ValueError'>"
p32
sS'__unicode__'
p33
S'<built-in method __unicode__ of exceptions.ValueError object>'
p34
sS'__delattr__'
p35
S"<method-wrapper '__delattr__' of exceptions.ValueError object>"
p36
sS'__subclasshook__'
p37
S'<built-in method __subclasshook__ of type object>'
p38
sS'__repr__'
p39
S"<method-wrapper '__repr__' of exceptions.ValueError object>"
p40
sS'args'
p41
S"('dictionary update sequence element #0 has length 5; 2 is required',)"
p42
sS'__dict__'
p43
S'{}'
p44
sS'__sizeof__'
p45
S'<built-in method __sizeof__ of exceptions.ValueError object>'
p46
sS'__doc__'
p47
S"'Inappropriate argument value (of correct type).'"
p48
sS'__init__'
p49
S"<method-wrapper '__init__' of exceptions.ValueError object>"
p50
sS'__new__'
p51
S'<built-in method __new__ of type object>'
p52
ssS'evalue'
p53
S'dictionary update sequence element #0 has length 5; 2 is required'
p54
sS'request'
p55
ccopy_reg
_reconstructor
p56
(cgluon.html
BEAUTIFY
p57
c__builtin__
object
p58
NtRp59
(dp60
S'attributes'
p61
(dp62
sS'components'
p63
(lp64
g56
(cgluon.html
TABLE
p65
g58
NtRp66
(dp67
g61
(dp68
S'level'
p69
I5
ssS'parent'
p70
Nsg63
(lp71
g56
(cgluon.html
TR
p72
g58
NtRp73
(dp74
g61
(dp75
sg70
g66
sg63
(lp76
g56
(cgluon.html
TD
p77
g58
NtRp78
(dp79
g61
(dp80
S'_style'
p81
S'font-weight:bold;'
p82
ssg70
g73
sg63
(lp83
S'ajax'
p84
asbag56
(g77
g58
NtRp85
(dp86
g61
(dp87
S'_valign'
p88
S'top'
p89
ssg70
g73
sg63
(lp90
S':'
asbag56
(g77
g58
NtRp91
(dp92
g61
(dp93
sg70
g73
sg63
(lp94
g56
(g57
g58
NtRp95
(dp96
g61
(dp97
g69
I5
ssg70
g91
sg63
(lp98
S'True'
p99
asbasbasbag56
(g72
g58
NtRp100
(dp101
g61
(dp102
sg70
g66
sg63
(lp103
g56
(g77
g58
NtRp104
(dp105
g61
(dp106
g81
g82
ssg70
g100
sg63
(lp107
S'application'
p108
asbag56
(g77
g58
NtRp109
(dp110
g61
(dp111
g88
g89
ssg70
g100
sg63
(lp112
S':'
asbag56
(g77
g58
NtRp113
(dp114
g61
(dp115
sg70
g100
sg63
(lp116
g56
(g57
g58
NtRp117
(dp118
g61
(dp119
g69
I5
ssg70
g113
sg63
(lp120
S'gallery'
p121
asbasbasbag56
(g72
g58
NtRp122
(dp123
g61
(dp124
sg70
g66
sg63
(lp125
g56
(g77
g58
NtRp126
(dp127
g61
(dp128
g81
g82
ssg70
g122
sg63
(lp129
g41
asbag56
(g77
g58
NtRp130
(dp131
g61
(dp132
g88
g89
ssg70
g122
sg63
(lp133
S':'
asbag56
(g77
g58
NtRp134
(dp135
g61
(dp136
sg70
g122
sg63
(lp137
g56
(g57
g58
NtRp138
(dp139
g61
(dp140
g69
I5
ssg70
g134
sg63
(lp141
g56
(g65
g58
NtRp142
(dp143
g61
(dp144
g69
I4
ssg70
Nsg63
(lp145
sbasbasbasbag56
(g72
g58
NtRp146
(dp147
g61
(dp148
sg70
g66
sg63
(lp149
g56
(g77
g58
NtRp150
(dp151
g61
(dp152
g81
g82
ssg70
g146
sg63
(lp153
S'body'
p154
asbag56
(g77
g58
NtRp155
(dp156
g61
(dp157
g88
g89
ssg70
g146
sg63
(lp158
S':'
asbag56
(g77
g58
NtRp159
(dp160
g61
(dp161
sg70
g146
sg63
(lp162
g56
(g57
g58
NtRp163
(dp164
g61
(dp165
g69
I5
ssg70
g159
sg63
(lp166
S'<cStringIO.StringO object at 0xaf14e1a0>'
p167
asbasbasbag56
(g72
g58
NtRp168
(dp169
g61
(dp170
sg70
g66
sg63
(lp171
g56
(g77
g58
NtRp172
(dp173
g61
(dp174
g81
g82
ssg70
g168
sg63
(lp175
S'client'
p176
asbag56
(g77
g58
NtRp177
(dp178
g61
(dp179
g88
g89
ssg70
g168
sg63
(lp180
S':'
asbag56
(g77
g58
NtRp181
(dp182
g61
(dp183
sg70
g168
sg63
(lp184
g56
(g57
g58
NtRp185
(dp186
g61
(dp187
g69
I5
ssg70
g181
sg63
(lp188
S'127.0.0.1'
p189
asbasbasbag56
(g72
g58
NtRp190
(dp191
g61
(dp192
sg70
g66
sg63
(lp193
g56
(g77
g58
NtRp194
(dp195
g61
(dp196
g81
g82
ssg70
g190
sg63
(lp197
S'controller'
p198
asbag56
(g77
g58
NtRp199
(dp200
g61
(dp201
g88
g89
ssg70
g190
sg63
(lp202
S':'
asbag56
(g77
g58
NtRp203
(dp204
g61
(dp205
sg70
g190
sg63
(lp206
g56
(g57
g58
NtRp207
(dp208
g61
(dp209
g69
I5
ssg70
g203
sg63
(lp210
S'search'
p211
asbasbasbag56
(g72
g58
NtRp212
(dp213
g61
(dp214
sg70
g66
sg63
(lp215
g56
(g77
g58
NtRp216
(dp217
g61
(dp218
g81
g82
ssg70
g212
sg63
(lp219
S'cookies'
p220
asbag56
(g77
g58
NtRp221
(dp222
g61
(dp223
g88
g89
ssg70
g212
sg63
(lp224
S':'
asbag56
(g77
g58
NtRp225
(dp226
g61
(dp227
sg70
g212
sg63
(lp228
g56
(g57
g58
NtRp229
(dp230
g61
(dp231
g69
I5
ssg70
g225
sg63
(lp232
g56
(g65
g58
NtRp233
(dp234
g61
(dp235
g69
I4
ssg70
Nsg63
(lp236
g56
(g72
g58
NtRp237
(dp238
g61
(dp239
sg70
g233
sg63
(lp240
g56
(g77
g58
NtRp241
(dp242
g61
(dp243
g81
g82
ssg70
g237
sg63
(lp244
S'csrftoken'
p245
asbag56
(g77
g58
NtRp246
(dp247
g61
(dp248
g88
g89
ssg70
g237
sg63
(lp249
S':'
asbag56
(g77
g58
NtRp250
(dp251
g61
(dp252
sg70
g237
sg63
(lp253
g56
(g57
g58
NtRp254
(dp255
g61
(dp256
g69
I4
ssg70
g250
sg63
(lp257
g56
(g65
g58
NtRp258
(dp259
g61
(dp260
g69
I3
ssg70
Nsg63
(lp261
g56
(g72
g58
NtRp262
(dp263
g61
(dp264
sg70
g258
sg63
(lp265
g56
(g77
g58
NtRp266
(dp267
g61
(dp268
g81
g82
ssg70
g262
sg63
(lp269
S'comment'
p270
asbag56
(g77
g58
NtRp271
(dp272
g61
(dp273
g88
g89
ssg70
g262
sg63
(lp274
S':'
asbag56
(g77
g58
NtRp275
(dp276
g61
(dp277
sg70
g262
sg63
(lp278
g56
(g57
g58
NtRp279
(dp280
g61
(dp281
g69
I3
ssg70
g275
sg63
(lp282
S''
asbasbasbag56
(g72
g58
NtRp283
(dp284
g61
(dp285
sg70
g258
sg63
(lp286
g56
(g77
g58
NtRp287
(dp288
g61
(dp289
g81
g82
ssg70
g283
sg63
(lp290
S'domain'
p291
asbag56
(g77
g58
NtRp292
(dp293
g61
(dp294
g88
g89
ssg70
g283
sg63
(lp295
S':'
asbag56
(g77
g58
NtRp296
(dp297
g61
(dp298
sg70
g283
sg63
(lp299
g56
(g57
g58
NtRp300
(dp301
g61
(dp302
g69
I3
ssg70
g296
sg63
(lp303
S''
asbasbasbag56
(g72
g58
NtRp304
(dp305
g61
(dp306
sg70
g258
sg63
(lp307
g56
(g77
g58
NtRp308
(dp309
g61
(dp310
g81
g82
ssg70
g304
sg63
(lp311
S'expires'
p312
asbag56
(g77
g58
NtRp313
(dp314
g61
(dp315
g88
g89
ssg70
g304
sg63
(lp316
S':'
asbag56
(g77
g58
NtRp317
(dp318
g61
(dp319
sg70
g304
sg63
(lp320
g56
(g57
g58
NtRp321
(dp322
g61
(dp323
g69
I3
ssg70
g317
sg63
(lp324
S''
asbasbasbag56
(g72
g58
NtRp325
(dp326
g61
(dp327
sg70
g258
sg63
(lp328
g56
(g77
g58
NtRp329
(dp330
g61
(dp331
g81
g82
ssg70
g325
sg63
(lp332
S'httponly'
p333
asbag56
(g77
g58
NtRp334
(dp335
g61
(dp336
g88
g89
ssg70
g325
sg63
(lp337
S':'
asbag56
(g77
g58
NtRp338
(dp339
g61
(dp340
sg70
g325
sg63
(lp341
g56
(g57
g58
NtRp342
(dp343
g61
(dp344
g69
I3
ssg70
g338
sg63
(lp345
S''
asbasbasbag56
(g72
g58
NtRp346
(dp347
g61
(dp348
sg70
g258
sg63
(lp349
g56
(g77
g58
NtRp350
(dp351
g61
(dp352
g81
g82
ssg70
g346
sg63
(lp353
S'max-age'
p354
asbag56
(g77
g58
NtRp355
(dp356
g61
(dp357
g88
g89
ssg70
g346
sg63
(lp358
S':'
asbag56
(g77
g58
NtRp359
(dp360
g61
(dp361
sg70
g346
sg63
(lp362
g56
(g57
g58
NtRp363
(dp364
g61
(dp365
g69
I3
ssg70
g359
sg63
(lp366
S''
asbasbasbag56
(g72
g58
NtRp367
(dp368
g61
(dp369
sg70
g258
sg63
(lp370
g56
(g77
g58
NtRp371
(dp372
g61
(dp373
g81
g82
ssg70
g367
sg63
(lp374
S'path'
p375
asbag56
(g77
g58
NtRp376
(dp377
g61
(dp378
g88
g89
ssg70
g367
sg63
(lp379
S':'
asbag56
(g77
g58
NtRp380
(dp381
g61
(dp382
sg70
g367
sg63
(lp383
g56
(g57
g58
NtRp384
(dp385
g61
(dp386
g69
I3
ssg70
g380
sg63
(lp387
S''
asbasbasbag56
(g72
g58
NtRp388
(dp389
g61
(dp390
sg70
g258
sg63
(lp391
g56
(g77
g58
NtRp392
(dp393
g61
(dp394
g81
g82
ssg70
g388
sg63
(lp395
S'secure'
p396
asbag56
(g77
g58
NtRp397
(dp398
g61
(dp399
g88
g89
ssg70
g388
sg63
(lp400
S':'
asbag56
(g77
g58
NtRp401
(dp402
g61
(dp403
sg70
g388
sg63
(lp404
g56
(g57
g58
NtRp405
(dp406
g61
(dp407
g69
I3
ssg70
g401
sg63
(lp408
S''
asbasbasbag56
(g72
g58
NtRp409
(dp410
g61
(dp411
sg70
g258
sg63
(lp412
g56
(g77
g58
NtRp413
(dp414
g61
(dp415
g81
g82
ssg70
g409
sg63
(lp416
S'version'
p417
asbag56
(g77
g58
NtRp418
(dp419
g61
(dp420
g88
g89
ssg70
g409
sg63
(lp421
S':'
asbag56
(g77
g58
NtRp422
(dp423
g61
(dp424
sg70
g409
sg63
(lp425
g56
(g57
g58
NtRp426
(dp427
g61
(dp428
g69
I3
ssg70
g422
sg63
(lp429
S''
asbasbasbasbasbasbasbag56
(g72
g58
NtRp430
(dp431
g61
(dp432
sg70
g233
sg63
(lp433
g56
(g77
g58
NtRp434
(dp435
g61
(dp436
g81
g82
ssg70
g430
sg63
(lp437
S'session_id_admin'
p438
asbag56
(g77
g58
NtRp439
(dp440
g61
(dp441
g88
g89
ssg70
g430
sg63
(lp442
S':'
asbag56
(g77
g58
NtRp443
(dp444
g61
(dp445
sg70
g430
sg63
(lp446
g56
(g57
g58
NtRp447
(dp448
g61
(dp449
g69
I4
ssg70
g443
sg63
(lp450
g56
(g65
g58
NtRp451
(dp452
g61
(dp453
g69
I3
ssg70
Nsg63
(lp454
g56
(g72
g58
NtRp455
(dp456
g61
(dp457
sg70
g451
sg63
(lp458
g56
(g77
g58
NtRp459
(dp460
g61
(dp461
g81
g82
ssg70
g455
sg63
(lp462
g270
asbag56
(g77
g58
NtRp463
(dp464
g61
(dp465
g88
g89
ssg70
g455
sg63
(lp466
S':'
asbag56
(g77
g58
NtRp467
(dp468
g61
(dp469
sg70
g455
sg63
(lp470
g56
(g57
g58
NtRp471
(dp472
g61
(dp473
g69
I3
ssg70
g467
sg63
(lp474
S''
asbasbasbag56
(g72
g58
NtRp475
(dp476
g61
(dp477
sg70
g451
sg63
(lp478
g56
(g77
g58
NtRp479
(dp480
g61
(dp481
g81
g82
ssg70
g475
sg63
(lp482
g291
asbag56
(g77
g58
NtRp483
(dp484
g61
(dp485
g88
g89
ssg70
g475
sg63
(lp486
S':'
asbag56
(g77
g58
NtRp487
(dp488
g61
(dp489
sg70
g475
sg63
(lp490
g56
(g57
g58
NtRp491
(dp492
g61
(dp493
g69
I3
ssg70
g487
sg63
(lp494
S''
asbasbasbag56
(g72
g58
NtRp495
(dp496
g61
(dp497
sg70
g451
sg63
(lp498
g56
(g77
g58
NtRp499
(dp500
g61
(dp501
g81
g82
ssg70
g495
sg63
(lp502
g312
asbag56
(g77
g58
NtRp503
(dp504
g61
(dp505
g88
g89
ssg70
g495
sg63
(lp506
S':'
asbag56
(g77
g58
NtRp507
(dp508
g61
(dp509
sg70
g495
sg63
(lp510
g56
(g57
g58
NtRp511
(dp512
g61
(dp513
g69
I3
ssg70
g507
sg63
(lp514
S''
asbasbasbag56
(g72
g58
NtRp515
(dp516
g61
(dp517
sg70
g451
sg63
(lp518
g56
(g77
g58
NtRp519
(dp520
g61
(dp521
g81
g82
ssg70
g515
sg63
(lp522
g333
asbag56
(g77
g58
NtRp523
(dp524
g61
(dp525
g88
g89
ssg70
g515
sg63
(lp526
S':'
asbag56
(g77
g58
NtRp527
(dp528
g61
(dp529
sg70
g515
sg63
(lp530
g56
(g57
g58
NtRp531
(dp532
g61
(dp533
g69
I3
ssg70
g527
sg63
(lp534
S''
asbasbasbag56
(g72
g58
NtRp535
(dp536
g61
(dp537
sg70
g451
sg63
(lp538
g56
(g77
g58
NtRp539
(dp540
g61
(dp541
g81
g82
ssg70
g535
sg63
(lp542
g354
asbag56
(g77
g58
NtRp543
(dp544
g61
(dp545
g88
g89
ssg70
g535
sg63
(lp546
S':'
asbag56
(g77
g58
NtRp547
(dp548
g61
(dp549
sg70
g535
sg63
(lp550
g56
(g57
g58
NtRp551
(dp552
g61
(dp553
g69
I3
ssg70
g547
sg63
(lp554
S''
asbasbasbag56
(g72
g58
NtRp555
(dp556
g61
(dp557
sg70
g451
sg63
(lp558
g56
(g77
g58
NtRp559
(dp560
g61
(dp561
g81
g82
ssg70
g555
sg63
(lp562
g375
asbag56
(g77
g58
NtRp563
(dp564
g61
(dp565
g88
g89
ssg70
g555
sg63
(lp566
S':'
asbag56
(g77
g58
NtRp567
(dp568
g61
(dp569
sg70
g555
sg63
(lp570
g56
(g57
g58
NtRp571
(dp572
g61
(dp573
g69
I3
ssg70
g567
sg63
(lp574
S''
asbasbasbag56
(g72
g58
NtRp575
(dp576
g61
(dp577
sg70
g451
sg63
(lp578
g56
(g77
g58
NtRp579
(dp580
g61
(dp581
g81
g82
ssg70
g575
sg63
(lp582
g396
asbag56
(g77
g58
NtRp583
(dp584
g61
(dp585
g88
g89
ssg70
g575
sg63
(lp586
S':'
asbag56
(g77
g58
NtRp587
(dp588
g61
(dp589
sg70
g575
sg63
(lp590
g56
(g57
g58
NtRp591
(dp592
g61
(dp593
g69
I3
ssg70
g587
sg63
(lp594
S''
asbasbasbag56
(g72
g58
NtRp595
(dp596
g61
(dp597
sg70
g451
sg63
(lp598
g56
(g77
g58
NtRp599
(dp600
g61
(dp601
g81
g82
ssg70
g595
sg63
(lp602
g417
asbag56
(g77
g58
NtRp603
(dp604
g61
(dp605
g88
g89
ssg70
g595
sg63
(lp606
S':'
asbag56
(g77
g58
NtRp607
(dp608
g61
(dp609
sg70
g595
sg63
(lp610
g56
(g57
g58
NtRp611
(dp612
g61
(dp613
g69
I3
ssg70
g607
sg63
(lp614
S''
asbasbasbasbasbasbasbag56
(g72
g58
NtRp615
(dp616
g61
(dp617
sg70
g233
sg63
(lp618
g56
(g77
g58
NtRp619
(dp620
g61
(dp621
g81
g82
ssg70
g615
sg63
(lp622
S'session_id_carstore'
p623
asbag56
(g77
g58
NtRp624
(dp625
g61
(dp626
g88
g89
ssg70
g615
sg63
(lp627
S':'
asbag56
(g77
g58
NtRp628
(dp629
g61
(dp630
sg70
g615
sg63
(lp631
g56
(g57
g58
NtRp632
(dp633
g61
(dp634
g69
I4
ssg70
g628
sg63
(lp635
g56
(g65
g58
NtRp636
(dp637
g61
(dp638
g69
I3
ssg70
Nsg63
(lp639
g56
(g72
g58
NtRp640
(dp641
g61
(dp642
sg70
g636
sg63
(lp643
g56
(g77
g58
NtRp644
(dp645
g61
(dp646
g81
g82
ssg70
g640
sg63
(lp647
g270
asbag56
(g77
g58
NtRp648
(dp649
g61
(dp650
g88
g89
ssg70
g640
sg63
(lp651
S':'
asbag56
(g77
g58
NtRp652
(dp653
g61
(dp654
sg70
g640
sg63
(lp655
g56
(g57
g58
NtRp656
(dp657
g61
(dp658
g69
I3
ssg70
g652
sg63
(lp659
S''
asbasbasbag56
(g72
g58
NtRp660
(dp661
g61
(dp662
sg70
g636
sg63
(lp663
g56
(g77
g58
NtRp664
(dp665
g61
(dp666
g81
g82
ssg70
g660
sg63
(lp667
g291
asbag56
(g77
g58
NtRp668
(dp669
g61
(dp670
g88
g89
ssg70
g660
sg63
(lp671
S':'
asbag56
(g77
g58
NtRp672
(dp673
g61
(dp674
sg70
g660
sg63
(lp675
g56
(g57
g58
NtRp676
(dp677
g61
(dp678
g69
I3
ssg70
g672
sg63
(lp679
S''
asbasbasbag56
(g72
g58
NtRp680
(dp681
g61
(dp682
sg70
g636
sg63
(lp683
g56
(g77
g58
NtRp684
(dp685
g61
(dp686
g81
g82
ssg70
g680
sg63
(lp687
g312
asbag56
(g77
g58
NtRp688
(dp689
g61
(dp690
g88
g89
ssg70
g680
sg63
(lp691
S':'
asbag56
(g77
g58
NtRp692
(dp693
g61
(dp694
sg70
g680
sg63
(lp695
g56
(g57
g58
NtRp696
(dp697
g61
(dp698
g69
I3
ssg70
g692
sg63
(lp699
S''
asbasbasbag56
(g72
g58
NtRp700
(dp701
g61
(dp702
sg70
g636
sg63
(lp703
g56
(g77
g58
NtRp704
(dp705
g61
(dp706
g81
g82
ssg70
g700
sg63
(lp707
g333
asbag56
(g77
g58
NtRp708
(dp709
g61
(dp710
g88
g89
ssg70
g700
sg63
(lp711
S':'
asbag56
(g77
g58
NtRp712
(dp713
g61
(dp714
sg70
g700
sg63
(lp715
g56
(g57
g58
NtRp716
(dp717
g61
(dp718
g69
I3
ssg70
g712
sg63
(lp719
S''
asbasbasbag56
(g72
g58
NtRp720
(dp721
g61
(dp722
sg70
g636
sg63
(lp723
g56
(g77
g58
NtRp724
(dp725
g61
(dp726
g81
g82
ssg70
g720
sg63
(lp727
g354
asbag56
(g77
g58
NtRp728
(dp729
g61
(dp730
g88
g89
ssg70
g720
sg63
(lp731
S':'
asbag56
(g77
g58
NtRp732
(dp733
g61
(dp734
sg70
g720
sg63
(lp735
g56
(g57
g58
NtRp736
(dp737
g61
(dp738
g69
I3
ssg70
g732
sg63
(lp739
S''
asbasbasbag56
(g72
g58
NtRp740
(dp741
g61
(dp742
sg70
g636
sg63
(lp743
g56
(g77
g58
NtRp744
(dp745
g61
(dp746
g81
g82
ssg70
g740
sg63
(lp747
g375
asbag56
(g77
g58
NtRp748
(dp749
g61
(dp750
g88
g89
ssg70
g740
sg63
(lp751
S':'
asbag56
(g77
g58
NtRp752
(dp753
g61
(dp754
sg70
g740
sg63
(lp755
g56
(g57
g58
NtRp756
(dp757
g61
(dp758
g69
I3
ssg70
g752
sg63
(lp759
S''
asbasbasbag56
(g72
g58
NtRp760
(dp761
g61
(dp762
sg70
g636
sg63
(lp763
g56
(g77
g58
NtRp764
(dp765
g61
(dp766
g81
g82
ssg70
g760
sg63
(lp767
g396
asbag56
(g77
g58
NtRp768
(dp769
g61
(dp770
g88
g89
ssg70
g760
sg63
(lp771
S':'
asbag56
(g77
g58
NtRp772
(dp773
g61
(dp774
sg70
g760
sg63
(lp775
g56
(g57
g58
NtRp776
(dp777
g61
(dp778
g69
I3
ssg70
g772
sg63
(lp779
S''
asbasbasbag56
(g72
g58
NtRp780
(dp781
g61
(dp782
sg70
g636
sg63
(lp783
g56
(g77
g58
NtRp784
(dp785
g61
(dp786
g81
g82
ssg70
g780
sg63
(lp787
g417
asbag56
(g77
g58
NtRp788
(dp789
g61
(dp790
g88
g89
ssg70
g780
sg63
(lp791
S':'
asbag56
(g77
g58
NtRp792
(dp793
g61
(dp794
sg70
g780
sg63
(lp795
g56
(g57
g58
NtRp796
(dp797
g61
(dp798
g69
I3
ssg70
g792
sg63
(lp799
S''
asbasbasbasbasbasbasbag56
(g72
g58
NtRp800
(dp801
g61
(dp802
sg70
g233
sg63
(lp803
g56
(g77
g58
NtRp804
(dp805
g61
(dp806
g81
g82
ssg70
g800
sg63
(lp807
S'session_id_gallery'
p808
asbag56
(g77
g58
NtRp809
(dp810
g61
(dp811
g88
g89
ssg70
g800
sg63
(lp812
S':'
asbag56
(g77
g58
NtRp813
(dp814
g61
(dp815
sg70
g800
sg63
(lp816
g56
(g57
g58
NtRp817
(dp818
g61
(dp819
g69
I4
ssg70
g813
sg63
(lp820
g56
(g65
g58
NtRp821
(dp822
g61
(dp823
g69
I3
ssg70
Nsg63
(lp824
g56
(g72
g58
NtRp825
(dp826
g61
(dp827
sg70
g821
sg63
(lp828
g56
(g77
g58
NtRp829
(dp830
g61
(dp831
g81
g82
ssg70
g825
sg63
(lp832
g270
asbag56
(g77
g58
NtRp833
(dp834
g61
(dp835
g88
g89
ssg70
g825
sg63
(lp836
S':'
asbag56
(g77
g58
NtRp837
(dp838
g61
(dp839
sg70
g825
sg63
(lp840
g56
(g57
g58
NtRp841
(dp842
g61
(dp843
g69
I3
ssg70
g837
sg63
(lp844
S''
asbasbasbag56
(g72
g58
NtRp845
(dp846
g61
(dp847
sg70
g821
sg63
(lp848
g56
(g77
g58
NtRp849
(dp850
g61
(dp851
g81
g82
ssg70
g845
sg63
(lp852
g291
asbag56
(g77
g58
NtRp853
(dp854
g61
(dp855
g88
g89
ssg70
g845
sg63
(lp856
S':'
asbag56
(g77
g58
NtRp857
(dp858
g61
(dp859
sg70
g845
sg63
(lp860
g56
(g57
g58
NtRp861
(dp862
g61
(dp863
g69
I3
ssg70
g857
sg63
(lp864
S''
asbasbasbag56
(g72
g58
NtRp865
(dp866
g61
(dp867
sg70
g821
sg63
(lp868
g56
(g77
g58
NtRp869
(dp870
g61
(dp871
g81
g82
ssg70
g865
sg63
(lp872
g312
asbag56
(g77
g58
NtRp873
(dp874
g61
(dp875
g88
g89
ssg70
g865
sg63
(lp876
S':'
asbag56
(g77
g58
NtRp877
(dp878
g61
(dp879
sg70
g865
sg63
(lp880
g56
(g57
g58
NtRp881
(dp882
g61
(dp883
g69
I3
ssg70
g877
sg63
(lp884
S''
asbasbasbag56
(g72
g58
NtRp885
(dp886
g61
(dp887
sg70
g821
sg63
(lp888
g56
(g77
g58
NtRp889
(dp890
g61
(dp891
g81
g82
ssg70
g885
sg63
(lp892
g333
asbag56
(g77
g58
NtRp893
(dp894
g61
(dp895
g88
g89
ssg70
g885
sg63
(lp896
S':'
asbag56
(g77
g58
NtRp897
(dp898
g61
(dp899
sg70
g885
sg63
(lp900
g56
(g57
g58
NtRp901
(dp902
g61
(dp903
g69
I3
ssg70
g897
sg63
(lp904
S''
asbasbasbag56
(g72
g58
NtRp905
(dp906
g61
(dp907
sg70
g821
sg63
(lp908
g56
(g77
g58
NtRp909
(dp910
g61
(dp911
g81
g82
ssg70
g905
sg63
(lp912
g354
asbag56
(g77
g58
NtRp913
(dp914
g61
(dp915
g88
g89
ssg70
g905
sg63
(lp916
S':'
asbag56
(g77
g58
NtRp917
(dp918
g61
(dp919
sg70
g905
sg63
(lp920
g56
(g57
g58
NtRp921
(dp922
g61
(dp923
g69
I3
ssg70
g917
sg63
(lp924
S''
asbasbasbag56
(g72
g58
NtRp925
(dp926
g61
(dp927
sg70
g821
sg63
(lp928
g56
(g77
g58
NtRp929
(dp930
g61
(dp931
g81
g82
ssg70
g925
sg63
(lp932
g375
asbag56
(g77
g58
NtRp933
(dp934
g61
(dp935
g88
g89
ssg70
g925
sg63
(lp936
S':'
asbag56
(g77
g58
NtRp937
(dp938
g61
(dp939
sg70
g925
sg63
(lp940
g56
(g57
g58
NtRp941
(dp942
g61
(dp943
g69
I3
ssg70
g937
sg63
(lp944
S''
asbasbasbag56
(g72
g58
NtRp945
(dp946
g61
(dp947
sg70
g821
sg63
(lp948
g56
(g77
g58
NtRp949
(dp950
g61
(dp951
g81
g82
ssg70
g945
sg63
(lp952
g396
asbag56
(g77
g58
NtRp953
(dp954
g61
(dp955
g88
g89
ssg70
g945
sg63
(lp956
S':'
asbag56
(g77
g58
NtRp957
(dp958
g61
(dp959
sg70
g945
sg63
(lp960
g56
(g57
g58
NtRp961
(dp962
g61
(dp963
g69
I3
ssg70
g957
sg63
(lp964
S''
asbasbasbag56
(g72
g58
NtRp965
(dp966
g61
(dp967
sg70
g821
sg63
(lp968
g56
(g77
g58
NtRp969
(dp970
g61
(dp971
g81
g82
ssg70
g965
sg63
(lp972
g417
asbag56
(g77
g58
NtRp973
(dp974
g61
(dp975
g88
g89
ssg70
g965
sg63
(lp976
S':'
asbag56
(g77
g58
NtRp977
(dp978
g61
(dp979
sg70
g965
sg63
(lp980
g56
(g57
g58
NtRp981
(dp982
g61
(dp983
g69
I3
ssg70
g977
sg63
(lp984
S''
asbasbasbasbasbasbasbag56
(g72
g58
NtRp985
(dp986
g61
(dp987
sg70
g233
sg63
(lp988
g56
(g77
g58
NtRp989
(dp990
g61
(dp991
g81
g82
ssg70
g985
sg63
(lp992
S'session_id_welcome'
p993
asbag56
(g77
g58
NtRp994
(dp995
g61
(dp996
g88
g89
ssg70
g985
sg63
(lp997
S':'
asbag56
(g77
g58
NtRp998
(dp999
g61
(dp1000
sg70
g985
sg63
(lp1001
g56
(g57
g58
NtRp1002
(dp1003
g61
(dp1004
g69
I4
ssg70
g998
sg63
(lp1005
g56
(g65
g58
NtRp1006
(dp1007
g61
(dp1008
g69
I3
ssg70
Nsg63
(lp1009
g56
(g72
g58
NtRp1010
(dp1011
g61
(dp1012
sg70
g1006
sg63
(lp1013
g56
(g77
g58
NtRp1014
(dp1015
g61
(dp1016
g81
g82
ssg70
g1010
sg63
(lp1017
g270
asbag56
(g77
g58
NtRp1018
(dp1019
g61
(dp1020
g88
g89
ssg70
g1010
sg63
(lp1021
S':'
asbag56
(g77
g58
NtRp1022
(dp1023
g61
(dp1024
sg70
g1010
sg63
(lp1025
g56
(g57
g58
NtRp1026
(dp1027
g61
(dp1028
g69
I3
ssg70
g1022
sg63
(lp1029
S''
asbasbasbag56
(g72
g58
NtRp1030
(dp1031
g61
(dp1032
sg70
g1006
sg63
(lp1033
g56
(g77
g58
NtRp1034
(dp1035
g61
(dp1036
g81
g82
ssg70
g1030
sg63
(lp1037
g291
asbag56
(g77
g58
NtRp1038
(dp1039
g61
(dp1040
g88
g89
ssg70
g1030
sg63
(lp1041
S':'
asbag56
(g77
g58
NtRp1042
(dp1043
g61
(dp1044
sg70
g1030
sg63
(lp1045
g56
(g57
g58
NtRp1046
(dp1047
g61
(dp1048
g69
I3
ssg70
g1042
sg63
(lp1049
S''
asbasbasbag56
(g72
g58
NtRp1050
(dp1051
g61
(dp1052
sg70
g1006
sg63
(lp1053
g56
(g77
g58
NtRp1054
(dp1055
g61
(dp1056
g81
g82
ssg70
g1050
sg63
(lp1057
g312
asbag56
(g77
g58
NtRp1058
(dp1059
g61
(dp1060
g88
g89
ssg70
g1050
sg63
(lp1061
S':'
asbag56
(g77
g58
NtRp1062
(dp1063
g61
(dp1064
sg70
g1050
sg63
(lp1065
g56
(g57
g58
NtRp1066
(dp1067
g61
(dp1068
g69
I3
ssg70
g1062
sg63
(lp1069
S''
asbasbasbag56
(g72
g58
NtRp1070
(dp1071
g61
(dp1072
sg70
g1006
sg63
(lp1073
g56
(g77
g58
NtRp1074
(dp1075
g61
(dp1076
g81
g82
ssg70
g1070
sg63
(lp1077
g333
asbag56
(g77
g58
NtRp1078
(dp1079
g61
(dp1080
g88
g89
ssg70
g1070
sg63
(lp1081
S':'
asbag56
(g77
g58
NtRp1082
(dp1083
g61
(dp1084
sg70
g1070
sg63
(lp1085
g56
(g57
g58
NtRp1086
(dp1087
g61
(dp1088
g69
I3
ssg70
g1082
sg63
(lp1089
S''
asbasbasbag56
(g72
g58
NtRp1090
(dp1091
g61
(dp1092
sg70
g1006
sg63
(lp1093
g56
(g77
g58
NtRp1094
(dp1095
g61
(dp1096
g81
g82
ssg70
g1090
sg63
(lp1097
g354
asbag56
(g77
g58
NtRp1098
(dp1099
g61
(dp1100
g88
g89
ssg70
g1090
sg63
(lp1101
S':'
asbag56
(g77
g58
NtRp1102
(dp1103
g61
(dp1104
sg70
g1090
sg63
(lp1105
g56
(g57
g58
NtRp1106
(dp1107
g61
(dp1108
g69
I3
ssg70
g1102
sg63
(lp1109
S''
asbasbasbag56
(g72
g58
NtRp1110
(dp1111
g61
(dp1112
sg70
g1006
sg63
(lp1113
g56
(g77
g58
NtRp1114
(dp1115
g61
(dp1116
g81
g82
ssg70
g1110
sg63
(lp1117
g375
asbag56
(g77
g58
NtRp1118
(dp1119
g61
(dp1120
g88
g89
ssg70
g1110
sg63
(lp1121
S':'
asbag56
(g77
g58
NtRp1122
(dp1123
g61
(dp1124
sg70
g1110
sg63
(lp1125
g56
(g57
g58
NtRp1126
(dp1127
g61
(dp1128
g69
I3
ssg70
g1122
sg63
(lp1129
S''
asbasbasbag56
(g72
g58
NtRp1130
(dp1131
g61
(dp1132
sg70
g1006
sg63
(lp1133
g56
(g77
g58
NtRp1134
(dp1135
g61
(dp1136
g81
g82
ssg70
g1130
sg63
(lp1137
g396
asbag56
(g77
g58
NtRp1138
(dp1139
g61
(dp1140
g88
g89
ssg70
g1130
sg63
(lp1141
S':'
asbag56
(g77
g58
NtRp1142
(dp1143
g61
(dp1144
sg70
g1130
sg63
(lp1145
g56
(g57
g58
NtRp1146
(dp1147
g61
(dp1148
g69
I3
ssg70
g1142
sg63
(lp1149
S''
asbasbasbag56
(g72
g58
NtRp1150
(dp1151
g61
(dp1152
sg70
g1006
sg63
(lp1153
g56
(g77
g58
NtRp1154
(dp1155
g61
(dp1156
g81
g82
ssg70
g1150
sg63
(lp1157
g417
asbag56
(g77
g58
NtRp1158
(dp1159
g61
(dp1160
g88
g89
ssg70
g1150
sg63
(lp1161
S':'
asbag56
(g77
g58
NtRp1162
(dp1163
g61
(dp1164
sg70
g1150
sg63
(lp1165
g56
(g57
g58
NtRp1166
(dp1167
g61
(dp1168
g69
I3
ssg70
g1162
sg63
(lp1169
S''
asbasbasbasbasbasbasbasbasbasbasbag56
(g72
g58
NtRp1170
(dp1171
g61
(dp1172
sg70
g66
sg63
(lp1173
g56
(g77
g58
NtRp1174
(dp1175
g61
(dp1176
g81
g82
ssg70
g1170
sg63
(lp1177
S'env'
p1178
asbag56
(g77
g58
NtRp1179
(dp1180
g61
(dp1181
g88
g89
ssg70
g1170
sg63
(lp1182
S':'
asbag56
(g77
g58
NtRp1183
(dp1184
g61
(dp1185
sg70
g1170
sg63
(lp1186
g56
(g57
g58
NtRp1187
(dp1188
g61
(dp1189
g69
I5
ssg70
g1183
sg63
(lp1190
g56
(g65
g58
NtRp1191
(dp1192
g61
(dp1193
g69
I4
ssg70
Nsg63
(lp1194
g56
(g72
g58
NtRp1195
(dp1196
g61
(dp1197
sg70
g1191
sg63
(lp1198
g56
(g77
g58
NtRp1199
(dp1200
g61
(dp1201
g81
g82
ssg70
g1195
sg63
(lp1202
S'app_folders'
p1203
asbag56
(g77
g58
NtRp1204
(dp1205
g61
(dp1206
g88
g89
ssg70
g1195
sg63
(lp1207
S':'
asbag56
(g77
g58
NtRp1208
(dp1209
g61
(dp1210
sg70
g1195
sg63
(lp1211
g56
(g57
g58
NtRp1212
(dp1213
g61
(dp1214
g69
I4
ssg70
g1208
sg63
(lp1215
S"set(['/home/brencam/web2py/applications/admin/', '/home/brencam/web2py/applications/gallery/'])"
p1216
asbasbasbag56
(g72
g58
NtRp1217
(dp1218
g61
(dp1219
sg70
g1191
sg63
(lp1220
g56
(g77
g58
NtRp1221
(dp1222
g61
(dp1223
g81
g82
ssg70
g1217
sg63
(lp1224
S'applications_parent'
p1225
asbag56
(g77
g58
NtRp1226
(dp1227
g61
(dp1228
g88
g89
ssg70
g1217
sg63
(lp1229
S':'
asbag56
(g77
g58
NtRp1230
(dp1231
g61
(dp1232
sg70
g1217
sg63
(lp1233
g56
(g57
g58
NtRp1234
(dp1235
g61
(dp1236
g69
I4
ssg70
g1230
sg63
(lp1237
S'/home/brencam/web2py'
p1238
asbasbasbag56
(g72
g58
NtRp1239
(dp1240
g61
(dp1241
sg70
g1191
sg63
(lp1242
g56
(g77
g58
NtRp1243
(dp1244
g61
(dp1245
g81
g82
ssg70
g1239
sg63
(lp1246
S'cmd_args'
p1247
asbag56
(g77
g58
NtRp1248
(dp1249
g61
(dp1250
g88
g89
ssg70
g1239
sg63
(lp1251
S':'
asbag56
(g77
g58
NtRp1252
(dp1253
g61
(dp1254
sg70
g1239
sg63
(lp1255
g56
(g57
g58
NtRp1256
(dp1257
g61
(dp1258
g69
I4
ssg70
g1252
sg63
(lp1259
g56
(g65
g58
NtRp1260
(dp1261
g61
(dp1262
g69
I3
ssg70
Nsg63
(lp1263
sbasbasbasbag56
(g72
g58
NtRp1264
(dp1265
g61
(dp1266
sg70
g1191
sg63
(lp1267
g56
(g77
g58
NtRp1268
(dp1269
g61
(dp1270
g81
g82
ssg70
g1264
sg63
(lp1271
S'cmd_options'
p1272
asbag56
(g77
g58
NtRp1273
(dp1274
g61
(dp1275
g88
g89
ssg70
g1264
sg63
(lp1276
S':'
asbag56
(g77
g58
NtRp1277
(dp1278
g61
(dp1279
sg70
g1264
sg63
(lp1280
g56
(g57
g58
NtRp1281
(dp1282
g61
(dp1283
g69
I4
ssg70
g1277
sg63
(lp1284
S"<Values at 0xa97628c: {'verbose': False, 'ip': '127.0.0.1', 'shutdown_timeout': 5, 'taskbar': False, 'nocron': False, 'pid_filename': 'httpserver.pid', 'maxthreads': None, 'softcron': False, 'server_name': 'localhost.localdomain', 'bpython': False, 'nogui': True, 'port': 8000, 'extcron': False, 'debuglevel': 30, 'test': None, 'folder': '/home/brencam/web2py', 'config': '', 'import_models': False, 'winservice': '', 'shell': None, 'run': '', 'log_filename': 'httpserver.log', 'args': [''], 'ssl_ca_certificate': None, 'scheduler': None, 'profiler_filename': None, 'ssl_private_key': '', 'password': 'admin', 'request_queue_size': 5, 'ssl_certificate': '', 'cronjob': False, 'plain': False, 'quiet': False, 'interfaces': None, 'minthreads': None, 'timeout': 10, 'numthreads': None, 'nobanner': False}>"
p1285
asbasbasbag56
(g72
g58
NtRp1286
(dp1287
g61
(dp1288
sg70
g1191
sg63
(lp1289
g56
(g77
g58
NtRp1290
(dp1291
g61
(dp1292
g81
g82
ssg70
g1286
sg63
(lp1293
S'content_type'
p1294
asbag56
(g77
g58
NtRp1295
(dp1296
g61
(dp1297
g88
g89
ssg70
g1286
sg63
(lp1298
S':'
asbag56
(g77
g58
NtRp1299
(dp1300
g61
(dp1301
sg70
g1286
sg63
(lp1302
g56
(g57
g58
NtRp1303
(dp1304
g61
(dp1305
g69
I4
ssg70
g1299
sg63
(lp1306
S'application/x-www-form-urlencoded'
p1307
asbasbasbag56
(g72
g58
NtRp1308
(dp1309
g61
(dp1310
sg70
g1191
sg63
(lp1311
g56
(g77
g58
NtRp1312
(dp1313
g61
(dp1314
g81
g82
ssg70
g1308
sg63
(lp1315
S'db_sessions'
p1316
asbag56
(g77
g58
NtRp1317
(dp1318
g61
(dp1319
g88
g89
ssg70
g1308
sg63
(lp1320
S':'
asbag56
(g77
g58
NtRp1321
(dp1322
g61
(dp1323
sg70
g1308
sg63
(lp1324
g56
(g57
g58
NtRp1325
(dp1326
g61
(dp1327
g69
I4
ssg70
g1321
sg63
(lp1328
S'set([])'
p1329
asbasbasbag56
(g72
g58
NtRp1330
(dp1331
g61
(dp1332
sg70
g1191
sg63
(lp1333
g56
(g77
g58
NtRp1334
(dp1335
g61
(dp1336
g81
g82
ssg70
g1330
sg63
(lp1337
S'debugging'
p1338
asbag56
(g77
g58
NtRp1339
(dp1340
g61
(dp1341
g88
g89
ssg70
g1330
sg63
(lp1342
S':'
asbag56
(g77
g58
NtRp1343
(dp1344
g61
(dp1345
sg70
g1330
sg63
(lp1346
g56
(g57
g58
NtRp1347
(dp1348
g61
(dp1349
g69
I4
ssg70
g1343
sg63
(lp1350
S'False'
p1351
asbasbasbag56
(g72
g58
NtRp1352
(dp1353
g61
(dp1354
sg70
g1191
sg63
(lp1355
g56
(g77
g58
NtRp1356
(dp1357
g61
(dp1358
g81
g82
ssg70
g1352
sg63
(lp1359
S'gluon_parent'
p1360
asbag56
(g77
g58
NtRp1361
(dp1362
g61
(dp1363
g88
g89
ssg70
g1352
sg63
(lp1364
S':'
asbag56
(g77
g58
NtRp1365
(dp1366
g61
(dp1367
sg70
g1352
sg63
(lp1368
g56
(g57
g58
NtRp1369
(dp1370
g61
(dp1371
g69
I4
ssg70
g1365
sg63
(lp1372
S'/home/brencam/web2py'
p1373
asbasbasbag56
(g72
g58
NtRp1374
(dp1375
g61
(dp1376
sg70
g1191
sg63
(lp1377
g56
(g77
g58
NtRp1378
(dp1379
g61
(dp1380
g81
g82
ssg70
g1374
sg63
(lp1381
S'http_accept'
p1382
asbag56
(g77
g58
NtRp1383
(dp1384
g61
(dp1385
g88
g89
ssg70
g1374
sg63
(lp1386
S':'
asbag56
(g77
g58
NtRp1387
(dp1388
g61
(dp1389
sg70
g1374
sg63
(lp1390
g56
(g57
g58
NtRp1391
(dp1392
g61
(dp1393
g69
I4
ssg70
g1387
sg63
(lp1394
S'*/*'
p1395
asbasbasbag56
(g72
g58
NtRp1396
(dp1397
g61
(dp1398
sg70
g1191
sg63
(lp1399
g56
(g77
g58
NtRp1400
(dp1401
g61
(dp1402
g81
g82
ssg70
g1396
sg63
(lp1403
S'http_accept_charset'
p1404
asbag56
(g77
g58
NtRp1405
(dp1406
g61
(dp1407
g88
g89
ssg70
g1396
sg63
(lp1408
S':'
asbag56
(g77
g58
NtRp1409
(dp1410
g61
(dp1411
sg70
g1396
sg63
(lp1412
g56
(g57
g58
NtRp1413
(dp1414
g61
(dp1415
g69
I4
ssg70
g1409
sg63
(lp1416
S'ISO-8859-1,utf-8;q=0.7,*;q=0.3'
p1417
asbasbasbag56
(g72
g58
NtRp1418
(dp1419
g61
(dp1420
sg70
g1191
sg63
(lp1421
g56
(g77
g58
NtRp1422
(dp1423
g61
(dp1424
g81
g82
ssg70
g1418
sg63
(lp1425
S'http_accept_encoding'
p1426
asbag56
(g77
g58
NtRp1427
(dp1428
g61
(dp1429
g88
g89
ssg70
g1418
sg63
(lp1430
S':'
asbag56
(g77
g58
NtRp1431
(dp1432
g61
(dp1433
sg70
g1418
sg63
(lp1434
g56
(g57
g58
NtRp1435
(dp1436
g61
(dp1437
g69
I4
ssg70
g1431
sg63
(lp1438
S'gzip,deflate,sdch'
p1439
asbasbasbag56
(g72
g58
NtRp1440
(dp1441
g61
(dp1442
sg70
g1191
sg63
(lp1443
g56
(g77
g58
NtRp1444
(dp1445
g61
(dp1446
g81
g82
ssg70
g1440
sg63
(lp1447
S'http_accept_language'
p1448
asbag56
(g77
g58
NtRp1449
(dp1450
g61
(dp1451
g88
g89
ssg70
g1440
sg63
(lp1452
S':'
asbag56
(g77
g58
NtRp1453
(dp1454
g61
(dp1455
sg70
g1440
sg63
(lp1456
g56
(g57
g58
NtRp1457
(dp1458
g61
(dp1459
g69
I4
ssg70
g1453
sg63
(lp1460
S'en-US,en;q=0.8'
p1461
asbasbasbag56
(g72
g58
NtRp1462
(dp1463
g61
(dp1464
sg70
g1191
sg63
(lp1465
g56
(g77
g58
NtRp1466
(dp1467
g61
(dp1468
g81
g82
ssg70
g1462
sg63
(lp1469
S'http_cache_control'
p1470
asbag56
(g77
g58
NtRp1471
(dp1472
g61
(dp1473
g88
g89
ssg70
g1462
sg63
(lp1474
S':'
asbag56
(g77
g58
NtRp1475
(dp1476
g61
(dp1477
sg70
g1462
sg63
(lp1478
g56
(g57
g58
NtRp1479
(dp1480
g61
(dp1481
g69
I4
ssg70
g1475
sg63
(lp1482
S'no-cache'
p1483
asbasbasbag56
(g72
g58
NtRp1484
(dp1485
g61
(dp1486
sg70
g1191
sg63
(lp1487
g56
(g77
g58
NtRp1488
(dp1489
g61
(dp1490
g81
g82
ssg70
g1484
sg63
(lp1491
S'http_connection'
p1492
asbag56
(g77
g58
NtRp1493
(dp1494
g61
(dp1495
g88
g89
ssg70
g1484
sg63
(lp1496
S':'
asbag56
(g77
g58
NtRp1497
(dp1498
g61
(dp1499
sg70
g1484
sg63
(lp1500
g56
(g57
g58
NtRp1501
(dp1502
g61
(dp1503
g69
I4
ssg70
g1497
sg63
(lp1504
S'keep-alive'
p1505
asbasbasbag56
(g72
g58
NtRp1506
(dp1507
g61
(dp1508
sg70
g1191
sg63
(lp1509
g56
(g77
g58
NtRp1510
(dp1511
g61
(dp1512
g81
g82
ssg70
g1506
sg63
(lp1513
S'http_content_type'
p1514
asbag56
(g77
g58
NtRp1515
(dp1516
g61
(dp1517
g88
g89
ssg70
g1506
sg63
(lp1518
S':'
asbag56
(g77
g58
NtRp1519
(dp1520
g61
(dp1521
sg70
g1506
sg63
(lp1522
g56
(g57
g58
NtRp1523
(dp1524
g61
(dp1525
g69
I4
ssg70
g1519
sg63
(lp1526
g1307
asbasbasbag56
(g72
g58
NtRp1527
(dp1528
g61
(dp1529
sg70
g1191
sg63
(lp1530
g56
(g77
g58
NtRp1531
(dp1532
g61
(dp1533
g81
g82
ssg70
g1527
sg63
(lp1534
S'http_cookie'
p1535
asbag56
(g77
g58
NtRp1536
(dp1537
g61
(dp1538
g88
g89
ssg70
g1527
sg63
(lp1539
S':'
asbag56
(g77
g58
NtRp1540
(dp1541
g61
(dp1542
sg70
g1527
sg63
(lp1543
g56
(g57
g58
NtRp1544
(dp1545
g61
(dp1546
g69
I4
ssg70
g1540
sg63
(lp1547
S'__utma=96992031.552746526.1281494094.1291180555.1291186411.9; csrftoken=7b3621df70ed8d65c15785486fff8908; __utma_a2a=7438973308.1350086890.1318529964.1318645324.1318645410.28; session_id_welcome=127.0.0.1-e89cf04d-0b50-4bf6-92b3-026e707eb338; session_id_carstore=127.0.0.1-040400bf-f5a5-433f-a985-acb0a46fadd7; session_id_admin=127.0.0.1-d14f835c-118c-445e-8941-6ad99bd8ed54; session_id_gallery=127.0.0.1-dc8c13ed-0f92-4ade-ab82-5940ed42a3a5'
p1548
asbasbasbag56
(g72
g58
NtRp1549
(dp1550
g61
(dp1551
sg70
g1191
sg63
(lp1552
g56
(g77
g58
NtRp1553
(dp1554
g61
(dp1555
g81
g82
ssg70
g1549
sg63
(lp1556
S'http_host'
p1557
asbag56
(g77
g58
NtRp1558
(dp1559
g61
(dp1560
g88
g89
ssg70
g1549
sg63
(lp1561
S':'
asbag56
(g77
g58
NtRp1562
(dp1563
g61
(dp1564
sg70
g1549
sg63
(lp1565
g56
(g57
g58
NtRp1566
(dp1567
g61
(dp1568
g69
I4
ssg70
g1562
sg63
(lp1569
S'127.0.0.1:8000'
p1570
asbasbasbag56
(g72
g58
NtRp1571
(dp1572
g61
(dp1573
sg70
g1191
sg63
(lp1574
g56
(g77
g58
NtRp1575
(dp1576
g61
(dp1577
g81
g82
ssg70
g1571
sg63
(lp1578
S'http_pragma'
p1579
asbag56
(g77
g58
NtRp1580
(dp1581
g61
(dp1582
g88
g89
ssg70
g1571
sg63
(lp1583
S':'
asbag56
(g77
g58
NtRp1584
(dp1585
g61
(dp1586
sg70
g1571
sg63
(lp1587
g56
(g57
g58
NtRp1588
(dp1589
g61
(dp1590
g69
I4
ssg70
g1584
sg63
(lp1591
S'no-cache'
p1592
asbasbasbag56
(g72
g58
NtRp1593
(dp1594
g61
(dp1595
sg70
g1191
sg63
(lp1596
g56
(g77
g58
NtRp1597
(dp1598
g61
(dp1599
g81
g82
ssg70
g1593
sg63
(lp1600
S'http_referer'
p1601
asbag56
(g77
g58
NtRp1602
(dp1603
g61
(dp1604
g88
g89
ssg70
g1593
sg63
(lp1605
S':'
asbag56
(g77
g58
NtRp1606
(dp1607
g61
(dp1608
sg70
g1593
sg63
(lp1609
g56
(g57
g58
NtRp1610
(dp1611
g61
(dp1612
g69
I4
ssg70
g1606
sg63
(lp1613
S'http://127.0.0.1:8000/gallery/search/gettags'
p1614
asbasbasbag56
(g72
g58
NtRp1615
(dp1616
g61
(dp1617
sg70
g1191
sg63
(lp1618
g56
(g77
g58
NtRp1619
(dp1620
g61
(dp1621
g81
g82
ssg70
g1615
sg63
(lp1622
S'http_user_agent'
p1623
asbag56
(g77
g58
NtRp1624
(dp1625
g61
(dp1626
g88
g89
ssg70
g1615
sg63
(lp1627
S':'
asbag56
(g77
g58
NtRp1628
(dp1629
g61
(dp1630
sg70
g1615
sg63
(lp1631
g56
(g57
g58
NtRp1632
(dp1633
g61
(dp1634
g69
I4
ssg70
g1628
sg63
(lp1635
S'Mozilla/5.0 (X11; Linux i686) AppleWebKit/535.1 (KHTML, like Gecko) Chrome/14.0.835.204 Safari/535.1'
p1636
asbasbasbag56
(g72
g58
NtRp1637
(dp1638
g61
(dp1639
sg70
g1191
sg63
(lp1640
g56
(g77
g58
NtRp1641
(dp1642
g61
(dp1643
g81
g82
ssg70
g1637
sg63
(lp1644
S'http_x_requested_with'
p1645
asbag56
(g77
g58
NtRp1646
(dp1647
g61
(dp1648
g88
g89
ssg70
g1637
sg63
(lp1649
S':'
asbag56
(g77
g58
NtRp1650
(dp1651
g61
(dp1652
sg70
g1637
sg63
(lp1653
g56
(g57
g58
NtRp1654
(dp1655
g61
(dp1656
g69
I4
ssg70
g1650
sg63
(lp1657
S'XMLHttpRequest'
p1658
asbasbasbag56
(g72
g58
NtRp1659
(dp1660
g61
(dp1661
sg70
g1191
sg63
(lp1662
g56
(g77
g58
NtRp1663
(dp1664
g61
(dp1665
g81
g82
ssg70
g1659
sg63
(lp1666
S'is_jython'
p1667
asbag56
(g77
g58
NtRp1668
(dp1669
g61
(dp1670
g88
g89
ssg70
g1659
sg63
(lp1671
S':'
asbag56
(g77
g58
NtRp1672
(dp1673
g61
(dp1674
sg70
g1659
sg63
(lp1675
g56
(g57
g58
NtRp1676
(dp1677
g61
(dp1678
g69
I4
ssg70
g1672
sg63
(lp1679
g1351
asbasbasbag56
(g72
g58
NtRp1680
(dp1681
g61
(dp1682
sg70
g1191
sg63
(lp1683
g56
(g77
g58
NtRp1684
(dp1685
g61
(dp1686
g81
g82
ssg70
g1680
sg63
(lp1687
S'path_info'
p1688
asbag56
(g77
g58
NtRp1689
(dp1690
g61
(dp1691
g88
g89
ssg70
g1680
sg63
(lp1692
S':'
asbag56
(g77
g58
NtRp1693
(dp1694
g61
(dp1695
sg70
g1680
sg63
(lp1696
g56
(g57
g58
NtRp1697
(dp1698
g61
(dp1699
g69
I4
ssg70
g1693
sg63
(lp1700
S'/gallery/search/xmlgettags.json'
p1701
asbasbasbag56
(g72
g58
NtRp1702
(dp1703
g61
(dp1704
sg70
g1191
sg63
(lp1705
g56
(g77
g58
NtRp1706
(dp1707
g61
(dp1708
g81
g82
ssg70
g1702
sg63
(lp1709
S'query_string'
p1710
asbag56
(g77
g58
NtRp1711
(dp1712
g61
(dp1713
g88
g89
ssg70
g1702
sg63
(lp1714
S':'
asbag56
(g77
g58
NtRp1715
(dp1716
g61
(dp1717
sg70
g1702
sg63
(lp1718
g56
(g57
g58
NtRp1719
(dp1720
g61
(dp1721
g69
I4
ssg70
g1715
sg63
(lp1722
S''
asbasbasbag56
(g72
g58
NtRp1723
(dp1724
g61
(dp1725
sg70
g1191
sg63
(lp1726
g56
(g77
g58
NtRp1727
(dp1728
g61
(dp1729
g81
g82
ssg70
g1723
sg63
(lp1730
S'remote_addr'
p1731
asbag56
(g77
g58
NtRp1732
(dp1733
g61
(dp1734
g88
g89
ssg70
g1723
sg63
(lp1735
S':'
asbag56
(g77
g58
NtRp1736
(dp1737
g61
(dp1738
sg70
g1723
sg63
(lp1739
g56
(g57
g58
NtRp1740
(dp1741
g61
(dp1742
g69
I4
ssg70
g1736
sg63
(lp1743
g189
asbasbasbag56
(g72
g58
NtRp1744
(dp1745
g61
(dp1746
sg70
g1191
sg63
(lp1747
g56
(g77
g58
NtRp1748
(dp1749
g61
(dp1750
g81
g82
ssg70
g1744
sg63
(lp1751
S'remote_port'
p1752
asbag56
(g77
g58
NtRp1753
(dp1754
g61
(dp1755
g88
g89
ssg70
g1744
sg63
(lp1756
S':'
asbag56
(g77
g58
NtRp1757
(dp1758
g61
(dp1759
sg70
g1744
sg63
(lp1760
g56
(g57
g58
NtRp1761
(dp1762
g61
(dp1763
g69
I4
ssg70
g1757
sg63
(lp1764
S'46720'
p1765
asbasbasbag56
(g72
g58
NtRp1766
(dp1767
g61
(dp1768
sg70
g1191
sg63
(lp1769
g56
(g77
g58
NtRp1770
(dp1771
g61
(dp1772
g81
g82
ssg70
g1766
sg63
(lp1773
S'request_method'
p1774
asbag56
(g77
g58
NtRp1775
(dp1776
g61
(dp1777
g88
g89
ssg70
g1766
sg63
(lp1778
S':'
asbag56
(g77
g58
NtRp1779
(dp1780
g61
(dp1781
sg70
g1766
sg63
(lp1782
g56
(g57
g58
NtRp1783
(dp1784
g61
(dp1785
g69
I4
ssg70
g1779
sg63
(lp1786
S'GET'
p1787
asbasbasbag56
(g72
g58
NtRp1788
(dp1789
g61
(dp1790
sg70
g1191
sg63
(lp1791
g56
(g77
g58
NtRp1792
(dp1793
g61
(dp1794
g81
g82
ssg70
g1788
sg63
(lp1795
S'script_name'
p1796
asbag56
(g77
g58
NtRp1797
(dp1798
g61
(dp1799
g88
g89
ssg70
g1788
sg63
(lp1800
S':'
asbag56
(g77
g58
NtRp1801
(dp1802
g61
(dp1803
sg70
g1788
sg63
(lp1804
g56
(g57
g58
NtRp1805
(dp1806
g61
(dp1807
g69
I4
ssg70
g1801
sg63
(lp1808
S''
asbasbasbag56
(g72
g58
NtRp1809
(dp1810
g61
(dp1811
sg70
g1191
sg63
(lp1812
g56
(g77
g58
NtRp1813
(dp1814
g61
(dp1815
g81
g82
ssg70
g1809
sg63
(lp1816
S'server_name'
p1817
asbag56
(g77
g58
NtRp1818
(dp1819
g61
(dp1820
g88
g89
ssg70
g1809
sg63
(lp1821
S':'
asbag56
(g77
g58
NtRp1822
(dp1823
g61
(dp1824
sg70
g1809
sg63
(lp1825
g56
(g57
g58
NtRp1826
(dp1827
g61
(dp1828
g69
I4
ssg70
g1822
sg63
(lp1829
S'localhost.localdomain'
p1830
asbasbasbag56
(g72
g58
NtRp1831
(dp1832
g61
(dp1833
sg70
g1191
sg63
(lp1834
g56
(g77
g58
NtRp1835
(dp1836
g61
(dp1837
g81
g82
ssg70
g1831
sg63
(lp1838
S'server_port'
p1839
asbag56
(g77
g58
NtRp1840
(dp1841
g61
(dp1842
g88
g89
ssg70
g1831
sg63
(lp1843
S':'
asbag56
(g77
g58
NtRp1844
(dp1845
g61
(dp1846
sg70
g1831
sg63
(lp1847
g56
(g57
g58
NtRp1848
(dp1849
g61
(dp1850
g69
I4
ssg70
g1844
sg63
(lp1851
S'8000'
p1852
asbasbasbag56
(g72
g58
NtRp1853
(dp1854
g61
(dp1855
sg70
g1191
sg63
(lp1856
g56
(g77
g58
NtRp1857
(dp1858
g61
(dp1859
g81
g82
ssg70
g1853
sg63
(lp1860
S'server_protocol'
p1861
asbag56
(g77
g58
NtRp1862
(dp1863
g61
(dp1864
g88
g89
ssg70
g1853
sg63
(lp1865
S':'
asbag56
(g77
g58
NtRp1866
(dp1867
g61
(dp1868
sg70
g1853
sg63
(lp1869
g56
(g57
g58
NtRp1870
(dp1871
g61
(dp1872
g69
I4
ssg70
g1866
sg63
(lp1873
S'HTTP/1.1'
p1874
asbasbasbag56
(g72
g58
NtRp1875
(dp1876
g61
(dp1877
sg70
g1191
sg63
(lp1878
g56
(g77
g58
NtRp1879
(dp1880
g61
(dp1881
g81
g82
ssg70
g1875
sg63
(lp1882
S'server_software'
p1883
asbag56
(g77
g58
NtRp1884
(dp1885
g61
(dp1886
g88
g89
ssg70
g1875
sg63
(lp1887
S':'
asbag56
(g77
g58
NtRp1888
(dp1889
g61
(dp1890
sg70
g1875
sg63
(lp1891
g56
(g57
g58
NtRp1892
(dp1893
g61
(dp1894
g69
I4
ssg70
g1888
sg63
(lp1895
S'Rocket 1.2.4'
p1896
asbasbasbag56
(g72
g58
NtRp1897
(dp1898
g61
(dp1899
sg70
g1191
sg63
(lp1900
g56
(g77
g58
NtRp1901
(dp1902
g61
(dp1903
g81
g82
ssg70
g1897
sg63
(lp1904
S'web2py_crontype'
p1905
asbag56
(g77
g58
NtRp1906
(dp1907
g61
(dp1908
g88
g89
ssg70
g1897
sg63
(lp1909
S':'
asbag56
(g77
g58
NtRp1910
(dp1911
g61
(dp1912
sg70
g1897
sg63
(lp1913
g56
(g57
g58
NtRp1914
(dp1915
g61
(dp1916
g69
I4
ssg70
g1910
sg63
(lp1917
S'hard'
p1918
asbasbasbag56
(g72
g58
NtRp1919
(dp1920
g61
(dp1921
sg70
g1191
sg63
(lp1922
g56
(g77
g58
NtRp1923
(dp1924
g61
(dp1925
g81
g82
ssg70
g1919
sg63
(lp1926
S'web2py_path'
p1927
asbag56
(g77
g58
NtRp1928
(dp1929
g61
(dp1930
g88
g89
ssg70
g1919
sg63
(lp1931
S':'
asbag56
(g77
g58
NtRp1932
(dp1933
g61
(dp1934
sg70
g1919
sg63
(lp1935
g56
(g57
g58
NtRp1936
(dp1937
g61
(dp1938
g69
I4
ssg70
g1932
sg63
(lp1939
g1238
asbasbasbag56
(g72
g58
NtRp1940
(dp1941
g61
(dp1942
sg70
g1191
sg63
(lp1943
g56
(g77
g58
NtRp1944
(dp1945
g61
(dp1946
g81
g82
ssg70
g1940
sg63
(lp1947
S'web2py_version'
p1948
asbag56
(g77
g58
NtRp1949
(dp1950
g61
(dp1951
g88
g89
ssg70
g1940
sg63
(lp1952
S':'
asbag56
(g77
g58
NtRp1953
(dp1954
g61
(dp1955
sg70
g1940
sg63
(lp1956
g56
(g57
g58
NtRp1957
(dp1958
g61
(dp1959
g69
I4
ssg70
g1953
sg63
(lp1960
g56
(g65
g58
NtRp1961
(dp1962
g61
(dp1963
g69
I3
ssg70
Nsg63
(lp1964
g56
(g72
g58
NtRp1965
(dp1966
g61
(dp1967
sg70
g1961
sg63
(lp1968
g56
(g77
g58
NtRp1969
(dp1970
g61
(dp1971
sg70
g1965
sg63
(lp1972
g56
(g57
g58
NtRp1973
(dp1974
g61
(dp1975
g69
I3
ssg70
g1969
sg63
(lp1976
S'1'
asbasbasbag56
(g72
g58
NtRp1977
(dp1978
g61
(dp1979
sg70
g1961
sg63
(lp1980
g56
(g77
g58
NtRp1981
(dp1982
g61
(dp1983
sg70
g1977
sg63
(lp1984
g56
(g57
g58
NtRp1985
(dp1986
g61
(dp1987
g69
I3
ssg70
g1981
sg63
(lp1988
S'99'
p1989
asbasbasbag56
(g72
g58
NtRp1990
(dp1991
g61
(dp1992
sg70
g1961
sg63
(lp1993
g56
(g77
g58
NtRp1994
(dp1995
g61
(dp1996
sg70
g1990
sg63
(lp1997
g56
(g57
g58
NtRp1998
(dp1999
g61
(dp2000
g69
I3
ssg70
g1994
sg63
(lp2001
S'2'
asbasbasbag56
(g72
g58
NtRp2002
(dp2003
g61
(dp2004
sg70
g1961
sg63
(lp2005
g56
(g77
g58
NtRp2006
(dp2007
g61
(dp2008
sg70
g2002
sg63
(lp2009
g56
(g57
g58
NtRp2010
(dp2011
g61
(dp2012
g69
I3
ssg70
g2006
sg63
(lp2013
S'datetime.datetime(2011, 9, 26, 6, 55, 33)'
p2014
asbasbasbag56
(g72
g58
NtRp2015
(dp2016
g61
(dp2017
sg70
g1961
sg63
(lp2018
g56
(g77
g58
NtRp2019
(dp2020
g61
(dp2021
sg70
g2015
sg63
(lp2022
g56
(g57
g58
NtRp2023
(dp2024
g61
(dp2025
g69
I3
ssg70
g2019
sg63
(lp2026
S'stable'
p2027
asbasbasbasbasbasbasbag56
(g72
g58
NtRp2028
(dp2029
g61
(dp2030
sg70
g1191
sg63
(lp2031
g56
(g77
g58
NtRp2032
(dp2033
g61
(dp2034
g81
g82
ssg70
g2028
sg63
(lp2035
S'wsgi_errors'
p2036
asbag56
(g77
g58
NtRp2037
(dp2038
g61
(dp2039
g88
g89
ssg70
g2028
sg63
(lp2040
S':'
asbag56
(g77
g58
NtRp2041
(dp2042
g61
(dp2043
sg70
g2028
sg63
(lp2044
g56
(g57
g58
NtRp2045
(dp2046
g61
(dp2047
g69
I4
ssg70
g2041
sg63
(lp2048
S"<open file '<stderr>', mode 'w' at 0xb74340d0>"
p2049
asbasbasbag56
(g72
g58
NtRp2050
(dp2051
g61
(dp2052
sg70
g1191
sg63
(lp2053
g56
(g77
g58
NtRp2054
(dp2055
g61
(dp2056
g81
g82
ssg70
g2050
sg63
(lp2057
S'wsgi_file_wrapper'
p2058
asbag56
(g77
g58
NtRp2059
(dp2060
g61
(dp2061
g88
g89
ssg70
g2050
sg63
(lp2062
S':'
asbag56
(g77
g58
NtRp2063
(dp2064
g61
(dp2065
sg70
g2050
sg63
(lp2066
g56
(g57
g58
NtRp2067
(dp2068
g61
(dp2069
g69
I4
ssg70
g2063
sg63
(lp2070
S'<class wsgiref.util.FileWrapper at 0xa57350c>'
p2071
asbasbasbag56
(g72
g58
NtRp2072
(dp2073
g61
(dp2074
sg70
g1191
sg63
(lp2075
g56
(g77
g58
NtRp2076
(dp2077
g61
(dp2078
g81
g82
ssg70
g2072
sg63
(lp2079
S'wsgi_input'
p2080
asbag56
(g77
g58
NtRp2081
(dp2082
g61
(dp2083
g88
g89
ssg70
g2072
sg63
(lp2084
S':'
asbag56
(g77
g58
NtRp2085
(dp2086
g61
(dp2087
sg70
g2072
sg63
(lp2088
g56
(g57
g58
NtRp2089
(dp2090
g61
(dp2091
g69
I4
ssg70
g2085
sg63
(lp2092
S'<socket._fileobject object at 0xaf32cbac>'
p2093
asbasbasbag56
(g72
g58
NtRp2094
(dp2095
g61
(dp2096
sg70
g1191
sg63
(lp2097
g56
(g77
g58
NtRp2098
(dp2099
g61
(dp2100
g81
g82
ssg70
g2094
sg63
(lp2101
S'wsgi_multiprocess'
p2102
asbag56
(g77
g58
NtRp2103
(dp2104
g61
(dp2105
g88
g89
ssg70
g2094
sg63
(lp2106
S':'
asbag56
(g77
g58
NtRp2107
(dp2108
g61
(dp2109
sg70
g2094
sg63
(lp2110
g56
(g57
g58
NtRp2111
(dp2112
g61
(dp2113
g69
I4
ssg70
g2107
sg63
(lp2114
g1351
asbasbasbag56
(g72
g58
NtRp2115
(dp2116
g61
(dp2117
sg70
g1191
sg63
(lp2118
g56
(g77
g58
NtRp2119
(dp2120
g61
(dp2121
g81
g82
ssg70
g2115
sg63
(lp2122
S'wsgi_multithread'
p2123
asbag56
(g77
g58
NtRp2124
(dp2125
g61
(dp2126
g88
g89
ssg70
g2115
sg63
(lp2127
S':'
asbag56
(g77
g58
NtRp2128
(dp2129
g61
(dp2130
sg70
g2115
sg63
(lp2131
g56
(g57
g58
NtRp2132
(dp2133
g61
(dp2134
g69
I4
ssg70
g2128
sg63
(lp2135
g99
asbasbasbag56
(g72
g58
NtRp2136
(dp2137
g61
(dp2138
sg70
g1191
sg63
(lp2139
g56
(g77
g58
NtRp2140
(dp2141
g61
(dp2142
g81
g82
ssg70
g2136
sg63
(lp2143
S'wsgi_run_once'
p2144
asbag56
(g77
g58
NtRp2145
(dp2146
g61
(dp2147
g88
g89
ssg70
g2136
sg63
(lp2148
S':'
asbag56
(g77
g58
NtRp2149
(dp2150
g61
(dp2151
sg70
g2136
sg63
(lp2152
g56
(g57
g58
NtRp2153
(dp2154
g61
(dp2155
g69
I4
ssg70
g2149
sg63
(lp2156
g1351
asbasbasbag56
(g72
g58
NtRp2157
(dp2158
g61
(dp2159
sg70
g1191
sg63
(lp2160
g56
(g77
g58
NtRp2161
(dp2162
g61
(dp2163
g81
g82
ssg70
g2157
sg63
(lp2164
S'wsgi_url_scheme'
p2165
asbag56
(g77
g58
NtRp2166
(dp2167
g61
(dp2168
g88
g89
ssg70
g2157
sg63
(lp2169
S':'
asbag56
(g77
g58
NtRp2170
(dp2171
g61
(dp2172
sg70
g2157
sg63
(lp2173
g56
(g57
g58
NtRp2174
(dp2175
g61
(dp2176
g69
I4
ssg70
g2170
sg63
(lp2177
S'http'
p2178
asbasbasbag56
(g72
g58
NtRp2179
(dp2180
g61
(dp2181
sg70
g1191
sg63
(lp2182
g56
(g77
g58
NtRp2183
(dp2184
g61
(dp2185
g81
g82
ssg70
g2179
sg63
(lp2186
S'wsgi_version'
p2187
asbag56
(g77
g58
NtRp2188
(dp2189
g61
(dp2190
g88
g89
ssg70
g2179
sg63
(lp2191
S':'
asbag56
(g77
g58
NtRp2192
(dp2193
g61
(dp2194
sg70
g2179
sg63
(lp2195
g56
(g57
g58
NtRp2196
(dp2197
g61
(dp2198
g69
I4
ssg70
g2192
sg63
(lp2199
g56
(g65
g58
NtRp2200
(dp2201
g61
(dp2202
g69
I3
ssg70
Nsg63
(lp2203
g56
(g72
g58
NtRp2204
(dp2205
g61
(dp2206
sg70
g2200
sg63
(lp2207
g56
(g77
g58
NtRp2208
(dp2209
g61
(dp2210
sg70
g2204
sg63
(lp2211
g56
(g57
g58
NtRp2212
(dp2213
g61
(dp2214
g69
I3
ssg70
g2208
sg63
(lp2215
S'1'
asbasbasbag56
(g72
g58
NtRp2216
(dp2217
g61
(dp2218
sg70
g2200
sg63
(lp2219
g56
(g77
g58
NtRp2220
(dp2221
g61
(dp2222
sg70
g2216
sg63
(lp2223
g56
(g57
g58
NtRp2224
(dp2225
g61
(dp2226
g69
I3
ssg70
g2220
sg63
(lp2227
S'0'
asbasbasbasbasbasbasbasbasbasbasbag56
(g72
g58
NtRp2228
(dp2229
g61
(dp2230
sg70
g66
sg63
(lp2231
g56
(g77
g58
NtRp2232
(dp2233
g61
(dp2234
g81
g82
ssg70
g2228
sg63
(lp2235
S'extension'
p2236
asbag56
(g77
g58
NtRp2237
(dp2238
g61
(dp2239
g88
g89
ssg70
g2228
sg63
(lp2240
S':'
asbag56
(g77
g58
NtRp2241
(dp2242
g61
(dp2243
sg70
g2228
sg63
(lp2244
g56
(g57
g58
NtRp2245
(dp2246
g61
(dp2247
g69
I5
ssg70
g2241
sg63
(lp2248
S'json'
p2249
asbasbasbag56
(g72
g58
NtRp2250
(dp2251
g61
(dp2252
sg70
g66
sg63
(lp2253
g56
(g77
g58
NtRp2254
(dp2255
g61
(dp2256
g81
g82
ssg70
g2250
sg63
(lp2257
S'folder'
p2258
asbag56
(g77
g58
NtRp2259
(dp2260
g61
(dp2261
g88
g89
ssg70
g2250
sg63
(lp2262
S':'
asbag56
(g77
g58
NtRp2263
(dp2264
g61
(dp2265
sg70
g2250
sg63
(lp2266
g56
(g57
g58
NtRp2267
(dp2268
g61
(dp2269
g69
I5
ssg70
g2263
sg63
(lp2270
S'/home/brencam/web2py/applications/gallery/'
p2271
asbasbasbag56
(g72
g58
NtRp2272
(dp2273
g61
(dp2274
sg70
g66
sg63
(lp2275
g56
(g77
g58
NtRp2276
(dp2277
g61
(dp2278
g81
g82
ssg70
g2272
sg63
(lp2279
S'function'
p2280
asbag56
(g77
g58
NtRp2281
(dp2282
g61
(dp2283
g88
g89
ssg70
g2272
sg63
(lp2284
S':'
asbag56
(g77
g58
NtRp2285
(dp2286
g61
(dp2287
sg70
g2272
sg63
(lp2288
g56
(g57
g58
NtRp2289
(dp2290
g61
(dp2291
g69
I5
ssg70
g2285
sg63
(lp2292
S'xmlgettags'
p2293
asbasbasbag56
(g72
g58
NtRp2294
(dp2295
g61
(dp2296
sg70
g66
sg63
(lp2297
g56
(g77
g58
NtRp2298
(dp2299
g61
(dp2300
g81
g82
ssg70
g2294
sg63
(lp2301
S'get_vars'
p2302
asbag56
(g77
g58
NtRp2303
(dp2304
g61
(dp2305
g88
g89
ssg70
g2294
sg63
(lp2306
S':'
asbag56
(g77
g58
NtRp2307
(dp2308
g61
(dp2309
sg70
g2294
sg63
(lp2310
g56
(g57
g58
NtRp2311
(dp2312
g61
(dp2313
g69
I5
ssg70
g2307
sg63
(lp2314
g56
(g65
g58
NtRp2315
(dp2316
g61
(dp2317
g69
I4
ssg70
Nsg63
(lp2318
sbasbasbasbag56
(g72
g58
NtRp2319
(dp2320
g61
(dp2321
sg70
g66
sg63
(lp2322
g56
(g77
g58
NtRp2323
(dp2324
g61
(dp2325
g81
g82
ssg70
g2319
sg63
(lp2326
S'global_settings'
p2327
asbag56
(g77
g58
NtRp2328
(dp2329
g61
(dp2330
g88
g89
ssg70
g2319
sg63
(lp2331
S':'
asbag56
(g77
g58
NtRp2332
(dp2333
g61
(dp2334
sg70
g2319
sg63
(lp2335
g56
(g57
g58
NtRp2336
(dp2337
g61
(dp2338
g69
I5
ssg70
g2332
sg63
(lp2339
g56
(g65
g58
NtRp2340
(dp2341
g61
(dp2342
g69
I4
ssg70
Nsg63
(lp2343
g56
(g72
g58
NtRp2344
(dp2345
g61
(dp2346
sg70
g2340
sg63
(lp2347
g56
(g77
g58
NtRp2348
(dp2349
g61
(dp2350
g81
g82
ssg70
g2344
sg63
(lp2351
g1203
asbag56
(g77
g58
NtRp2352
(dp2353
g61
(dp2354
g88
g89
ssg70
g2344
sg63
(lp2355
S':'
asbag56
(g77
g58
NtRp2356
(dp2357
g61
(dp2358
sg70
g2344
sg63
(lp2359
g56
(g57
g58
NtRp2360
(dp2361
g61
(dp2362
g69
I4
ssg70
g2356
sg63
(lp2363
S"set(['/home/brencam/web2py/applications/admin/', '/home/brencam/web2py/applications/gallery/'])"
p2364
asbasbasbag56
(g72
g58
NtRp2365
(dp2366
g61
(dp2367
sg70
g2340
sg63
(lp2368
g56
(g77
g58
NtRp2369
(dp2370
g61
(dp2371
g81
g82
ssg70
g2365
sg63
(lp2372
g1225
asbag56
(g77
g58
NtRp2373
(dp2374
g61
(dp2375
g88
g89
ssg70
g2365
sg63
(lp2376
S':'
asbag56
(g77
g58
NtRp2377
(dp2378
g61
(dp2379
sg70
g2365
sg63
(lp2380
g56
(g57
g58
NtRp2381
(dp2382
g61
(dp2383
g69
I4
ssg70
g2377
sg63
(lp2384
g1238
asbasbasbag56
(g72
g58
NtRp2385
(dp2386
g61
(dp2387
sg70
g2340
sg63
(lp2388
g56
(g77
g58
NtRp2389
(dp2390
g61
(dp2391
g81
g82
ssg70
g2385
sg63
(lp2392
g1247
asbag56
(g77
g58
NtRp2393
(dp2394
g61
(dp2395
g88
g89
ssg70
g2385
sg63
(lp2396
S':'
asbag56
(g77
g58
NtRp2397
(dp2398
g61
(dp2399
sg70
g2385
sg63
(lp2400
g56
(g57
g58
NtRp2401
(dp2402
g61
(dp2403
g69
I4
ssg70
g2397
sg63
(lp2404
g56
(g65
g58
NtRp2405
(dp2406
g61
(dp2407
g69
I3
ssg70
Nsg63
(lp2408
sbasbasbasbag56
(g72
g58
NtRp2409
(dp2410
g61
(dp2411
sg70
g2340
sg63
(lp2412
g56
(g77
g58
NtRp2413
(dp2414
g61
(dp2415
g81
g82
ssg70
g2409
sg63
(lp2416
g1272
asbag56
(g77
g58
NtRp2417
(dp2418
g61
(dp2419
g88
g89
ssg70
g2409
sg63
(lp2420
S':'
asbag56
(g77
g58
NtRp2421
(dp2422
g61
(dp2423
sg70
g2409
sg63
(lp2424
g56
(g57
g58
NtRp2425
(dp2426
g61
(dp2427
g69
I4
ssg70
g2421
sg63
(lp2428
S"<Values at 0xa97628c: {'verbose': False, 'ip': '127.0.0.1', 'shutdown_timeout': 5, 'taskbar': False, 'nocron': False, 'pid_filename': 'httpserver.pid', 'maxthreads': None, 'softcron': False, 'server_name': 'localhost.localdomain', 'bpython': False, 'nogui': True, 'port': 8000, 'extcron': False, 'debuglevel': 30, 'test': None, 'folder': '/home/brencam/web2py', 'config': '', 'import_models': False, 'winservice': '', 'shell': None, 'run': '', 'log_filename': 'httpserver.log', 'args': [''], 'ssl_ca_certificate': None, 'scheduler': None, 'profiler_filename': None, 'ssl_private_key': '', 'password': 'admin', 'request_queue_size': 5, 'ssl_certificate': '', 'cronjob': False, 'plain': False, 'quiet': False, 'interfaces': None, 'minthreads': None, 'timeout': 10, 'numthreads': None, 'nobanner': False}>"
p2429
asbasbasbag56
(g72
g58
NtRp2430
(dp2431
g61
(dp2432
sg70
g2340
sg63
(lp2433
g56
(g77
g58
NtRp2434
(dp2435
g61
(dp2436
g81
g82
ssg70
g2430
sg63
(lp2437
g1316
asbag56
(g77
g58
NtRp2438
(dp2439
g61
(dp2440
g88
g89
ssg70
g2430
sg63
(lp2441
S':'
asbag56
(g77
g58
NtRp2442
(dp2443
g61
(dp2444
sg70
g2430
sg63
(lp2445
g56
(g57
g58
NtRp2446
(dp2447
g61
(dp2448
g69
I4
ssg70
g2442
sg63
(lp2449
S'set([])'
p2450
asbasbasbag56
(g72
g58
NtRp2451
(dp2452
g61
(dp2453
sg70
g2340
sg63
(lp2454
g56
(g77
g58
NtRp2455
(dp2456
g61
(dp2457
g81
g82
ssg70
g2451
sg63
(lp2458
g1338
asbag56
(g77
g58
NtRp2459
(dp2460
g61
(dp2461
g88
g89
ssg70
g2451
sg63
(lp2462
S':'
asbag56
(g77
g58
NtRp2463
(dp2464
g61
(dp2465
sg70
g2451
sg63
(lp2466
g56
(g57
g58
NtRp2467
(dp2468
g61
(dp2469
g69
I4
ssg70
g2463
sg63
(lp2470
g1351
asbasbasbag56
(g72
g58
NtRp2471
(dp2472
g61
(dp2473
sg70
g2340
sg63
(lp2474
g56
(g77
g58
NtRp2475
(dp2476
g61
(dp2477
g81
g82
ssg70
g2471
sg63
(lp2478
g1360
asbag56
(g77
g58
NtRp2479
(dp2480
g61
(dp2481
g88
g89
ssg70
g2471
sg63
(lp2482
S':'
asbag56
(g77
g58
NtRp2483
(dp2484
g61
(dp2485
sg70
g2471
sg63
(lp2486
g56
(g57
g58
NtRp2487
(dp2488
g61
(dp2489
g69
I4
ssg70
g2483
sg63
(lp2490
g1373
asbasbasbag56
(g72
g58
NtRp2491
(dp2492
g61
(dp2493
sg70
g2340
sg63
(lp2494
g56
(g77
g58
NtRp2495
(dp2496
g61
(dp2497
g81
g82
ssg70
g2491
sg63
(lp2498
g1667
asbag56
(g77
g58
NtRp2499
(dp2500
g61
(dp2501
g88
g89
ssg70
g2491
sg63
(lp2502
S':'
asbag56
(g77
g58
NtRp2503
(dp2504
g61
(dp2505
sg70
g2491
sg63
(lp2506
g56
(g57
g58
NtRp2507
(dp2508
g61
(dp2509
g69
I4
ssg70
g2503
sg63
(lp2510
g1351
asbasbasbag56
(g72
g58
NtRp2511
(dp2512
g61
(dp2513
sg70
g2340
sg63
(lp2514
g56
(g77
g58
NtRp2515
(dp2516
g61
(dp2517
g81
g82
ssg70
g2511
sg63
(lp2518
g1905
asbag56
(g77
g58
NtRp2519
(dp2520
g61
(dp2521
g88
g89
ssg70
g2511
sg63
(lp2522
S':'
asbag56
(g77
g58
NtRp2523
(dp2524
g61
(dp2525
sg70
g2511
sg63
(lp2526
g56
(g57
g58
NtRp2527
(dp2528
g61
(dp2529
g69
I4
ssg70
g2523
sg63
(lp2530
g1918
asbasbasbag56
(g72
g58
NtRp2531
(dp2532
g61
(dp2533
sg70
g2340
sg63
(lp2534
g56
(g77
g58
NtRp2535
(dp2536
g61
(dp2537
g81
g82
ssg70
g2531
sg63
(lp2538
g1948
asbag56
(g77
g58
NtRp2539
(dp2540
g61
(dp2541
g88
g89
ssg70
g2531
sg63
(lp2542
S':'
asbag56
(g77
g58
NtRp2543
(dp2544
g61
(dp2545
sg70
g2531
sg63
(lp2546
g56
(g57
g58
NtRp2547
(dp2548
g61
(dp2549
g69
I4
ssg70
g2543
sg63
(lp2550
g56
(g65
g58
NtRp2551
(dp2552
g61
(dp2553
g69
I3
ssg70
Nsg63
(lp2554
g56
(g72
g58
NtRp2555
(dp2556
g61
(dp2557
sg70
g2551
sg63
(lp2558
g56
(g77
g58
NtRp2559
(dp2560
g61
(dp2561
sg70
g2555
sg63
(lp2562
g56
(g57
g58
NtRp2563
(dp2564
g61
(dp2565
g69
I3
ssg70
g2559
sg63
(lp2566
S'1'
asbasbasbag56
(g72
g58
NtRp2567
(dp2568
g61
(dp2569
sg70
g2551
sg63
(lp2570
g56
(g77
g58
NtRp2571
(dp2572
g61
(dp2573
sg70
g2567
sg63
(lp2574
g56
(g57
g58
NtRp2575
(dp2576
g61
(dp2577
g69
I3
ssg70
g2571
sg63
(lp2578
S'99'
p2579
asbasbasbag56
(g72
g58
NtRp2580
(dp2581
g61
(dp2582
sg70
g2551
sg63
(lp2583
g56
(g77
g58
NtRp2584
(dp2585
g61
(dp2586
sg70
g2580
sg63
(lp2587
g56
(g57
g58
NtRp2588
(dp2589
g61
(dp2590
g69
I3
ssg70
g2584
sg63
(lp2591
S'2'
asbasbasbag56
(g72
g58
NtRp2592
(dp2593
g61
(dp2594
sg70
g2551
sg63
(lp2595
g56
(g77
g58
NtRp2596
(dp2597
g61
(dp2598
sg70
g2592
sg63
(lp2599
g56
(g57
g58
NtRp2600
(dp2601
g61
(dp2602
g69
I3
ssg70
g2596
sg63
(lp2603
S'datetime.datetime(2011, 9, 26, 6, 55, 33)'
p2604
asbasbasbag56
(g72
g58
NtRp2605
(dp2606
g61
(dp2607
sg70
g2551
sg63
(lp2608
g56
(g77
g58
NtRp2609
(dp2610
g61
(dp2611
sg70
g2605
sg63
(lp2612
g56
(g57
g58
NtRp2613
(dp2614
g61
(dp2615
g69
I3
ssg70
g2609
sg63
(lp2616
g2027
asbasbasbasbasbasbasbasbasbasbasbag56
(g72
g58
NtRp2617
(dp2618
g61
(dp2619
sg70
g66
sg63
(lp2620
g56
(g77
g58
NtRp2621
(dp2622
g61
(dp2623
g81
g82
ssg70
g2617
sg63
(lp2624
S'is_https'
p2625
asbag56
(g77
g58
NtRp2626
(dp2627
g61
(dp2628
g88
g89
ssg70
g2617
sg63
(lp2629
S':'
asbag56
(g77
g58
NtRp2630
(dp2631
g61
(dp2632
sg70
g2617
sg63
(lp2633
g56
(g57
g58
NtRp2634
(dp2635
g61
(dp2636
g69
I5
ssg70
g2630
sg63
(lp2637
g1351
asbasbasbag56
(g72
g58
NtRp2638
(dp2639
g61
(dp2640
sg70
g66
sg63
(lp2641
g56
(g77
g58
NtRp2642
(dp2643
g61
(dp2644
g81
g82
ssg70
g2638
sg63
(lp2645
S'is_local'
p2646
asbag56
(g77
g58
NtRp2647
(dp2648
g61
(dp2649
g88
g89
ssg70
g2638
sg63
(lp2650
S':'
asbag56
(g77
g58
NtRp2651
(dp2652
g61
(dp2653
sg70
g2638
sg63
(lp2654
g56
(g57
g58
NtRp2655
(dp2656
g61
(dp2657
g69
I5
ssg70
g2651
sg63
(lp2658
g99
asbasbasbag56
(g72
g58
NtRp2659
(dp2660
g61
(dp2661
sg70
g66
sg63
(lp2662
g56
(g77
g58
NtRp2663
(dp2664
g61
(dp2665
g81
g82
ssg70
g2659
sg63
(lp2666
S'is_restful'
p2667
asbag56
(g77
g58
NtRp2668
(dp2669
g61
(dp2670
g88
g89
ssg70
g2659
sg63
(lp2671
S':'
asbag56
(g77
g58
NtRp2672
(dp2673
g61
(dp2674
sg70
g2659
sg63
(lp2675
g56
(g57
g58
NtRp2676
(dp2677
g61
(dp2678
g69
I5
ssg70
g2672
sg63
(lp2679
g1351
asbasbasbag56
(g72
g58
NtRp2680
(dp2681
g61
(dp2682
sg70
g66
sg63
(lp2683
g56
(g77
g58
NtRp2684
(dp2685
g61
(dp2686
g81
g82
ssg70
g2680
sg63
(lp2687
S'now'
p2688
asbag56
(g77
g58
NtRp2689
(dp2690
g61
(dp2691
g88
g89
ssg70
g2680
sg63
(lp2692
S':'
asbag56
(g77
g58
NtRp2693
(dp2694
g61
(dp2695
sg70
g2680
sg63
(lp2696
g56
(g57
g58
NtRp2697
(dp2698
g61
(dp2699
g69
I5
ssg70
g2693
sg63
(lp2700
S'datetime.datetime(2011, 11, 5, 12, 17, 39, 903766)'
p2701
asbasbasbag56
(g72
g58
NtRp2702
(dp2703
g61
(dp2704
sg70
g66
sg63
(lp2705
g56
(g77
g58
NtRp2706
(dp2707
g61
(dp2708
g81
g82
ssg70
g2702
sg63
(lp2709
S'post_vars'
p2710
asbag56
(g77
g58
NtRp2711
(dp2712
g61
(dp2713
g88
g89
ssg70
g2702
sg63
(lp2714
S':'
asbag56
(g77
g58
NtRp2715
(dp2716
g61
(dp2717
sg70
g2702
sg63
(lp2718
g56
(g57
g58
NtRp2719
(dp2720
g61
(dp2721
g69
I5
ssg70
g2715
sg63
(lp2722
g56
(g65
g58
NtRp2723
(dp2724
g61
(dp2725
g69
I4
ssg70
Nsg63
(lp2726
sbasbasbasbag56
(g72
g58
NtRp2727
(dp2728
g61
(dp2729
sg70
g66
sg63
(lp2730
g56
(g77
g58
NtRp2731
(dp2732
g61
(dp2733
g81
g82
ssg70
g2727
sg63
(lp2734
S'raw_extension'
p2735
asbag56
(g77
g58
NtRp2736
(dp2737
g61
(dp2738
g88
g89
ssg70
g2727
sg63
(lp2739
S':'
asbag56
(g77
g58
NtRp2740
(dp2741
g61
(dp2742
sg70
g2727
sg63
(lp2743
g56
(g57
g58
NtRp2744
(dp2745
g61
(dp2746
g69
I5
ssg70
g2740
sg63
(lp2747
g2249
asbasbasbag56
(g72
g58
NtRp2748
(dp2749
g61
(dp2750
sg70
g66
sg63
(lp2751
g56
(g77
g58
NtRp2752
(dp2753
g61
(dp2754
g81
g82
ssg70
g2748
sg63
(lp2755
S'url'
p2756
asbag56
(g77
g58
NtRp2757
(dp2758
g61
(dp2759
g88
g89
ssg70
g2748
sg63
(lp2760
S':'
asbag56
(g77
g58
NtRp2761
(dp2762
g61
(dp2763
sg70
g2748
sg63
(lp2764
g56
(g57
g58
NtRp2765
(dp2766
g61
(dp2767
g69
I5
ssg70
g2761
sg63
(lp2768
S'/gallery/search/xmlgettags.json'
p2769
asbasbasbag56
(g72
g58
NtRp2770
(dp2771
g61
(dp2772
sg70
g66
sg63
(lp2773
g56
(g77
g58
NtRp2774
(dp2775
g61
(dp2776
g81
g82
ssg70
g2770
sg63
(lp2777
S'utcnow'
p2778
asbag56
(g77
g58
NtRp2779
(dp2780
g61
(dp2781
g88
g89
ssg70
g2770
sg63
(lp2782
S':'
asbag56
(g77
g58
NtRp2783
(dp2784
g61
(dp2785
sg70
g2770
sg63
(lp2786
g56
(g57
g58
NtRp2787
(dp2788
g61
(dp2789
g69
I5
ssg70
g2783
sg63
(lp2790
S'datetime.datetime(2011, 11, 5, 19, 17, 39, 903794)'
p2791
asbasbasbag56
(g72
g58
NtRp2792
(dp2793
g61
(dp2794
sg70
g66
sg63
(lp2795
g56
(g77
g58
NtRp2796
(dp2797
g61
(dp2798
g81
g82
ssg70
g2792
sg63
(lp2799
S'uuid'
p2800
asbag56
(g77
g58
NtRp2801
(dp2802
g61
(dp2803
g88
g89
ssg70
g2792
sg63
(lp2804
S':'
asbag56
(g77
g58
NtRp2805
(dp2806
g61
(dp2807
sg70
g2792
sg63
(lp2808
g56
(g57
g58
NtRp2809
(dp2810
g61
(dp2811
g69
I5
ssg70
g2805
sg63
(lp2812
S'gallery/127.0.0.1.2011-11-05.12-17-39.a8bcc964-8890-4574-b04b-ca1ceab08b9f'
p2813
asbasbasbag56
(g72
g58
NtRp2814
(dp2815
g61
(dp2816
sg70
g66
sg63
(lp2817
g56
(g77
g58
NtRp2818
(dp2819
g61
(dp2820
g81
g82
ssg70
g2814
sg63
(lp2821
S'vars'
p2822
asbag56
(g77
g58
NtRp2823
(dp2824
g61
(dp2825
g88
g89
ssg70
g2814
sg63
(lp2826
S':'
asbag56
(g77
g58
NtRp2827
(dp2828
g61
(dp2829
sg70
g2814
sg63
(lp2830
g56
(g57
g58
NtRp2831
(dp2832
g61
(dp2833
g69
I5
ssg70
g2827
sg63
(lp2834
g56
(g65
g58
NtRp2835
(dp2836
g61
(dp2837
g69
I4
ssg70
Nsg63
(lp2838
sbasbasbasbag56
(g72
g58
NtRp2839
(dp2840
g61
(dp2841
sg70
g66
sg63
(lp2842
g56
(g77
g58
NtRp2843
(dp2844
g61
(dp2845
g81
g82
ssg70
g2839
sg63
(lp2846
S'wsgi'
p2847
asbag56
(g77
g58
NtRp2848
(dp2849
g61
(dp2850
g88
g89
ssg70
g2839
sg63
(lp2851
S':'
asbag56
(g77
g58
NtRp2852
(dp2853
g61
(dp2854
sg70
g2839
sg63
(lp2855
g56
(g57
g58
NtRp2856
(dp2857
g61
(dp2858
g69
I5
ssg70
g2852
sg63
(lp2859
g56
(g65
g58
NtRp2860
(dp2861
g61
(dp2862
g69
I4
ssg70
Nsg63
(lp2863
g56
(g72
g58
NtRp2864
(dp2865
g61
(dp2866
sg70
g2860
sg63
(lp2867
g56
(g77
g58
NtRp2868
(dp2869
g61
(dp2870
g81
g82
ssg70
g2864
sg63
(lp2871
S'environ'
p2872
asbag56
(g77
g58
NtRp2873
(dp2874
g61
(dp2875
g88
g89
ssg70
g2864
sg63
(lp2876
S':'
asbag56
(g77
g58
NtRp2877
(dp2878
g61
(dp2879
sg70
g2864
sg63
(lp2880
g56
(g57
g58
NtRp2881
(dp2882
g61
(dp2883
g69
I4
ssg70
g2877
sg63
(lp2884
g56
(g65
g58
NtRp2885
(dp2886
g61
(dp2887
g69
I3
ssg70
Nsg63
(lp2888
g56
(g72
g58
NtRp2889
(dp2890
g61
(dp2891
sg70
g2885
sg63
(lp2892
g56
(g77
g58
NtRp2893
(dp2894
g61
(dp2895
g81
g82
ssg70
g2889
sg63
(lp2896
S'CONTENT_TYPE'
p2897
asbag56
(g77
g58
NtRp2898
(dp2899
g61
(dp2900
g88
g89
ssg70
g2889
sg63
(lp2901
S':'
asbag56
(g77
g58
NtRp2902
(dp2903
g61
(dp2904
sg70
g2889
sg63
(lp2905
g56
(g57
g58
NtRp2906
(dp2907
g61
(dp2908
g69
I3
ssg70
g2902
sg63
(lp2909
g1307
asbasbasbag56
(g72
g58
NtRp2910
(dp2911
g61
(dp2912
sg70
g2885
sg63
(lp2913
g56
(g77
g58
NtRp2914
(dp2915
g61
(dp2916
g81
g82
ssg70
g2910
sg63
(lp2917
S'HTTP_ACCEPT'
p2918
asbag56
(g77
g58
NtRp2919
(dp2920
g61
(dp2921
g88
g89
ssg70
g2910
sg63
(lp2922
S':'
asbag56
(g77
g58
NtRp2923
(dp2924
g61
(dp2925
sg70
g2910
sg63
(lp2926
g56
(g57
g58
NtRp2927
(dp2928
g61
(dp2929
g69
I3
ssg70
g2923
sg63
(lp2930
g1395
asbasbasbag56
(g72
g58
NtRp2931
(dp2932
g61
(dp2933
sg70
g2885
sg63
(lp2934
g56
(g77
g58
NtRp2935
(dp2936
g61
(dp2937
g81
g82
ssg70
g2931
sg63
(lp2938
S'HTTP_ACCEPT_CHARSET'
p2939
asbag56
(g77
g58
NtRp2940
(dp2941
g61
(dp2942
g88
g89
ssg70
g2931
sg63
(lp2943
S':'
asbag56
(g77
g58
NtRp2944
(dp2945
g61
(dp2946
sg70
g2931
sg63
(lp2947
g56
(g57
g58
NtRp2948
(dp2949
g61
(dp2950
g69
I3
ssg70
g2944
sg63
(lp2951
g1417
asbasbasbag56
(g72
g58
NtRp2952
(dp2953
g61
(dp2954
sg70
g2885
sg63
(lp2955
g56
(g77
g58
NtRp2956
(dp2957
g61
(dp2958
g81
g82
ssg70
g2952
sg63
(lp2959
S'HTTP_ACCEPT_ENCODING'
p2960
asbag56
(g77
g58
NtRp2961
(dp2962
g61
(dp2963
g88
g89
ssg70
g2952
sg63
(lp2964
S':'
asbag56
(g77
g58
NtRp2965
(dp2966
g61
(dp2967
sg70
g2952
sg63
(lp2968
g56
(g57
g58
NtRp2969
(dp2970
g61
(dp2971
g69
I3
ssg70
g2965
sg63
(lp2972
g1439
asbasbasbag56
(g72
g58
NtRp2973
(dp2974
g61
(dp2975
sg70
g2885
sg63
(lp2976
g56
(g77
g58
NtRp2977
(dp2978
g61
(dp2979
g81
g82
ssg70
g2973
sg63
(lp2980
S'HTTP_ACCEPT_LANGUAGE'
p2981
asbag56
(g77
g58
NtRp2982
(dp2983
g61
(dp2984
g88
g89
ssg70
g2973
sg63
(lp2985
S':'
asbag56
(g77
g58
NtRp2986
(dp2987
g61
(dp2988
sg70
g2973
sg63
(lp2989
g56
(g57
g58
NtRp2990
(dp2991
g61
(dp2992
g69
I3
ssg70
g2986
sg63
(lp2993
g1461
asbasbasbag56
(g72
g58
NtRp2994
(dp2995
g61
(dp2996
sg70
g2885
sg63
(lp2997
g56
(g77
g58
NtRp2998
(dp2999
g61
(dp3000
g81
g82
ssg70
g2994
sg63
(lp3001
S'HTTP_CACHE_CONTROL'
p3002
asbag56
(g77
g58
NtRp3003
(dp3004
g61
(dp3005
g88
g89
ssg70
g2994
sg63
(lp3006
S':'
asbag56
(g77
g58
NtRp3007
(dp3008
g61
(dp3009
sg70
g2994
sg63
(lp3010
g56
(g57
g58
NtRp3011
(dp3012
g61
(dp3013
g69
I3
ssg70
g3007
sg63
(lp3014
g1483
asbasbasbag56
(g72
g58
NtRp3015
(dp3016
g61
(dp3017
sg70
g2885
sg63
(lp3018
g56
(g77
g58
NtRp3019
(dp3020
g61
(dp3021
g81
g82
ssg70
g3015
sg63
(lp3022
S'HTTP_CONNECTION'
p3023
asbag56
(g77
g58
NtRp3024
(dp3025
g61
(dp3026
g88
g89
ssg70
g3015
sg63
(lp3027
S':'
asbag56
(g77
g58
NtRp3028
(dp3029
g61
(dp3030
sg70
g3015
sg63
(lp3031
g56
(g57
g58
NtRp3032
(dp3033
g61
(dp3034
g69
I3
ssg70
g3028
sg63
(lp3035
g1505
asbasbasbag56
(g72
g58
NtRp3036
(dp3037
g61
(dp3038
sg70
g2885
sg63
(lp3039
g56
(g77
g58
NtRp3040
(dp3041
g61
(dp3042
g81
g82
ssg70
g3036
sg63
(lp3043
S'HTTP_CONTENT_TYPE'
p3044
asbag56
(g77
g58
NtRp3045
(dp3046
g61
(dp3047
g88
g89
ssg70
g3036
sg63
(lp3048
S':'
asbag56
(g77
g58
NtRp3049
(dp3050
g61
(dp3051
sg70
g3036
sg63
(lp3052
g56
(g57
g58
NtRp3053
(dp3054
g61
(dp3055
g69
I3
ssg70
g3049
sg63
(lp3056
g1307
asbasbasbag56
(g72
g58
NtRp3057
(dp3058
g61
(dp3059
sg70
g2885
sg63
(lp3060
g56
(g77
g58
NtRp3061
(dp3062
g61
(dp3063
g81
g82
ssg70
g3057
sg63
(lp3064
S'HTTP_COOKIE'
p3065
asbag56
(g77
g58
NtRp3066
(dp3067
g61
(dp3068
g88
g89
ssg70
g3057
sg63
(lp3069
S':'
asbag56
(g77
g58
NtRp3070
(dp3071
g61
(dp3072
sg70
g3057
sg63
(lp3073
g56
(g57
g58
NtRp3074
(dp3075
g61
(dp3076
g69
I3
ssg70
g3070
sg63
(lp3077
g1548
asbasbasbag56
(g72
g58
NtRp3078
(dp3079
g61
(dp3080
sg70
g2885
sg63
(lp3081
g56
(g77
g58
NtRp3082
(dp3083
g61
(dp3084
g81
g82
ssg70
g3078
sg63
(lp3085
S'HTTP_HOST'
p3086
asbag56
(g77
g58
NtRp3087
(dp3088
g61
(dp3089
g88
g89
ssg70
g3078
sg63
(lp3090
S':'
asbag56
(g77
g58
NtRp3091
(dp3092
g61
(dp3093
sg70
g3078
sg63
(lp3094
g56
(g57
g58
NtRp3095
(dp3096
g61
(dp3097
g69
I3
ssg70
g3091
sg63
(lp3098
g1570
asbasbasbag56
(g72
g58
NtRp3099
(dp3100
g61
(dp3101
sg70
g2885
sg63
(lp3102
g56
(g77
g58
NtRp3103
(dp3104
g61
(dp3105
g81
g82
ssg70
g3099
sg63
(lp3106
S'HTTP_PRAGMA'
p3107
asbag56
(g77
g58
NtRp3108
(dp3109
g61
(dp3110
g88
g89
ssg70
g3099
sg63
(lp3111
S':'
asbag56
(g77
g58
NtRp3112
(dp3113
g61
(dp3114
sg70
g3099
sg63
(lp3115
g56
(g57
g58
NtRp3116
(dp3117
g61
(dp3118
g69
I3
ssg70
g3112
sg63
(lp3119
g1592
asbasbasbag56
(g72
g58
NtRp3120
(dp3121
g61
(dp3122
sg70
g2885
sg63
(lp3123
g56
(g77
g58
NtRp3124
(dp3125
g61
(dp3126
g81
g82
ssg70
g3120
sg63
(lp3127
S'HTTP_REFERER'
p3128
asbag56
(g77
g58
NtRp3129
(dp3130
g61
(dp3131
g88
g89
ssg70
g3120
sg63
(lp3132
S':'
asbag56
(g77
g58
NtRp3133
(dp3134
g61
(dp3135
sg70
g3120
sg63
(lp3136
g56
(g57
g58
NtRp3137
(dp3138
g61
(dp3139
g69
I3
ssg70
g3133
sg63
(lp3140
g1614
asbasbasbag56
(g72
g58
NtRp3141
(dp3142
g61
(dp3143
sg70
g2885
sg63
(lp3144
g56
(g77
g58
NtRp3145
(dp3146
g61
(dp3147
g81
g82
ssg70
g3141
sg63
(lp3148
S'HTTP_USER_AGENT'
p3149
asbag56
(g77
g58
NtRp3150
(dp3151
g61
(dp3152
g88
g89
ssg70
g3141
sg63
(lp3153
S':'
asbag56
(g77
g58
NtRp3154
(dp3155
g61
(dp3156
sg70
g3141
sg63
(lp3157
g56
(g57
g58
NtRp3158
(dp3159
g61
(dp3160
g69
I3
ssg70
g3154
sg63
(lp3161
g1636
asbasbasbag56
(g72
g58
NtRp3162
(dp3163
g61
(dp3164
sg70
g2885
sg63
(lp3165
g56
(g77
g58
NtRp3166
(dp3167
g61
(dp3168
g81
g82
ssg70
g3162
sg63
(lp3169
S'HTTP_X_REQUESTED_WITH'
p3170
asbag56
(g77
g58
NtRp3171
(dp3172
g61
(dp3173
g88
g89
ssg70
g3162
sg63
(lp3174
S':'
asbag56
(g77
g58
NtRp3175
(dp3176
g61
(dp3177
sg70
g3162
sg63
(lp3178
g56
(g57
g58
NtRp3179
(dp3180
g61
(dp3181
g69
I3
ssg70
g3175
sg63
(lp3182
g1658
asbasbasbag56
(g72
g58
NtRp3183
(dp3184
g61
(dp3185
sg70
g2885
sg63
(lp3186
g56
(g77
g58
NtRp3187
(dp3188
g61
(dp3189
g81
g82
ssg70
g3183
sg63
(lp3190
S'PATH_INFO'
p3191
asbag56
(g77
g58
NtRp3192
(dp3193
g61
(dp3194
g88
g89
ssg70
g3183
sg63
(lp3195
S':'
asbag56
(g77
g58
NtRp3196
(dp3197
g61
(dp3198
sg70
g3183
sg63
(lp3199
g56
(g57
g58
NtRp3200
(dp3201
g61
(dp3202
g69
I3
ssg70
g3196
sg63
(lp3203
g1701
asbasbasbag56
(g72
g58
NtRp3204
(dp3205
g61
(dp3206
sg70
g2885
sg63
(lp3207
g56
(g77
g58
NtRp3208
(dp3209
g61
(dp3210
g81
g82
ssg70
g3204
sg63
(lp3211
S'QUERY_STRING'
p3212
asbag56
(g77
g58
NtRp3213
(dp3214
g61
(dp3215
g88
g89
ssg70
g3204
sg63
(lp3216
S':'
asbag56
(g77
g58
NtRp3217
(dp3218
g61
(dp3219
sg70
g3204
sg63
(lp3220
g56
(g57
g58
NtRp3221
(dp3222
g61
(dp3223
g69
I3
ssg70
g3217
sg63
(lp3224
S''
asbasbasbag56
(g72
g58
NtRp3225
(dp3226
g61
(dp3227
sg70
g2885
sg63
(lp3228
g56
(g77
g58
NtRp3229
(dp3230
g61
(dp3231
g81
g82
ssg70
g3225
sg63
(lp3232
S'REMOTE_ADDR'
p3233
asbag56
(g77
g58
NtRp3234
(dp3235
g61
(dp3236
g88
g89
ssg70
g3225
sg63
(lp3237
S':'
asbag56
(g77
g58
NtRp3238
(dp3239
g61
(dp3240
sg70
g3225
sg63
(lp3241
g56
(g57
g58
NtRp3242
(dp3243
g61
(dp3244
g69
I3
ssg70
g3238
sg63
(lp3245
g189
asbasbasbag56
(g72
g58
NtRp3246
(dp3247
g61
(dp3248
sg70
g2885
sg63
(lp3249
g56
(g77
g58
NtRp3250
(dp3251
g61
(dp3252
g81
g82
ssg70
g3246
sg63
(lp3253
S'REMOTE_PORT'
p3254
asbag56
(g77
g58
NtRp3255
(dp3256
g61
(dp3257
g88
g89
ssg70
g3246
sg63
(lp3258
S':'
asbag56
(g77
g58
NtRp3259
(dp3260
g61
(dp3261
sg70
g3246
sg63
(lp3262
g56
(g57
g58
NtRp3263
(dp3264
g61
(dp3265
g69
I3
ssg70
g3259
sg63
(lp3266
g1765
asbasbasbag56
(g72
g58
NtRp3267
(dp3268
g61
(dp3269
sg70
g2885
sg63
(lp3270
g56
(g77
g58
NtRp3271
(dp3272
g61
(dp3273
g81
g82
ssg70
g3267
sg63
(lp3274
S'REQUEST_METHOD'
p3275
asbag56
(g77
g58
NtRp3276
(dp3277
g61
(dp3278
g88
g89
ssg70
g3267
sg63
(lp3279
S':'
asbag56
(g77
g58
NtRp3280
(dp3281
g61
(dp3282
sg70
g3267
sg63
(lp3283
g56
(g57
g58
NtRp3284
(dp3285
g61
(dp3286
g69
I3
ssg70
g3280
sg63
(lp3287
g1787
asbasbasbag56
(g72
g58
NtRp3288
(dp3289
g61
(dp3290
sg70
g2885
sg63
(lp3291
g56
(g77
g58
NtRp3292
(dp3293
g61
(dp3294
g81
g82
ssg70
g3288
sg63
(lp3295
S'SCRIPT_NAME'
p3296
asbag56
(g77
g58
NtRp3297
(dp3298
g61
(dp3299
g88
g89
ssg70
g3288
sg63
(lp3300
S':'
asbag56
(g77
g58
NtRp3301
(dp3302
g61
(dp3303
sg70
g3288
sg63
(lp3304
g56
(g57
g58
NtRp3305
(dp3306
g61
(dp3307
g69
I3
ssg70
g3301
sg63
(lp3308
S''
asbasbasbag56
(g72
g58
NtRp3309
(dp3310
g61
(dp3311
sg70
g2885
sg63
(lp3312
g56
(g77
g58
NtRp3313
(dp3314
g61
(dp3315
g81
g82
ssg70
g3309
sg63
(lp3316
S'SERVER_NAME'
p3317
asbag56
(g77
g58
NtRp3318
(dp3319
g61
(dp3320
g88
g89
ssg70
g3309
sg63
(lp3321
S':'
asbag56
(g77
g58
NtRp3322
(dp3323
g61
(dp3324
sg70
g3309
sg63
(lp3325
g56
(g57
g58
NtRp3326
(dp3327
g61
(dp3328
g69
I3
ssg70
g3322
sg63
(lp3329
g1830
asbasbasbag56
(g72
g58
NtRp3330
(dp3331
g61
(dp3332
sg70
g2885
sg63
(lp3333
g56
(g77
g58
NtRp3334
(dp3335
g61
(dp3336
g81
g82
ssg70
g3330
sg63
(lp3337
S'SERVER_PORT'
p3338
asbag56
(g77
g58
NtRp3339
(dp3340
g61
(dp3341
g88
g89
ssg70
g3330
sg63
(lp3342
S':'
asbag56
(g77
g58
NtRp3343
(dp3344
g61
(dp3345
sg70
g3330
sg63
(lp3346
g56
(g57
g58
NtRp3347
(dp3348
g61
(dp3349
g69
I3
ssg70
g3343
sg63
(lp3350
g1852
asbasbasbag56
(g72
g58
NtRp3351
(dp3352
g61
(dp3353
sg70
g2885
sg63
(lp3354
g56
(g77
g58
NtRp3355
(dp3356
g61
(dp3357
g81
g82
ssg70
g3351
sg63
(lp3358
S'SERVER_PROTOCOL'
p3359
asbag56
(g77
g58
NtRp3360
(dp3361
g61
(dp3362
g88
g89
ssg70
g3351
sg63
(lp3363
S':'
asbag56
(g77
g58
NtRp3364
(dp3365
g61
(dp3366
sg70
g3351
sg63
(lp3367
g56
(g57
g58
NtRp3368
(dp3369
g61
(dp3370
g69
I3
ssg70
g3364
sg63
(lp3371
g1874
asbasbasbag56
(g72
g58
NtRp3372
(dp3373
g61
(dp3374
sg70
g2885
sg63
(lp3375
g56
(g77
g58
NtRp3376
(dp3377
g61
(dp3378
g81
g82
ssg70
g3372
sg63
(lp3379
S'SERVER_SOFTWARE'
p3380
asbag56
(g77
g58
NtRp3381
(dp3382
g61
(dp3383
g88
g89
ssg70
g3372
sg63
(lp3384
S':'
asbag56
(g77
g58
NtRp3385
(dp3386
g61
(dp3387
sg70
g3372
sg63
(lp3388
g56
(g57
g58
NtRp3389
(dp3390
g61
(dp3391
g69
I3
ssg70
g3385
sg63
(lp3392
g1896
asbasbasbag56
(g72
g58
NtRp3393
(dp3394
g61
(dp3395
sg70
g2885
sg63
(lp3396
g56
(g77
g58
NtRp3397
(dp3398
g61
(dp3399
g81
g82
ssg70
g3393
sg63
(lp3400
S'wsgi.errors'
p3401
asbag56
(g77
g58
NtRp3402
(dp3403
g61
(dp3404
g88
g89
ssg70
g3393
sg63
(lp3405
S':'
asbag56
(g77
g58
NtRp3406
(dp3407
g61
(dp3408
sg70
g3393
sg63
(lp3409
g56
(g57
g58
NtRp3410
(dp3411
g61
(dp3412
g69
I3
ssg70
g3406
sg63
(lp3413
S"<open file '<stderr>', mode 'w' at 0xb74340d0>"
p3414
asbasbasbag56
(g72
g58
NtRp3415
(dp3416
g61
(dp3417
sg70
g2885
sg63
(lp3418
g56
(g77
g58
NtRp3419
(dp3420
g61
(dp3421
g81
g82
ssg70
g3415
sg63
(lp3422
S'wsgi.file_wrapper'
p3423
asbag56
(g77
g58
NtRp3424
(dp3425
g61
(dp3426
g88
g89
ssg70
g3415
sg63
(lp3427
S':'
asbag56
(g77
g58
NtRp3428
(dp3429
g61
(dp3430
sg70
g3415
sg63
(lp3431
g56
(g57
g58
NtRp3432
(dp3433
g61
(dp3434
g69
I3
ssg70
g3428
sg63
(lp3435
S'<class wsgiref.util.FileWrapper at 0xa57350c>'
p3436
asbasbasbag56
(g72
g58
NtRp3437
(dp3438
g61
(dp3439
sg70
g2885
sg63
(lp3440
g56
(g77
g58
NtRp3441
(dp3442
g61
(dp3443
g81
g82
ssg70
g3437
sg63
(lp3444
S'wsgi.input'
p3445
asbag56
(g77
g58
NtRp3446
(dp3447
g61
(dp3448
g88
g89
ssg70
g3437
sg63
(lp3449
S':'
asbag56
(g77
g58
NtRp3450
(dp3451
g61
(dp3452
sg70
g3437
sg63
(lp3453
g56
(g57
g58
NtRp3454
(dp3455
g61
(dp3456
g69
I3
ssg70
g3450
sg63
(lp3457
S'<cStringIO.StringO object at 0xaf14e1a0>'
p3458
asbasbasbag56
(g72
g58
NtRp3459
(dp3460
g61
(dp3461
sg70
g2885
sg63
(lp3462
g56
(g77
g58
NtRp3463
(dp3464
g61
(dp3465
g81
g82
ssg70
g3459
sg63
(lp3466
S'wsgi.multiprocess'
p3467
asbag56
(g77
g58
NtRp3468
(dp3469
g61
(dp3470
g88
g89
ssg70
g3459
sg63
(lp3471
S':'
asbag56
(g77
g58
NtRp3472
(dp3473
g61
(dp3474
sg70
g3459
sg63
(lp3475
g56
(g57
g58
NtRp3476
(dp3477
g61
(dp3478
g69
I3
ssg70
g3472
sg63
(lp3479
g1351
asbasbasbag56
(g72
g58
NtRp3480
(dp3481
g61
(dp3482
sg70
g2885
sg63
(lp3483
g56
(g77
g58
NtRp3484
(dp3485
g61
(dp3486
g81
g82
ssg70
g3480
sg63
(lp3487
S'wsgi.multithread'
p3488
asbag56
(g77
g58
NtRp3489
(dp3490
g61
(dp3491
g88
g89
ssg70
g3480
sg63
(lp3492
S':'
asbag56
(g77
g58
NtRp3493
(dp3494
g61
(dp3495
sg70
g3480
sg63
(lp3496
g56
(g57
g58
NtRp3497
(dp3498
g61
(dp3499
g69
I3
ssg70
g3493
sg63
(lp3500
g99
asbasbasbag56
(g72
g58
NtRp3501
(dp3502
g61
(dp3503
sg70
g2885
sg63
(lp3504
g56
(g77
g58
NtRp3505
(dp3506
g61
(dp3507
g81
g82
ssg70
g3501
sg63
(lp3508
S'wsgi.run_once'
p3509
asbag56
(g77
g58
NtRp3510
(dp3511
g61
(dp3512
g88
g89
ssg70
g3501
sg63
(lp3513
S':'
asbag56
(g77
g58
NtRp3514
(dp3515
g61
(dp3516
sg70
g3501
sg63
(lp3517
g56
(g57
g58
NtRp3518
(dp3519
g61
(dp3520
g69
I3
ssg70
g3514
sg63
(lp3521
g1351
asbasbasbag56
(g72
g58
NtRp3522
(dp3523
g61
(dp3524
sg70
g2885
sg63
(lp3525
g56
(g77
g58
NtRp3526
(dp3527
g61
(dp3528
g81
g82
ssg70
g3522
sg63
(lp3529
S'wsgi.url_scheme'
p3530
asbag56
(g77
g58
NtRp3531
(dp3532
g61
(dp3533
g88
g89
ssg70
g3522
sg63
(lp3534
S':'
asbag56
(g77
g58
NtRp3535
(dp3536
g61
(dp3537
sg70
g3522
sg63
(lp3538
g56
(g57
g58
NtRp3539
(dp3540
g61
(dp3541
g69
I3
ssg70
g3535
sg63
(lp3542
g2178
asbasbasbag56
(g72
g58
NtRp3543
(dp3544
g61
(dp3545
sg70
g2885
sg63
(lp3546
g56
(g77
g58
NtRp3547
(dp3548
g61
(dp3549
g81
g82
ssg70
g3543
sg63
(lp3550
S'wsgi.version'
p3551
asbag56
(g77
g58
NtRp3552
(dp3553
g61
(dp3554
g88
g89
ssg70
g3543
sg63
(lp3555
S':'
asbag56
(g77
g58
NtRp3556
(dp3557
g61
(dp3558
sg70
g3543
sg63
(lp3559
g56
(g57
g58
NtRp3560
(dp3561
g61
(dp3562
g69
I3
ssg70
g3556
sg63
(lp3563
S'1'
asbasbasbasbasbasbasbasbasbasbasbasbasbsS'frames'
p3564
(lp3565
(dp3566
S'file'
p3567
S'/home/brencam/web2py/gluon/restricted.py'
p3568
sS'dump'
p3569
(dp3570
S'environment'
p3571
S"{'A': <class 'gluon.html.A'>, 'Auth': <class 'gluon.tools.Auth'>, 'B': <class 'gluon.html.B'>, 'BEAUTIFY': <class 'gluon.html.BEAUTIFY'>, 'BODY': <class 'gluon.html.BODY'>, 'BR': <class 'gluon.html.BR'>, 'BUTTON': <class 'gluon.html.BUTTON'>, 'CAT': <class 'gluon.html.CAT'>, 'CENTER': <class 'gluon.html.CENTER'>, 'CLEANUP': <class 'gluon.validators.CLEANUP'>, ...}"
p3572
sS'ccode'
p3573
S'<code object <module> at 0xae417578, file "/home...lications/gallery/controllers/search.py", line 2>'
p3574
ssS'lnum'
p3575
I194
sS'lines'
p3576
(dp3577
I192
S'        else:'
p3578
sI193
S'            ccode = compile2(code,layer)'
p3579
sI194
S'        exec ccode in environment'
p3580
sI195
S'    except HTTP:'
p3581
sI196
S'        raise'
p3582
sI197
S'    except Exception, error:'
p3583
sI198
S'        # XXX Show exception in Wing IDE if running in debugger'
p3584
sI189
S'    try:'
p3585
sI190
S'        if type(code) == types.CodeType:'
p3586
sI191
S'            ccode = code'
p3587
ssS'call'
p3588
S"(code='# Search Controller\\nimport datetime\\n\\ndef getname...)\\n\\n\\n\\nresponse._vars=response._caller(xmlgettags)\\n', environment={'A': <class 'gluon.html.A'>, 'Auth': <class 'gluon.tools.Auth'>, 'B': <class 'gluon.html.B'>, 'BEAUTIFY': <class 'gluon.html.BEAUTIFY'>, 'BODY': <class 'gluon.html.BODY'>, 'BR': <class 'gluon.html.BR'>, 'BUTTON': <class 'gluon.html.BUTTON'>, 'CAT': <class 'gluon.html.CAT'>, 'CENTER': <class 'gluon.html.CENTER'>, 'CLEANUP': <class 'gluon.validators.CLEANUP'>, ...}, layer='/home/brencam/web2py/applications/gallery/controllers/search.py')"
p3589
sS'func'
p3590
S'restricted'
p3591
sa(dp3592
g3567
S'/home/brencam/web2py/applications/gallery/controllers/search.py'
p3593
sg3569
(dp3594
sg3575
I156
sg3576
(dp3595
I145
S''
sI146
S'    # Can I do a redirect from ajax request with the search results ??'
p3596
sI147
S"    #redirect (URL('default', 'showcss'))"
p3597
sI148
S''
sI149
S'    # Note the URL Syntax here to create a link to a different controller (the default)'
p3598
sI150
S'    # How to show thumbnails for selected images here as well ??'
p3599
sI151
S"#    return XML(UL(*[LI(A('%s ' % (img.title),_href=URL('default','show',args=img.id)))\\"
p3600
sI152
S'#                    for img in images]))'
p3601
sI153
S''
sI154
S''
ssg3588
S'()'
p3602
sg3590
S'<module>'
p3603
sa(dp3604
g3567
S'/home/brencam/web2py/gluon/globals.py'
p3605
sg3569
(dp3606
S'self'
p3607
S'undefined'
p3608
sS'f'
S'<function xmlgettags>'
p3609
ssg3575
I149
sg3576
(dp3610
I144
S'        self.meta = Storage()      # used by web2py_ajax.html'
p3611
sI145
S'        self.menu = []             # used by the default view layout'
p3612
sI146
S'        self.files = []            # used by web2py_ajax.html'
p3613
sI147
S'        self.generic_patterns = [] # patterns to allow generic views'
p3614
sI148
S'        self._vars = None'
p3615
sI149
S'        self._caller = lambda f: f()'
p3616
sI150
S'        self._view_environment = None'
p3617
sI151
S'        self._custom_commit = None'
p3618
sI152
S'        self._custom_rollback = None'
p3619
sI153
S''
ssg3588
S'(f=<function xmlgettags>)'
p3620
sg3590
S'<lambda>'
p3621
sa(dp3622
g3567
S'/home/brencam/web2py/applications/gallery/controllers/search.py'
p3623
sg3569
(dp3624
S'builtindict'
p3625
S"<type 'dict'>"
p3626
sS'tags'
p3627
S'<gluon.dal.Rows object>'
p3628
ssg3575
I42
sg3576
(dp3629
I37
S'def xmlgettags():'
p3630
sI38
S'    # get list of tagnames from tag table'
p3631
sI39
S'    # return in json format'
p3632
sI40
S'    tags  = db().select(db.tag.id, db.tag.name)'
p3633
sI41
S'    #return XML(tags)'
p3634
sI42
S'    return dict(tags)'
p3635
sI43
S''
sI44
S''
sI45
S'def getnames_v2():'
p3636
sI46
S"    sval =''"
p3637
ssg3588
S'()'
p3638
sg3590
S'xmlgettags'
p3639
sasS'pyver'
p3640
S'Python 2.6.6: /usr/bin/python'
p3641
sS'session'
p3642
g56
(g57
g58
NtRp3643
(dp3644
g61
(dp3645
sg63
(lp3646
g56
(g65
g58
NtRp3647
(dp3648
g61
(dp3649
g69
I5
ssg70
Nsg63
(lp3650
g56
(g72
g58
NtRp3651
(dp3652
g61
(dp3653
sg70
g3647
sg63
(lp3654
g56
(g77
g58
NtRp3655
(dp3656
g61
(dp3657
g81
g82
ssg70
g3651
sg63
(lp3658
S'counter'
p3659
asbag56
(g77
g58
NtRp3660
(dp3661
g61
(dp3662
g88
g89
ssg70
g3651
sg63
(lp3663
S':'
asbag56
(g77
g58
NtRp3664
(dp3665
g61
(dp3666
sg70
g3651
sg63
(lp3667
g56
(g57
g58
NtRp3668
(dp3669
g61
(dp3670
g69
I5
ssg70
g3664
sg63
(lp3671
S'7'
asbasbasbasbasbsS'etype'
p3672
S"<type 'exceptions.ValueError'>"
p3673
sS'date'
p3674
S'Sat Nov  5 12:17:39 2011'
p3675
sS'response'
p3676
g56
(g57
g58
NtRp3677
(dp3678
g61
(dp3679
sg63
(lp3680
g56
(g65
g58
NtRp3681
(dp3682
g61
(dp3683
g69
I5
ssg70
Nsg63
(lp3684
g56
(g72
g58
NtRp3685
(dp3686
g61
(dp3687
sg70
g3681
sg63
(lp3688
g56
(g77
g58
NtRp3689
(dp3690
g61
(dp3691
g81
g82
ssg70
g3685
sg63
(lp3692
g154
asbag56
(g77
g58
NtRp3693
(dp3694
g61
(dp3695
g88
g89
ssg70
g3685
sg63
(lp3696
S':'
asbag56
(g77
g58
NtRp3697
(dp3698
g61
(dp3699
sg70
g3685
sg63
(lp3700
g56
(g57
g58
NtRp3701
(dp3702
g61
(dp3703
g69
I5
ssg70
g3697
sg63
(lp3704
S'<cStringIO.StringO object at 0xaf14ee20>'
p3705
asbasbasbag56
(g72
g58
NtRp3706
(dp3707
g61
(dp3708
sg70
g3681
sg63
(lp3709
g56
(g77
g58
NtRp3710
(dp3711
g61
(dp3712
g81
g82
ssg70
g3706
sg63
(lp3713
g220
asbag56
(g77
g58
NtRp3714
(dp3715
g61
(dp3716
g88
g89
ssg70
g3706
sg63
(lp3717
S':'
asbag56
(g77
g58
NtRp3718
(dp3719
g61
(dp3720
sg70
g3706
sg63
(lp3721
g56
(g57
g58
NtRp3722
(dp3723
g61
(dp3724
g69
I5
ssg70
g3718
sg63
(lp3725
g56
(g65
g58
NtRp3726
(dp3727
g61
(dp3728
g69
I4
ssg70
Nsg63
(lp3729
g56
(g72
g58
NtRp3730
(dp3731
g61
(dp3732
sg70
g3726
sg63
(lp3733
g56
(g77
g58
NtRp3734
(dp3735
g61
(dp3736
g81
g82
ssg70
g3730
sg63
(lp3737
S'session_id_gallery'
p3738
asbag56
(g77
g58
NtRp3739
(dp3740
g61
(dp3741
g88
g89
ssg70
g3730
sg63
(lp3742
S':'
asbag56
(g77
g58
NtRp3743
(dp3744
g61
(dp3745
sg70
g3730
sg63
(lp3746
g56
(g57
g58
NtRp3747
(dp3748
g61
(dp3749
g69
I4
ssg70
g3743
sg63
(lp3750
g56
(g65
g58
NtRp3751
(dp3752
g61
(dp3753
g69
I3
ssg70
Nsg63
(lp3754
g56
(g72
g58
NtRp3755
(dp3756
g61
(dp3757
sg70
g3751
sg63
(lp3758
g56
(g77
g58
NtRp3759
(dp3760
g61
(dp3761
g81
g82
ssg70
g3755
sg63
(lp3762
g270
asbag56
(g77
g58
NtRp3763
(dp3764
g61
(dp3765
g88
g89
ssg70
g3755
sg63
(lp3766
S':'
asbag56
(g77
g58
NtRp3767
(dp3768
g61
(dp3769
sg70
g3755
sg63
(lp3770
g56
(g57
g58
NtRp3771
(dp3772
g61
(dp3773
g69
I3
ssg70
g3767
sg63
(lp3774
S''
asbasbasbag56
(g72
g58
NtRp3775
(dp3776
g61
(dp3777
sg70
g3751
sg63
(lp3778
g56
(g77
g58
NtRp3779
(dp3780
g61
(dp3781
g81
g82
ssg70
g3775
sg63
(lp3782
g291
asbag56
(g77
g58
NtRp3783
(dp3784
g61
(dp3785
g88
g89
ssg70
g3775
sg63
(lp3786
S':'
asbag56
(g77
g58
NtRp3787
(dp3788
g61
(dp3789
sg70
g3775
sg63
(lp3790
g56
(g57
g58
NtRp3791
(dp3792
g61
(dp3793
g69
I3
ssg70
g3787
sg63
(lp3794
S''
asbasbasbag56
(g72
g58
NtRp3795
(dp3796
g61
(dp3797
sg70
g3751
sg63
(lp3798
g56
(g77
g58
NtRp3799
(dp3800
g61
(dp3801
g81
g82
ssg70
g3795
sg63
(lp3802
g312
asbag56
(g77
g58
NtRp3803
(dp3804
g61
(dp3805
g88
g89
ssg70
g3795
sg63
(lp3806
S':'
asbag56
(g77
g58
NtRp3807
(dp3808
g61
(dp3809
sg70
g3795
sg63
(lp3810
g56
(g57
g58
NtRp3811
(dp3812
g61
(dp3813
g69
I3
ssg70
g3807
sg63
(lp3814
S''
asbasbasbag56
(g72
g58
NtRp3815
(dp3816
g61
(dp3817
sg70
g3751
sg63
(lp3818
g56
(g77
g58
NtRp3819
(dp3820
g61
(dp3821
g81
g82
ssg70
g3815
sg63
(lp3822
g333
asbag56
(g77
g58
NtRp3823
(dp3824
g61
(dp3825
g88
g89
ssg70
g3815
sg63
(lp3826
S':'
asbag56
(g77
g58
NtRp3827
(dp3828
g61
(dp3829
sg70
g3815
sg63
(lp3830
g56
(g57
g58
NtRp3831
(dp3832
g61
(dp3833
g69
I3
ssg70
g3827
sg63
(lp3834
S''
asbasbasbag56
(g72
g58
NtRp3835
(dp3836
g61
(dp3837
sg70
g3751
sg63
(lp3838
g56
(g77
g58
NtRp3839
(dp3840
g61
(dp3841
g81
g82
ssg70
g3835
sg63
(lp3842
g354
asbag56
(g77
g58
NtRp3843
(dp3844
g61
(dp3845
g88
g89
ssg70
g3835
sg63
(lp3846
S':'
asbag56
(g77
g58
NtRp3847
(dp3848
g61
(dp3849
sg70
g3835
sg63
(lp3850
g56
(g57
g58
NtRp3851
(dp3852
g61
(dp3853
g69
I3
ssg70
g3847
sg63
(lp3854
S''
asbasbasbag56
(g72
g58
NtRp3855
(dp3856
g61
(dp3857
sg70
g3751
sg63
(lp3858
g56
(g77
g58
NtRp3859
(dp3860
g61
(dp3861
g81
g82
ssg70
g3855
sg63
(lp3862
g375
asbag56
(g77
g58
NtRp3863
(dp3864
g61
(dp3865
g88
g89
ssg70
g3855
sg63
(lp3866
S':'
asbag56
(g77
g58
NtRp3867
(dp3868
g61
(dp3869
sg70
g3855
sg63
(lp3870
g56
(g57
g58
NtRp3871
(dp3872
g61
(dp3873
g69
I3
ssg70
g3867
sg63
(lp3874
S'/'
asbasbasbag56
(g72
g58
NtRp3875
(dp3876
g61
(dp3877
sg70
g3751
sg63
(lp3878
g56
(g77
g58
NtRp3879
(dp3880
g61
(dp3881
g81
g82
ssg70
g3875
sg63
(lp3882
g396
asbag56
(g77
g58
NtRp3883
(dp3884
g61
(dp3885
g88
g89
ssg70
g3875
sg63
(lp3886
S':'
asbag56
(g77
g58
NtRp3887
(dp3888
g61
(dp3889
sg70
g3875
sg63
(lp3890
g56
(g57
g58
NtRp3891
(dp3892
g61
(dp3893
g69
I3
ssg70
g3887
sg63
(lp3894
S''
asbasbasbag56
(g72
g58
NtRp3895
(dp3896
g61
(dp3897
sg70
g3751
sg63
(lp3898
g56
(g77
g58
NtRp3899
(dp3900
g61
(dp3901
g81
g82
ssg70
g3895
sg63
(lp3902
g417
asbag56
(g77
g58
NtRp3903
(dp3904
g61
(dp3905
g88
g89
ssg70
g3895
sg63
(lp3906
S':'
asbag56
(g77
g58
NtRp3907
(dp3908
g61
(dp3909
sg70
g3895
sg63
(lp3910
g56
(g57
g58
NtRp3911
(dp3912
g61
(dp3913
g69
I3
ssg70
g3907
sg63
(lp3914
S''
asbasbasbasbasbasbasbasbasbasbasbag56
(g72
g58
NtRp3915
(dp3916
g61
(dp3917
sg70
g3681
sg63
(lp3918
g56
(g77
g58
NtRp3919
(dp3920
g61
(dp3921
g81
g82
ssg70
g3915
sg63
(lp3922
S'files'
p3923
asbag56
(g77
g58
NtRp3924
(dp3925
g61
(dp3926
g88
g89
ssg70
g3915
sg63
(lp3927
S':'
asbag56
(g77
g58
NtRp3928
(dp3929
g61
(dp3930
sg70
g3915
sg63
(lp3931
g56
(g57
g58
NtRp3932
(dp3933
g61
(dp3934
g69
I5
ssg70
g3928
sg63
(lp3935
g56
(g65
g58
NtRp3936
(dp3937
g61
(dp3938
g69
I4
ssg70
Nsg63
(lp3939
sbasbasbasbag56
(g72
g58
NtRp3940
(dp3941
g61
(dp3942
sg70
g3681
sg63
(lp3943
g56
(g77
g58
NtRp3944
(dp3945
g61
(dp3946
g81
g82
ssg70
g3940
sg63
(lp3947
S'flash'
p3948
asbag56
(g77
g58
NtRp3949
(dp3950
g61
(dp3951
g88
g89
ssg70
g3940
sg63
(lp3952
S':'
asbag56
(g77
g58
NtRp3953
(dp3954
g61
(dp3955
sg70
g3940
sg63
(lp3956
g56
(g57
g58
NtRp3957
(dp3958
g61
(dp3959
g69
I5
ssg70
g3953
sg63
(lp3960
S''
asbasbasbag56
(g72
g58
NtRp3961
(dp3962
g61
(dp3963
sg70
g3681
sg63
(lp3964
g56
(g77
g58
NtRp3965
(dp3966
g61
(dp3967
g81
g82
ssg70
g3961
sg63
(lp3968
S'generic_patterns'
p3969
asbag56
(g77
g58
NtRp3970
(dp3971
g61
(dp3972
g88
g89
ssg70
g3961
sg63
(lp3973
S':'
asbag56
(g77
g58
NtRp3974
(dp3975
g61
(dp3976
sg70
g3961
sg63
(lp3977
g56
(g57
g58
NtRp3978
(dp3979
g61
(dp3980
g69
I5
ssg70
g3974
sg63
(lp3981
g56
(g65
g58
NtRp3982
(dp3983
g61
(dp3984
g69
I4
ssg70
Nsg63
(lp3985
g56
(g72
g58
NtRp3986
(dp3987
g61
(dp3988
sg70
g3982
sg63
(lp3989
g56
(g77
g58
NtRp3990
(dp3991
g61
(dp3992
sg70
g3986
sg63
(lp3993
g56
(g57
g58
NtRp3994
(dp3995
g61
(dp3996
g69
I4
ssg70
g3990
sg63
(lp3997
S'*'
asbasbasbasbasbasbasbag56
(g72
g58
NtRp3998
(dp3999
g61
(dp4000
sg70
g3681
sg63
(lp4001
g56
(g77
g58
NtRp4002
(dp4003
g61
(dp4004
g81
g82
ssg70
g3998
sg63
(lp4005
S'headers'
p4006
asbag56
(g77
g58
NtRp4007
(dp4008
g61
(dp4009
g88
g89
ssg70
g3998
sg63
(lp4010
S':'
asbag56
(g77
g58
NtRp4011
(dp4012
g61
(dp4013
sg70
g3998
sg63
(lp4014
g56
(g57
g58
NtRp4015
(dp4016
g61
(dp4017
g69
I5
ssg70
g4011
sg63
(lp4018
g56
(g65
g58
NtRp4019
(dp4020
g61
(dp4021
g69
I4
ssg70
Nsg63
(lp4022
g56
(g72
g58
NtRp4023
(dp4024
g61
(dp4025
sg70
g4019
sg63
(lp4026
g56
(g77
g58
NtRp4027
(dp4028
g61
(dp4029
g81
g82
ssg70
g4023
sg63
(lp4030
S'Cache-Control'
p4031
asbag56
(g77
g58
NtRp4032
(dp4033
g61
(dp4034
g88
g89
ssg70
g4023
sg63
(lp4035
S':'
asbag56
(g77
g58
NtRp4036
(dp4037
g61
(dp4038
sg70
g4023
sg63
(lp4039
g56
(g57
g58
NtRp4040
(dp4041
g61
(dp4042
g69
I4
ssg70
g4036
sg63
(lp4043
S'no-store, no-cache, must-revalidate, post-check=0, pre-check=0'
p4044
asbasbasbag56
(g72
g58
NtRp4045
(dp4046
g61
(dp4047
sg70
g4019
sg63
(lp4048
g56
(g77
g58
NtRp4049
(dp4050
g61
(dp4051
g81
g82
ssg70
g4045
sg63
(lp4052
S'Content-Type'
p4053
asbag56
(g77
g58
NtRp4054
(dp4055
g61
(dp4056
g88
g89
ssg70
g4045
sg63
(lp4057
S':'
asbag56
(g77
g58
NtRp4058
(dp4059
g61
(dp4060
sg70
g4045
sg63
(lp4061
g56
(g57
g58
NtRp4062
(dp4063
g61
(dp4064
g69
I4
ssg70
g4058
sg63
(lp4065
S'application/json'
p4066
asbasbasbag56
(g72
g58
NtRp4067
(dp4068
g61
(dp4069
sg70
g4019
sg63
(lp4070
g56
(g77
g58
NtRp4071
(dp4072
g61
(dp4073
g81
g82
ssg70
g4067
sg63
(lp4074
S'Expires'
p4075
asbag56
(g77
g58
NtRp4076
(dp4077
g61
(dp4078
g88
g89
ssg70
g4067
sg63
(lp4079
S':'
asbag56
(g77
g58
NtRp4080
(dp4081
g61
(dp4082
sg70
g4067
sg63
(lp4083
g56
(g57
g58
NtRp4084
(dp4085
g61
(dp4086
g69
I4
ssg70
g4080
sg63
(lp4087
S'Sat, 05 Nov 2011 19:17:39 GMT'
p4088
asbasbasbag56
(g72
g58
NtRp4089
(dp4090
g61
(dp4091
sg70
g4019
sg63
(lp4092
g56
(g77
g58
NtRp4093
(dp4094
g61
(dp4095
g81
g82
ssg70
g4089
sg63
(lp4096
S'Pragma'
p4097
asbag56
(g77
g58
NtRp4098
(dp4099
g61
(dp4100
g88
g89
ssg70
g4089
sg63
(lp4101
S':'
asbag56
(g77
g58
NtRp4102
(dp4103
g61
(dp4104
sg70
g4089
sg63
(lp4105
g56
(g57
g58
NtRp4106
(dp4107
g61
(dp4108
g69
I4
ssg70
g4102
sg63
(lp4109
S'no-cache'
p4110
asbasbasbag56
(g72
g58
NtRp4111
(dp4112
g61
(dp4113
sg70
g4019
sg63
(lp4114
g56
(g77
g58
NtRp4115
(dp4116
g61
(dp4117
g81
g82
ssg70
g4111
sg63
(lp4118
S'X-Powered-By'
p4119
asbag56
(g77
g58
NtRp4120
(dp4121
g61
(dp4122
g88
g89
ssg70
g4111
sg63
(lp4123
S':'
asbag56
(g77
g58
NtRp4124
(dp4125
g61
(dp4126
sg70
g4111
sg63
(lp4127
g56
(g57
g58
NtRp4128
(dp4129
g61
(dp4130
g69
I4
ssg70
g4124
sg63
(lp4131
S'web2py'
p4132
asbasbasbasbasbasbasbag56
(g72
g58
NtRp4133
(dp4134
g61
(dp4135
sg70
g3681
sg63
(lp4136
g56
(g77
g58
NtRp4137
(dp4138
g61
(dp4139
g81
g82
ssg70
g4133
sg63
(lp4140
S'menu'
p4141
asbag56
(g77
g58
NtRp4142
(dp4143
g61
(dp4144
g88
g89
ssg70
g4133
sg63
(lp4145
S':'
asbag56
(g77
g58
NtRp4146
(dp4147
g61
(dp4148
sg70
g4133
sg63
(lp4149
g56
(g57
g58
NtRp4150
(dp4151
g61
(dp4152
g69
I5
ssg70
g4146
sg63
(lp4153
g56
(g65
g58
NtRp4154
(dp4155
g61
(dp4156
g69
I4
ssg70
Nsg63
(lp4157
g56
(g72
g58
NtRp4158
(dp4159
g61
(dp4160
sg70
g4154
sg63
(lp4161
g56
(g77
g58
NtRp4162
(dp4163
g61
(dp4164
sg70
g4158
sg63
(lp4165
g56
(g57
g58
NtRp4166
(dp4167
g61
(dp4168
g69
I4
ssg70
g4162
sg63
(lp4169
g56
(g65
g58
NtRp4170
(dp4171
g61
(dp4172
g69
I3
ssg70
Nsg63
(lp4173
g56
(g72
g58
NtRp4174
(dp4175
g61
(dp4176
sg70
g4170
sg63
(lp4177
g56
(g77
g58
NtRp4178
(dp4179
g61
(dp4180
sg70
g4174
sg63
(lp4181
g56
(g57
g58
NtRp4182
(dp4183
g61
(dp4184
g69
I3
ssg70
g4178
sg63
(lp4185
cgluon.languages
lazyT_unpickle
p4186
(S's\x04\x00\x00\x00Home'
tRp4187
asbasbasbag56
(g72
g58
NtRp4188
(dp4189
g61
(dp4190
sg70
g4170
sg63
(lp4191
g56
(g77
g58
NtRp4192
(dp4193
g61
(dp4194
sg70
g4188
sg63
(lp4195
g56
(g57
g58
NtRp4196
(dp4197
g61
(dp4198
g69
I3
ssg70
g4192
sg63
(lp4199
g1351
asbasbasbag56
(g72
g58
NtRp4200
(dp4201
g61
(dp4202
sg70
g4170
sg63
(lp4203
g56
(g77
g58
NtRp4204
(dp4205
g61
(dp4206
sg70
g4200
sg63
(lp4207
g56
(g57
g58
NtRp4208
(dp4209
g61
(dp4210
g69
I3
ssg70
g4204
sg63
(lp4211
S'/gallery/default/index.json'
p4212
asbasbasbag56
(g72
g58
NtRp4213
(dp4214
g61
(dp4215
sg70
g4170
sg63
(lp4216
g56
(g77
g58
NtRp4217
(dp4218
g61
(dp4219
sg70
g4213
sg63
(lp4220
g56
(g57
g58
NtRp4221
(dp4222
g61
(dp4223
g69
I3
ssg70
g4217
sg63
(lp4224
g56
(g65
g58
NtRp4225
(dp4226
g61
(dp4227
g69
I2
ssg70
Nsg63
(lp4228
sbasbasbasbasbasbasbasbag56
(g72
g58
NtRp4229
(dp4230
g61
(dp4231
sg70
g4154
sg63
(lp4232
g56
(g77
g58
NtRp4233
(dp4234
g61
(dp4235
sg70
g4229
sg63
(lp4236
g56
(g57
g58
NtRp4237
(dp4238
g61
(dp4239
g69
I4
ssg70
g4233
sg63
(lp4240
g56
(g65
g58
NtRp4241
(dp4242
g61
(dp4243
g69
I3
ssg70
Nsg63
(lp4244
g56
(g72
g58
NtRp4245
(dp4246
g61
(dp4247
sg70
g4241
sg63
(lp4248
g56
(g77
g58
NtRp4249
(dp4250
g61
(dp4251
sg70
g4245
sg63
(lp4252
g56
(g57
g58
NtRp4253
(dp4254
g61
(dp4255
g69
I3
ssg70
g4249
sg63
(lp4256
g4186
(S's\r\x00\x00\x00Gallery - CSS'
tRp4257
asbasbasbag56
(g72
g58
NtRp4258
(dp4259
g61
(dp4260
sg70
g4241
sg63
(lp4261
g56
(g77
g58
NtRp4262
(dp4263
g61
(dp4264
sg70
g4258
sg63
(lp4265
g56
(g57
g58
NtRp4266
(dp4267
g61
(dp4268
g69
I3
ssg70
g4262
sg63
(lp4269
g1351
asbasbasbag56
(g72
g58
NtRp4270
(dp4271
g61
(dp4272
sg70
g4241
sg63
(lp4273
g56
(g77
g58
NtRp4274
(dp4275
g61
(dp4276
sg70
g4270
sg63
(lp4277
g56
(g57
g58
NtRp4278
(dp4279
g61
(dp4280
g69
I3
ssg70
g4274
sg63
(lp4281
S'/gallery/default/showcss.json'
p4282
asbasbasbag56
(g72
g58
NtRp4283
(dp4284
g61
(dp4285
sg70
g4241
sg63
(lp4286
g56
(g77
g58
NtRp4287
(dp4288
g61
(dp4289
sg70
g4283
sg63
(lp4290
g56
(g57
g58
NtRp4291
(dp4292
g61
(dp4293
g69
I3
ssg70
g4287
sg63
(lp4294
g56
(g65
g58
NtRp4295
(dp4296
g61
(dp4297
g69
I2
ssg70
Nsg63
(lp4298
sbasbasbasbasbasbasbasbag56
(g72
g58
NtRp4299
(dp4300
g61
(dp4301
sg70
g4154
sg63
(lp4302
g56
(g77
g58
NtRp4303
(dp4304
g61
(dp4305
sg70
g4299
sg63
(lp4306
g56
(g57
g58
NtRp4307
(dp4308
g61
(dp4309
g69
I4
ssg70
g4303
sg63
(lp4310
g56
(g65
g58
NtRp4311
(dp4312
g61
(dp4313
g69
I3
ssg70
Nsg63
(lp4314
g56
(g72
g58
NtRp4315
(dp4316
g61
(dp4317
sg70
g4311
sg63
(lp4318
g56
(g77
g58
NtRp4319
(dp4320
g61
(dp4321
sg70
g4315
sg63
(lp4322
g56
(g57
g58
NtRp4323
(dp4324
g61
(dp4325
g69
I3
ssg70
g4319
sg63
(lp4326
g4186
(S's\x10\x00\x00\x00Gallery - JQuery'
tRp4327
asbasbasbag56
(g72
g58
NtRp4328
(dp4329
g61
(dp4330
sg70
g4311
sg63
(lp4331
g56
(g77
g58
NtRp4332
(dp4333
g61
(dp4334
sg70
g4328
sg63
(lp4335
g56
(g57
g58
NtRp4336
(dp4337
g61
(dp4338
g69
I3
ssg70
g4332
sg63
(lp4339
g1351
asbasbasbag56
(g72
g58
NtRp4340
(dp4341
g61
(dp4342
sg70
g4311
sg63
(lp4343
g56
(g77
g58
NtRp4344
(dp4345
g61
(dp4346
sg70
g4340
sg63
(lp4347
g56
(g57
g58
NtRp4348
(dp4349
g61
(dp4350
g69
I3
ssg70
g4344
sg63
(lp4351
S'/gallery/default/showjq.json'
p4352
asbasbasbag56
(g72
g58
NtRp4353
(dp4354
g61
(dp4355
sg70
g4311
sg63
(lp4356
g56
(g77
g58
NtRp4357
(dp4358
g61
(dp4359
sg70
g4353
sg63
(lp4360
g56
(g57
g58
NtRp4361
(dp4362
g61
(dp4363
g69
I3
ssg70
g4357
sg63
(lp4364
g56
(g65
g58
NtRp4365
(dp4366
g61
(dp4367
g69
I2
ssg70
Nsg63
(lp4368
sbasbasbasbasbasbasbasbag56
(g72
g58
NtRp4369
(dp4370
g61
(dp4371
sg70
g4154
sg63
(lp4372
g56
(g77
g58
NtRp4373
(dp4374
g61
(dp4375
sg70
g4369
sg63
(lp4376
g56
(g57
g58
NtRp4377
(dp4378
g61
(dp4379
g69
I4
ssg70
g4373
sg63
(lp4380
g56
(g65
g58
NtRp4381
(dp4382
g61
(dp4383
g69
I3
ssg70
Nsg63
(lp4384
g56
(g72
g58
NtRp4385
(dp4386
g61
(dp4387
sg70
g4381
sg63
(lp4388
g56
(g77
g58
NtRp4389
(dp4390
g61
(dp4391
sg70
g4385
sg63
(lp4392
g56
(g57
g58
NtRp4393
(dp4394
g61
(dp4395
g69
I3
ssg70
g4389
sg63
(lp4396
g4186
(S's\x0e\x00\x00\x00Gallery - Dojo'
tRp4397
asbasbasbag56
(g72
g58
NtRp4398
(dp4399
g61
(dp4400
sg70
g4381
sg63
(lp4401
g56
(g77
g58
NtRp4402
(dp4403
g61
(dp4404
sg70
g4398
sg63
(lp4405
g56
(g57
g58
NtRp4406
(dp4407
g61
(dp4408
g69
I3
ssg70
g4402
sg63
(lp4409
g1351
asbasbasbag56
(g72
g58
NtRp4410
(dp4411
g61
(dp4412
sg70
g4381
sg63
(lp4413
g56
(g77
g58
NtRp4414
(dp4415
g61
(dp4416
sg70
g4410
sg63
(lp4417
g56
(g57
g58
NtRp4418
(dp4419
g61
(dp4420
g69
I3
ssg70
g4414
sg63
(lp4421
S'/gallery/default/index.json'
p4422
asbasbasbag56
(g72
g58
NtRp4423
(dp4424
g61
(dp4425
sg70
g4381
sg63
(lp4426
g56
(g77
g58
NtRp4427
(dp4428
g61
(dp4429
sg70
g4423
sg63
(lp4430
g56
(g57
g58
NtRp4431
(dp4432
g61
(dp4433
g69
I3
ssg70
g4427
sg63
(lp4434
g56
(g65
g58
NtRp4435
(dp4436
g61
(dp4437
g69
I2
ssg70
Nsg63
(lp4438
sbasbasbasbasbasbasbasbag56
(g72
g58
NtRp4439
(dp4440
g61
(dp4441
sg70
g4154
sg63
(lp4442
g56
(g77
g58
NtRp4443
(dp4444
g61
(dp4445
sg70
g4439
sg63
(lp4446
g56
(g57
g58
NtRp4447
(dp4448
g61
(dp4449
g69
I4
ssg70
g4443
sg63
(lp4450
g56
(g65
g58
NtRp4451
(dp4452
g61
(dp4453
g69
I3
ssg70
Nsg63
(lp4454
g56
(g72
g58
NtRp4455
(dp4456
g61
(dp4457
sg70
g4451
sg63
(lp4458
g56
(g77
g58
NtRp4459
(dp4460
g61
(dp4461
sg70
g4455
sg63
(lp4462
g56
(g57
g58
NtRp4463
(dp4464
g61
(dp4465
g69
I3
ssg70
g4459
sg63
(lp4466
g4186
(S's\x11\x00\x00\x00AjaxSearch - Dojo'
tRp4467
asbasbasbag56
(g72
g58
NtRp4468
(dp4469
g61
(dp4470
sg70
g4451
sg63
(lp4471
g56
(g77
g58
NtRp4472
(dp4473
g61
(dp4474
sg70
g4468
sg63
(lp4475
g56
(g57
g58
NtRp4476
(dp4477
g61
(dp4478
g69
I3
ssg70
g4472
sg63
(lp4479
g1351
asbasbasbag56
(g72
g58
NtRp4480
(dp4481
g61
(dp4482
sg70
g4451
sg63
(lp4483
g56
(g77
g58
NtRp4484
(dp4485
g61
(dp4486
sg70
g4480
sg63
(lp4487
g56
(g57
g58
NtRp4488
(dp4489
g61
(dp4490
g69
I3
ssg70
g4484
sg63
(lp4491
S'/gallery/default/sendform.json'
p4492
asbasbasbag56
(g72
g58
NtRp4493
(dp4494
g61
(dp4495
sg70
g4451
sg63
(lp4496
g56
(g77
g58
NtRp4497
(dp4498
g61
(dp4499
sg70
g4493
sg63
(lp4500
g56
(g57
g58
NtRp4501
(dp4502
g61
(dp4503
g69
I3
ssg70
g4497
sg63
(lp4504
g56
(g65
g58
NtRp4505
(dp4506
g61
(dp4507
g69
I2
ssg70
Nsg63
(lp4508
sbasbasbasbasbasbasbasbag56
(g72
g58
NtRp4509
(dp4510
g61
(dp4511
sg70
g4154
sg63
(lp4512
g56
(g77
g58
NtRp4513
(dp4514
g61
(dp4515
sg70
g4509
sg63
(lp4516
g56
(g57
g58
NtRp4517
(dp4518
g61
(dp4519
g69
I4
ssg70
g4513
sg63
(lp4520
g56
(g65
g58
NtRp4521
(dp4522
g61
(dp4523
g69
I3
ssg70
Nsg63
(lp4524
g56
(g72
g58
NtRp4525
(dp4526
g61
(dp4527
sg70
g4521
sg63
(lp4528
g56
(g77
g58
NtRp4529
(dp4530
g61
(dp4531
sg70
g4525
sg63
(lp4532
g56
(g57
g58
NtRp4533
(dp4534
g61
(dp4535
g69
I3
ssg70
g4529
sg63
(lp4536
g4186
(S's\x07\x00\x00\x00TagList'
tRp4537
asbasbasbag56
(g72
g58
NtRp4538
(dp4539
g61
(dp4540
sg70
g4521
sg63
(lp4541
g56
(g77
g58
NtRp4542
(dp4543
g61
(dp4544
sg70
g4538
sg63
(lp4545
g56
(g57
g58
NtRp4546
(dp4547
g61
(dp4548
g69
I3
ssg70
g4542
sg63
(lp4549
g1351
asbasbasbag56
(g72
g58
NtRp4550
(dp4551
g61
(dp4552
sg70
g4521
sg63
(lp4553
g56
(g77
g58
NtRp4554
(dp4555
g61
(dp4556
sg70
g4550
sg63
(lp4557
g56
(g57
g58
NtRp4558
(dp4559
g61
(dp4560
g69
I3
ssg70
g4554
sg63
(lp4561
S'/gallery/search/gettags.json'
p4562
asbasbasbag56
(g72
g58
NtRp4563
(dp4564
g61
(dp4565
sg70
g4521
sg63
(lp4566
g56
(g77
g58
NtRp4567
(dp4568
g61
(dp4569
sg70
g4563
sg63
(lp4570
g56
(g57
g58
NtRp4571
(dp4572
g61
(dp4573
g69
I3
ssg70
g4567
sg63
(lp4574
g56
(g65
g58
NtRp4575
(dp4576
g61
(dp4577
g69
I2
ssg70
Nsg63
(lp4578
sbasbasbasbasbasbasbasbag56
(g72
g58
NtRp4579
(dp4580
g61
(dp4581
sg70
g4154
sg63
(lp4582
g56
(g77
g58
NtRp4583
(dp4584
g61
(dp4585
sg70
g4579
sg63
(lp4586
g56
(g57
g58
NtRp4587
(dp4588
g61
(dp4589
g69
I4
ssg70
g4583
sg63
(lp4590
g56
(g65
g58
NtRp4591
(dp4592
g61
(dp4593
g69
I3
ssg70
Nsg63
(lp4594
g56
(g72
g58
NtRp4595
(dp4596
g61
(dp4597
sg70
g4591
sg63
(lp4598
g56
(g77
g58
NtRp4599
(dp4600
g61
(dp4601
sg70
g4595
sg63
(lp4602
g56
(g57
g58
NtRp4603
(dp4604
g61
(dp4605
g69
I3
ssg70
g4599
sg63
(lp4606
g4186
(S's\x05\x00\x00\x00Admin'
tRp4607
asbasbasbag56
(g72
g58
NtRp4608
(dp4609
g61
(dp4610
sg70
g4591
sg63
(lp4611
g56
(g77
g58
NtRp4612
(dp4613
g61
(dp4614
sg70
g4608
sg63
(lp4615
g56
(g57
g58
NtRp4616
(dp4617
g61
(dp4618
g69
I3
ssg70
g4612
sg63
(lp4619
g1351
asbasbasbag56
(g72
g58
NtRp4620
(dp4621
g61
(dp4622
sg70
g4591
sg63
(lp4623
g56
(g77
g58
NtRp4624
(dp4625
g61
(dp4626
sg70
g4620
sg63
(lp4627
g56
(g57
g58
NtRp4628
(dp4629
g61
(dp4630
g69
I3
ssg70
g4624
sg63
(lp4631
S'/admin/default/index.json'
p4632
asbasbasbag56
(g72
g58
NtRp4633
(dp4634
g61
(dp4635
sg70
g4591
sg63
(lp4636
g56
(g77
g58
NtRp4637
(dp4638
g61
(dp4639
sg70
g4633
sg63
(lp4640
g56
(g57
g58
NtRp4641
(dp4642
g61
(dp4643
g69
I3
ssg70
g4637
sg63
(lp4644
g56
(g65
g58
NtRp4645
(dp4646
g61
(dp4647
g69
I2
ssg70
Nsg63
(lp4648
sbasbasbasbasbasbasbasbasbasbasbasbag56
(g72
g58
NtRp4649
(dp4650
g61
(dp4651
sg70
g3681
sg63
(lp4652
g56
(g77
g58
NtRp4653
(dp4654
g61
(dp4655
g81
g82
ssg70
g4649
sg63
(lp4656
S'meta'
p4657
asbag56
(g77
g58
NtRp4658
(dp4659
g61
(dp4660
g88
g89
ssg70
g4649
sg63
(lp4661
S':'
asbag56
(g77
g58
NtRp4662
(dp4663
g61
(dp4664
sg70
g4649
sg63
(lp4665
g56
(g57
g58
NtRp4666
(dp4667
g61
(dp4668
g69
I5
ssg70
g4662
sg63
(lp4669
g56
(g65
g58
NtRp4670
(dp4671
g61
(dp4672
g69
I4
ssg70
Nsg63
(lp4673
g56
(g72
g58
NtRp4674
(dp4675
g61
(dp4676
sg70
g4670
sg63
(lp4677
g56
(g77
g58
NtRp4678
(dp4679
g61
(dp4680
g81
g82
ssg70
g4674
sg63
(lp4681
S'author'
p4682
asbag56
(g77
g58
NtRp4683
(dp4684
g61
(dp4685
g88
g89
ssg70
g4674
sg63
(lp4686
S':'
asbag56
(g77
g58
NtRp4687
(dp4688
g61
(dp4689
sg70
g4674
sg63
(lp4690
g56
(g57
g58
NtRp4691
(dp4692
g61
(dp4693
g69
I4
ssg70
g4687
sg63
(lp4694
S'Your Name <you@example.com>'
p4695
asbasbasbag56
(g72
g58
NtRp4696
(dp4697
g61
(dp4698
sg70
g4670
sg63
(lp4699
g56
(g77
g58
NtRp4700
(dp4701
g61
(dp4702
g81
g82
ssg70
g4696
sg63
(lp4703
S'copyright'
p4704
asbag56
(g77
g58
NtRp4705
(dp4706
g61
(dp4707
g88
g89
ssg70
g4696
sg63
(lp4708
S':'
asbag56
(g77
g58
NtRp4709
(dp4710
g61
(dp4711
sg70
g4696
sg63
(lp4712
g56
(g57
g58
NtRp4713
(dp4714
g61
(dp4715
g69
I4
ssg70
g4709
sg63
(lp4716
S'Copyright 2011'
p4717
asbasbasbag56
(g72
g58
NtRp4718
(dp4719
g61
(dp4720
sg70
g4670
sg63
(lp4721
g56
(g77
g58
NtRp4722
(dp4723
g61
(dp4724
g81
g82
ssg70
g4718
sg63
(lp4725
S'description'
p4726
asbag56
(g77
g58
NtRp4727
(dp4728
g61
(dp4729
g88
g89
ssg70
g4718
sg63
(lp4730
S':'
asbag56
(g77
g58
NtRp4731
(dp4732
g61
(dp4733
sg70
g4718
sg63
(lp4734
g56
(g57
g58
NtRp4735
(dp4736
g61
(dp4737
g69
I4
ssg70
g4731
sg63
(lp4738
S'a cool new app'
p4739
asbasbasbag56
(g72
g58
NtRp4740
(dp4741
g61
(dp4742
sg70
g4670
sg63
(lp4743
g56
(g77
g58
NtRp4744
(dp4745
g61
(dp4746
g81
g82
ssg70
g4740
sg63
(lp4747
S'generator'
p4748
asbag56
(g77
g58
NtRp4749
(dp4750
g61
(dp4751
g88
g89
ssg70
g4740
sg63
(lp4752
S':'
asbag56
(g77
g58
NtRp4753
(dp4754
g61
(dp4755
sg70
g4740
sg63
(lp4756
g56
(g57
g58
NtRp4757
(dp4758
g61
(dp4759
g69
I4
ssg70
g4753
sg63
(lp4760
S'Web2py Web Framework'
p4761
asbasbasbag56
(g72
g58
NtRp4762
(dp4763
g61
(dp4764
sg70
g4670
sg63
(lp4765
g56
(g77
g58
NtRp4766
(dp4767
g61
(dp4768
g81
g82
ssg70
g4762
sg63
(lp4769
S'keywords'
p4770
asbag56
(g77
g58
NtRp4771
(dp4772
g61
(dp4773
g88
g89
ssg70
g4762
sg63
(lp4774
S':'
asbag56
(g77
g58
NtRp4775
(dp4776
g61
(dp4777
sg70
g4762
sg63
(lp4778
g56
(g57
g58
NtRp4779
(dp4780
g61
(dp4781
g69
I4
ssg70
g4775
sg63
(lp4782
S'web2py, python, framework'
p4783
asbasbasbasbasbasbasbag56
(g72
g58
NtRp4784
(dp4785
g61
(dp4786
sg70
g3681
sg63
(lp4787
g56
(g77
g58
NtRp4788
(dp4789
g61
(dp4790
g81
g82
ssg70
g4784
sg63
(lp4791
S'postprocessing'
p4792
asbag56
(g77
g58
NtRp4793
(dp4794
g61
(dp4795
g88
g89
ssg70
g4784
sg63
(lp4796
S':'
asbag56
(g77
g58
NtRp4797
(dp4798
g61
(dp4799
sg70
g4784
sg63
(lp4800
g56
(g57
g58
NtRp4801
(dp4802
g61
(dp4803
g69
I5
ssg70
g4797
sg63
(lp4804
g56
(g65
g58
NtRp4805
(dp4806
g61
(dp4807
g69
I4
ssg70
Nsg63
(lp4808
sbasbasbasbag56
(g72
g58
NtRp4809
(dp4810
g61
(dp4811
sg70
g3681
sg63
(lp4812
g56
(g77
g58
NtRp4813
(dp4814
g61
(dp4815
g81
g82
ssg70
g4809
sg63
(lp4816
S'session_file'
p4817
asbag56
(g77
g58
NtRp4818
(dp4819
g61
(dp4820
g88
g89
ssg70
g4809
sg63
(lp4821
S':'
asbag56
(g77
g58
NtRp4822
(dp4823
g61
(dp4824
sg70
g4809
sg63
(lp4825
g56
(g57
g58
NtRp4826
(dp4827
g61
(dp4828
g69
I5
ssg70
g4822
sg63
(lp4829
S"<open file '/home/brencam/web2py/applications/gallery/sessions/127.0.0.1-dc8c13ed-0f92-4ade-ab82-5940ed42a3a5', mode 'rb+' at 0xaf30cf98>"
p4830
asbasbasbag56
(g72
g58
NtRp4831
(dp4832
g61
(dp4833
sg70
g3681
sg63
(lp4834
g56
(g77
g58
NtRp4835
(dp4836
g61
(dp4837
g81
g82
ssg70
g4831
sg63
(lp4838
S'session_filename'
p4839
asbag56
(g77
g58
NtRp4840
(dp4841
g61
(dp4842
g88
g89
ssg70
g4831
sg63
(lp4843
S':'
asbag56
(g77
g58
NtRp4844
(dp4845
g61
(dp4846
sg70
g4831
sg63
(lp4847
g56
(g57
g58
NtRp4848
(dp4849
g61
(dp4850
g69
I5
ssg70
g4844
sg63
(lp4851
S'/home/brencam/web2py/applications/gallery/sessions/127.0.0.1-dc8c13ed-0f92-4ade-ab82-5940ed42a3a5'
p4852
asbasbasbag56
(g72
g58
NtRp4853
(dp4854
g61
(dp4855
sg70
g3681
sg63
(lp4856
g56
(g77
g58
NtRp4857
(dp4858
g61
(dp4859
g81
g82
ssg70
g4853
sg63
(lp4860
S'session_id'
p4861
asbag56
(g77
g58
NtRp4862
(dp4863
g61
(dp4864
g88
g89
ssg70
g4853
sg63
(lp4865
S':'
asbag56
(g77
g58
NtRp4866
(dp4867
g61
(dp4868
sg70
g4853
sg63
(lp4869
g56
(g57
g58
NtRp4870
(dp4871
g61
(dp4872
g69
I5
ssg70
g4866
sg63
(lp4873
S'127.0.0.1-dc8c13ed-0f92-4ade-ab82-5940ed42a3a5'
p4874
asbasbasbag56
(g72
g58
NtRp4875
(dp4876
g61
(dp4877
sg70
g3681
sg63
(lp4878
g56
(g77
g58
NtRp4879
(dp4880
g61
(dp4881
g81
g82
ssg70
g4875
sg63
(lp4882
S'session_id_name'
p4883
asbag56
(g77
g58
NtRp4884
(dp4885
g61
(dp4886
g88
g89
ssg70
g4875
sg63
(lp4887
S':'
asbag56
(g77
g58
NtRp4888
(dp4889
g61
(dp4890
sg70
g4875
sg63
(lp4891
g56
(g57
g58
NtRp4892
(dp4893
g61
(dp4894
g69
I5
ssg70
g4888
sg63
(lp4895
g3738
asbasbasbag56
(g72
g58
NtRp4896
(dp4897
g61
(dp4898
sg70
g3681
sg63
(lp4899
g56
(g77
g58
NtRp4900
(dp4901
g61
(dp4902
g81
g82
ssg70
g4896
sg63
(lp4903
S'session_locked'
p4904
asbag56
(g77
g58
NtRp4905
(dp4906
g61
(dp4907
g88
g89
ssg70
g4896
sg63
(lp4908
S':'
asbag56
(g77
g58
NtRp4909
(dp4910
g61
(dp4911
sg70
g4896
sg63
(lp4912
g56
(g57
g58
NtRp4913
(dp4914
g61
(dp4915
g69
I5
ssg70
g4909
sg63
(lp4916
g99
asbasbasbag56
(g72
g58
NtRp4917
(dp4918
g61
(dp4919
sg70
g3681
sg63
(lp4920
g56
(g77
g58
NtRp4921
(dp4922
g61
(dp4923
g81
g82
ssg70
g4917
sg63
(lp4924
S'session_new'
p4925
asbag56
(g77
g58
NtRp4926
(dp4927
g61
(dp4928
g88
g89
ssg70
g4917
sg63
(lp4929
S':'
asbag56
(g77
g58
NtRp4930
(dp4931
g61
(dp4932
sg70
g4917
sg63
(lp4933
g56
(g57
g58
NtRp4934
(dp4935
g61
(dp4936
g69
I5
ssg70
g4930
sg63
(lp4937
g1351
asbasbasbag56
(g72
g58
NtRp4938
(dp4939
g61
(dp4940
sg70
g3681
sg63
(lp4941
g56
(g77
g58
NtRp4942
(dp4943
g61
(dp4944
g81
g82
ssg70
g4938
sg63
(lp4945
S'status'
p4946
asbag56
(g77
g58
NtRp4947
(dp4948
g61
(dp4949
g88
g89
ssg70
g4938
sg63
(lp4950
S':'
asbag56
(g77
g58
NtRp4951
(dp4952
g61
(dp4953
sg70
g4938
sg63
(lp4954
g56
(g57
g58
NtRp4955
(dp4956
g61
(dp4957
g69
I5
ssg70
g4951
sg63
(lp4958
S'200'
p4959
asbasbasbag56
(g72
g58
NtRp4960
(dp4961
g61
(dp4962
sg70
g3681
sg63
(lp4963
g56
(g77
g58
NtRp4964
(dp4965
g61
(dp4966
g81
g82
ssg70
g4960
sg63
(lp4967
S'subtitle'
p4968
asbag56
(g77
g58
NtRp4969
(dp4970
g61
(dp4971
g88
g89
ssg70
g4960
sg63
(lp4972
S':'
asbag56
(g77
g58
NtRp4973
(dp4974
g61
(dp4975
sg70
g4960
sg63
(lp4976
g56
(g57
g58
NtRp4977
(dp4978
g61
(dp4979
g69
I5
ssg70
g4973
sg63
(lp4980
g4186
(S's1\x00\x00\x00Web2py and CSS, JQuery vs Dojo Image Gallery Demo'
tRp4981
asbasbasbag56
(g72
g58
NtRp4982
(dp4983
g61
(dp4984
sg70
g3681
sg63
(lp4985
g56
(g77
g58
NtRp4986
(dp4987
g61
(dp4988
g81
g82
ssg70
g4982
sg63
(lp4989
S'title'
p4990
asbag56
(g77
g58
NtRp4991
(dp4992
g61
(dp4993
g88
g89
ssg70
g4982
sg63
(lp4994
S':'
asbag56
(g77
g58
NtRp4995
(dp4996
g61
(dp4997
sg70
g4982
sg63
(lp4998
g56
(g57
g58
NtRp4999
(dp5000
g61
(dp5001
g69
I5
ssg70
g4995
sg63
(lp5002
S'My Photo Gallery Demo'
p5003
asbasbasbag56
(g72
g58
NtRp5004
(dp5005
g61
(dp5006
sg70
g3681
sg63
(lp5007
g56
(g77
g58
NtRp5008
(dp5009
g61
(dp5010
g81
g82
ssg70
g5004
sg63
(lp5011
g2800
asbag56
(g77
g58
NtRp5012
(dp5013
g61
(dp5014
g88
g89
ssg70
g5004
sg63
(lp5015
S':'
asbag56
(g77
g58
NtRp5016
(dp5017
g61
(dp5018
sg70
g5004
sg63
(lp5019
g56
(g57
g58
NtRp5020
(dp5021
g61
(dp5022
g69
I5
ssg70
g5016
sg63
(lp5023
g2813
asbasbasbag56
(g72
g58
NtRp5024
(dp5025
g61
(dp5026
sg70
g3681
sg63
(lp5027
g56
(g77
g58
NtRp5028
(dp5029
g61
(dp5030
g81
g82
ssg70
g5024
sg63
(lp5031
S'view'
p5032
asbag56
(g77
g58
NtRp5033
(dp5034
g61
(dp5035
g88
g89
ssg70
g5024
sg63
(lp5036
S':'
asbag56
(g77
g58
NtRp5037
(dp5038
g61
(dp5039
sg70
g5024
sg63
(lp5040
g56
(g57
g58
NtRp5041
(dp5042
g61
(dp5043
g69
I5
ssg70
g5037
sg63
(lp5044
S'search/xmlgettags.json'
p5045
asbasbasbasbasbsS'locals'
p5046
(dp5047
S'tags'
p5048
S'<gluon.dal.Rows object>'
p5049
sssS'traceback'
p5050
S'Traceback (most recent call last):\n  File "/home/brencam/web2py/gluon/restricted.py", line 194, in restricted\n    exec ccode in environment\n  File "/home/brencam/web2py/applications/gallery/controllers/search.py", line 156, in <module>\n  File "/home/brencam/web2py/gluon/globals.py", line 149, in <lambda>\n    self._caller = lambda f: f()\n  File "/home/brencam/web2py/applications/gallery/controllers/search.py", line 42, in xmlgettags\n    return dict(tags)\nValueError: dictionary update sequence element #0 has length 5; 2 is required\n'
p5051
s.