(dp1
S'output'
p2
S''
sS'layer'
p3
S'/home/brencam/web2py/applications/gallery/models/db.py'
p4
sS'code'
p5
S'# -*- coding: utf-8 -*-\n\n#########################################################################\n## This scaffolding model makes your app work on Google App Engine too\n## File is released under public domain and you can use without limitations\n#########################################################################\n\n#response.title = "My Photo Gallery Demo"\n\nif not request.env.web2py_runtime_gae:     \n    ## if NOT running on Google App Engine use SQLite or other DB\n    db = DAL(\'sqlite://storage.sqlite\') \nelse:\n    ## connect to Google BigTable (optional \'google:datastore://namespace\')\n    db = DAL(\'google:datastore\') \n    ## store sessions and tickets there\n    session.connect(request, response, db = db) \n    ## or store session in Memcache, Redis, etc.\n    ## from gluon.contrib.memdb import MEMDB\n    ## from google.appengine.api.memcache import Client\n    ## session.connect(request, response, db = MEMDB(Client()))\n\n## by default give a view/generic.extension to all actions from localhost\n## none otherwise. a pattern can be \'controller/function.extension\'\nresponse.generic_patterns = [\'*\'] if request.is_local else []\n\n#########################################################################\n## Here is sample code if you need for\n## - email capabilities\n## - authentication (registration, login, logout, ... )\n## - authorization (role based authorization)\n## - services (xml, csv, json, xmlrpc, jsonrpc, amf, rss)\n## - old style crud actions\n## (more options discussed in gluon/tools.py)\n#########################################################################\n\nfrom gluon.tools import Auth, Crud, Service, PluginManager, prettydate\nauth = Auth(db, hmac_key=Auth.get_or_create_key()) \ncrud, service, plugins = Crud(db), Service(), PluginManager()\n\n## create all tables needed by auth if not custom tables\nauth.define_tables() \n\n## configure email\nmail=auth.settings.mailer\nmail.settings.server = \'logging\' or \'smtp.gmail.com:587\'\nmail.settings.sender = \'you@gmail.com\'\nmail.settings.login = \'username:password\'\n\n## configure auth policy\nauth.settings.registration_requires_verification = False\nauth.settings.registration_requires_approval = False\nauth.settings.reset_password_requires_verification = True\n\n## if you need to use OpenID, Facebook, MySpace, Twitter, Linkedin, etc.\n## register with janrain.com, write your domain:api_key in private/janrain.key\n## from gluon.contrib.login_methods.rpx_account import use_janrain\n## use_janrain(auth,filename=\'private/janrain.key\')\n\n#########################################################################\n## Define your tables below (or better in another model file) for example\n##\n## >>> db.define_table(\'mytable\',Field(\'myfield\',\'string\'))\n##\n## Fields can be \'string\',\'text\',\'password\',\'integer\',\'double\',\'boolean\'\n##       \'date\',\'time\',\'datetime\',\'blob\',\'upload\', \'reference TABLENAME\'\n## There is an implicit \'id integer autoincrement\' field\n## Consult manual for more options, validators, etc.\n##\n## More API examples for controllers:\n##\n## >>> db.mytable.insert(myfield=\'value\')\n## >>> rows=db(db.mytable.myfield==\'value\').select(db.mytable.ALL)\n## >>> for row in rows: print row.id, row.myfield\n#########################################################################\n\n\n## 10/28/2011 - db for image gallery\n\ndb.define_table(\'image\',\n   Field(\'title\', unique=True),\n   Field(\'file\', \'upload\'),\n   format = \'%(title)s\')\n\ndb.define_table(\'comment\',\n   Field(\'image_id\', db.image),\n   Field(\'author\'),\n   Field(\'email\'),\n   Field(\'body\', \'text\'))\n\ndb.image.title.requires = IS_NOT_IN_DB(db, db.image.title)\ndb.comment.image_id.requires = IS_IN_DB(db, db.image.id, \'%(title)s\')\ndb.comment.author.requires = IS_NOT_EMPTY()\ndb.comment.email.requires = IS_EMAIL()\ndb.comment.body.requires = IS_NOT_EMPTY()\n\ndb.comment.image_id.writable = db.comment.image_id.readable = False\n\n'
p6
sS'snapshot'
p7
(dp8
S'exception'
p9
(dp10
S'__module__'
p11
S"'sqlite3'"
p12
sS'__getslice__'
p13
S"<method-wrapper '__getslice__' of OperationalError object>"
p14
sS'__str__'
p15
S"<method-wrapper '__str__' of OperationalError object>"
p16
sS'__reduce__'
p17
S'<built-in method __reduce__ of OperationalError object>'
p18
sS'__dict__'
p19
S'{}'
p20
sS'__sizeof__'
p21
S'<built-in method __sizeof__ of OperationalError object>'
p22
sS'__weakref__'
p23
S'None'
p24
sS'__init__'
p25
S"<method-wrapper '__init__' of OperationalError object>"
p26
sS'__setattr__'
p27
S"<method-wrapper '__setattr__' of OperationalError object>"
p28
sS'__reduce_ex__'
p29
S'<built-in method __reduce_ex__ of OperationalError object>'
p30
sS'__new__'
p31
S'<built-in method __new__ of type object>'
p32
sS'__format__'
p33
S'<built-in method __format__ of OperationalError object>'
p34
sS'__class__'
p35
S"<class 'sqlite3.OperationalError'>"
p36
sS'__doc__'
p37
S'None'
p38
sS'__getitem__'
p39
S"<method-wrapper '__getitem__' of OperationalError object>"
p40
sS'__setstate__'
p41
S'<built-in method __setstate__ of OperationalError object>'
p42
sS'__getattribute__'
p43
S"<method-wrapper '__getattribute__' of OperationalError object>"
p44
sS'args'
p45
S"('table auth_user already exists',)"
p46
sS'__subclasshook__'
p47
S'<built-in method __subclasshook__ of type object>'
p48
sS'__unicode__'
p49
S'<built-in method __unicode__ of OperationalError object>'
p50
sS'__delattr__'
p51
S"<method-wrapper '__delattr__' of OperationalError object>"
p52
sS'__repr__'
p53
S"<method-wrapper '__repr__' of OperationalError object>"
p54
sS'__hash__'
p55
S"<method-wrapper '__hash__' of OperationalError object>"
p56
ssS'evalue'
p57
S'table auth_user already exists'
p58
sS'request'
p59
ccopy_reg
_reconstructor
p60
(cgluon.html
BEAUTIFY
p61
c__builtin__
object
p62
NtRp63
(dp64
S'attributes'
p65
(dp66
sS'components'
p67
(lp68
g60
(cgluon.html
TABLE
p69
g62
NtRp70
(dp71
g65
(dp72
S'level'
p73
I5
ssS'parent'
p74
Nsg67
(lp75
g60
(cgluon.html
TR
p76
g62
NtRp77
(dp78
g65
(dp79
sg74
g70
sg67
(lp80
g60
(cgluon.html
TD
p81
g62
NtRp82
(dp83
g65
(dp84
S'_style'
p85
S'font-weight:bold;'
p86
ssg74
g77
sg67
(lp87
S'ajax'
p88
asbag60
(g81
g62
NtRp89
(dp90
g65
(dp91
S'_valign'
p92
S'top'
p93
ssg74
g77
sg67
(lp94
S':'
asbag60
(g81
g62
NtRp95
(dp96
g65
(dp97
sg74
g77
sg67
(lp98
g60
(g61
g62
NtRp99
(dp100
g65
(dp101
g73
I5
ssg74
g95
sg67
(lp102
S'False'
p103
asbasbasbag60
(g76
g62
NtRp104
(dp105
g65
(dp106
sg74
g70
sg67
(lp107
g60
(g81
g62
NtRp108
(dp109
g65
(dp110
g85
g86
ssg74
g104
sg67
(lp111
S'application'
p112
asbag60
(g81
g62
NtRp113
(dp114
g65
(dp115
g92
g93
ssg74
g104
sg67
(lp116
S':'
asbag60
(g81
g62
NtRp117
(dp118
g65
(dp119
sg74
g104
sg67
(lp120
g60
(g61
g62
NtRp121
(dp122
g65
(dp123
g73
I5
ssg74
g117
sg67
(lp124
S'gallery'
p125
asbasbasbag60
(g76
g62
NtRp126
(dp127
g65
(dp128
sg74
g70
sg67
(lp129
g60
(g81
g62
NtRp130
(dp131
g65
(dp132
g85
g86
ssg74
g126
sg67
(lp133
g45
asbag60
(g81
g62
NtRp134
(dp135
g65
(dp136
g92
g93
ssg74
g126
sg67
(lp137
S':'
asbag60
(g81
g62
NtRp138
(dp139
g65
(dp140
sg74
g126
sg67
(lp141
g60
(g61
g62
NtRp142
(dp143
g65
(dp144
g73
I5
ssg74
g138
sg67
(lp145
g60
(g69
g62
NtRp146
(dp147
g65
(dp148
g73
I4
ssg74
Nsg67
(lp149
sbasbasbasbag60
(g76
g62
NtRp150
(dp151
g65
(dp152
sg74
g70
sg67
(lp153
g60
(g81
g62
NtRp154
(dp155
g65
(dp156
g85
g86
ssg74
g150
sg67
(lp157
S'body'
p158
asbag60
(g81
g62
NtRp159
(dp160
g65
(dp161
g92
g93
ssg74
g150
sg67
(lp162
S':'
asbag60
(g81
g62
NtRp163
(dp164
g65
(dp165
sg74
g150
sg67
(lp166
g60
(g61
g62
NtRp167
(dp168
g65
(dp169
g73
I5
ssg74
g163
sg67
(lp170
S'<cStringIO.StringO object at 0x8d0c200>'
p171
asbasbasbag60
(g76
g62
NtRp172
(dp173
g65
(dp174
sg74
g70
sg67
(lp175
g60
(g81
g62
NtRp176
(dp177
g65
(dp178
g85
g86
ssg74
g172
sg67
(lp179
S'client'
p180
asbag60
(g81
g62
NtRp181
(dp182
g65
(dp183
g92
g93
ssg74
g172
sg67
(lp184
S':'
asbag60
(g81
g62
NtRp185
(dp186
g65
(dp187
sg74
g172
sg67
(lp188
g60
(g61
g62
NtRp189
(dp190
g65
(dp191
g73
I5
ssg74
g185
sg67
(lp192
S'127.0.0.1'
p193
asbasbasbag60
(g76
g62
NtRp194
(dp195
g65
(dp196
sg74
g70
sg67
(lp197
g60
(g81
g62
NtRp198
(dp199
g65
(dp200
g85
g86
ssg74
g194
sg67
(lp201
S'controller'
p202
asbag60
(g81
g62
NtRp203
(dp204
g65
(dp205
g92
g93
ssg74
g194
sg67
(lp206
S':'
asbag60
(g81
g62
NtRp207
(dp208
g65
(dp209
sg74
g194
sg67
(lp210
g60
(g61
g62
NtRp211
(dp212
g65
(dp213
g73
I5
ssg74
g207
sg67
(lp214
S'default'
p215
asbasbasbag60
(g76
g62
NtRp216
(dp217
g65
(dp218
sg74
g70
sg67
(lp219
g60
(g81
g62
NtRp220
(dp221
g65
(dp222
g85
g86
ssg74
g216
sg67
(lp223
S'cookies'
p224
asbag60
(g81
g62
NtRp225
(dp226
g65
(dp227
g92
g93
ssg74
g216
sg67
(lp228
S':'
asbag60
(g81
g62
NtRp229
(dp230
g65
(dp231
sg74
g216
sg67
(lp232
g60
(g61
g62
NtRp233
(dp234
g65
(dp235
g73
I5
ssg74
g229
sg67
(lp236
g60
(g69
g62
NtRp237
(dp238
g65
(dp239
g73
I4
ssg74
Nsg67
(lp240
g60
(g76
g62
NtRp241
(dp242
g65
(dp243
sg74
g237
sg67
(lp244
g60
(g81
g62
NtRp245
(dp246
g65
(dp247
g85
g86
ssg74
g241
sg67
(lp248
S'csrftoken'
p249
asbag60
(g81
g62
NtRp250
(dp251
g65
(dp252
g92
g93
ssg74
g241
sg67
(lp253
S':'
asbag60
(g81
g62
NtRp254
(dp255
g65
(dp256
sg74
g241
sg67
(lp257
g60
(g61
g62
NtRp258
(dp259
g65
(dp260
g73
I4
ssg74
g254
sg67
(lp261
g60
(g69
g62
NtRp262
(dp263
g65
(dp264
g73
I3
ssg74
Nsg67
(lp265
g60
(g76
g62
NtRp266
(dp267
g65
(dp268
sg74
g262
sg67
(lp269
g60
(g81
g62
NtRp270
(dp271
g65
(dp272
g85
g86
ssg74
g266
sg67
(lp273
S'comment'
p274
asbag60
(g81
g62
NtRp275
(dp276
g65
(dp277
g92
g93
ssg74
g266
sg67
(lp278
S':'
asbag60
(g81
g62
NtRp279
(dp280
g65
(dp281
sg74
g266
sg67
(lp282
g60
(g61
g62
NtRp283
(dp284
g65
(dp285
g73
I3
ssg74
g279
sg67
(lp286
S''
asbasbasbag60
(g76
g62
NtRp287
(dp288
g65
(dp289
sg74
g262
sg67
(lp290
g60
(g81
g62
NtRp291
(dp292
g65
(dp293
g85
g86
ssg74
g287
sg67
(lp294
S'domain'
p295
asbag60
(g81
g62
NtRp296
(dp297
g65
(dp298
g92
g93
ssg74
g287
sg67
(lp299
S':'
asbag60
(g81
g62
NtRp300
(dp301
g65
(dp302
sg74
g287
sg67
(lp303
g60
(g61
g62
NtRp304
(dp305
g65
(dp306
g73
I3
ssg74
g300
sg67
(lp307
S''
asbasbasbag60
(g76
g62
NtRp308
(dp309
g65
(dp310
sg74
g262
sg67
(lp311
g60
(g81
g62
NtRp312
(dp313
g65
(dp314
g85
g86
ssg74
g308
sg67
(lp315
S'expires'
p316
asbag60
(g81
g62
NtRp317
(dp318
g65
(dp319
g92
g93
ssg74
g308
sg67
(lp320
S':'
asbag60
(g81
g62
NtRp321
(dp322
g65
(dp323
sg74
g308
sg67
(lp324
g60
(g61
g62
NtRp325
(dp326
g65
(dp327
g73
I3
ssg74
g321
sg67
(lp328
S''
asbasbasbag60
(g76
g62
NtRp329
(dp330
g65
(dp331
sg74
g262
sg67
(lp332
g60
(g81
g62
NtRp333
(dp334
g65
(dp335
g85
g86
ssg74
g329
sg67
(lp336
S'httponly'
p337
asbag60
(g81
g62
NtRp338
(dp339
g65
(dp340
g92
g93
ssg74
g329
sg67
(lp341
S':'
asbag60
(g81
g62
NtRp342
(dp343
g65
(dp344
sg74
g329
sg67
(lp345
g60
(g61
g62
NtRp346
(dp347
g65
(dp348
g73
I3
ssg74
g342
sg67
(lp349
S''
asbasbasbag60
(g76
g62
NtRp350
(dp351
g65
(dp352
sg74
g262
sg67
(lp353
g60
(g81
g62
NtRp354
(dp355
g65
(dp356
g85
g86
ssg74
g350
sg67
(lp357
S'max-age'
p358
asbag60
(g81
g62
NtRp359
(dp360
g65
(dp361
g92
g93
ssg74
g350
sg67
(lp362
S':'
asbag60
(g81
g62
NtRp363
(dp364
g65
(dp365
sg74
g350
sg67
(lp366
g60
(g61
g62
NtRp367
(dp368
g65
(dp369
g73
I3
ssg74
g363
sg67
(lp370
S''
asbasbasbag60
(g76
g62
NtRp371
(dp372
g65
(dp373
sg74
g262
sg67
(lp374
g60
(g81
g62
NtRp375
(dp376
g65
(dp377
g85
g86
ssg74
g371
sg67
(lp378
S'path'
p379
asbag60
(g81
g62
NtRp380
(dp381
g65
(dp382
g92
g93
ssg74
g371
sg67
(lp383
S':'
asbag60
(g81
g62
NtRp384
(dp385
g65
(dp386
sg74
g371
sg67
(lp387
g60
(g61
g62
NtRp388
(dp389
g65
(dp390
g73
I3
ssg74
g384
sg67
(lp391
S''
asbasbasbag60
(g76
g62
NtRp392
(dp393
g65
(dp394
sg74
g262
sg67
(lp395
g60
(g81
g62
NtRp396
(dp397
g65
(dp398
g85
g86
ssg74
g392
sg67
(lp399
S'secure'
p400
asbag60
(g81
g62
NtRp401
(dp402
g65
(dp403
g92
g93
ssg74
g392
sg67
(lp404
S':'
asbag60
(g81
g62
NtRp405
(dp406
g65
(dp407
sg74
g392
sg67
(lp408
g60
(g61
g62
NtRp409
(dp410
g65
(dp411
g73
I3
ssg74
g405
sg67
(lp412
S''
asbasbasbag60
(g76
g62
NtRp413
(dp414
g65
(dp415
sg74
g262
sg67
(lp416
g60
(g81
g62
NtRp417
(dp418
g65
(dp419
g85
g86
ssg74
g413
sg67
(lp420
S'version'
p421
asbag60
(g81
g62
NtRp422
(dp423
g65
(dp424
g92
g93
ssg74
g413
sg67
(lp425
S':'
asbag60
(g81
g62
NtRp426
(dp427
g65
(dp428
sg74
g413
sg67
(lp429
g60
(g61
g62
NtRp430
(dp431
g65
(dp432
g73
I3
ssg74
g426
sg67
(lp433
S''
asbasbasbasbasbasbasbag60
(g76
g62
NtRp434
(dp435
g65
(dp436
sg74
g237
sg67
(lp437
g60
(g81
g62
NtRp438
(dp439
g65
(dp440
g85
g86
ssg74
g434
sg67
(lp441
S'session_id_admin'
p442
asbag60
(g81
g62
NtRp443
(dp444
g65
(dp445
g92
g93
ssg74
g434
sg67
(lp446
S':'
asbag60
(g81
g62
NtRp447
(dp448
g65
(dp449
sg74
g434
sg67
(lp450
g60
(g61
g62
NtRp451
(dp452
g65
(dp453
g73
I4
ssg74
g447
sg67
(lp454
g60
(g69
g62
NtRp455
(dp456
g65
(dp457
g73
I3
ssg74
Nsg67
(lp458
g60
(g76
g62
NtRp459
(dp460
g65
(dp461
sg74
g455
sg67
(lp462
g60
(g81
g62
NtRp463
(dp464
g65
(dp465
g85
g86
ssg74
g459
sg67
(lp466
g274
asbag60
(g81
g62
NtRp467
(dp468
g65
(dp469
g92
g93
ssg74
g459
sg67
(lp470
S':'
asbag60
(g81
g62
NtRp471
(dp472
g65
(dp473
sg74
g459
sg67
(lp474
g60
(g61
g62
NtRp475
(dp476
g65
(dp477
g73
I3
ssg74
g471
sg67
(lp478
S''
asbasbasbag60
(g76
g62
NtRp479
(dp480
g65
(dp481
sg74
g455
sg67
(lp482
g60
(g81
g62
NtRp483
(dp484
g65
(dp485
g85
g86
ssg74
g479
sg67
(lp486
g295
asbag60
(g81
g62
NtRp487
(dp488
g65
(dp489
g92
g93
ssg74
g479
sg67
(lp490
S':'
asbag60
(g81
g62
NtRp491
(dp492
g65
(dp493
sg74
g479
sg67
(lp494
g60
(g61
g62
NtRp495
(dp496
g65
(dp497
g73
I3
ssg74
g491
sg67
(lp498
S''
asbasbasbag60
(g76
g62
NtRp499
(dp500
g65
(dp501
sg74
g455
sg67
(lp502
g60
(g81
g62
NtRp503
(dp504
g65
(dp505
g85
g86
ssg74
g499
sg67
(lp506
g316
asbag60
(g81
g62
NtRp507
(dp508
g65
(dp509
g92
g93
ssg74
g499
sg67
(lp510
S':'
asbag60
(g81
g62
NtRp511
(dp512
g65
(dp513
sg74
g499
sg67
(lp514
g60
(g61
g62
NtRp515
(dp516
g65
(dp517
g73
I3
ssg74
g511
sg67
(lp518
S''
asbasbasbag60
(g76
g62
NtRp519
(dp520
g65
(dp521
sg74
g455
sg67
(lp522
g60
(g81
g62
NtRp523
(dp524
g65
(dp525
g85
g86
ssg74
g519
sg67
(lp526
g337
asbag60
(g81
g62
NtRp527
(dp528
g65
(dp529
g92
g93
ssg74
g519
sg67
(lp530
S':'
asbag60
(g81
g62
NtRp531
(dp532
g65
(dp533
sg74
g519
sg67
(lp534
g60
(g61
g62
NtRp535
(dp536
g65
(dp537
g73
I3
ssg74
g531
sg67
(lp538
S''
asbasbasbag60
(g76
g62
NtRp539
(dp540
g65
(dp541
sg74
g455
sg67
(lp542
g60
(g81
g62
NtRp543
(dp544
g65
(dp545
g85
g86
ssg74
g539
sg67
(lp546
g358
asbag60
(g81
g62
NtRp547
(dp548
g65
(dp549
g92
g93
ssg74
g539
sg67
(lp550
S':'
asbag60
(g81
g62
NtRp551
(dp552
g65
(dp553
sg74
g539
sg67
(lp554
g60
(g61
g62
NtRp555
(dp556
g65
(dp557
g73
I3
ssg74
g551
sg67
(lp558
S''
asbasbasbag60
(g76
g62
NtRp559
(dp560
g65
(dp561
sg74
g455
sg67
(lp562
g60
(g81
g62
NtRp563
(dp564
g65
(dp565
g85
g86
ssg74
g559
sg67
(lp566
g379
asbag60
(g81
g62
NtRp567
(dp568
g65
(dp569
g92
g93
ssg74
g559
sg67
(lp570
S':'
asbag60
(g81
g62
NtRp571
(dp572
g65
(dp573
sg74
g559
sg67
(lp574
g60
(g61
g62
NtRp575
(dp576
g65
(dp577
g73
I3
ssg74
g571
sg67
(lp578
S''
asbasbasbag60
(g76
g62
NtRp579
(dp580
g65
(dp581
sg74
g455
sg67
(lp582
g60
(g81
g62
NtRp583
(dp584
g65
(dp585
g85
g86
ssg74
g579
sg67
(lp586
g400
asbag60
(g81
g62
NtRp587
(dp588
g65
(dp589
g92
g93
ssg74
g579
sg67
(lp590
S':'
asbag60
(g81
g62
NtRp591
(dp592
g65
(dp593
sg74
g579
sg67
(lp594
g60
(g61
g62
NtRp595
(dp596
g65
(dp597
g73
I3
ssg74
g591
sg67
(lp598
S''
asbasbasbag60
(g76
g62
NtRp599
(dp600
g65
(dp601
sg74
g455
sg67
(lp602
g60
(g81
g62
NtRp603
(dp604
g65
(dp605
g85
g86
ssg74
g599
sg67
(lp606
g421
asbag60
(g81
g62
NtRp607
(dp608
g65
(dp609
g92
g93
ssg74
g599
sg67
(lp610
S':'
asbag60
(g81
g62
NtRp611
(dp612
g65
(dp613
sg74
g599
sg67
(lp614
g60
(g61
g62
NtRp615
(dp616
g65
(dp617
g73
I3
ssg74
g611
sg67
(lp618
S''
asbasbasbasbasbasbasbag60
(g76
g62
NtRp619
(dp620
g65
(dp621
sg74
g237
sg67
(lp622
g60
(g81
g62
NtRp623
(dp624
g65
(dp625
g85
g86
ssg74
g619
sg67
(lp626
S'session_id_gallery'
p627
asbag60
(g81
g62
NtRp628
(dp629
g65
(dp630
g92
g93
ssg74
g619
sg67
(lp631
S':'
asbag60
(g81
g62
NtRp632
(dp633
g65
(dp634
sg74
g619
sg67
(lp635
g60
(g61
g62
NtRp636
(dp637
g65
(dp638
g73
I4
ssg74
g632
sg67
(lp639
g60
(g69
g62
NtRp640
(dp641
g65
(dp642
g73
I3
ssg74
Nsg67
(lp643
g60
(g76
g62
NtRp644
(dp645
g65
(dp646
sg74
g640
sg67
(lp647
g60
(g81
g62
NtRp648
(dp649
g65
(dp650
g85
g86
ssg74
g644
sg67
(lp651
g274
asbag60
(g81
g62
NtRp652
(dp653
g65
(dp654
g92
g93
ssg74
g644
sg67
(lp655
S':'
asbag60
(g81
g62
NtRp656
(dp657
g65
(dp658
sg74
g644
sg67
(lp659
g60
(g61
g62
NtRp660
(dp661
g65
(dp662
g73
I3
ssg74
g656
sg67
(lp663
S''
asbasbasbag60
(g76
g62
NtRp664
(dp665
g65
(dp666
sg74
g640
sg67
(lp667
g60
(g81
g62
NtRp668
(dp669
g65
(dp670
g85
g86
ssg74
g664
sg67
(lp671
g295
asbag60
(g81
g62
NtRp672
(dp673
g65
(dp674
g92
g93
ssg74
g664
sg67
(lp675
S':'
asbag60
(g81
g62
NtRp676
(dp677
g65
(dp678
sg74
g664
sg67
(lp679
g60
(g61
g62
NtRp680
(dp681
g65
(dp682
g73
I3
ssg74
g676
sg67
(lp683
S''
asbasbasbag60
(g76
g62
NtRp684
(dp685
g65
(dp686
sg74
g640
sg67
(lp687
g60
(g81
g62
NtRp688
(dp689
g65
(dp690
g85
g86
ssg74
g684
sg67
(lp691
g316
asbag60
(g81
g62
NtRp692
(dp693
g65
(dp694
g92
g93
ssg74
g684
sg67
(lp695
S':'
asbag60
(g81
g62
NtRp696
(dp697
g65
(dp698
sg74
g684
sg67
(lp699
g60
(g61
g62
NtRp700
(dp701
g65
(dp702
g73
I3
ssg74
g696
sg67
(lp703
S''
asbasbasbag60
(g76
g62
NtRp704
(dp705
g65
(dp706
sg74
g640
sg67
(lp707
g60
(g81
g62
NtRp708
(dp709
g65
(dp710
g85
g86
ssg74
g704
sg67
(lp711
g337
asbag60
(g81
g62
NtRp712
(dp713
g65
(dp714
g92
g93
ssg74
g704
sg67
(lp715
S':'
asbag60
(g81
g62
NtRp716
(dp717
g65
(dp718
sg74
g704
sg67
(lp719
g60
(g61
g62
NtRp720
(dp721
g65
(dp722
g73
I3
ssg74
g716
sg67
(lp723
S''
asbasbasbag60
(g76
g62
NtRp724
(dp725
g65
(dp726
sg74
g640
sg67
(lp727
g60
(g81
g62
NtRp728
(dp729
g65
(dp730
g85
g86
ssg74
g724
sg67
(lp731
g358
asbag60
(g81
g62
NtRp732
(dp733
g65
(dp734
g92
g93
ssg74
g724
sg67
(lp735
S':'
asbag60
(g81
g62
NtRp736
(dp737
g65
(dp738
sg74
g724
sg67
(lp739
g60
(g61
g62
NtRp740
(dp741
g65
(dp742
g73
I3
ssg74
g736
sg67
(lp743
S''
asbasbasbag60
(g76
g62
NtRp744
(dp745
g65
(dp746
sg74
g640
sg67
(lp747
g60
(g81
g62
NtRp748
(dp749
g65
(dp750
g85
g86
ssg74
g744
sg67
(lp751
g379
asbag60
(g81
g62
NtRp752
(dp753
g65
(dp754
g92
g93
ssg74
g744
sg67
(lp755
S':'
asbag60
(g81
g62
NtRp756
(dp757
g65
(dp758
sg74
g744
sg67
(lp759
g60
(g61
g62
NtRp760
(dp761
g65
(dp762
g73
I3
ssg74
g756
sg67
(lp763
S''
asbasbasbag60
(g76
g62
NtRp764
(dp765
g65
(dp766
sg74
g640
sg67
(lp767
g60
(g81
g62
NtRp768
(dp769
g65
(dp770
g85
g86
ssg74
g764
sg67
(lp771
g400
asbag60
(g81
g62
NtRp772
(dp773
g65
(dp774
g92
g93
ssg74
g764
sg67
(lp775
S':'
asbag60
(g81
g62
NtRp776
(dp777
g65
(dp778
sg74
g764
sg67
(lp779
g60
(g61
g62
NtRp780
(dp781
g65
(dp782
g73
I3
ssg74
g776
sg67
(lp783
S''
asbasbasbag60
(g76
g62
NtRp784
(dp785
g65
(dp786
sg74
g640
sg67
(lp787
g60
(g81
g62
NtRp788
(dp789
g65
(dp790
g85
g86
ssg74
g784
sg67
(lp791
g421
asbag60
(g81
g62
NtRp792
(dp793
g65
(dp794
g92
g93
ssg74
g784
sg67
(lp795
S':'
asbag60
(g81
g62
NtRp796
(dp797
g65
(dp798
sg74
g784
sg67
(lp799
g60
(g61
g62
NtRp800
(dp801
g65
(dp802
g73
I3
ssg74
g796
sg67
(lp803
S''
asbasbasbasbasbasbasbag60
(g76
g62
NtRp804
(dp805
g65
(dp806
sg74
g237
sg67
(lp807
g60
(g81
g62
NtRp808
(dp809
g65
(dp810
g85
g86
ssg74
g804
sg67
(lp811
S'session_id_welcome'
p812
asbag60
(g81
g62
NtRp813
(dp814
g65
(dp815
g92
g93
ssg74
g804
sg67
(lp816
S':'
asbag60
(g81
g62
NtRp817
(dp818
g65
(dp819
sg74
g804
sg67
(lp820
g60
(g61
g62
NtRp821
(dp822
g65
(dp823
g73
I4
ssg74
g817
sg67
(lp824
g60
(g69
g62
NtRp825
(dp826
g65
(dp827
g73
I3
ssg74
Nsg67
(lp828
g60
(g76
g62
NtRp829
(dp830
g65
(dp831
sg74
g825
sg67
(lp832
g60
(g81
g62
NtRp833
(dp834
g65
(dp835
g85
g86
ssg74
g829
sg67
(lp836
g274
asbag60
(g81
g62
NtRp837
(dp838
g65
(dp839
g92
g93
ssg74
g829
sg67
(lp840
S':'
asbag60
(g81
g62
NtRp841
(dp842
g65
(dp843
sg74
g829
sg67
(lp844
g60
(g61
g62
NtRp845
(dp846
g65
(dp847
g73
I3
ssg74
g841
sg67
(lp848
S''
asbasbasbag60
(g76
g62
NtRp849
(dp850
g65
(dp851
sg74
g825
sg67
(lp852
g60
(g81
g62
NtRp853
(dp854
g65
(dp855
g85
g86
ssg74
g849
sg67
(lp856
g295
asbag60
(g81
g62
NtRp857
(dp858
g65
(dp859
g92
g93
ssg74
g849
sg67
(lp860
S':'
asbag60
(g81
g62
NtRp861
(dp862
g65
(dp863
sg74
g849
sg67
(lp864
g60
(g61
g62
NtRp865
(dp866
g65
(dp867
g73
I3
ssg74
g861
sg67
(lp868
S''
asbasbasbag60
(g76
g62
NtRp869
(dp870
g65
(dp871
sg74
g825
sg67
(lp872
g60
(g81
g62
NtRp873
(dp874
g65
(dp875
g85
g86
ssg74
g869
sg67
(lp876
g316
asbag60
(g81
g62
NtRp877
(dp878
g65
(dp879
g92
g93
ssg74
g869
sg67
(lp880
S':'
asbag60
(g81
g62
NtRp881
(dp882
g65
(dp883
sg74
g869
sg67
(lp884
g60
(g61
g62
NtRp885
(dp886
g65
(dp887
g73
I3
ssg74
g881
sg67
(lp888
S''
asbasbasbag60
(g76
g62
NtRp889
(dp890
g65
(dp891
sg74
g825
sg67
(lp892
g60
(g81
g62
NtRp893
(dp894
g65
(dp895
g85
g86
ssg74
g889
sg67
(lp896
g337
asbag60
(g81
g62
NtRp897
(dp898
g65
(dp899
g92
g93
ssg74
g889
sg67
(lp900
S':'
asbag60
(g81
g62
NtRp901
(dp902
g65
(dp903
sg74
g889
sg67
(lp904
g60
(g61
g62
NtRp905
(dp906
g65
(dp907
g73
I3
ssg74
g901
sg67
(lp908
S''
asbasbasbag60
(g76
g62
NtRp909
(dp910
g65
(dp911
sg74
g825
sg67
(lp912
g60
(g81
g62
NtRp913
(dp914
g65
(dp915
g85
g86
ssg74
g909
sg67
(lp916
g358
asbag60
(g81
g62
NtRp917
(dp918
g65
(dp919
g92
g93
ssg74
g909
sg67
(lp920
S':'
asbag60
(g81
g62
NtRp921
(dp922
g65
(dp923
sg74
g909
sg67
(lp924
g60
(g61
g62
NtRp925
(dp926
g65
(dp927
g73
I3
ssg74
g921
sg67
(lp928
S''
asbasbasbag60
(g76
g62
NtRp929
(dp930
g65
(dp931
sg74
g825
sg67
(lp932
g60
(g81
g62
NtRp933
(dp934
g65
(dp935
g85
g86
ssg74
g929
sg67
(lp936
g379
asbag60
(g81
g62
NtRp937
(dp938
g65
(dp939
g92
g93
ssg74
g929
sg67
(lp940
S':'
asbag60
(g81
g62
NtRp941
(dp942
g65
(dp943
sg74
g929
sg67
(lp944
g60
(g61
g62
NtRp945
(dp946
g65
(dp947
g73
I3
ssg74
g941
sg67
(lp948
S''
asbasbasbag60
(g76
g62
NtRp949
(dp950
g65
(dp951
sg74
g825
sg67
(lp952
g60
(g81
g62
NtRp953
(dp954
g65
(dp955
g85
g86
ssg74
g949
sg67
(lp956
g400
asbag60
(g81
g62
NtRp957
(dp958
g65
(dp959
g92
g93
ssg74
g949
sg67
(lp960
S':'
asbag60
(g81
g62
NtRp961
(dp962
g65
(dp963
sg74
g949
sg67
(lp964
g60
(g61
g62
NtRp965
(dp966
g65
(dp967
g73
I3
ssg74
g961
sg67
(lp968
S''
asbasbasbag60
(g76
g62
NtRp969
(dp970
g65
(dp971
sg74
g825
sg67
(lp972
g60
(g81
g62
NtRp973
(dp974
g65
(dp975
g85
g86
ssg74
g969
sg67
(lp976
g421
asbag60
(g81
g62
NtRp977
(dp978
g65
(dp979
g92
g93
ssg74
g969
sg67
(lp980
S':'
asbag60
(g81
g62
NtRp981
(dp982
g65
(dp983
sg74
g969
sg67
(lp984
g60
(g61
g62
NtRp985
(dp986
g65
(dp987
g73
I3
ssg74
g981
sg67
(lp988
S''
asbasbasbasbasbasbasbasbasbasbasbag60
(g76
g62
NtRp989
(dp990
g65
(dp991
sg74
g70
sg67
(lp992
g60
(g81
g62
NtRp993
(dp994
g65
(dp995
g85
g86
ssg74
g989
sg67
(lp996
S'env'
p997
asbag60
(g81
g62
NtRp998
(dp999
g65
(dp1000
g92
g93
ssg74
g989
sg67
(lp1001
S':'
asbag60
(g81
g62
NtRp1002
(dp1003
g65
(dp1004
sg74
g989
sg67
(lp1005
g60
(g61
g62
NtRp1006
(dp1007
g65
(dp1008
g73
I5
ssg74
g1002
sg67
(lp1009
g60
(g69
g62
NtRp1010
(dp1011
g65
(dp1012
g73
I4
ssg74
Nsg67
(lp1013
g60
(g76
g62
NtRp1014
(dp1015
g65
(dp1016
sg74
g1010
sg67
(lp1017
g60
(g81
g62
NtRp1018
(dp1019
g65
(dp1020
g85
g86
ssg74
g1014
sg67
(lp1021
S'app_folders'
p1022
asbag60
(g81
g62
NtRp1023
(dp1024
g65
(dp1025
g92
g93
ssg74
g1014
sg67
(lp1026
S':'
asbag60
(g81
g62
NtRp1027
(dp1028
g65
(dp1029
sg74
g1014
sg67
(lp1030
g60
(g61
g62
NtRp1031
(dp1032
g65
(dp1033
g73
I4
ssg74
g1027
sg67
(lp1034
S"set(['/home/brencam/web2py/applications/admin/', '/home/brencam/web2py/applications/gallery/'])"
p1035
asbasbasbag60
(g76
g62
NtRp1036
(dp1037
g65
(dp1038
sg74
g1010
sg67
(lp1039
g60
(g81
g62
NtRp1040
(dp1041
g65
(dp1042
g85
g86
ssg74
g1036
sg67
(lp1043
S'applications_parent'
p1044
asbag60
(g81
g62
NtRp1045
(dp1046
g65
(dp1047
g92
g93
ssg74
g1036
sg67
(lp1048
S':'
asbag60
(g81
g62
NtRp1049
(dp1050
g65
(dp1051
sg74
g1036
sg67
(lp1052
g60
(g61
g62
NtRp1053
(dp1054
g65
(dp1055
g73
I4
ssg74
g1049
sg67
(lp1056
S'/home/brencam/web2py'
p1057
asbasbasbag60
(g76
g62
NtRp1058
(dp1059
g65
(dp1060
sg74
g1010
sg67
(lp1061
g60
(g81
g62
NtRp1062
(dp1063
g65
(dp1064
g85
g86
ssg74
g1058
sg67
(lp1065
S'cmd_args'
p1066
asbag60
(g81
g62
NtRp1067
(dp1068
g65
(dp1069
g92
g93
ssg74
g1058
sg67
(lp1070
S':'
asbag60
(g81
g62
NtRp1071
(dp1072
g65
(dp1073
sg74
g1058
sg67
(lp1074
g60
(g61
g62
NtRp1075
(dp1076
g65
(dp1077
g73
I4
ssg74
g1071
sg67
(lp1078
g60
(g69
g62
NtRp1079
(dp1080
g65
(dp1081
g73
I3
ssg74
Nsg67
(lp1082
sbasbasbasbag60
(g76
g62
NtRp1083
(dp1084
g65
(dp1085
sg74
g1010
sg67
(lp1086
g60
(g81
g62
NtRp1087
(dp1088
g65
(dp1089
g85
g86
ssg74
g1083
sg67
(lp1090
S'cmd_options'
p1091
asbag60
(g81
g62
NtRp1092
(dp1093
g65
(dp1094
g92
g93
ssg74
g1083
sg67
(lp1095
S':'
asbag60
(g81
g62
NtRp1096
(dp1097
g65
(dp1098
sg74
g1083
sg67
(lp1099
g60
(g61
g62
NtRp1100
(dp1101
g65
(dp1102
g73
I4
ssg74
g1096
sg67
(lp1103
S"<Values at 0x8e5026c: {'verbose': False, 'ip': '127.0.0.1', 'shutdown_timeout': 5, 'taskbar': False, 'nocron': False, 'pid_filename': 'httpserver.pid', 'maxthreads': None, 'softcron': False, 'server_name': 'localhost.localdomain', 'bpython': False, 'nogui': False, 'port': 8000, 'extcron': False, 'debuglevel': 30, 'test': None, 'folder': '/home/brencam/web2py', 'config': '', 'import_models': False, 'winservice': '', 'shell': None, 'run': '', 'log_filename': 'httpserver.log', 'args': [''], 'ssl_ca_certificate': None, 'scheduler': None, 'profiler_filename': None, 'ssl_private_key': '', 'password': 'admin', 'request_queue_size': 5, 'ssl_certificate': '', 'cronjob': False, 'plain': False, 'quiet': False, 'interfaces': None, 'minthreads': None, 'timeout': 10, 'numthreads': None, 'nobanner': False}>"
p1104
asbasbasbag60
(g76
g62
NtRp1105
(dp1106
g65
(dp1107
sg74
g1010
sg67
(lp1108
g60
(g81
g62
NtRp1109
(dp1110
g65
(dp1111
g85
g86
ssg74
g1105
sg67
(lp1112
S'db_sessions'
p1113
asbag60
(g81
g62
NtRp1114
(dp1115
g65
(dp1116
g92
g93
ssg74
g1105
sg67
(lp1117
S':'
asbag60
(g81
g62
NtRp1118
(dp1119
g65
(dp1120
sg74
g1105
sg67
(lp1121
g60
(g61
g62
NtRp1122
(dp1123
g65
(dp1124
g73
I4
ssg74
g1118
sg67
(lp1125
S'set([])'
p1126
asbasbasbag60
(g76
g62
NtRp1127
(dp1128
g65
(dp1129
sg74
g1010
sg67
(lp1130
g60
(g81
g62
NtRp1131
(dp1132
g65
(dp1133
g85
g86
ssg74
g1127
sg67
(lp1134
S'debugging'
p1135
asbag60
(g81
g62
NtRp1136
(dp1137
g65
(dp1138
g92
g93
ssg74
g1127
sg67
(lp1139
S':'
asbag60
(g81
g62
NtRp1140
(dp1141
g65
(dp1142
sg74
g1127
sg67
(lp1143
g60
(g61
g62
NtRp1144
(dp1145
g65
(dp1146
g73
I4
ssg74
g1140
sg67
(lp1147
g103
asbasbasbag60
(g76
g62
NtRp1148
(dp1149
g65
(dp1150
sg74
g1010
sg67
(lp1151
g60
(g81
g62
NtRp1152
(dp1153
g65
(dp1154
g85
g86
ssg74
g1148
sg67
(lp1155
S'gluon_parent'
p1156
asbag60
(g81
g62
NtRp1157
(dp1158
g65
(dp1159
g92
g93
ssg74
g1148
sg67
(lp1160
S':'
asbag60
(g81
g62
NtRp1161
(dp1162
g65
(dp1163
sg74
g1148
sg67
(lp1164
g60
(g61
g62
NtRp1165
(dp1166
g65
(dp1167
g73
I4
ssg74
g1161
sg67
(lp1168
S'/home/brencam/web2py'
p1169
asbasbasbag60
(g76
g62
NtRp1170
(dp1171
g65
(dp1172
sg74
g1010
sg67
(lp1173
g60
(g81
g62
NtRp1174
(dp1175
g65
(dp1176
g85
g86
ssg74
g1170
sg67
(lp1177
S'http_accept'
p1178
asbag60
(g81
g62
NtRp1179
(dp1180
g65
(dp1181
g92
g93
ssg74
g1170
sg67
(lp1182
S':'
asbag60
(g81
g62
NtRp1183
(dp1184
g65
(dp1185
sg74
g1170
sg67
(lp1186
g60
(g61
g62
NtRp1187
(dp1188
g65
(dp1189
g73
I4
ssg74
g1183
sg67
(lp1190
S'text/html,application/xhtml+xml,application/xml;q=0.9,*/*;q=0.8'
p1191
asbasbasbag60
(g76
g62
NtRp1192
(dp1193
g65
(dp1194
sg74
g1010
sg67
(lp1195
g60
(g81
g62
NtRp1196
(dp1197
g65
(dp1198
g85
g86
ssg74
g1192
sg67
(lp1199
S'http_accept_charset'
p1200
asbag60
(g81
g62
NtRp1201
(dp1202
g65
(dp1203
g92
g93
ssg74
g1192
sg67
(lp1204
S':'
asbag60
(g81
g62
NtRp1205
(dp1206
g65
(dp1207
sg74
g1192
sg67
(lp1208
g60
(g61
g62
NtRp1209
(dp1210
g65
(dp1211
g73
I4
ssg74
g1205
sg67
(lp1212
S'ISO-8859-1,utf-8;q=0.7,*;q=0.3'
p1213
asbasbasbag60
(g76
g62
NtRp1214
(dp1215
g65
(dp1216
sg74
g1010
sg67
(lp1217
g60
(g81
g62
NtRp1218
(dp1219
g65
(dp1220
g85
g86
ssg74
g1214
sg67
(lp1221
S'http_accept_encoding'
p1222
asbag60
(g81
g62
NtRp1223
(dp1224
g65
(dp1225
g92
g93
ssg74
g1214
sg67
(lp1226
S':'
asbag60
(g81
g62
NtRp1227
(dp1228
g65
(dp1229
sg74
g1214
sg67
(lp1230
g60
(g61
g62
NtRp1231
(dp1232
g65
(dp1233
g73
I4
ssg74
g1227
sg67
(lp1234
S'gzip,deflate,sdch'
p1235
asbasbasbag60
(g76
g62
NtRp1236
(dp1237
g65
(dp1238
sg74
g1010
sg67
(lp1239
g60
(g81
g62
NtRp1240
(dp1241
g65
(dp1242
g85
g86
ssg74
g1236
sg67
(lp1243
S'http_accept_language'
p1244
asbag60
(g81
g62
NtRp1245
(dp1246
g65
(dp1247
g92
g93
ssg74
g1236
sg67
(lp1248
S':'
asbag60
(g81
g62
NtRp1249
(dp1250
g65
(dp1251
sg74
g1236
sg67
(lp1252
g60
(g61
g62
NtRp1253
(dp1254
g65
(dp1255
g73
I4
ssg74
g1249
sg67
(lp1256
S'en-US,en;q=0.8'
p1257
asbasbasbag60
(g76
g62
NtRp1258
(dp1259
g65
(dp1260
sg74
g1010
sg67
(lp1261
g60
(g81
g62
NtRp1262
(dp1263
g65
(dp1264
g85
g86
ssg74
g1258
sg67
(lp1265
S'http_connection'
p1266
asbag60
(g81
g62
NtRp1267
(dp1268
g65
(dp1269
g92
g93
ssg74
g1258
sg67
(lp1270
S':'
asbag60
(g81
g62
NtRp1271
(dp1272
g65
(dp1273
sg74
g1258
sg67
(lp1274
g60
(g61
g62
NtRp1275
(dp1276
g65
(dp1277
g73
I4
ssg74
g1271
sg67
(lp1278
S'keep-alive'
p1279
asbasbasbag60
(g76
g62
NtRp1280
(dp1281
g65
(dp1282
sg74
g1010
sg67
(lp1283
g60
(g81
g62
NtRp1284
(dp1285
g65
(dp1286
g85
g86
ssg74
g1280
sg67
(lp1287
S'http_cookie'
p1288
asbag60
(g81
g62
NtRp1289
(dp1290
g65
(dp1291
g92
g93
ssg74
g1280
sg67
(lp1292
S':'
asbag60
(g81
g62
NtRp1293
(dp1294
g65
(dp1295
sg74
g1280
sg67
(lp1296
g60
(g61
g62
NtRp1297
(dp1298
g65
(dp1299
g73
I4
ssg74
g1293
sg67
(lp1300
S'__utma=96992031.552746526.1281494094.1291180555.1291186411.9; csrftoken=7b3621df70ed8d65c15785486fff8908; __utma_a2a=7438973308.1350086890.1318529964.1318645324.1318645410.28; session_id_welcome=127.0.0.1-9322c3cc-e1a6-4fc2-b7c8-5cd888a9f623; session_id_gallery=127.0.0.1-5764d7f9-8178-4db1-bc94-76589577a2e3; session_id_admin=127.0.0.1-3e5a77ab-784e-45e7-af04-68be2a31ef2c'
p1301
asbasbasbag60
(g76
g62
NtRp1302
(dp1303
g65
(dp1304
sg74
g1010
sg67
(lp1305
g60
(g81
g62
NtRp1306
(dp1307
g65
(dp1308
g85
g86
ssg74
g1302
sg67
(lp1309
S'http_host'
p1310
asbag60
(g81
g62
NtRp1311
(dp1312
g65
(dp1313
g92
g93
ssg74
g1302
sg67
(lp1314
S':'
asbag60
(g81
g62
NtRp1315
(dp1316
g65
(dp1317
sg74
g1302
sg67
(lp1318
g60
(g61
g62
NtRp1319
(dp1320
g65
(dp1321
g73
I4
ssg74
g1315
sg67
(lp1322
S'127.0.0.1:8000'
p1323
asbasbasbag60
(g76
g62
NtRp1324
(dp1325
g65
(dp1326
sg74
g1010
sg67
(lp1327
g60
(g81
g62
NtRp1328
(dp1329
g65
(dp1330
g85
g86
ssg74
g1324
sg67
(lp1331
S'http_user_agent'
p1332
asbag60
(g81
g62
NtRp1333
(dp1334
g65
(dp1335
g92
g93
ssg74
g1324
sg67
(lp1336
S':'
asbag60
(g81
g62
NtRp1337
(dp1338
g65
(dp1339
sg74
g1324
sg67
(lp1340
g60
(g61
g62
NtRp1341
(dp1342
g65
(dp1343
g73
I4
ssg74
g1337
sg67
(lp1344
S'Mozilla/5.0 (X11; Linux i686) AppleWebKit/535.1 (KHTML, like Gecko) Chrome/14.0.835.204 Safari/535.1'
p1345
asbasbasbag60
(g76
g62
NtRp1346
(dp1347
g65
(dp1348
sg74
g1010
sg67
(lp1349
g60
(g81
g62
NtRp1350
(dp1351
g65
(dp1352
g85
g86
ssg74
g1346
sg67
(lp1353
S'is_jython'
p1354
asbag60
(g81
g62
NtRp1355
(dp1356
g65
(dp1357
g92
g93
ssg74
g1346
sg67
(lp1358
S':'
asbag60
(g81
g62
NtRp1359
(dp1360
g65
(dp1361
sg74
g1346
sg67
(lp1362
g60
(g61
g62
NtRp1363
(dp1364
g65
(dp1365
g73
I4
ssg74
g1359
sg67
(lp1366
g103
asbasbasbag60
(g76
g62
NtRp1367
(dp1368
g65
(dp1369
sg74
g1010
sg67
(lp1370
g60
(g81
g62
NtRp1371
(dp1372
g65
(dp1373
g85
g86
ssg74
g1367
sg67
(lp1374
S'path_info'
p1375
asbag60
(g81
g62
NtRp1376
(dp1377
g65
(dp1378
g92
g93
ssg74
g1367
sg67
(lp1379
S':'
asbag60
(g81
g62
NtRp1380
(dp1381
g65
(dp1382
sg74
g1367
sg67
(lp1383
g60
(g61
g62
NtRp1384
(dp1385
g65
(dp1386
g73
I4
ssg74
g1380
sg67
(lp1387
S'/gallery/'
p1388
asbasbasbag60
(g76
g62
NtRp1389
(dp1390
g65
(dp1391
sg74
g1010
sg67
(lp1392
g60
(g81
g62
NtRp1393
(dp1394
g65
(dp1395
g85
g86
ssg74
g1389
sg67
(lp1396
S'query_string'
p1397
asbag60
(g81
g62
NtRp1398
(dp1399
g65
(dp1400
g92
g93
ssg74
g1389
sg67
(lp1401
S':'
asbag60
(g81
g62
NtRp1402
(dp1403
g65
(dp1404
sg74
g1389
sg67
(lp1405
g60
(g61
g62
NtRp1406
(dp1407
g65
(dp1408
g73
I4
ssg74
g1402
sg67
(lp1409
S''
asbasbasbag60
(g76
g62
NtRp1410
(dp1411
g65
(dp1412
sg74
g1010
sg67
(lp1413
g60
(g81
g62
NtRp1414
(dp1415
g65
(dp1416
g85
g86
ssg74
g1410
sg67
(lp1417
S'remote_addr'
p1418
asbag60
(g81
g62
NtRp1419
(dp1420
g65
(dp1421
g92
g93
ssg74
g1410
sg67
(lp1422
S':'
asbag60
(g81
g62
NtRp1423
(dp1424
g65
(dp1425
sg74
g1410
sg67
(lp1426
g60
(g61
g62
NtRp1427
(dp1428
g65
(dp1429
g73
I4
ssg74
g1423
sg67
(lp1430
g193
asbasbasbag60
(g76
g62
NtRp1431
(dp1432
g65
(dp1433
sg74
g1010
sg67
(lp1434
g60
(g81
g62
NtRp1435
(dp1436
g65
(dp1437
g85
g86
ssg74
g1431
sg67
(lp1438
S'remote_port'
p1439
asbag60
(g81
g62
NtRp1440
(dp1441
g65
(dp1442
g92
g93
ssg74
g1431
sg67
(lp1443
S':'
asbag60
(g81
g62
NtRp1444
(dp1445
g65
(dp1446
sg74
g1431
sg67
(lp1447
g60
(g61
g62
NtRp1448
(dp1449
g65
(dp1450
g73
I4
ssg74
g1444
sg67
(lp1451
S'59002'
p1452
asbasbasbag60
(g76
g62
NtRp1453
(dp1454
g65
(dp1455
sg74
g1010
sg67
(lp1456
g60
(g81
g62
NtRp1457
(dp1458
g65
(dp1459
g85
g86
ssg74
g1453
sg67
(lp1460
S'request_method'
p1461
asbag60
(g81
g62
NtRp1462
(dp1463
g65
(dp1464
g92
g93
ssg74
g1453
sg67
(lp1465
S':'
asbag60
(g81
g62
NtRp1466
(dp1467
g65
(dp1468
sg74
g1453
sg67
(lp1469
g60
(g61
g62
NtRp1470
(dp1471
g65
(dp1472
g73
I4
ssg74
g1466
sg67
(lp1473
S'GET'
p1474
asbasbasbag60
(g76
g62
NtRp1475
(dp1476
g65
(dp1477
sg74
g1010
sg67
(lp1478
g60
(g81
g62
NtRp1479
(dp1480
g65
(dp1481
g85
g86
ssg74
g1475
sg67
(lp1482
S'script_name'
p1483
asbag60
(g81
g62
NtRp1484
(dp1485
g65
(dp1486
g92
g93
ssg74
g1475
sg67
(lp1487
S':'
asbag60
(g81
g62
NtRp1488
(dp1489
g65
(dp1490
sg74
g1475
sg67
(lp1491
g60
(g61
g62
NtRp1492
(dp1493
g65
(dp1494
g73
I4
ssg74
g1488
sg67
(lp1495
S''
asbasbasbag60
(g76
g62
NtRp1496
(dp1497
g65
(dp1498
sg74
g1010
sg67
(lp1499
g60
(g81
g62
NtRp1500
(dp1501
g65
(dp1502
g85
g86
ssg74
g1496
sg67
(lp1503
S'server_name'
p1504
asbag60
(g81
g62
NtRp1505
(dp1506
g65
(dp1507
g92
g93
ssg74
g1496
sg67
(lp1508
S':'
asbag60
(g81
g62
NtRp1509
(dp1510
g65
(dp1511
sg74
g1496
sg67
(lp1512
g60
(g61
g62
NtRp1513
(dp1514
g65
(dp1515
g73
I4
ssg74
g1509
sg67
(lp1516
S'localhost.localdomain'
p1517
asbasbasbag60
(g76
g62
NtRp1518
(dp1519
g65
(dp1520
sg74
g1010
sg67
(lp1521
g60
(g81
g62
NtRp1522
(dp1523
g65
(dp1524
g85
g86
ssg74
g1518
sg67
(lp1525
S'server_port'
p1526
asbag60
(g81
g62
NtRp1527
(dp1528
g65
(dp1529
g92
g93
ssg74
g1518
sg67
(lp1530
S':'
asbag60
(g81
g62
NtRp1531
(dp1532
g65
(dp1533
sg74
g1518
sg67
(lp1534
g60
(g61
g62
NtRp1535
(dp1536
g65
(dp1537
g73
I4
ssg74
g1531
sg67
(lp1538
S'8000'
p1539
asbasbasbag60
(g76
g62
NtRp1540
(dp1541
g65
(dp1542
sg74
g1010
sg67
(lp1543
g60
(g81
g62
NtRp1544
(dp1545
g65
(dp1546
g85
g86
ssg74
g1540
sg67
(lp1547
S'server_protocol'
p1548
asbag60
(g81
g62
NtRp1549
(dp1550
g65
(dp1551
g92
g93
ssg74
g1540
sg67
(lp1552
S':'
asbag60
(g81
g62
NtRp1553
(dp1554
g65
(dp1555
sg74
g1540
sg67
(lp1556
g60
(g61
g62
NtRp1557
(dp1558
g65
(dp1559
g73
I4
ssg74
g1553
sg67
(lp1560
S'HTTP/1.1'
p1561
asbasbasbag60
(g76
g62
NtRp1562
(dp1563
g65
(dp1564
sg74
g1010
sg67
(lp1565
g60
(g81
g62
NtRp1566
(dp1567
g65
(dp1568
g85
g86
ssg74
g1562
sg67
(lp1569
S'server_software'
p1570
asbag60
(g81
g62
NtRp1571
(dp1572
g65
(dp1573
g92
g93
ssg74
g1562
sg67
(lp1574
S':'
asbag60
(g81
g62
NtRp1575
(dp1576
g65
(dp1577
sg74
g1562
sg67
(lp1578
g60
(g61
g62
NtRp1579
(dp1580
g65
(dp1581
g73
I4
ssg74
g1575
sg67
(lp1582
S'Rocket 1.2.4'
p1583
asbasbasbag60
(g76
g62
NtRp1584
(dp1585
g65
(dp1586
sg74
g1010
sg67
(lp1587
g60
(g81
g62
NtRp1588
(dp1589
g65
(dp1590
g85
g86
ssg74
g1584
sg67
(lp1591
S'web2py_crontype'
p1592
asbag60
(g81
g62
NtRp1593
(dp1594
g65
(dp1595
g92
g93
ssg74
g1584
sg67
(lp1596
S':'
asbag60
(g81
g62
NtRp1597
(dp1598
g65
(dp1599
sg74
g1584
sg67
(lp1600
g60
(g61
g62
NtRp1601
(dp1602
g65
(dp1603
g73
I4
ssg74
g1597
sg67
(lp1604
S'hard'
p1605
asbasbasbag60
(g76
g62
NtRp1606
(dp1607
g65
(dp1608
sg74
g1010
sg67
(lp1609
g60
(g81
g62
NtRp1610
(dp1611
g65
(dp1612
g85
g86
ssg74
g1606
sg67
(lp1613
S'web2py_path'
p1614
asbag60
(g81
g62
NtRp1615
(dp1616
g65
(dp1617
g92
g93
ssg74
g1606
sg67
(lp1618
S':'
asbag60
(g81
g62
NtRp1619
(dp1620
g65
(dp1621
sg74
g1606
sg67
(lp1622
g60
(g61
g62
NtRp1623
(dp1624
g65
(dp1625
g73
I4
ssg74
g1619
sg67
(lp1626
g1057
asbasbasbag60
(g76
g62
NtRp1627
(dp1628
g65
(dp1629
sg74
g1010
sg67
(lp1630
g60
(g81
g62
NtRp1631
(dp1632
g65
(dp1633
g85
g86
ssg74
g1627
sg67
(lp1634
S'web2py_version'
p1635
asbag60
(g81
g62
NtRp1636
(dp1637
g65
(dp1638
g92
g93
ssg74
g1627
sg67
(lp1639
S':'
asbag60
(g81
g62
NtRp1640
(dp1641
g65
(dp1642
sg74
g1627
sg67
(lp1643
g60
(g61
g62
NtRp1644
(dp1645
g65
(dp1646
g73
I4
ssg74
g1640
sg67
(lp1647
g60
(g69
g62
NtRp1648
(dp1649
g65
(dp1650
g73
I3
ssg74
Nsg67
(lp1651
g60
(g76
g62
NtRp1652
(dp1653
g65
(dp1654
sg74
g1648
sg67
(lp1655
g60
(g81
g62
NtRp1656
(dp1657
g65
(dp1658
sg74
g1652
sg67
(lp1659
g60
(g61
g62
NtRp1660
(dp1661
g65
(dp1662
g73
I3
ssg74
g1656
sg67
(lp1663
S'1'
asbasbasbag60
(g76
g62
NtRp1664
(dp1665
g65
(dp1666
sg74
g1648
sg67
(lp1667
g60
(g81
g62
NtRp1668
(dp1669
g65
(dp1670
sg74
g1664
sg67
(lp1671
g60
(g61
g62
NtRp1672
(dp1673
g65
(dp1674
g73
I3
ssg74
g1668
sg67
(lp1675
S'99'
p1676
asbasbasbag60
(g76
g62
NtRp1677
(dp1678
g65
(dp1679
sg74
g1648
sg67
(lp1680
g60
(g81
g62
NtRp1681
(dp1682
g65
(dp1683
sg74
g1677
sg67
(lp1684
g60
(g61
g62
NtRp1685
(dp1686
g65
(dp1687
g73
I3
ssg74
g1681
sg67
(lp1688
S'2'
asbasbasbag60
(g76
g62
NtRp1689
(dp1690
g65
(dp1691
sg74
g1648
sg67
(lp1692
g60
(g81
g62
NtRp1693
(dp1694
g65
(dp1695
sg74
g1689
sg67
(lp1696
g60
(g61
g62
NtRp1697
(dp1698
g65
(dp1699
g73
I3
ssg74
g1693
sg67
(lp1700
S'datetime.datetime(2011, 9, 26, 6, 55, 33)'
p1701
asbasbasbag60
(g76
g62
NtRp1702
(dp1703
g65
(dp1704
sg74
g1648
sg67
(lp1705
g60
(g81
g62
NtRp1706
(dp1707
g65
(dp1708
sg74
g1702
sg67
(lp1709
g60
(g61
g62
NtRp1710
(dp1711
g65
(dp1712
g73
I3
ssg74
g1706
sg67
(lp1713
S'stable'
p1714
asbasbasbasbasbasbasbag60
(g76
g62
NtRp1715
(dp1716
g65
(dp1717
sg74
g1010
sg67
(lp1718
g60
(g81
g62
NtRp1719
(dp1720
g65
(dp1721
g85
g86
ssg74
g1715
sg67
(lp1722
S'wsgi_errors'
p1723
asbag60
(g81
g62
NtRp1724
(dp1725
g65
(dp1726
g92
g93
ssg74
g1715
sg67
(lp1727
S':'
asbag60
(g81
g62
NtRp1728
(dp1729
g65
(dp1730
sg74
g1715
sg67
(lp1731
g60
(g61
g62
NtRp1732
(dp1733
g65
(dp1734
g73
I4
ssg74
g1728
sg67
(lp1735
S"<open file '<stderr>', mode 'w' at 0xb75610d0>"
p1736
asbasbasbag60
(g76
g62
NtRp1737
(dp1738
g65
(dp1739
sg74
g1010
sg67
(lp1740
g60
(g81
g62
NtRp1741
(dp1742
g65
(dp1743
g85
g86
ssg74
g1737
sg67
(lp1744
S'wsgi_file_wrapper'
p1745
asbag60
(g81
g62
NtRp1746
(dp1747
g65
(dp1748
g92
g93
ssg74
g1737
sg67
(lp1749
S':'
asbag60
(g81
g62
NtRp1750
(dp1751
g65
(dp1752
sg74
g1737
sg67
(lp1753
g60
(g61
g62
NtRp1754
(dp1755
g65
(dp1756
g73
I4
ssg74
g1750
sg67
(lp1757
S'<class wsgiref.util.FileWrapper at 0x8a4d50c>'
p1758
asbasbasbag60
(g76
g62
NtRp1759
(dp1760
g65
(dp1761
sg74
g1010
sg67
(lp1762
g60
(g81
g62
NtRp1763
(dp1764
g65
(dp1765
g85
g86
ssg74
g1759
sg67
(lp1766
S'wsgi_input'
p1767
asbag60
(g81
g62
NtRp1768
(dp1769
g65
(dp1770
g92
g93
ssg74
g1759
sg67
(lp1771
S':'
asbag60
(g81
g62
NtRp1772
(dp1773
g65
(dp1774
sg74
g1759
sg67
(lp1775
g60
(g61
g62
NtRp1776
(dp1777
g65
(dp1778
g73
I4
ssg74
g1772
sg67
(lp1779
S'<socket._fileobject object at 0xaf7221ec>'
p1780
asbasbasbag60
(g76
g62
NtRp1781
(dp1782
g65
(dp1783
sg74
g1010
sg67
(lp1784
g60
(g81
g62
NtRp1785
(dp1786
g65
(dp1787
g85
g86
ssg74
g1781
sg67
(lp1788
S'wsgi_multiprocess'
p1789
asbag60
(g81
g62
NtRp1790
(dp1791
g65
(dp1792
g92
g93
ssg74
g1781
sg67
(lp1793
S':'
asbag60
(g81
g62
NtRp1794
(dp1795
g65
(dp1796
sg74
g1781
sg67
(lp1797
g60
(g61
g62
NtRp1798
(dp1799
g65
(dp1800
g73
I4
ssg74
g1794
sg67
(lp1801
g103
asbasbasbag60
(g76
g62
NtRp1802
(dp1803
g65
(dp1804
sg74
g1010
sg67
(lp1805
g60
(g81
g62
NtRp1806
(dp1807
g65
(dp1808
g85
g86
ssg74
g1802
sg67
(lp1809
S'wsgi_multithread'
p1810
asbag60
(g81
g62
NtRp1811
(dp1812
g65
(dp1813
g92
g93
ssg74
g1802
sg67
(lp1814
S':'
asbag60
(g81
g62
NtRp1815
(dp1816
g65
(dp1817
sg74
g1802
sg67
(lp1818
g60
(g61
g62
NtRp1819
(dp1820
g65
(dp1821
g73
I4
ssg74
g1815
sg67
(lp1822
S'True'
p1823
asbasbasbag60
(g76
g62
NtRp1824
(dp1825
g65
(dp1826
sg74
g1010
sg67
(lp1827
g60
(g81
g62
NtRp1828
(dp1829
g65
(dp1830
g85
g86
ssg74
g1824
sg67
(lp1831
S'wsgi_run_once'
p1832
asbag60
(g81
g62
NtRp1833
(dp1834
g65
(dp1835
g92
g93
ssg74
g1824
sg67
(lp1836
S':'
asbag60
(g81
g62
NtRp1837
(dp1838
g65
(dp1839
sg74
g1824
sg67
(lp1840
g60
(g61
g62
NtRp1841
(dp1842
g65
(dp1843
g73
I4
ssg74
g1837
sg67
(lp1844
g103
asbasbasbag60
(g76
g62
NtRp1845
(dp1846
g65
(dp1847
sg74
g1010
sg67
(lp1848
g60
(g81
g62
NtRp1849
(dp1850
g65
(dp1851
g85
g86
ssg74
g1845
sg67
(lp1852
S'wsgi_url_scheme'
p1853
asbag60
(g81
g62
NtRp1854
(dp1855
g65
(dp1856
g92
g93
ssg74
g1845
sg67
(lp1857
S':'
asbag60
(g81
g62
NtRp1858
(dp1859
g65
(dp1860
sg74
g1845
sg67
(lp1861
g60
(g61
g62
NtRp1862
(dp1863
g65
(dp1864
g73
I4
ssg74
g1858
sg67
(lp1865
S'http'
p1866
asbasbasbag60
(g76
g62
NtRp1867
(dp1868
g65
(dp1869
sg74
g1010
sg67
(lp1870
g60
(g81
g62
NtRp1871
(dp1872
g65
(dp1873
g85
g86
ssg74
g1867
sg67
(lp1874
S'wsgi_version'
p1875
asbag60
(g81
g62
NtRp1876
(dp1877
g65
(dp1878
g92
g93
ssg74
g1867
sg67
(lp1879
S':'
asbag60
(g81
g62
NtRp1880
(dp1881
g65
(dp1882
sg74
g1867
sg67
(lp1883
g60
(g61
g62
NtRp1884
(dp1885
g65
(dp1886
g73
I4
ssg74
g1880
sg67
(lp1887
g60
(g69
g62
NtRp1888
(dp1889
g65
(dp1890
g73
I3
ssg74
Nsg67
(lp1891
g60
(g76
g62
NtRp1892
(dp1893
g65
(dp1894
sg74
g1888
sg67
(lp1895
g60
(g81
g62
NtRp1896
(dp1897
g65
(dp1898
sg74
g1892
sg67
(lp1899
g60
(g61
g62
NtRp1900
(dp1901
g65
(dp1902
g73
I3
ssg74
g1896
sg67
(lp1903
S'1'
asbasbasbag60
(g76
g62
NtRp1904
(dp1905
g65
(dp1906
sg74
g1888
sg67
(lp1907
g60
(g81
g62
NtRp1908
(dp1909
g65
(dp1910
sg74
g1904
sg67
(lp1911
g60
(g61
g62
NtRp1912
(dp1913
g65
(dp1914
g73
I3
ssg74
g1908
sg67
(lp1915
S'0'
asbasbasbasbasbasbasbasbasbasbasbag60
(g76
g62
NtRp1916
(dp1917
g65
(dp1918
sg74
g70
sg67
(lp1919
g60
(g81
g62
NtRp1920
(dp1921
g65
(dp1922
g85
g86
ssg74
g1916
sg67
(lp1923
S'extension'
p1924
asbag60
(g81
g62
NtRp1925
(dp1926
g65
(dp1927
g92
g93
ssg74
g1916
sg67
(lp1928
S':'
asbag60
(g81
g62
NtRp1929
(dp1930
g65
(dp1931
sg74
g1916
sg67
(lp1932
g60
(g61
g62
NtRp1933
(dp1934
g65
(dp1935
g73
I5
ssg74
g1929
sg67
(lp1936
S'html'
p1937
asbasbasbag60
(g76
g62
NtRp1938
(dp1939
g65
(dp1940
sg74
g70
sg67
(lp1941
g60
(g81
g62
NtRp1942
(dp1943
g65
(dp1944
g85
g86
ssg74
g1938
sg67
(lp1945
S'folder'
p1946
asbag60
(g81
g62
NtRp1947
(dp1948
g65
(dp1949
g92
g93
ssg74
g1938
sg67
(lp1950
S':'
asbag60
(g81
g62
NtRp1951
(dp1952
g65
(dp1953
sg74
g1938
sg67
(lp1954
g60
(g61
g62
NtRp1955
(dp1956
g65
(dp1957
g73
I5
ssg74
g1951
sg67
(lp1958
S'/home/brencam/web2py/applications/gallery/'
p1959
asbasbasbag60
(g76
g62
NtRp1960
(dp1961
g65
(dp1962
sg74
g70
sg67
(lp1963
g60
(g81
g62
NtRp1964
(dp1965
g65
(dp1966
g85
g86
ssg74
g1960
sg67
(lp1967
S'function'
p1968
asbag60
(g81
g62
NtRp1969
(dp1970
g65
(dp1971
g92
g93
ssg74
g1960
sg67
(lp1972
S':'
asbag60
(g81
g62
NtRp1973
(dp1974
g65
(dp1975
sg74
g1960
sg67
(lp1976
g60
(g61
g62
NtRp1977
(dp1978
g65
(dp1979
g73
I5
ssg74
g1973
sg67
(lp1980
S'index'
p1981
asbasbasbag60
(g76
g62
NtRp1982
(dp1983
g65
(dp1984
sg74
g70
sg67
(lp1985
g60
(g81
g62
NtRp1986
(dp1987
g65
(dp1988
g85
g86
ssg74
g1982
sg67
(lp1989
S'get_vars'
p1990
asbag60
(g81
g62
NtRp1991
(dp1992
g65
(dp1993
g92
g93
ssg74
g1982
sg67
(lp1994
S':'
asbag60
(g81
g62
NtRp1995
(dp1996
g65
(dp1997
sg74
g1982
sg67
(lp1998
g60
(g61
g62
NtRp1999
(dp2000
g65
(dp2001
g73
I5
ssg74
g1995
sg67
(lp2002
g60
(g69
g62
NtRp2003
(dp2004
g65
(dp2005
g73
I4
ssg74
Nsg67
(lp2006
sbasbasbasbag60
(g76
g62
NtRp2007
(dp2008
g65
(dp2009
sg74
g70
sg67
(lp2010
g60
(g81
g62
NtRp2011
(dp2012
g65
(dp2013
g85
g86
ssg74
g2007
sg67
(lp2014
S'global_settings'
p2015
asbag60
(g81
g62
NtRp2016
(dp2017
g65
(dp2018
g92
g93
ssg74
g2007
sg67
(lp2019
S':'
asbag60
(g81
g62
NtRp2020
(dp2021
g65
(dp2022
sg74
g2007
sg67
(lp2023
g60
(g61
g62
NtRp2024
(dp2025
g65
(dp2026
g73
I5
ssg74
g2020
sg67
(lp2027
g60
(g69
g62
NtRp2028
(dp2029
g65
(dp2030
g73
I4
ssg74
Nsg67
(lp2031
g60
(g76
g62
NtRp2032
(dp2033
g65
(dp2034
sg74
g2028
sg67
(lp2035
g60
(g81
g62
NtRp2036
(dp2037
g65
(dp2038
g85
g86
ssg74
g2032
sg67
(lp2039
g1022
asbag60
(g81
g62
NtRp2040
(dp2041
g65
(dp2042
g92
g93
ssg74
g2032
sg67
(lp2043
S':'
asbag60
(g81
g62
NtRp2044
(dp2045
g65
(dp2046
sg74
g2032
sg67
(lp2047
g60
(g61
g62
NtRp2048
(dp2049
g65
(dp2050
g73
I4
ssg74
g2044
sg67
(lp2051
S"set(['/home/brencam/web2py/applications/admin/', '/home/brencam/web2py/applications/gallery/'])"
p2052
asbasbasbag60
(g76
g62
NtRp2053
(dp2054
g65
(dp2055
sg74
g2028
sg67
(lp2056
g60
(g81
g62
NtRp2057
(dp2058
g65
(dp2059
g85
g86
ssg74
g2053
sg67
(lp2060
g1044
asbag60
(g81
g62
NtRp2061
(dp2062
g65
(dp2063
g92
g93
ssg74
g2053
sg67
(lp2064
S':'
asbag60
(g81
g62
NtRp2065
(dp2066
g65
(dp2067
sg74
g2053
sg67
(lp2068
g60
(g61
g62
NtRp2069
(dp2070
g65
(dp2071
g73
I4
ssg74
g2065
sg67
(lp2072
g1057
asbasbasbag60
(g76
g62
NtRp2073
(dp2074
g65
(dp2075
sg74
g2028
sg67
(lp2076
g60
(g81
g62
NtRp2077
(dp2078
g65
(dp2079
g85
g86
ssg74
g2073
sg67
(lp2080
g1066
asbag60
(g81
g62
NtRp2081
(dp2082
g65
(dp2083
g92
g93
ssg74
g2073
sg67
(lp2084
S':'
asbag60
(g81
g62
NtRp2085
(dp2086
g65
(dp2087
sg74
g2073
sg67
(lp2088
g60
(g61
g62
NtRp2089
(dp2090
g65
(dp2091
g73
I4
ssg74
g2085
sg67
(lp2092
g60
(g69
g62
NtRp2093
(dp2094
g65
(dp2095
g73
I3
ssg74
Nsg67
(lp2096
sbasbasbasbag60
(g76
g62
NtRp2097
(dp2098
g65
(dp2099
sg74
g2028
sg67
(lp2100
g60
(g81
g62
NtRp2101
(dp2102
g65
(dp2103
g85
g86
ssg74
g2097
sg67
(lp2104
g1091
asbag60
(g81
g62
NtRp2105
(dp2106
g65
(dp2107
g92
g93
ssg74
g2097
sg67
(lp2108
S':'
asbag60
(g81
g62
NtRp2109
(dp2110
g65
(dp2111
sg74
g2097
sg67
(lp2112
g60
(g61
g62
NtRp2113
(dp2114
g65
(dp2115
g73
I4
ssg74
g2109
sg67
(lp2116
S"<Values at 0x8e5026c: {'verbose': False, 'ip': '127.0.0.1', 'shutdown_timeout': 5, 'taskbar': False, 'nocron': False, 'pid_filename': 'httpserver.pid', 'maxthreads': None, 'softcron': False, 'server_name': 'localhost.localdomain', 'bpython': False, 'nogui': False, 'port': 8000, 'extcron': False, 'debuglevel': 30, 'test': None, 'folder': '/home/brencam/web2py', 'config': '', 'import_models': False, 'winservice': '', 'shell': None, 'run': '', 'log_filename': 'httpserver.log', 'args': [''], 'ssl_ca_certificate': None, 'scheduler': None, 'profiler_filename': None, 'ssl_private_key': '', 'password': 'admin', 'request_queue_size': 5, 'ssl_certificate': '', 'cronjob': False, 'plain': False, 'quiet': False, 'interfaces': None, 'minthreads': None, 'timeout': 10, 'numthreads': None, 'nobanner': False}>"
p2117
asbasbasbag60
(g76
g62
NtRp2118
(dp2119
g65
(dp2120
sg74
g2028
sg67
(lp2121
g60
(g81
g62
NtRp2122
(dp2123
g65
(dp2124
g85
g86
ssg74
g2118
sg67
(lp2125
g1113
asbag60
(g81
g62
NtRp2126
(dp2127
g65
(dp2128
g92
g93
ssg74
g2118
sg67
(lp2129
S':'
asbag60
(g81
g62
NtRp2130
(dp2131
g65
(dp2132
sg74
g2118
sg67
(lp2133
g60
(g61
g62
NtRp2134
(dp2135
g65
(dp2136
g73
I4
ssg74
g2130
sg67
(lp2137
S'set([])'
p2138
asbasbasbag60
(g76
g62
NtRp2139
(dp2140
g65
(dp2141
sg74
g2028
sg67
(lp2142
g60
(g81
g62
NtRp2143
(dp2144
g65
(dp2145
g85
g86
ssg74
g2139
sg67
(lp2146
g1135
asbag60
(g81
g62
NtRp2147
(dp2148
g65
(dp2149
g92
g93
ssg74
g2139
sg67
(lp2150
S':'
asbag60
(g81
g62
NtRp2151
(dp2152
g65
(dp2153
sg74
g2139
sg67
(lp2154
g60
(g61
g62
NtRp2155
(dp2156
g65
(dp2157
g73
I4
ssg74
g2151
sg67
(lp2158
g103
asbasbasbag60
(g76
g62
NtRp2159
(dp2160
g65
(dp2161
sg74
g2028
sg67
(lp2162
g60
(g81
g62
NtRp2163
(dp2164
g65
(dp2165
g85
g86
ssg74
g2159
sg67
(lp2166
g1156
asbag60
(g81
g62
NtRp2167
(dp2168
g65
(dp2169
g92
g93
ssg74
g2159
sg67
(lp2170
S':'
asbag60
(g81
g62
NtRp2171
(dp2172
g65
(dp2173
sg74
g2159
sg67
(lp2174
g60
(g61
g62
NtRp2175
(dp2176
g65
(dp2177
g73
I4
ssg74
g2171
sg67
(lp2178
g1169
asbasbasbag60
(g76
g62
NtRp2179
(dp2180
g65
(dp2181
sg74
g2028
sg67
(lp2182
g60
(g81
g62
NtRp2183
(dp2184
g65
(dp2185
g85
g86
ssg74
g2179
sg67
(lp2186
g1354
asbag60
(g81
g62
NtRp2187
(dp2188
g65
(dp2189
g92
g93
ssg74
g2179
sg67
(lp2190
S':'
asbag60
(g81
g62
NtRp2191
(dp2192
g65
(dp2193
sg74
g2179
sg67
(lp2194
g60
(g61
g62
NtRp2195
(dp2196
g65
(dp2197
g73
I4
ssg74
g2191
sg67
(lp2198
g103
asbasbasbag60
(g76
g62
NtRp2199
(dp2200
g65
(dp2201
sg74
g2028
sg67
(lp2202
g60
(g81
g62
NtRp2203
(dp2204
g65
(dp2205
g85
g86
ssg74
g2199
sg67
(lp2206
g1592
asbag60
(g81
g62
NtRp2207
(dp2208
g65
(dp2209
g92
g93
ssg74
g2199
sg67
(lp2210
S':'
asbag60
(g81
g62
NtRp2211
(dp2212
g65
(dp2213
sg74
g2199
sg67
(lp2214
g60
(g61
g62
NtRp2215
(dp2216
g65
(dp2217
g73
I4
ssg74
g2211
sg67
(lp2218
g1605
asbasbasbag60
(g76
g62
NtRp2219
(dp2220
g65
(dp2221
sg74
g2028
sg67
(lp2222
g60
(g81
g62
NtRp2223
(dp2224
g65
(dp2225
g85
g86
ssg74
g2219
sg67
(lp2226
g1635
asbag60
(g81
g62
NtRp2227
(dp2228
g65
(dp2229
g92
g93
ssg74
g2219
sg67
(lp2230
S':'
asbag60
(g81
g62
NtRp2231
(dp2232
g65
(dp2233
sg74
g2219
sg67
(lp2234
g60
(g61
g62
NtRp2235
(dp2236
g65
(dp2237
g73
I4
ssg74
g2231
sg67
(lp2238
g60
(g69
g62
NtRp2239
(dp2240
g65
(dp2241
g73
I3
ssg74
Nsg67
(lp2242
g60
(g76
g62
NtRp2243
(dp2244
g65
(dp2245
sg74
g2239
sg67
(lp2246
g60
(g81
g62
NtRp2247
(dp2248
g65
(dp2249
sg74
g2243
sg67
(lp2250
g60
(g61
g62
NtRp2251
(dp2252
g65
(dp2253
g73
I3
ssg74
g2247
sg67
(lp2254
S'1'
asbasbasbag60
(g76
g62
NtRp2255
(dp2256
g65
(dp2257
sg74
g2239
sg67
(lp2258
g60
(g81
g62
NtRp2259
(dp2260
g65
(dp2261
sg74
g2255
sg67
(lp2262
g60
(g61
g62
NtRp2263
(dp2264
g65
(dp2265
g73
I3
ssg74
g2259
sg67
(lp2266
S'99'
p2267
asbasbasbag60
(g76
g62
NtRp2268
(dp2269
g65
(dp2270
sg74
g2239
sg67
(lp2271
g60
(g81
g62
NtRp2272
(dp2273
g65
(dp2274
sg74
g2268
sg67
(lp2275
g60
(g61
g62
NtRp2276
(dp2277
g65
(dp2278
g73
I3
ssg74
g2272
sg67
(lp2279
S'2'
asbasbasbag60
(g76
g62
NtRp2280
(dp2281
g65
(dp2282
sg74
g2239
sg67
(lp2283
g60
(g81
g62
NtRp2284
(dp2285
g65
(dp2286
sg74
g2280
sg67
(lp2287
g60
(g61
g62
NtRp2288
(dp2289
g65
(dp2290
g73
I3
ssg74
g2284
sg67
(lp2291
S'datetime.datetime(2011, 9, 26, 6, 55, 33)'
p2292
asbasbasbag60
(g76
g62
NtRp2293
(dp2294
g65
(dp2295
sg74
g2239
sg67
(lp2296
g60
(g81
g62
NtRp2297
(dp2298
g65
(dp2299
sg74
g2293
sg67
(lp2300
g60
(g61
g62
NtRp2301
(dp2302
g65
(dp2303
g73
I3
ssg74
g2297
sg67
(lp2304
g1714
asbasbasbasbasbasbasbasbasbasbasbag60
(g76
g62
NtRp2305
(dp2306
g65
(dp2307
sg74
g70
sg67
(lp2308
g60
(g81
g62
NtRp2309
(dp2310
g65
(dp2311
g85
g86
ssg74
g2305
sg67
(lp2312
S'is_https'
p2313
asbag60
(g81
g62
NtRp2314
(dp2315
g65
(dp2316
g92
g93
ssg74
g2305
sg67
(lp2317
S':'
asbag60
(g81
g62
NtRp2318
(dp2319
g65
(dp2320
sg74
g2305
sg67
(lp2321
g60
(g61
g62
NtRp2322
(dp2323
g65
(dp2324
g73
I5
ssg74
g2318
sg67
(lp2325
g103
asbasbasbag60
(g76
g62
NtRp2326
(dp2327
g65
(dp2328
sg74
g70
sg67
(lp2329
g60
(g81
g62
NtRp2330
(dp2331
g65
(dp2332
g85
g86
ssg74
g2326
sg67
(lp2333
S'is_local'
p2334
asbag60
(g81
g62
NtRp2335
(dp2336
g65
(dp2337
g92
g93
ssg74
g2326
sg67
(lp2338
S':'
asbag60
(g81
g62
NtRp2339
(dp2340
g65
(dp2341
sg74
g2326
sg67
(lp2342
g60
(g61
g62
NtRp2343
(dp2344
g65
(dp2345
g73
I5
ssg74
g2339
sg67
(lp2346
g1823
asbasbasbag60
(g76
g62
NtRp2347
(dp2348
g65
(dp2349
sg74
g70
sg67
(lp2350
g60
(g81
g62
NtRp2351
(dp2352
g65
(dp2353
g85
g86
ssg74
g2347
sg67
(lp2354
S'is_restful'
p2355
asbag60
(g81
g62
NtRp2356
(dp2357
g65
(dp2358
g92
g93
ssg74
g2347
sg67
(lp2359
S':'
asbag60
(g81
g62
NtRp2360
(dp2361
g65
(dp2362
sg74
g2347
sg67
(lp2363
g60
(g61
g62
NtRp2364
(dp2365
g65
(dp2366
g73
I5
ssg74
g2360
sg67
(lp2367
g103
asbasbasbag60
(g76
g62
NtRp2368
(dp2369
g65
(dp2370
sg74
g70
sg67
(lp2371
g60
(g81
g62
NtRp2372
(dp2373
g65
(dp2374
g85
g86
ssg74
g2368
sg67
(lp2375
S'now'
p2376
asbag60
(g81
g62
NtRp2377
(dp2378
g65
(dp2379
g92
g93
ssg74
g2368
sg67
(lp2380
S':'
asbag60
(g81
g62
NtRp2381
(dp2382
g65
(dp2383
sg74
g2368
sg67
(lp2384
g60
(g61
g62
NtRp2385
(dp2386
g65
(dp2387
g73
I5
ssg74
g2381
sg67
(lp2388
S'datetime.datetime(2011, 11, 2, 23, 23, 15, 402710)'
p2389
asbasbasbag60
(g76
g62
NtRp2390
(dp2391
g65
(dp2392
sg74
g70
sg67
(lp2393
g60
(g81
g62
NtRp2394
(dp2395
g65
(dp2396
g85
g86
ssg74
g2390
sg67
(lp2397
S'post_vars'
p2398
asbag60
(g81
g62
NtRp2399
(dp2400
g65
(dp2401
g92
g93
ssg74
g2390
sg67
(lp2402
S':'
asbag60
(g81
g62
NtRp2403
(dp2404
g65
(dp2405
sg74
g2390
sg67
(lp2406
g60
(g61
g62
NtRp2407
(dp2408
g65
(dp2409
g73
I5
ssg74
g2403
sg67
(lp2410
g60
(g69
g62
NtRp2411
(dp2412
g65
(dp2413
g73
I4
ssg74
Nsg67
(lp2414
sbasbasbasbag60
(g76
g62
NtRp2415
(dp2416
g65
(dp2417
sg74
g70
sg67
(lp2418
g60
(g81
g62
NtRp2419
(dp2420
g65
(dp2421
g85
g86
ssg74
g2415
sg67
(lp2422
S'url'
p2423
asbag60
(g81
g62
NtRp2424
(dp2425
g65
(dp2426
g92
g93
ssg74
g2415
sg67
(lp2427
S':'
asbag60
(g81
g62
NtRp2428
(dp2429
g65
(dp2430
sg74
g2415
sg67
(lp2431
g60
(g61
g62
NtRp2432
(dp2433
g65
(dp2434
g73
I5
ssg74
g2428
sg67
(lp2435
S'/gallery/default/index'
p2436
asbasbasbag60
(g76
g62
NtRp2437
(dp2438
g65
(dp2439
sg74
g70
sg67
(lp2440
g60
(g81
g62
NtRp2441
(dp2442
g65
(dp2443
g85
g86
ssg74
g2437
sg67
(lp2444
S'utcnow'
p2445
asbag60
(g81
g62
NtRp2446
(dp2447
g65
(dp2448
g92
g93
ssg74
g2437
sg67
(lp2449
S':'
asbag60
(g81
g62
NtRp2450
(dp2451
g65
(dp2452
sg74
g2437
sg67
(lp2453
g60
(g61
g62
NtRp2454
(dp2455
g65
(dp2456
g73
I5
ssg74
g2450
sg67
(lp2457
S'datetime.datetime(2011, 11, 3, 6, 23, 15, 402735)'
p2458
asbasbasbag60
(g76
g62
NtRp2459
(dp2460
g65
(dp2461
sg74
g70
sg67
(lp2462
g60
(g81
g62
NtRp2463
(dp2464
g65
(dp2465
g85
g86
ssg74
g2459
sg67
(lp2466
S'uuid'
p2467
asbag60
(g81
g62
NtRp2468
(dp2469
g65
(dp2470
g92
g93
ssg74
g2459
sg67
(lp2471
S':'
asbag60
(g81
g62
NtRp2472
(dp2473
g65
(dp2474
sg74
g2459
sg67
(lp2475
g60
(g61
g62
NtRp2476
(dp2477
g65
(dp2478
g73
I5
ssg74
g2472
sg67
(lp2479
S'gallery/127.0.0.1.2011-11-02.23-23-15.428dc812-e75d-4d2d-878b-6b9635897c74'
p2480
asbasbasbag60
(g76
g62
NtRp2481
(dp2482
g65
(dp2483
sg74
g70
sg67
(lp2484
g60
(g81
g62
NtRp2485
(dp2486
g65
(dp2487
g85
g86
ssg74
g2481
sg67
(lp2488
S'vars'
p2489
asbag60
(g81
g62
NtRp2490
(dp2491
g65
(dp2492
g92
g93
ssg74
g2481
sg67
(lp2493
S':'
asbag60
(g81
g62
NtRp2494
(dp2495
g65
(dp2496
sg74
g2481
sg67
(lp2497
g60
(g61
g62
NtRp2498
(dp2499
g65
(dp2500
g73
I5
ssg74
g2494
sg67
(lp2501
g60
(g69
g62
NtRp2502
(dp2503
g65
(dp2504
g73
I4
ssg74
Nsg67
(lp2505
sbasbasbasbag60
(g76
g62
NtRp2506
(dp2507
g65
(dp2508
sg74
g70
sg67
(lp2509
g60
(g81
g62
NtRp2510
(dp2511
g65
(dp2512
g85
g86
ssg74
g2506
sg67
(lp2513
S'wsgi'
p2514
asbag60
(g81
g62
NtRp2515
(dp2516
g65
(dp2517
g92
g93
ssg74
g2506
sg67
(lp2518
S':'
asbag60
(g81
g62
NtRp2519
(dp2520
g65
(dp2521
sg74
g2506
sg67
(lp2522
g60
(g61
g62
NtRp2523
(dp2524
g65
(dp2525
g73
I5
ssg74
g2519
sg67
(lp2526
g60
(g69
g62
NtRp2527
(dp2528
g65
(dp2529
g73
I4
ssg74
Nsg67
(lp2530
g60
(g76
g62
NtRp2531
(dp2532
g65
(dp2533
sg74
g2527
sg67
(lp2534
g60
(g81
g62
NtRp2535
(dp2536
g65
(dp2537
g85
g86
ssg74
g2531
sg67
(lp2538
S'environ'
p2539
asbag60
(g81
g62
NtRp2540
(dp2541
g65
(dp2542
g92
g93
ssg74
g2531
sg67
(lp2543
S':'
asbag60
(g81
g62
NtRp2544
(dp2545
g65
(dp2546
sg74
g2531
sg67
(lp2547
g60
(g61
g62
NtRp2548
(dp2549
g65
(dp2550
g73
I4
ssg74
g2544
sg67
(lp2551
g60
(g69
g62
NtRp2552
(dp2553
g65
(dp2554
g73
I3
ssg74
Nsg67
(lp2555
g60
(g76
g62
NtRp2556
(dp2557
g65
(dp2558
sg74
g2552
sg67
(lp2559
g60
(g81
g62
NtRp2560
(dp2561
g65
(dp2562
g85
g86
ssg74
g2556
sg67
(lp2563
S'HTTP_ACCEPT'
p2564
asbag60
(g81
g62
NtRp2565
(dp2566
g65
(dp2567
g92
g93
ssg74
g2556
sg67
(lp2568
S':'
asbag60
(g81
g62
NtRp2569
(dp2570
g65
(dp2571
sg74
g2556
sg67
(lp2572
g60
(g61
g62
NtRp2573
(dp2574
g65
(dp2575
g73
I3
ssg74
g2569
sg67
(lp2576
g1191
asbasbasbag60
(g76
g62
NtRp2577
(dp2578
g65
(dp2579
sg74
g2552
sg67
(lp2580
g60
(g81
g62
NtRp2581
(dp2582
g65
(dp2583
g85
g86
ssg74
g2577
sg67
(lp2584
S'HTTP_ACCEPT_CHARSET'
p2585
asbag60
(g81
g62
NtRp2586
(dp2587
g65
(dp2588
g92
g93
ssg74
g2577
sg67
(lp2589
S':'
asbag60
(g81
g62
NtRp2590
(dp2591
g65
(dp2592
sg74
g2577
sg67
(lp2593
g60
(g61
g62
NtRp2594
(dp2595
g65
(dp2596
g73
I3
ssg74
g2590
sg67
(lp2597
g1213
asbasbasbag60
(g76
g62
NtRp2598
(dp2599
g65
(dp2600
sg74
g2552
sg67
(lp2601
g60
(g81
g62
NtRp2602
(dp2603
g65
(dp2604
g85
g86
ssg74
g2598
sg67
(lp2605
S'HTTP_ACCEPT_ENCODING'
p2606
asbag60
(g81
g62
NtRp2607
(dp2608
g65
(dp2609
g92
g93
ssg74
g2598
sg67
(lp2610
S':'
asbag60
(g81
g62
NtRp2611
(dp2612
g65
(dp2613
sg74
g2598
sg67
(lp2614
g60
(g61
g62
NtRp2615
(dp2616
g65
(dp2617
g73
I3
ssg74
g2611
sg67
(lp2618
g1235
asbasbasbag60
(g76
g62
NtRp2619
(dp2620
g65
(dp2621
sg74
g2552
sg67
(lp2622
g60
(g81
g62
NtRp2623
(dp2624
g65
(dp2625
g85
g86
ssg74
g2619
sg67
(lp2626
S'HTTP_ACCEPT_LANGUAGE'
p2627
asbag60
(g81
g62
NtRp2628
(dp2629
g65
(dp2630
g92
g93
ssg74
g2619
sg67
(lp2631
S':'
asbag60
(g81
g62
NtRp2632
(dp2633
g65
(dp2634
sg74
g2619
sg67
(lp2635
g60
(g61
g62
NtRp2636
(dp2637
g65
(dp2638
g73
I3
ssg74
g2632
sg67
(lp2639
g1257
asbasbasbag60
(g76
g62
NtRp2640
(dp2641
g65
(dp2642
sg74
g2552
sg67
(lp2643
g60
(g81
g62
NtRp2644
(dp2645
g65
(dp2646
g85
g86
ssg74
g2640
sg67
(lp2647
S'HTTP_CONNECTION'
p2648
asbag60
(g81
g62
NtRp2649
(dp2650
g65
(dp2651
g92
g93
ssg74
g2640
sg67
(lp2652
S':'
asbag60
(g81
g62
NtRp2653
(dp2654
g65
(dp2655
sg74
g2640
sg67
(lp2656
g60
(g61
g62
NtRp2657
(dp2658
g65
(dp2659
g73
I3
ssg74
g2653
sg67
(lp2660
g1279
asbasbasbag60
(g76
g62
NtRp2661
(dp2662
g65
(dp2663
sg74
g2552
sg67
(lp2664
g60
(g81
g62
NtRp2665
(dp2666
g65
(dp2667
g85
g86
ssg74
g2661
sg67
(lp2668
S'HTTP_COOKIE'
p2669
asbag60
(g81
g62
NtRp2670
(dp2671
g65
(dp2672
g92
g93
ssg74
g2661
sg67
(lp2673
S':'
asbag60
(g81
g62
NtRp2674
(dp2675
g65
(dp2676
sg74
g2661
sg67
(lp2677
g60
(g61
g62
NtRp2678
(dp2679
g65
(dp2680
g73
I3
ssg74
g2674
sg67
(lp2681
g1301
asbasbasbag60
(g76
g62
NtRp2682
(dp2683
g65
(dp2684
sg74
g2552
sg67
(lp2685
g60
(g81
g62
NtRp2686
(dp2687
g65
(dp2688
g85
g86
ssg74
g2682
sg67
(lp2689
S'HTTP_HOST'
p2690
asbag60
(g81
g62
NtRp2691
(dp2692
g65
(dp2693
g92
g93
ssg74
g2682
sg67
(lp2694
S':'
asbag60
(g81
g62
NtRp2695
(dp2696
g65
(dp2697
sg74
g2682
sg67
(lp2698
g60
(g61
g62
NtRp2699
(dp2700
g65
(dp2701
g73
I3
ssg74
g2695
sg67
(lp2702
g1323
asbasbasbag60
(g76
g62
NtRp2703
(dp2704
g65
(dp2705
sg74
g2552
sg67
(lp2706
g60
(g81
g62
NtRp2707
(dp2708
g65
(dp2709
g85
g86
ssg74
g2703
sg67
(lp2710
S'HTTP_USER_AGENT'
p2711
asbag60
(g81
g62
NtRp2712
(dp2713
g65
(dp2714
g92
g93
ssg74
g2703
sg67
(lp2715
S':'
asbag60
(g81
g62
NtRp2716
(dp2717
g65
(dp2718
sg74
g2703
sg67
(lp2719
g60
(g61
g62
NtRp2720
(dp2721
g65
(dp2722
g73
I3
ssg74
g2716
sg67
(lp2723
g1345
asbasbasbag60
(g76
g62
NtRp2724
(dp2725
g65
(dp2726
sg74
g2552
sg67
(lp2727
g60
(g81
g62
NtRp2728
(dp2729
g65
(dp2730
g85
g86
ssg74
g2724
sg67
(lp2731
S'PATH_INFO'
p2732
asbag60
(g81
g62
NtRp2733
(dp2734
g65
(dp2735
g92
g93
ssg74
g2724
sg67
(lp2736
S':'
asbag60
(g81
g62
NtRp2737
(dp2738
g65
(dp2739
sg74
g2724
sg67
(lp2740
g60
(g61
g62
NtRp2741
(dp2742
g65
(dp2743
g73
I3
ssg74
g2737
sg67
(lp2744
g1388
asbasbasbag60
(g76
g62
NtRp2745
(dp2746
g65
(dp2747
sg74
g2552
sg67
(lp2748
g60
(g81
g62
NtRp2749
(dp2750
g65
(dp2751
g85
g86
ssg74
g2745
sg67
(lp2752
S'QUERY_STRING'
p2753
asbag60
(g81
g62
NtRp2754
(dp2755
g65
(dp2756
g92
g93
ssg74
g2745
sg67
(lp2757
S':'
asbag60
(g81
g62
NtRp2758
(dp2759
g65
(dp2760
sg74
g2745
sg67
(lp2761
g60
(g61
g62
NtRp2762
(dp2763
g65
(dp2764
g73
I3
ssg74
g2758
sg67
(lp2765
S''
asbasbasbag60
(g76
g62
NtRp2766
(dp2767
g65
(dp2768
sg74
g2552
sg67
(lp2769
g60
(g81
g62
NtRp2770
(dp2771
g65
(dp2772
g85
g86
ssg74
g2766
sg67
(lp2773
S'REMOTE_ADDR'
p2774
asbag60
(g81
g62
NtRp2775
(dp2776
g65
(dp2777
g92
g93
ssg74
g2766
sg67
(lp2778
S':'
asbag60
(g81
g62
NtRp2779
(dp2780
g65
(dp2781
sg74
g2766
sg67
(lp2782
g60
(g61
g62
NtRp2783
(dp2784
g65
(dp2785
g73
I3
ssg74
g2779
sg67
(lp2786
g193
asbasbasbag60
(g76
g62
NtRp2787
(dp2788
g65
(dp2789
sg74
g2552
sg67
(lp2790
g60
(g81
g62
NtRp2791
(dp2792
g65
(dp2793
g85
g86
ssg74
g2787
sg67
(lp2794
S'REMOTE_PORT'
p2795
asbag60
(g81
g62
NtRp2796
(dp2797
g65
(dp2798
g92
g93
ssg74
g2787
sg67
(lp2799
S':'
asbag60
(g81
g62
NtRp2800
(dp2801
g65
(dp2802
sg74
g2787
sg67
(lp2803
g60
(g61
g62
NtRp2804
(dp2805
g65
(dp2806
g73
I3
ssg74
g2800
sg67
(lp2807
g1452
asbasbasbag60
(g76
g62
NtRp2808
(dp2809
g65
(dp2810
sg74
g2552
sg67
(lp2811
g60
(g81
g62
NtRp2812
(dp2813
g65
(dp2814
g85
g86
ssg74
g2808
sg67
(lp2815
S'REQUEST_METHOD'
p2816
asbag60
(g81
g62
NtRp2817
(dp2818
g65
(dp2819
g92
g93
ssg74
g2808
sg67
(lp2820
S':'
asbag60
(g81
g62
NtRp2821
(dp2822
g65
(dp2823
sg74
g2808
sg67
(lp2824
g60
(g61
g62
NtRp2825
(dp2826
g65
(dp2827
g73
I3
ssg74
g2821
sg67
(lp2828
g1474
asbasbasbag60
(g76
g62
NtRp2829
(dp2830
g65
(dp2831
sg74
g2552
sg67
(lp2832
g60
(g81
g62
NtRp2833
(dp2834
g65
(dp2835
g85
g86
ssg74
g2829
sg67
(lp2836
S'SCRIPT_NAME'
p2837
asbag60
(g81
g62
NtRp2838
(dp2839
g65
(dp2840
g92
g93
ssg74
g2829
sg67
(lp2841
S':'
asbag60
(g81
g62
NtRp2842
(dp2843
g65
(dp2844
sg74
g2829
sg67
(lp2845
g60
(g61
g62
NtRp2846
(dp2847
g65
(dp2848
g73
I3
ssg74
g2842
sg67
(lp2849
S''
asbasbasbag60
(g76
g62
NtRp2850
(dp2851
g65
(dp2852
sg74
g2552
sg67
(lp2853
g60
(g81
g62
NtRp2854
(dp2855
g65
(dp2856
g85
g86
ssg74
g2850
sg67
(lp2857
S'SERVER_NAME'
p2858
asbag60
(g81
g62
NtRp2859
(dp2860
g65
(dp2861
g92
g93
ssg74
g2850
sg67
(lp2862
S':'
asbag60
(g81
g62
NtRp2863
(dp2864
g65
(dp2865
sg74
g2850
sg67
(lp2866
g60
(g61
g62
NtRp2867
(dp2868
g65
(dp2869
g73
I3
ssg74
g2863
sg67
(lp2870
g1517
asbasbasbag60
(g76
g62
NtRp2871
(dp2872
g65
(dp2873
sg74
g2552
sg67
(lp2874
g60
(g81
g62
NtRp2875
(dp2876
g65
(dp2877
g85
g86
ssg74
g2871
sg67
(lp2878
S'SERVER_PORT'
p2879
asbag60
(g81
g62
NtRp2880
(dp2881
g65
(dp2882
g92
g93
ssg74
g2871
sg67
(lp2883
S':'
asbag60
(g81
g62
NtRp2884
(dp2885
g65
(dp2886
sg74
g2871
sg67
(lp2887
g60
(g61
g62
NtRp2888
(dp2889
g65
(dp2890
g73
I3
ssg74
g2884
sg67
(lp2891
g1539
asbasbasbag60
(g76
g62
NtRp2892
(dp2893
g65
(dp2894
sg74
g2552
sg67
(lp2895
g60
(g81
g62
NtRp2896
(dp2897
g65
(dp2898
g85
g86
ssg74
g2892
sg67
(lp2899
S'SERVER_PROTOCOL'
p2900
asbag60
(g81
g62
NtRp2901
(dp2902
g65
(dp2903
g92
g93
ssg74
g2892
sg67
(lp2904
S':'
asbag60
(g81
g62
NtRp2905
(dp2906
g65
(dp2907
sg74
g2892
sg67
(lp2908
g60
(g61
g62
NtRp2909
(dp2910
g65
(dp2911
g73
I3
ssg74
g2905
sg67
(lp2912
g1561
asbasbasbag60
(g76
g62
NtRp2913
(dp2914
g65
(dp2915
sg74
g2552
sg67
(lp2916
g60
(g81
g62
NtRp2917
(dp2918
g65
(dp2919
g85
g86
ssg74
g2913
sg67
(lp2920
S'SERVER_SOFTWARE'
p2921
asbag60
(g81
g62
NtRp2922
(dp2923
g65
(dp2924
g92
g93
ssg74
g2913
sg67
(lp2925
S':'
asbag60
(g81
g62
NtRp2926
(dp2927
g65
(dp2928
sg74
g2913
sg67
(lp2929
g60
(g61
g62
NtRp2930
(dp2931
g65
(dp2932
g73
I3
ssg74
g2926
sg67
(lp2933
g1583
asbasbasbag60
(g76
g62
NtRp2934
(dp2935
g65
(dp2936
sg74
g2552
sg67
(lp2937
g60
(g81
g62
NtRp2938
(dp2939
g65
(dp2940
g85
g86
ssg74
g2934
sg67
(lp2941
S'wsgi.errors'
p2942
asbag60
(g81
g62
NtRp2943
(dp2944
g65
(dp2945
g92
g93
ssg74
g2934
sg67
(lp2946
S':'
asbag60
(g81
g62
NtRp2947
(dp2948
g65
(dp2949
sg74
g2934
sg67
(lp2950
g60
(g61
g62
NtRp2951
(dp2952
g65
(dp2953
g73
I3
ssg74
g2947
sg67
(lp2954
S"<open file '<stderr>', mode 'w' at 0xb75610d0>"
p2955
asbasbasbag60
(g76
g62
NtRp2956
(dp2957
g65
(dp2958
sg74
g2552
sg67
(lp2959
g60
(g81
g62
NtRp2960
(dp2961
g65
(dp2962
g85
g86
ssg74
g2956
sg67
(lp2963
S'wsgi.file_wrapper'
p2964
asbag60
(g81
g62
NtRp2965
(dp2966
g65
(dp2967
g92
g93
ssg74
g2956
sg67
(lp2968
S':'
asbag60
(g81
g62
NtRp2969
(dp2970
g65
(dp2971
sg74
g2956
sg67
(lp2972
g60
(g61
g62
NtRp2973
(dp2974
g65
(dp2975
g73
I3
ssg74
g2969
sg67
(lp2976
S'<class wsgiref.util.FileWrapper at 0x8a4d50c>'
p2977
asbasbasbag60
(g76
g62
NtRp2978
(dp2979
g65
(dp2980
sg74
g2552
sg67
(lp2981
g60
(g81
g62
NtRp2982
(dp2983
g65
(dp2984
g85
g86
ssg74
g2978
sg67
(lp2985
S'wsgi.input'
p2986
asbag60
(g81
g62
NtRp2987
(dp2988
g65
(dp2989
g92
g93
ssg74
g2978
sg67
(lp2990
S':'
asbag60
(g81
g62
NtRp2991
(dp2992
g65
(dp2993
sg74
g2978
sg67
(lp2994
g60
(g61
g62
NtRp2995
(dp2996
g65
(dp2997
g73
I3
ssg74
g2991
sg67
(lp2998
S'<cStringIO.StringO object at 0x8d0c200>'
p2999
asbasbasbag60
(g76
g62
NtRp3000
(dp3001
g65
(dp3002
sg74
g2552
sg67
(lp3003
g60
(g81
g62
NtRp3004
(dp3005
g65
(dp3006
g85
g86
ssg74
g3000
sg67
(lp3007
S'wsgi.multiprocess'
p3008
asbag60
(g81
g62
NtRp3009
(dp3010
g65
(dp3011
g92
g93
ssg74
g3000
sg67
(lp3012
S':'
asbag60
(g81
g62
NtRp3013
(dp3014
g65
(dp3015
sg74
g3000
sg67
(lp3016
g60
(g61
g62
NtRp3017
(dp3018
g65
(dp3019
g73
I3
ssg74
g3013
sg67
(lp3020
g103
asbasbasbag60
(g76
g62
NtRp3021
(dp3022
g65
(dp3023
sg74
g2552
sg67
(lp3024
g60
(g81
g62
NtRp3025
(dp3026
g65
(dp3027
g85
g86
ssg74
g3021
sg67
(lp3028
S'wsgi.multithread'
p3029
asbag60
(g81
g62
NtRp3030
(dp3031
g65
(dp3032
g92
g93
ssg74
g3021
sg67
(lp3033
S':'
asbag60
(g81
g62
NtRp3034
(dp3035
g65
(dp3036
sg74
g3021
sg67
(lp3037
g60
(g61
g62
NtRp3038
(dp3039
g65
(dp3040
g73
I3
ssg74
g3034
sg67
(lp3041
g1823
asbasbasbag60
(g76
g62
NtRp3042
(dp3043
g65
(dp3044
sg74
g2552
sg67
(lp3045
g60
(g81
g62
NtRp3046
(dp3047
g65
(dp3048
g85
g86
ssg74
g3042
sg67
(lp3049
S'wsgi.run_once'
p3050
asbag60
(g81
g62
NtRp3051
(dp3052
g65
(dp3053
g92
g93
ssg74
g3042
sg67
(lp3054
S':'
asbag60
(g81
g62
NtRp3055
(dp3056
g65
(dp3057
sg74
g3042
sg67
(lp3058
g60
(g61
g62
NtRp3059
(dp3060
g65
(dp3061
g73
I3
ssg74
g3055
sg67
(lp3062
g103
asbasbasbag60
(g76
g62
NtRp3063
(dp3064
g65
(dp3065
sg74
g2552
sg67
(lp3066
g60
(g81
g62
NtRp3067
(dp3068
g65
(dp3069
g85
g86
ssg74
g3063
sg67
(lp3070
S'wsgi.url_scheme'
p3071
asbag60
(g81
g62
NtRp3072
(dp3073
g65
(dp3074
g92
g93
ssg74
g3063
sg67
(lp3075
S':'
asbag60
(g81
g62
NtRp3076
(dp3077
g65
(dp3078
sg74
g3063
sg67
(lp3079
g60
(g61
g62
NtRp3080
(dp3081
g65
(dp3082
g73
I3
ssg74
g3076
sg67
(lp3083
g1866
asbasbasbag60
(g76
g62
NtRp3084
(dp3085
g65
(dp3086
sg74
g2552
sg67
(lp3087
g60
(g81
g62
NtRp3088
(dp3089
g65
(dp3090
g85
g86
ssg74
g3084
sg67
(lp3091
S'wsgi.version'
p3092
asbag60
(g81
g62
NtRp3093
(dp3094
g65
(dp3095
g92
g93
ssg74
g3084
sg67
(lp3096
S':'
asbag60
(g81
g62
NtRp3097
(dp3098
g65
(dp3099
sg74
g3084
sg67
(lp3100
g60
(g61
g62
NtRp3101
(dp3102
g65
(dp3103
g73
I3
ssg74
g3097
sg67
(lp3104
S'1'
asbasbasbasbasbasbasbasbasbasbasbasbasbsS'frames'
p3105
(lp3106
(dp3107
S'file'
p3108
S'/home/brencam/web2py/gluon/restricted.py'
p3109
sS'dump'
p3110
(dp3111
S'environment'
p3112
S"{'A': <class 'gluon.html.A'>, 'Auth': <class 'gluon.tools.Auth'>, 'B': <class 'gluon.html.B'>, 'BEAUTIFY': <class 'gluon.html.BEAUTIFY'>, 'BODY': <class 'gluon.html.BODY'>, 'BR': <class 'gluon.html.BR'>, 'BUTTON': <class 'gluon.html.BUTTON'>, 'CAT': <class 'gluon.html.CAT'>, 'CENTER': <class 'gluon.html.CENTER'>, 'CLEANUP': <class 'gluon.validators.CLEANUP'>, ...}"
p3113
sS'ccode'
p3114
S'<code object <module> at 0xaf1e0650, file "/home...b2py/applications/gallery/models/db.py", line 10>'
p3115
ssS'lnum'
p3116
I194
sS'lines'
p3117
(dp3118
I192
S'        else:'
p3119
sI193
S'            ccode = compile2(code,layer)'
p3120
sI194
S'        exec ccode in environment'
p3121
sI195
S'    except HTTP:'
p3122
sI196
S'        raise'
p3123
sI197
S'    except Exception, error:'
p3124
sI198
S'        # XXX Show exception in Wing IDE if running in debugger'
p3125
sI189
S'    try:'
p3126
sI190
S'        if type(code) == types.CodeType:'
p3127
sI191
S'            ccode = code'
p3128
ssS'call'
p3129
S"(code='# -*- coding: utf-8 -*-\\n\\n#######################...writable = db.comment.image_id.readable = False\\n\\n', environment={'A': <class 'gluon.html.A'>, 'Auth': <class 'gluon.tools.Auth'>, 'B': <class 'gluon.html.B'>, 'BEAUTIFY': <class 'gluon.html.BEAUTIFY'>, 'BODY': <class 'gluon.html.BODY'>, 'BR': <class 'gluon.html.BR'>, 'BUTTON': <class 'gluon.html.BUTTON'>, 'CAT': <class 'gluon.html.CAT'>, 'CENTER': <class 'gluon.html.CENTER'>, 'CLEANUP': <class 'gluon.validators.CLEANUP'>, ...}, layer='/home/brencam/web2py/applications/gallery/models/db.py')"
p3130
sS'func'
p3131
S'restricted'
p3132
sa(dp3133
g3108
S'/home/brencam/web2py/applications/gallery/models/db.py'
p3134
sg3110
(dp3135
S'auth.define_tables'
p3136
S'<bound method Auth.define_tables of <gluon.tools.Auth object>>'
p3137
sS'auth'
p3138
S'<gluon.tools.Auth object>'
p3139
ssg3116
I42
sg3117
(dp3140
I37
S'from gluon.tools import Auth, Crud, Service, PluginManager, prettydate'
p3141
sI38
S'auth = Auth(db, hmac_key=Auth.get_or_create_key())'
p3142
sI39
S'crud, service, plugins = Crud(db), Service(), PluginManager()'
p3143
sI40
S''
sI41
S'## create all tables needed by auth if not custom tables'
p3144
sI42
S'auth.define_tables()'
p3145
sI43
S''
sI44
S'## configure email'
p3146
sI45
S'mail=auth.settings.mailer'
p3147
sI46
S"mail.settings.server = 'logging' or 'smtp.gmail.com:587'"
p3148
ssg3129
S'()'
p3149
sg3131
S'<module>'
p3150
sa(dp3151
g3108
S'/home/brencam/web2py/gluon/tools.py'
p3152
sg3110
(dp3153
S'builtinformat'
p3154
S'<built-in function format>'
p3155
ssg3116
I1256
sg3117
(dp3156
I1251
S'                    *settings.extra_fields.get(settings.table_user_name,[]),'
p3157
sI1252
S'                    **dict('
p3158
sI1253
S'                        migrate=self.__get_migrate(settings.table_user_name,'
p3159
sI1254
S'                                                   migrate),'
p3160
sI1255
S'                        fake_migrate=fake_migrate,'
p3161
sI1256
S"                        format='%(first_name)s %(last_name)s (%(id)s)'))"
p3162
sI1257
S'            table.first_name.requires = \\'
p3163
sI1258
S'                IS_NOT_EMPTY(error_message=self.messages.is_empty)'
p3164
sI1259
S'            table.last_name.requires = \\'
p3165
sI1260
S'                IS_NOT_EMPTY(error_message=self.messages.is_empty)'
p3166
ssg3129
S'(self=<gluon.tools.Auth object>, username=False, migrate=True, fake_migrate=False)'
p3167
sg3131
S'define_tables'
p3168
sa(dp3169
g3108
S'/home/brencam/web2py/gluon/dal.py'
p3170
sg3110
(dp3171
S'polymodel'
p3172
S'None'
p3173
ssg3116
I4491
sg3117
(dp3174
I4486
S"        if migrate or self._adapter.dbengine=='google:datastore':"
p3175
sI4487
S'            try:'
p3176
sI4488
S'                sql_locker.acquire()'
p3177
sI4489
S'                self._adapter.create_table(t,migrate=migrate,'
p3178
sI4490
S'                                           fake_migrate=fake_migrate,'
p3179
sI4491
S'                                           polymodel=polymodel)'
p3180
sI4492
S'            finally:'
p3181
sI4493
S'                sql_locker.release()'
p3182
sI4494
S'        else:'
p3183
sI4495
S'            t._dbt = None'
p3184
ssg3129
S"(self=<DAL {'_migrate_enabled': True, '_lastsql': 'CRE...'_uri_hash': 'c8b669d15150d7109e5f7ab36744a5b7'}>, tablename='auth_user', *fields=(<gluon.dal.Field object>, <gluon.dal.Field object>, <gluon.dal.Field object>, <gluon.dal.Field object>, <gluon.dal.Field object>, <gluon.dal.Field object>), **args={'fake_migrate': False, 'format': '%(first_name)s %(last_name)s (%(id)s)', 'migrate': True})"
p3185
sg3131
S'define_table'
p3186
sa(dp3187
g3108
S'/home/brencam/web2py/gluon/dal.py'
p3188
sg3110
(dp3189
S'query'
p3190
S"'CREATE TABLE auth_user(\\n    id INTEGER PRIMARY K...ey CHAR(512),\\n    reset_password_key CHAR(512)\\n);'"
p3191
sS'self'
p3192
S'<gluon.dal.SQLiteAdapter object>'
p3193
sS'table'
p3194
S"<Table {'first_name': <gluon.dal.Field object at...>, 'id': <gluon.dal.Field object at 0xaf18b30c>}>"
p3195
sS'self.create_sequence_and_triggers'
p3196
S'<bound method SQLiteAdapter.create_sequence_and_triggers of <gluon.dal.SQLiteAdapter object>>'
p3197
ssg3116
I677
sg3117
(dp3198
I672
S'            if table._dbt:'
p3199
sI673
S"                logfile.write('timestamp: %s\\n'"
p3200
sI674
S'                               % datetime.datetime.today().isoformat())'
p3201
sI675
S"                logfile.write(query + '\\n')"
p3202
sI676
S'            if not fake_migrate:'
p3203
sI677
S'                self.create_sequence_and_triggers(query,table)'
p3204
sI678
S'                table._db.commit()'
p3205
sI679
S'            if table._dbt:'
p3206
sI680
S"                tfile = self.file_open(table._dbt, 'w')"
p3207
sI681
S'                cPickle.dump(sql_fields, tfile)'
p3208
ssg3129
S"(self=<gluon.dal.SQLiteAdapter object>, table=<Table {'first_name': <gluon.dal.Field object at...>, 'id': <gluon.dal.Field object at 0xaf18b30c>}>, migrate=True, fake_migrate=False, polymodel=None)"
p3209
sg3131
S'create_table'
p3210
sa(dp3211
g3108
S'/home/brencam/web2py/gluon/dal.py'
p3212
sg3110
(dp3213
S'query'
p3214
S"'CREATE TABLE auth_user(\\n    id INTEGER PRIMARY K...ey CHAR(512),\\n    reset_password_key CHAR(512)\\n);'"
p3215
sS'self'
p3216
S'<gluon.dal.SQLiteAdapter object>'
p3217
sS'self.execute'
p3218
S'<bound method SQLiteAdapter.execute of <gluon.dal.SQLiteAdapter object>>'
p3219
ssg3116
I1299
sg3117
(dp3220
I1294
S''
sI1295
S'    def constraint_name(self, table, fieldname):'
p3221
sI1296
S"        return '%s_%s__constraint' % (table,fieldname)"
p3222
sI1297
S''
sI1298
S'    def create_sequence_and_triggers(self, query, table, **args):'
p3223
sI1299
S'        self.execute(query)'
p3224
sI1300
S''
sI1301
S'    def log_execute(self,*a,**b):'
p3225
sI1302
S'        self.db._lastsql = a[0]'
p3226
sI1303
S'        t0 = time.time()'
p3227
ssg3129
S"(self=<gluon.dal.SQLiteAdapter object>, query='CREATE TABLE auth_user(\\n    id INTEGER PRIMARY K...ey CHAR(512),\\n    reset_password_key CHAR(512)\\n);', table=<Table {'first_name': <gluon.dal.Field object at...>, 'id': <gluon.dal.Field object at 0xaf18b30c>}>, **args={})"
p3228
sg3131
S'create_sequence_and_triggers'
p3229
sa(dp3230
g3108
S'/home/brencam/web2py/gluon/dal.py'
p3231
sg3110
(dp3232
S'a'
S"('CREATE TABLE auth_user(\\n    id INTEGER PRIMARY K...ey CHAR(512),\\n    reset_password_key CHAR(512)\\n);',)"
p3233
sS'self'
p3234
S'<gluon.dal.SQLiteAdapter object>'
p3235
sS'b'
g20
sS'self.log_execute'
p3236
S'<bound method SQLiteAdapter.log_execute of <gluon.dal.SQLiteAdapter object>>'
p3237
ssg3116
I1309
sg3117
(dp3238
I1312
S'        if isinstance(obj,CALLABLETYPES):'
p3239
sI1313
S'            obj = obj()'
p3240
sI1304
S'        ret = self.cursor.execute(*a,**b)'
p3241
sI1305
S'        self.db._timings.append((a[0],time.time()-t0))'
p3242
sI1306
S'        return ret'
p3243
sI1307
S''
sI1308
S'    def execute(self,*a,**b):'
p3244
sI1309
S'        return self.log_execute(*a, **b)'
p3245
sI1310
S''
sI1311
S'    def represent(self, obj, fieldtype):'
p3246
ssg3129
S"(self=<gluon.dal.SQLiteAdapter object>, *a=('CREATE TABLE auth_user(\\n    id INTEGER PRIMARY K...ey CHAR(512),\\n    reset_password_key CHAR(512)\\n);',), **b={})"
p3247
sg3131
S'execute'
p3248
sa(dp3249
g3108
S'/home/brencam/web2py/gluon/dal.py'
p3250
sg3110
(dp3251
S'a'
S"('CREATE TABLE auth_user(\\n    id INTEGER PRIMARY K...ey CHAR(512),\\n    reset_password_key CHAR(512)\\n);',)"
p3252
sS'b'
g20
sS'self'
p3253
S'<gluon.dal.SQLiteAdapter object>'
p3254
sS'ret'
p3255
S'undefined'
p3256
sS'self.cursor'
p3257
S'<sqlite3.Cursor object>'
p3258
sS'self.cursor.execute'
p3259
S'<built-in method execute of sqlite3.Cursor object>'
p3260
ssg3116
I1304
sg3117
(dp3261
I1299
S'        self.execute(query)'
p3262
sI1300
S''
sI1301
S'    def log_execute(self,*a,**b):'
p3263
sI1302
S'        self.db._lastsql = a[0]'
p3264
sI1303
S'        t0 = time.time()'
p3265
sI1304
S'        ret = self.cursor.execute(*a,**b)'
p3266
sI1305
S'        self.db._timings.append((a[0],time.time()-t0))'
p3267
sI1306
S'        return ret'
p3268
sI1307
S''
sI1308
S'    def execute(self,*a,**b):'
p3269
ssg3129
S"(self=<gluon.dal.SQLiteAdapter object>, *a=('CREATE TABLE auth_user(\\n    id INTEGER PRIMARY K...ey CHAR(512),\\n    reset_password_key CHAR(512)\\n);',), **b={})"
p3270
sg3131
S'log_execute'
p3271
sasS'pyver'
p3272
S'Python 2.6.6: /usr/bin/python'
p3273
sS'session'
p3274
g60
(g61
g62
NtRp3275
(dp3276
g65
(dp3277
sg67
(lp3278
g60
(g69
g62
NtRp3279
(dp3280
g65
(dp3281
g73
I5
ssg74
Nsg67
(lp3282
sbasbsS'etype'
p3283
S"<class 'sqlite3.OperationalError'>"
p3284
sS'date'
p3285
S'Wed Nov  2 23:23:15 2011'
p3286
sS'response'
p3287
g60
(g61
g62
NtRp3288
(dp3289
g65
(dp3290
sg67
(lp3291
g60
(g69
g62
NtRp3292
(dp3293
g65
(dp3294
g73
I5
ssg74
Nsg67
(lp3295
g60
(g76
g62
NtRp3296
(dp3297
g65
(dp3298
sg74
g3292
sg67
(lp3299
g60
(g81
g62
NtRp3300
(dp3301
g65
(dp3302
g85
g86
ssg74
g3296
sg67
(lp3303
g158
asbag60
(g81
g62
NtRp3304
(dp3305
g65
(dp3306
g92
g93
ssg74
g3296
sg67
(lp3307
S':'
asbag60
(g81
g62
NtRp3308
(dp3309
g65
(dp3310
sg74
g3296
sg67
(lp3311
g60
(g61
g62
NtRp3312
(dp3313
g65
(dp3314
g73
I5
ssg74
g3308
sg67
(lp3315
S'<cStringIO.StringO object at 0xaf30ebe0>'
p3316
asbasbasbag60
(g76
g62
NtRp3317
(dp3318
g65
(dp3319
sg74
g3292
sg67
(lp3320
g60
(g81
g62
NtRp3321
(dp3322
g65
(dp3323
g85
g86
ssg74
g3317
sg67
(lp3324
g224
asbag60
(g81
g62
NtRp3325
(dp3326
g65
(dp3327
g92
g93
ssg74
g3317
sg67
(lp3328
S':'
asbag60
(g81
g62
NtRp3329
(dp3330
g65
(dp3331
sg74
g3317
sg67
(lp3332
g60
(g61
g62
NtRp3333
(dp3334
g65
(dp3335
g73
I5
ssg74
g3329
sg67
(lp3336
g60
(g69
g62
NtRp3337
(dp3338
g65
(dp3339
g73
I4
ssg74
Nsg67
(lp3340
g60
(g76
g62
NtRp3341
(dp3342
g65
(dp3343
sg74
g3337
sg67
(lp3344
g60
(g81
g62
NtRp3345
(dp3346
g65
(dp3347
g85
g86
ssg74
g3341
sg67
(lp3348
S'session_id_gallery'
p3349
asbag60
(g81
g62
NtRp3350
(dp3351
g65
(dp3352
g92
g93
ssg74
g3341
sg67
(lp3353
S':'
asbag60
(g81
g62
NtRp3354
(dp3355
g65
(dp3356
sg74
g3341
sg67
(lp3357
g60
(g61
g62
NtRp3358
(dp3359
g65
(dp3360
g73
I4
ssg74
g3354
sg67
(lp3361
g60
(g69
g62
NtRp3362
(dp3363
g65
(dp3364
g73
I3
ssg74
Nsg67
(lp3365
g60
(g76
g62
NtRp3366
(dp3367
g65
(dp3368
sg74
g3362
sg67
(lp3369
g60
(g81
g62
NtRp3370
(dp3371
g65
(dp3372
g85
g86
ssg74
g3366
sg67
(lp3373
g274
asbag60
(g81
g62
NtRp3374
(dp3375
g65
(dp3376
g92
g93
ssg74
g3366
sg67
(lp3377
S':'
asbag60
(g81
g62
NtRp3378
(dp3379
g65
(dp3380
sg74
g3366
sg67
(lp3381
g60
(g61
g62
NtRp3382
(dp3383
g65
(dp3384
g73
I3
ssg74
g3378
sg67
(lp3385
S''
asbasbasbag60
(g76
g62
NtRp3386
(dp3387
g65
(dp3388
sg74
g3362
sg67
(lp3389
g60
(g81
g62
NtRp3390
(dp3391
g65
(dp3392
g85
g86
ssg74
g3386
sg67
(lp3393
g295
asbag60
(g81
g62
NtRp3394
(dp3395
g65
(dp3396
g92
g93
ssg74
g3386
sg67
(lp3397
S':'
asbag60
(g81
g62
NtRp3398
(dp3399
g65
(dp3400
sg74
g3386
sg67
(lp3401
g60
(g61
g62
NtRp3402
(dp3403
g65
(dp3404
g73
I3
ssg74
g3398
sg67
(lp3405
S''
asbasbasbag60
(g76
g62
NtRp3406
(dp3407
g65
(dp3408
sg74
g3362
sg67
(lp3409
g60
(g81
g62
NtRp3410
(dp3411
g65
(dp3412
g85
g86
ssg74
g3406
sg67
(lp3413
g316
asbag60
(g81
g62
NtRp3414
(dp3415
g65
(dp3416
g92
g93
ssg74
g3406
sg67
(lp3417
S':'
asbag60
(g81
g62
NtRp3418
(dp3419
g65
(dp3420
sg74
g3406
sg67
(lp3421
g60
(g61
g62
NtRp3422
(dp3423
g65
(dp3424
g73
I3
ssg74
g3418
sg67
(lp3425
S''
asbasbasbag60
(g76
g62
NtRp3426
(dp3427
g65
(dp3428
sg74
g3362
sg67
(lp3429
g60
(g81
g62
NtRp3430
(dp3431
g65
(dp3432
g85
g86
ssg74
g3426
sg67
(lp3433
g337
asbag60
(g81
g62
NtRp3434
(dp3435
g65
(dp3436
g92
g93
ssg74
g3426
sg67
(lp3437
S':'
asbag60
(g81
g62
NtRp3438
(dp3439
g65
(dp3440
sg74
g3426
sg67
(lp3441
g60
(g61
g62
NtRp3442
(dp3443
g65
(dp3444
g73
I3
ssg74
g3438
sg67
(lp3445
S''
asbasbasbag60
(g76
g62
NtRp3446
(dp3447
g65
(dp3448
sg74
g3362
sg67
(lp3449
g60
(g81
g62
NtRp3450
(dp3451
g65
(dp3452
g85
g86
ssg74
g3446
sg67
(lp3453
g358
asbag60
(g81
g62
NtRp3454
(dp3455
g65
(dp3456
g92
g93
ssg74
g3446
sg67
(lp3457
S':'
asbag60
(g81
g62
NtRp3458
(dp3459
g65
(dp3460
sg74
g3446
sg67
(lp3461
g60
(g61
g62
NtRp3462
(dp3463
g65
(dp3464
g73
I3
ssg74
g3458
sg67
(lp3465
S''
asbasbasbag60
(g76
g62
NtRp3466
(dp3467
g65
(dp3468
sg74
g3362
sg67
(lp3469
g60
(g81
g62
NtRp3470
(dp3471
g65
(dp3472
g85
g86
ssg74
g3466
sg67
(lp3473
g379
asbag60
(g81
g62
NtRp3474
(dp3475
g65
(dp3476
g92
g93
ssg74
g3466
sg67
(lp3477
S':'
asbag60
(g81
g62
NtRp3478
(dp3479
g65
(dp3480
sg74
g3466
sg67
(lp3481
g60
(g61
g62
NtRp3482
(dp3483
g65
(dp3484
g73
I3
ssg74
g3478
sg67
(lp3485
S'/'
asbasbasbag60
(g76
g62
NtRp3486
(dp3487
g65
(dp3488
sg74
g3362
sg67
(lp3489
g60
(g81
g62
NtRp3490
(dp3491
g65
(dp3492
g85
g86
ssg74
g3486
sg67
(lp3493
g400
asbag60
(g81
g62
NtRp3494
(dp3495
g65
(dp3496
g92
g93
ssg74
g3486
sg67
(lp3497
S':'
asbag60
(g81
g62
NtRp3498
(dp3499
g65
(dp3500
sg74
g3486
sg67
(lp3501
g60
(g61
g62
NtRp3502
(dp3503
g65
(dp3504
g73
I3
ssg74
g3498
sg67
(lp3505
S''
asbasbasbag60
(g76
g62
NtRp3506
(dp3507
g65
(dp3508
sg74
g3362
sg67
(lp3509
g60
(g81
g62
NtRp3510
(dp3511
g65
(dp3512
g85
g86
ssg74
g3506
sg67
(lp3513
g421
asbag60
(g81
g62
NtRp3514
(dp3515
g65
(dp3516
g92
g93
ssg74
g3506
sg67
(lp3517
S':'
asbag60
(g81
g62
NtRp3518
(dp3519
g65
(dp3520
sg74
g3506
sg67
(lp3521
g60
(g61
g62
NtRp3522
(dp3523
g65
(dp3524
g73
I3
ssg74
g3518
sg67
(lp3525
S''
asbasbasbasbasbasbasbasbasbasbasbag60
(g76
g62
NtRp3526
(dp3527
g65
(dp3528
sg74
g3292
sg67
(lp3529
g60
(g81
g62
NtRp3530
(dp3531
g65
(dp3532
g85
g86
ssg74
g3526
sg67
(lp3533
S'files'
p3534
asbag60
(g81
g62
NtRp3535
(dp3536
g65
(dp3537
g92
g93
ssg74
g3526
sg67
(lp3538
S':'
asbag60
(g81
g62
NtRp3539
(dp3540
g65
(dp3541
sg74
g3526
sg67
(lp3542
g60
(g61
g62
NtRp3543
(dp3544
g65
(dp3545
g73
I5
ssg74
g3539
sg67
(lp3546
g60
(g69
g62
NtRp3547
(dp3548
g65
(dp3549
g73
I4
ssg74
Nsg67
(lp3550
sbasbasbasbag60
(g76
g62
NtRp3551
(dp3552
g65
(dp3553
sg74
g3292
sg67
(lp3554
g60
(g81
g62
NtRp3555
(dp3556
g65
(dp3557
g85
g86
ssg74
g3551
sg67
(lp3558
S'flash'
p3559
asbag60
(g81
g62
NtRp3560
(dp3561
g65
(dp3562
g92
g93
ssg74
g3551
sg67
(lp3563
S':'
asbag60
(g81
g62
NtRp3564
(dp3565
g65
(dp3566
sg74
g3551
sg67
(lp3567
g60
(g61
g62
NtRp3568
(dp3569
g65
(dp3570
g73
I5
ssg74
g3564
sg67
(lp3571
S''
asbasbasbag60
(g76
g62
NtRp3572
(dp3573
g65
(dp3574
sg74
g3292
sg67
(lp3575
g60
(g81
g62
NtRp3576
(dp3577
g65
(dp3578
g85
g86
ssg74
g3572
sg67
(lp3579
S'generic_patterns'
p3580
asbag60
(g81
g62
NtRp3581
(dp3582
g65
(dp3583
g92
g93
ssg74
g3572
sg67
(lp3584
S':'
asbag60
(g81
g62
NtRp3585
(dp3586
g65
(dp3587
sg74
g3572
sg67
(lp3588
g60
(g61
g62
NtRp3589
(dp3590
g65
(dp3591
g73
I5
ssg74
g3585
sg67
(lp3592
g60
(g69
g62
NtRp3593
(dp3594
g65
(dp3595
g73
I4
ssg74
Nsg67
(lp3596
g60
(g76
g62
NtRp3597
(dp3598
g65
(dp3599
sg74
g3593
sg67
(lp3600
g60
(g81
g62
NtRp3601
(dp3602
g65
(dp3603
sg74
g3597
sg67
(lp3604
g60
(g61
g62
NtRp3605
(dp3606
g65
(dp3607
g73
I4
ssg74
g3601
sg67
(lp3608
S'*'
asbasbasbasbasbasbasbag60
(g76
g62
NtRp3609
(dp3610
g65
(dp3611
sg74
g3292
sg67
(lp3612
g60
(g81
g62
NtRp3613
(dp3614
g65
(dp3615
g85
g86
ssg74
g3609
sg67
(lp3616
S'headers'
p3617
asbag60
(g81
g62
NtRp3618
(dp3619
g65
(dp3620
g92
g93
ssg74
g3609
sg67
(lp3621
S':'
asbag60
(g81
g62
NtRp3622
(dp3623
g65
(dp3624
sg74
g3609
sg67
(lp3625
g60
(g61
g62
NtRp3626
(dp3627
g65
(dp3628
g73
I5
ssg74
g3622
sg67
(lp3629
g60
(g69
g62
NtRp3630
(dp3631
g65
(dp3632
g73
I4
ssg74
Nsg67
(lp3633
g60
(g76
g62
NtRp3634
(dp3635
g65
(dp3636
sg74
g3630
sg67
(lp3637
g60
(g81
g62
NtRp3638
(dp3639
g65
(dp3640
g85
g86
ssg74
g3634
sg67
(lp3641
S'Cache-Control'
p3642
asbag60
(g81
g62
NtRp3643
(dp3644
g65
(dp3645
g92
g93
ssg74
g3634
sg67
(lp3646
S':'
asbag60
(g81
g62
NtRp3647
(dp3648
g65
(dp3649
sg74
g3634
sg67
(lp3650
g60
(g61
g62
NtRp3651
(dp3652
g65
(dp3653
g73
I4
ssg74
g3647
sg67
(lp3654
S'no-store, no-cache, must-revalidate, post-check=0, pre-check=0'
p3655
asbasbasbag60
(g76
g62
NtRp3656
(dp3657
g65
(dp3658
sg74
g3630
sg67
(lp3659
g60
(g81
g62
NtRp3660
(dp3661
g65
(dp3662
g85
g86
ssg74
g3656
sg67
(lp3663
S'Content-Type'
p3664
asbag60
(g81
g62
NtRp3665
(dp3666
g65
(dp3667
g92
g93
ssg74
g3656
sg67
(lp3668
S':'
asbag60
(g81
g62
NtRp3669
(dp3670
g65
(dp3671
sg74
g3656
sg67
(lp3672
g60
(g61
g62
NtRp3673
(dp3674
g65
(dp3675
g73
I4
ssg74
g3669
sg67
(lp3676
S'text/html; charset=utf-8'
p3677
asbasbasbag60
(g76
g62
NtRp3678
(dp3679
g65
(dp3680
sg74
g3630
sg67
(lp3681
g60
(g81
g62
NtRp3682
(dp3683
g65
(dp3684
g85
g86
ssg74
g3678
sg67
(lp3685
S'Expires'
p3686
asbag60
(g81
g62
NtRp3687
(dp3688
g65
(dp3689
g92
g93
ssg74
g3678
sg67
(lp3690
S':'
asbag60
(g81
g62
NtRp3691
(dp3692
g65
(dp3693
sg74
g3678
sg67
(lp3694
g60
(g61
g62
NtRp3695
(dp3696
g65
(dp3697
g73
I4
ssg74
g3691
sg67
(lp3698
S'Thu, 03 Nov 2011 06:23:15 GMT'
p3699
asbasbasbag60
(g76
g62
NtRp3700
(dp3701
g65
(dp3702
sg74
g3630
sg67
(lp3703
g60
(g81
g62
NtRp3704
(dp3705
g65
(dp3706
g85
g86
ssg74
g3700
sg67
(lp3707
S'Pragma'
p3708
asbag60
(g81
g62
NtRp3709
(dp3710
g65
(dp3711
g92
g93
ssg74
g3700
sg67
(lp3712
S':'
asbag60
(g81
g62
NtRp3713
(dp3714
g65
(dp3715
sg74
g3700
sg67
(lp3716
g60
(g61
g62
NtRp3717
(dp3718
g65
(dp3719
g73
I4
ssg74
g3713
sg67
(lp3720
S'no-cache'
p3721
asbasbasbag60
(g76
g62
NtRp3722
(dp3723
g65
(dp3724
sg74
g3630
sg67
(lp3725
g60
(g81
g62
NtRp3726
(dp3727
g65
(dp3728
g85
g86
ssg74
g3722
sg67
(lp3729
S'X-Powered-By'
p3730
asbag60
(g81
g62
NtRp3731
(dp3732
g65
(dp3733
g92
g93
ssg74
g3722
sg67
(lp3734
S':'
asbag60
(g81
g62
NtRp3735
(dp3736
g65
(dp3737
sg74
g3722
sg67
(lp3738
g60
(g61
g62
NtRp3739
(dp3740
g65
(dp3741
g73
I4
ssg74
g3735
sg67
(lp3742
S'web2py'
p3743
asbasbasbasbasbasbasbag60
(g76
g62
NtRp3744
(dp3745
g65
(dp3746
sg74
g3292
sg67
(lp3747
g60
(g81
g62
NtRp3748
(dp3749
g65
(dp3750
g85
g86
ssg74
g3744
sg67
(lp3751
S'menu'
p3752
asbag60
(g81
g62
NtRp3753
(dp3754
g65
(dp3755
g92
g93
ssg74
g3744
sg67
(lp3756
S':'
asbag60
(g81
g62
NtRp3757
(dp3758
g65
(dp3759
sg74
g3744
sg67
(lp3760
g60
(g61
g62
NtRp3761
(dp3762
g65
(dp3763
g73
I5
ssg74
g3757
sg67
(lp3764
g60
(g69
g62
NtRp3765
(dp3766
g65
(dp3767
g73
I4
ssg74
Nsg67
(lp3768
sbasbasbasbag60
(g76
g62
NtRp3769
(dp3770
g65
(dp3771
sg74
g3292
sg67
(lp3772
g60
(g81
g62
NtRp3773
(dp3774
g65
(dp3775
g85
g86
ssg74
g3769
sg67
(lp3776
S'meta'
p3777
asbag60
(g81
g62
NtRp3778
(dp3779
g65
(dp3780
g92
g93
ssg74
g3769
sg67
(lp3781
S':'
asbag60
(g81
g62
NtRp3782
(dp3783
g65
(dp3784
sg74
g3769
sg67
(lp3785
g60
(g61
g62
NtRp3786
(dp3787
g65
(dp3788
g73
I5
ssg74
g3782
sg67
(lp3789
g60
(g69
g62
NtRp3790
(dp3791
g65
(dp3792
g73
I4
ssg74
Nsg67
(lp3793
sbasbasbasbag60
(g76
g62
NtRp3794
(dp3795
g65
(dp3796
sg74
g3292
sg67
(lp3797
g60
(g81
g62
NtRp3798
(dp3799
g65
(dp3800
g85
g86
ssg74
g3794
sg67
(lp3801
S'postprocessing'
p3802
asbag60
(g81
g62
NtRp3803
(dp3804
g65
(dp3805
g92
g93
ssg74
g3794
sg67
(lp3806
S':'
asbag60
(g81
g62
NtRp3807
(dp3808
g65
(dp3809
sg74
g3794
sg67
(lp3810
g60
(g61
g62
NtRp3811
(dp3812
g65
(dp3813
g73
I5
ssg74
g3807
sg67
(lp3814
g60
(g69
g62
NtRp3815
(dp3816
g65
(dp3817
g73
I4
ssg74
Nsg67
(lp3818
sbasbasbasbag60
(g76
g62
NtRp3819
(dp3820
g65
(dp3821
sg74
g3292
sg67
(lp3822
g60
(g81
g62
NtRp3823
(dp3824
g65
(dp3825
g85
g86
ssg74
g3819
sg67
(lp3826
S'session_file'
p3827
asbag60
(g81
g62
NtRp3828
(dp3829
g65
(dp3830
g92
g93
ssg74
g3819
sg67
(lp3831
S':'
asbag60
(g81
g62
NtRp3832
(dp3833
g65
(dp3834
sg74
g3819
sg67
(lp3835
g60
(g61
g62
NtRp3836
(dp3837
g65
(dp3838
g73
I5
ssg74
g3832
sg67
(lp3839
S"<open file '/home/brencam/web2py/applications/gallery/sessions/127.0.0.1-5764d7f9-8178-4db1-bc94-76589577a2e3', mode 'rb+' at 0xaf41dee8>"
p3840
asbasbasbag60
(g76
g62
NtRp3841
(dp3842
g65
(dp3843
sg74
g3292
sg67
(lp3844
g60
(g81
g62
NtRp3845
(dp3846
g65
(dp3847
g85
g86
ssg74
g3841
sg67
(lp3848
S'session_filename'
p3849
asbag60
(g81
g62
NtRp3850
(dp3851
g65
(dp3852
g92
g93
ssg74
g3841
sg67
(lp3853
S':'
asbag60
(g81
g62
NtRp3854
(dp3855
g65
(dp3856
sg74
g3841
sg67
(lp3857
g60
(g61
g62
NtRp3858
(dp3859
g65
(dp3860
g73
I5
ssg74
g3854
sg67
(lp3861
S'/home/brencam/web2py/applications/gallery/sessions/127.0.0.1-5764d7f9-8178-4db1-bc94-76589577a2e3'
p3862
asbasbasbag60
(g76
g62
NtRp3863
(dp3864
g65
(dp3865
sg74
g3292
sg67
(lp3866
g60
(g81
g62
NtRp3867
(dp3868
g65
(dp3869
g85
g86
ssg74
g3863
sg67
(lp3870
S'session_id'
p3871
asbag60
(g81
g62
NtRp3872
(dp3873
g65
(dp3874
g92
g93
ssg74
g3863
sg67
(lp3875
S':'
asbag60
(g81
g62
NtRp3876
(dp3877
g65
(dp3878
sg74
g3863
sg67
(lp3879
g60
(g61
g62
NtRp3880
(dp3881
g65
(dp3882
g73
I5
ssg74
g3876
sg67
(lp3883
S'127.0.0.1-5764d7f9-8178-4db1-bc94-76589577a2e3'
p3884
asbasbasbag60
(g76
g62
NtRp3885
(dp3886
g65
(dp3887
sg74
g3292
sg67
(lp3888
g60
(g81
g62
NtRp3889
(dp3890
g65
(dp3891
g85
g86
ssg74
g3885
sg67
(lp3892
S'session_id_name'
p3893
asbag60
(g81
g62
NtRp3894
(dp3895
g65
(dp3896
g92
g93
ssg74
g3885
sg67
(lp3897
S':'
asbag60
(g81
g62
NtRp3898
(dp3899
g65
(dp3900
sg74
g3885
sg67
(lp3901
g60
(g61
g62
NtRp3902
(dp3903
g65
(dp3904
g73
I5
ssg74
g3898
sg67
(lp3905
g3349
asbasbasbag60
(g76
g62
NtRp3906
(dp3907
g65
(dp3908
sg74
g3292
sg67
(lp3909
g60
(g81
g62
NtRp3910
(dp3911
g65
(dp3912
g85
g86
ssg74
g3906
sg67
(lp3913
S'session_locked'
p3914
asbag60
(g81
g62
NtRp3915
(dp3916
g65
(dp3917
g92
g93
ssg74
g3906
sg67
(lp3918
S':'
asbag60
(g81
g62
NtRp3919
(dp3920
g65
(dp3921
sg74
g3906
sg67
(lp3922
g60
(g61
g62
NtRp3923
(dp3924
g65
(dp3925
g73
I5
ssg74
g3919
sg67
(lp3926
g1823
asbasbasbag60
(g76
g62
NtRp3927
(dp3928
g65
(dp3929
sg74
g3292
sg67
(lp3930
g60
(g81
g62
NtRp3931
(dp3932
g65
(dp3933
g85
g86
ssg74
g3927
sg67
(lp3934
S'session_new'
p3935
asbag60
(g81
g62
NtRp3936
(dp3937
g65
(dp3938
g92
g93
ssg74
g3927
sg67
(lp3939
S':'
asbag60
(g81
g62
NtRp3940
(dp3941
g65
(dp3942
sg74
g3927
sg67
(lp3943
g60
(g61
g62
NtRp3944
(dp3945
g65
(dp3946
g73
I5
ssg74
g3940
sg67
(lp3947
g103
asbasbasbag60
(g76
g62
NtRp3948
(dp3949
g65
(dp3950
sg74
g3292
sg67
(lp3951
g60
(g81
g62
NtRp3952
(dp3953
g65
(dp3954
g85
g86
ssg74
g3948
sg67
(lp3955
S'status'
p3956
asbag60
(g81
g62
NtRp3957
(dp3958
g65
(dp3959
g92
g93
ssg74
g3948
sg67
(lp3960
S':'
asbag60
(g81
g62
NtRp3961
(dp3962
g65
(dp3963
sg74
g3948
sg67
(lp3964
g60
(g61
g62
NtRp3965
(dp3966
g65
(dp3967
g73
I5
ssg74
g3961
sg67
(lp3968
S'200'
p3969
asbasbasbag60
(g76
g62
NtRp3970
(dp3971
g65
(dp3972
sg74
g3292
sg67
(lp3973
g60
(g81
g62
NtRp3974
(dp3975
g65
(dp3976
g85
g86
ssg74
g3970
sg67
(lp3977
g2467
asbag60
(g81
g62
NtRp3978
(dp3979
g65
(dp3980
g92
g93
ssg74
g3970
sg67
(lp3981
S':'
asbag60
(g81
g62
NtRp3982
(dp3983
g65
(dp3984
sg74
g3970
sg67
(lp3985
g60
(g61
g62
NtRp3986
(dp3987
g65
(dp3988
g73
I5
ssg74
g3982
sg67
(lp3989
g2480
asbasbasbag60
(g76
g62
NtRp3990
(dp3991
g65
(dp3992
sg74
g3292
sg67
(lp3993
g60
(g81
g62
NtRp3994
(dp3995
g65
(dp3996
g85
g86
ssg74
g3990
sg67
(lp3997
S'view'
p3998
asbag60
(g81
g62
NtRp3999
(dp4000
g65
(dp4001
g92
g93
ssg74
g3990
sg67
(lp4002
S':'
asbag60
(g81
g62
NtRp4003
(dp4004
g65
(dp4005
sg74
g3990
sg67
(lp4006
g60
(g61
g62
NtRp4007
(dp4008
g65
(dp4009
g73
I5
ssg74
g4003
sg67
(lp4010
S'default/index.html'
p4011
asbasbasbasbasbsS'locals'
p4012
(dp4013
S'a'
S"('CREATE TABLE auth_user(\\n    id INTEGER PRIMARY K...ey CHAR(512),\\n    reset_password_key CHAR(512)\\n);',)"
p4014
sS'self'
p4015
S'<gluon.dal.SQLiteAdapter object>'
p4016
sS'b'
g20
sS't0'
p4017
S'1320301395.409863'
p4018
sssS'traceback'
p4019
S'Traceback (most recent call last):\n  File "/home/brencam/web2py/gluon/restricted.py", line 194, in restricted\n    exec ccode in environment\n  File "/home/brencam/web2py/applications/gallery/models/db.py", line 42, in <module>\n    auth.define_tables()\n  File "/home/brencam/web2py/gluon/tools.py", line 1256, in define_tables\n    format=\'%(first_name)s %(last_name)s (%(id)s)\'))\n  File "/home/brencam/web2py/gluon/dal.py", line 4491, in define_table\n    polymodel=polymodel)\n  File "/home/brencam/web2py/gluon/dal.py", line 677, in create_table\n    self.create_sequence_and_triggers(query,table)\n  File "/home/brencam/web2py/gluon/dal.py", line 1299, in create_sequence_and_triggers\n    self.execute(query)\n  File "/home/brencam/web2py/gluon/dal.py", line 1309, in execute\n    return self.log_execute(*a, **b)\n  File "/home/brencam/web2py/gluon/dal.py", line 1304, in log_execute\n    ret = self.cursor.execute(*a,**b)\nOperationalError: table auth_user already exists\n'
p4020
s.