(dp1
S'output'
p2
S''
sS'layer'
p3
S'/home/brencam/web2py/applications/gallery/controllers/search.py'
p4
sS'code'
p5
S'# Search Controller\nimport datetime\n\ndef getnames():\n    sval =\'\'\n    if  request.vars[\'q\']:\n        sval = request.vars[\'q\']\n\n        #queries with %LIKE% ****HERE BE THE DRAGONS!!!!******\n\n        images = db(db.image.title.like(sval+\'%\')).select()\n    else:\n        #images = db(db.image.ALL).select()\n        images = db().select(db.image.ALL)\n\n\n    # finally - got a working syntax - watch out for (mis) matching parens \n    # combine IMG and A tags in generated XML that is passed to the view\n    # tricky syntax\n    # the LI [] structure below creates a list from the generator created by the inner for \n    # !!GOTCHA!! - Assignment of params is position dependent - ???forum qn???\n    # Note the assignment of \'_id\' below needs to be at the end, not at the beginning\n    # ??Web2py documentation issue??\n\n    return XML( UL(*LI ([ (IMG (_src=URL(\'default\',\'download\', args= img.file), _width="120", _height="100"  ), A(img.title,_href=URL(\'default\',\'show\', args=img.id))) for img in images]) , _id=\'albumlist\'))\n\n    # the LI [] structure below creates a list from the generator created by the inner for \n    #return XML( UL(*LI ([ (IMG (_src=URL(\'default\',\'download\', args= img.file), _width="120", _height="100"  ), A(img.title,_href=URL(\'default\',\'show\', args=img.file))) for img in images])))\n    \n    \ndef gettags():\n    # get list of tagnames from tag table\n    tags  = db().select(db.tag.id, db.tag.name)\n    #return XML(tags)\n    return dict(tags=tags)        \n \ndef xmlgettags():\n    # get list of tagnames from tag table\n    # return in json format\n    tags  = db().select(db.tag.id, db.tag.name)\n    #return XML(tags)\n    return dict(id=tags.id, name=tags.name)\n    \n\ndef getnames_v2():\n    sval =\'\'\n    if  request.vars[\'q\']:\n        sval = request.vars[\'q\']\n\n        #queries with %LIKE% ****HERE BE THE DRAGONS!!!!******\n\n        images = db(db.image.title.like(sval+\'%\')).select()\n    else:\n        images = db(db.image.ALL).select()\n    # finally - got a working syntax - watch out for (mis) matching parens \n    # combine IMG and A tags in generated XML that is passed to the view\n    # tricky syntax\n    # the LI [] structure below creates a list from the generator created by the inner for \n    s = "<ul id=\'albumlist\'>"\n    for r in images:\n        print  s\n        s += LI(IMG(_src=URL(\'default\',\'download\', args= r.file), _width="120", _height="100"  ), A(r.title, _href=URL(\'default\',\'show\',args=r.id))).xml()\n        #s +=  \', \'\n        #s += A(r.title, _href=URL(\'default\',\'show\',args=r.id)).xml()\n    s += "</UL>"\n    #print s\n    return XML(s)\n\n\n\ndef zz_getnames():\n    # for ajax search -  find list of images - match on search string\n    # (need to return list in json format ??)\n    print \'*************  processing ajax request *********** at %s\' %datetime.datetime.now().ctime()\n\n    sval =\'\'\n    if  request.vars[\'q\']:\n        sval = request.vars[\'q\']\n\n        #queries with %LIKE% ****HERE BE THE DRAGONS!!!!******\n\n        images = db(db.image.title.like(sval+\'%\')).select()\n    else:\n        images = db(db.image.ALL).select()\n\n#    html =  XML( <img src="{{=URL(\'download\', args=image.file)}}" width="120"  height="100"  for image in images)\n\n#    print \'***************   html **********\' html\n  \n    r = images[0]\n\n    # return image and title for all matches\n    #return XML(DIV(LI(*[IMG(_src=URL(\'default\',\'download\', args= r.file), _width="120", _height="100" ) for r in images])))\n\n    #s = "<div class=\'myclass\'>"\n    #s =""\n    s = "<ul id=\'albumlist\'>"\n    for r in images:\n        print  s\n        s += LI(IMG(_src=URL(\'default\',\'download\', args= r.file), _width="120", _height="100"  ), A(r.title, _href=URL(\'default\',\'show\',args=r.id))).xml()\n        #s +=  \', \'\n        #s += A(r.title, _href=URL(\'default\',\'show\',args=r.id)).xml()\n    s += "</UL>"\n    #print s\n\n    # finally - got a working syntax - watch out for (mis) matching parens \n    # combine IMG and A tags in generated XML that is passed to the view\n    # tricky syntax\n    # the LI [] structure below creates a list from the generator created by the inner for \n    return XML( UL(*LI ([ (IMG (_src=URL(\'default\',\'download\', args= img.file), _width="120", _height="100"  ), A(img.title,_href=URL(\'default\',\'show\', args=img.file))) for img in images])))\n    \n\n\n    #str = LI(IMG(_src=URL(\'default\',\'download\', args= r.file), _width="120", _height="100"  ), A(r.title, _href=URL(\'default\',\'show\',args=r.id)))\n    #print str.xml()\n\n#    return XML(LI(IMG(_src=URL(\'default\',\'download\', args= img.file), _width="120", _height="100"  ), A(r.title, _href=URL(\'default\',\'show\',args=img.id))) for img in images)\n    #return x\n\n    #return XML(s)\n\n#    return XML(UL(LI([IMG(_src=URL(\'default\',\'download\', args= r.file), _width="120", _height="100" ) \\\n#    for r in images])))\n\n    # working \n    #return XML(DIV(LI(*[IMG(_src=URL(\'default\',\'download\', args= r.file), _width="120", _height="100" ) \\\n    #for r in images])))\n\n\n\n# A(r.title, _href=URL(\'default\',\'show\',args=r.id)))))\n\n\n    # return image and title as link  - one image\n    #return XML(DIV(LI(IMG(_src=URL(\'default\',\'download\', args= r.file), _alt="", _width="120",  _height="100"), A(r.title, _href=URL(\'default\',\'show\',args=r.id)))))\n\n\n#    return XML( A(IMG(_src=URL(\'default\',\'download\', args= r.file), _alt="", _width="120",  _height="100"), _href=URL(\'default\',\'index\')))\n\n    \n\n#<li><img  src="{{=URL(\'download\', args=image.file)}}" width="120"  height="100" />{{=A(image.title, _href=URL("show", args=image.id))}}\n#</li>\n\n\n    # Can I do a redirect from ajax request with the search results ??\n    #redirect (URL(\'default\', \'showcss\'))\n\n    # Note the URL Syntax here to create a link to a different controller (the default)\n    # How to show thumbnails for selected images here as well ??\n#    return XML(UL(*[LI(A(\'%s \' % (img.title),_href=URL(\'default\',\'show\',args=img.id)))\\\n#                    for img in images]))\n\n\n\nresponse._vars=response._caller(xmlgettags)\n'
p6
sS'snapshot'
p7
(dp8
S'exception'
p9
(dp10
S'__hash__'
p11
S"<method-wrapper '__hash__' of exceptions.AttributeError object>"
p12
sS'__setattr__'
p13
S"<method-wrapper '__setattr__' of exceptions.AttributeError object>"
p14
sS'__reduce_ex__'
p15
S'<built-in method __reduce_ex__ of exceptions.AttributeError object>'
p16
sS'__getslice__'
p17
S"<method-wrapper '__getslice__' of exceptions.AttributeError object>"
p18
sS'__getitem__'
p19
S"<method-wrapper '__getitem__' of exceptions.AttributeError object>"
p20
sS'__setstate__'
p21
S'<built-in method __setstate__ of exceptions.AttributeError object>'
p22
sS'__reduce__'
p23
S'<built-in method __reduce__ of exceptions.AttributeError object>'
p24
sS'__str__'
p25
S"<method-wrapper '__str__' of exceptions.AttributeError object>"
p26
sS'__format__'
p27
S'<built-in method __format__ of exceptions.AttributeError object>'
p28
sS'__getattribute__'
p29
S"<method-wrapper '__getattribute__' of exceptions.AttributeError object>"
p30
sS'__class__'
p31
S"<type 'exceptions.AttributeError'>"
p32
sS'__unicode__'
p33
S'<built-in method __unicode__ of exceptions.AttributeError object>'
p34
sS'__delattr__'
p35
S"<method-wrapper '__delattr__' of exceptions.AttributeError object>"
p36
sS'__subclasshook__'
p37
S'<built-in method __subclasshook__ of type object>'
p38
sS'__repr__'
p39
S"<method-wrapper '__repr__' of exceptions.AttributeError object>"
p40
sS'args'
p41
S'("\'Rows\' object has no attribute \'id\'",)'
p42
sS'__dict__'
p43
S'{}'
p44
sS'__sizeof__'
p45
S'<built-in method __sizeof__ of exceptions.AttributeError object>'
p46
sS'__doc__'
p47
S"'Attribute not found.'"
p48
sS'__init__'
p49
S"<method-wrapper '__init__' of exceptions.AttributeError object>"
p50
sS'__new__'
p51
S'<built-in method __new__ of type object>'
p52
ssS'evalue'
p53
S"'Rows' object has no attribute 'id'"
p54
sS'request'
p55
ccopy_reg
_reconstructor
p56
(cgluon.html
BEAUTIFY
p57
c__builtin__
object
p58
NtRp59
(dp60
S'attributes'
p61
(dp62
sS'components'
p63
(lp64
g56
(cgluon.html
TABLE
p65
g58
NtRp66
(dp67
g61
(dp68
S'level'
p69
I5
ssS'parent'
p70
Nsg63
(lp71
g56
(cgluon.html
TR
p72
g58
NtRp73
(dp74
g61
(dp75
sg70
g66
sg63
(lp76
g56
(cgluon.html
TD
p77
g58
NtRp78
(dp79
g61
(dp80
S'_style'
p81
S'font-weight:bold;'
p82
ssg70
g73
sg63
(lp83
S'ajax'
p84
asbag56
(g77
g58
NtRp85
(dp86
g61
(dp87
S'_valign'
p88
S'top'
p89
ssg70
g73
sg63
(lp90
S':'
asbag56
(g77
g58
NtRp91
(dp92
g61
(dp93
sg70
g73
sg63
(lp94
g56
(g57
g58
NtRp95
(dp96
g61
(dp97
g69
I5
ssg70
g91
sg63
(lp98
S'True'
p99
asbasbasbag56
(g72
g58
NtRp100
(dp101
g61
(dp102
sg70
g66
sg63
(lp103
g56
(g77
g58
NtRp104
(dp105
g61
(dp106
g81
g82
ssg70
g100
sg63
(lp107
S'application'
p108
asbag56
(g77
g58
NtRp109
(dp110
g61
(dp111
g88
g89
ssg70
g100
sg63
(lp112
S':'
asbag56
(g77
g58
NtRp113
(dp114
g61
(dp115
sg70
g100
sg63
(lp116
g56
(g57
g58
NtRp117
(dp118
g61
(dp119
g69
I5
ssg70
g113
sg63
(lp120
S'gallery'
p121
asbasbasbag56
(g72
g58
NtRp122
(dp123
g61
(dp124
sg70
g66
sg63
(lp125
g56
(g77
g58
NtRp126
(dp127
g61
(dp128
g81
g82
ssg70
g122
sg63
(lp129
g41
asbag56
(g77
g58
NtRp130
(dp131
g61
(dp132
g88
g89
ssg70
g122
sg63
(lp133
S':'
asbag56
(g77
g58
NtRp134
(dp135
g61
(dp136
sg70
g122
sg63
(lp137
g56
(g57
g58
NtRp138
(dp139
g61
(dp140
g69
I5
ssg70
g134
sg63
(lp141
g56
(g65
g58
NtRp142
(dp143
g61
(dp144
g69
I4
ssg70
Nsg63
(lp145
sbasbasbasbag56
(g72
g58
NtRp146
(dp147
g61
(dp148
sg70
g66
sg63
(lp149
g56
(g77
g58
NtRp150
(dp151
g61
(dp152
g81
g82
ssg70
g146
sg63
(lp153
S'body'
p154
asbag56
(g77
g58
NtRp155
(dp156
g61
(dp157
g88
g89
ssg70
g146
sg63
(lp158
S':'
asbag56
(g77
g58
NtRp159
(dp160
g61
(dp161
sg70
g146
sg63
(lp162
g56
(g57
g58
NtRp163
(dp164
g61
(dp165
g69
I5
ssg70
g159
sg63
(lp166
S'<cStringIO.StringO object at 0xaf015f20>'
p167
asbasbasbag56
(g72
g58
NtRp168
(dp169
g61
(dp170
sg70
g66
sg63
(lp171
g56
(g77
g58
NtRp172
(dp173
g61
(dp174
g81
g82
ssg70
g168
sg63
(lp175
S'client'
p176
asbag56
(g77
g58
NtRp177
(dp178
g61
(dp179
g88
g89
ssg70
g168
sg63
(lp180
S':'
asbag56
(g77
g58
NtRp181
(dp182
g61
(dp183
sg70
g168
sg63
(lp184
g56
(g57
g58
NtRp185
(dp186
g61
(dp187
g69
I5
ssg70
g181
sg63
(lp188
S'127.0.0.1'
p189
asbasbasbag56
(g72
g58
NtRp190
(dp191
g61
(dp192
sg70
g66
sg63
(lp193
g56
(g77
g58
NtRp194
(dp195
g61
(dp196
g81
g82
ssg70
g190
sg63
(lp197
S'controller'
p198
asbag56
(g77
g58
NtRp199
(dp200
g61
(dp201
g88
g89
ssg70
g190
sg63
(lp202
S':'
asbag56
(g77
g58
NtRp203
(dp204
g61
(dp205
sg70
g190
sg63
(lp206
g56
(g57
g58
NtRp207
(dp208
g61
(dp209
g69
I5
ssg70
g203
sg63
(lp210
S'search'
p211
asbasbasbag56
(g72
g58
NtRp212
(dp213
g61
(dp214
sg70
g66
sg63
(lp215
g56
(g77
g58
NtRp216
(dp217
g61
(dp218
g81
g82
ssg70
g212
sg63
(lp219
S'cookies'
p220
asbag56
(g77
g58
NtRp221
(dp222
g61
(dp223
g88
g89
ssg70
g212
sg63
(lp224
S':'
asbag56
(g77
g58
NtRp225
(dp226
g61
(dp227
sg70
g212
sg63
(lp228
g56
(g57
g58
NtRp229
(dp230
g61
(dp231
g69
I5
ssg70
g225
sg63
(lp232
g56
(g65
g58
NtRp233
(dp234
g61
(dp235
g69
I4
ssg70
Nsg63
(lp236
g56
(g72
g58
NtRp237
(dp238
g61
(dp239
sg70
g233
sg63
(lp240
g56
(g77
g58
NtRp241
(dp242
g61
(dp243
g81
g82
ssg70
g237
sg63
(lp244
S'csrftoken'
p245
asbag56
(g77
g58
NtRp246
(dp247
g61
(dp248
g88
g89
ssg70
g237
sg63
(lp249
S':'
asbag56
(g77
g58
NtRp250
(dp251
g61
(dp252
sg70
g237
sg63
(lp253
g56
(g57
g58
NtRp254
(dp255
g61
(dp256
g69
I4
ssg70
g250
sg63
(lp257
g56
(g65
g58
NtRp258
(dp259
g61
(dp260
g69
I3
ssg70
Nsg63
(lp261
g56
(g72
g58
NtRp262
(dp263
g61
(dp264
sg70
g258
sg63
(lp265
g56
(g77
g58
NtRp266
(dp267
g61
(dp268
g81
g82
ssg70
g262
sg63
(lp269
S'comment'
p270
asbag56
(g77
g58
NtRp271
(dp272
g61
(dp273
g88
g89
ssg70
g262
sg63
(lp274
S':'
asbag56
(g77
g58
NtRp275
(dp276
g61
(dp277
sg70
g262
sg63
(lp278
g56
(g57
g58
NtRp279
(dp280
g61
(dp281
g69
I3
ssg70
g275
sg63
(lp282
S''
asbasbasbag56
(g72
g58
NtRp283
(dp284
g61
(dp285
sg70
g258
sg63
(lp286
g56
(g77
g58
NtRp287
(dp288
g61
(dp289
g81
g82
ssg70
g283
sg63
(lp290
S'domain'
p291
asbag56
(g77
g58
NtRp292
(dp293
g61
(dp294
g88
g89
ssg70
g283
sg63
(lp295
S':'
asbag56
(g77
g58
NtRp296
(dp297
g61
(dp298
sg70
g283
sg63
(lp299
g56
(g57
g58
NtRp300
(dp301
g61
(dp302
g69
I3
ssg70
g296
sg63
(lp303
S''
asbasbasbag56
(g72
g58
NtRp304
(dp305
g61
(dp306
sg70
g258
sg63
(lp307
g56
(g77
g58
NtRp308
(dp309
g61
(dp310
g81
g82
ssg70
g304
sg63
(lp311
S'expires'
p312
asbag56
(g77
g58
NtRp313
(dp314
g61
(dp315
g88
g89
ssg70
g304
sg63
(lp316
S':'
asbag56
(g77
g58
NtRp317
(dp318
g61
(dp319
sg70
g304
sg63
(lp320
g56
(g57
g58
NtRp321
(dp322
g61
(dp323
g69
I3
ssg70
g317
sg63
(lp324
S''
asbasbasbag56
(g72
g58
NtRp325
(dp326
g61
(dp327
sg70
g258
sg63
(lp328
g56
(g77
g58
NtRp329
(dp330
g61
(dp331
g81
g82
ssg70
g325
sg63
(lp332
S'httponly'
p333
asbag56
(g77
g58
NtRp334
(dp335
g61
(dp336
g88
g89
ssg70
g325
sg63
(lp337
S':'
asbag56
(g77
g58
NtRp338
(dp339
g61
(dp340
sg70
g325
sg63
(lp341
g56
(g57
g58
NtRp342
(dp343
g61
(dp344
g69
I3
ssg70
g338
sg63
(lp345
S''
asbasbasbag56
(g72
g58
NtRp346
(dp347
g61
(dp348
sg70
g258
sg63
(lp349
g56
(g77
g58
NtRp350
(dp351
g61
(dp352
g81
g82
ssg70
g346
sg63
(lp353
S'max-age'
p354
asbag56
(g77
g58
NtRp355
(dp356
g61
(dp357
g88
g89
ssg70
g346
sg63
(lp358
S':'
asbag56
(g77
g58
NtRp359
(dp360
g61
(dp361
sg70
g346
sg63
(lp362
g56
(g57
g58
NtRp363
(dp364
g61
(dp365
g69
I3
ssg70
g359
sg63
(lp366
S''
asbasbasbag56
(g72
g58
NtRp367
(dp368
g61
(dp369
sg70
g258
sg63
(lp370
g56
(g77
g58
NtRp371
(dp372
g61
(dp373
g81
g82
ssg70
g367
sg63
(lp374
S'path'
p375
asbag56
(g77
g58
NtRp376
(dp377
g61
(dp378
g88
g89
ssg70
g367
sg63
(lp379
S':'
asbag56
(g77
g58
NtRp380
(dp381
g61
(dp382
sg70
g367
sg63
(lp383
g56
(g57
g58
NtRp384
(dp385
g61
(dp386
g69
I3
ssg70
g380
sg63
(lp387
S''
asbasbasbag56
(g72
g58
NtRp388
(dp389
g61
(dp390
sg70
g258
sg63
(lp391
g56
(g77
g58
NtRp392
(dp393
g61
(dp394
g81
g82
ssg70
g388
sg63
(lp395
S'secure'
p396
asbag56
(g77
g58
NtRp397
(dp398
g61
(dp399
g88
g89
ssg70
g388
sg63
(lp400
S':'
asbag56
(g77
g58
NtRp401
(dp402
g61
(dp403
sg70
g388
sg63
(lp404
g56
(g57
g58
NtRp405
(dp406
g61
(dp407
g69
I3
ssg70
g401
sg63
(lp408
S''
asbasbasbag56
(g72
g58
NtRp409
(dp410
g61
(dp411
sg70
g258
sg63
(lp412
g56
(g77
g58
NtRp413
(dp414
g61
(dp415
g81
g82
ssg70
g409
sg63
(lp416
S'version'
p417
asbag56
(g77
g58
NtRp418
(dp419
g61
(dp420
g88
g89
ssg70
g409
sg63
(lp421
S':'
asbag56
(g77
g58
NtRp422
(dp423
g61
(dp424
sg70
g409
sg63
(lp425
g56
(g57
g58
NtRp426
(dp427
g61
(dp428
g69
I3
ssg70
g422
sg63
(lp429
S''
asbasbasbasbasbasbasbag56
(g72
g58
NtRp430
(dp431
g61
(dp432
sg70
g233
sg63
(lp433
g56
(g77
g58
NtRp434
(dp435
g61
(dp436
g81
g82
ssg70
g430
sg63
(lp437
S'session_id_admin'
p438
asbag56
(g77
g58
NtRp439
(dp440
g61
(dp441
g88
g89
ssg70
g430
sg63
(lp442
S':'
asbag56
(g77
g58
NtRp443
(dp444
g61
(dp445
sg70
g430
sg63
(lp446
g56
(g57
g58
NtRp447
(dp448
g61
(dp449
g69
I4
ssg70
g443
sg63
(lp450
g56
(g65
g58
NtRp451
(dp452
g61
(dp453
g69
I3
ssg70
Nsg63
(lp454
g56
(g72
g58
NtRp455
(dp456
g61
(dp457
sg70
g451
sg63
(lp458
g56
(g77
g58
NtRp459
(dp460
g61
(dp461
g81
g82
ssg70
g455
sg63
(lp462
g270
asbag56
(g77
g58
NtRp463
(dp464
g61
(dp465
g88
g89
ssg70
g455
sg63
(lp466
S':'
asbag56
(g77
g58
NtRp467
(dp468
g61
(dp469
sg70
g455
sg63
(lp470
g56
(g57
g58
NtRp471
(dp472
g61
(dp473
g69
I3
ssg70
g467
sg63
(lp474
S''
asbasbasbag56
(g72
g58
NtRp475
(dp476
g61
(dp477
sg70
g451
sg63
(lp478
g56
(g77
g58
NtRp479
(dp480
g61
(dp481
g81
g82
ssg70
g475
sg63
(lp482
g291
asbag56
(g77
g58
NtRp483
(dp484
g61
(dp485
g88
g89
ssg70
g475
sg63
(lp486
S':'
asbag56
(g77
g58
NtRp487
(dp488
g61
(dp489
sg70
g475
sg63
(lp490
g56
(g57
g58
NtRp491
(dp492
g61
(dp493
g69
I3
ssg70
g487
sg63
(lp494
S''
asbasbasbag56
(g72
g58
NtRp495
(dp496
g61
(dp497
sg70
g451
sg63
(lp498
g56
(g77
g58
NtRp499
(dp500
g61
(dp501
g81
g82
ssg70
g495
sg63
(lp502
g312
asbag56
(g77
g58
NtRp503
(dp504
g61
(dp505
g88
g89
ssg70
g495
sg63
(lp506
S':'
asbag56
(g77
g58
NtRp507
(dp508
g61
(dp509
sg70
g495
sg63
(lp510
g56
(g57
g58
NtRp511
(dp512
g61
(dp513
g69
I3
ssg70
g507
sg63
(lp514
S''
asbasbasbag56
(g72
g58
NtRp515
(dp516
g61
(dp517
sg70
g451
sg63
(lp518
g56
(g77
g58
NtRp519
(dp520
g61
(dp521
g81
g82
ssg70
g515
sg63
(lp522
g333
asbag56
(g77
g58
NtRp523
(dp524
g61
(dp525
g88
g89
ssg70
g515
sg63
(lp526
S':'
asbag56
(g77
g58
NtRp527
(dp528
g61
(dp529
sg70
g515
sg63
(lp530
g56
(g57
g58
NtRp531
(dp532
g61
(dp533
g69
I3
ssg70
g527
sg63
(lp534
S''
asbasbasbag56
(g72
g58
NtRp535
(dp536
g61
(dp537
sg70
g451
sg63
(lp538
g56
(g77
g58
NtRp539
(dp540
g61
(dp541
g81
g82
ssg70
g535
sg63
(lp542
g354
asbag56
(g77
g58
NtRp543
(dp544
g61
(dp545
g88
g89
ssg70
g535
sg63
(lp546
S':'
asbag56
(g77
g58
NtRp547
(dp548
g61
(dp549
sg70
g535
sg63
(lp550
g56
(g57
g58
NtRp551
(dp552
g61
(dp553
g69
I3
ssg70
g547
sg63
(lp554
S''
asbasbasbag56
(g72
g58
NtRp555
(dp556
g61
(dp557
sg70
g451
sg63
(lp558
g56
(g77
g58
NtRp559
(dp560
g61
(dp561
g81
g82
ssg70
g555
sg63
(lp562
g375
asbag56
(g77
g58
NtRp563
(dp564
g61
(dp565
g88
g89
ssg70
g555
sg63
(lp566
S':'
asbag56
(g77
g58
NtRp567
(dp568
g61
(dp569
sg70
g555
sg63
(lp570
g56
(g57
g58
NtRp571
(dp572
g61
(dp573
g69
I3
ssg70
g567
sg63
(lp574
S''
asbasbasbag56
(g72
g58
NtRp575
(dp576
g61
(dp577
sg70
g451
sg63
(lp578
g56
(g77
g58
NtRp579
(dp580
g61
(dp581
g81
g82
ssg70
g575
sg63
(lp582
g396
asbag56
(g77
g58
NtRp583
(dp584
g61
(dp585
g88
g89
ssg70
g575
sg63
(lp586
S':'
asbag56
(g77
g58
NtRp587
(dp588
g61
(dp589
sg70
g575
sg63
(lp590
g56
(g57
g58
NtRp591
(dp592
g61
(dp593
g69
I3
ssg70
g587
sg63
(lp594
S''
asbasbasbag56
(g72
g58
NtRp595
(dp596
g61
(dp597
sg70
g451
sg63
(lp598
g56
(g77
g58
NtRp599
(dp600
g61
(dp601
g81
g82
ssg70
g595
sg63
(lp602
g417
asbag56
(g77
g58
NtRp603
(dp604
g61
(dp605
g88
g89
ssg70
g595
sg63
(lp606
S':'
asbag56
(g77
g58
NtRp607
(dp608
g61
(dp609
sg70
g595
sg63
(lp610
g56
(g57
g58
NtRp611
(dp612
g61
(dp613
g69
I3
ssg70
g607
sg63
(lp614
S''
asbasbasbasbasbasbasbag56
(g72
g58
NtRp615
(dp616
g61
(dp617
sg70
g233
sg63
(lp618
g56
(g77
g58
NtRp619
(dp620
g61
(dp621
g81
g82
ssg70
g615
sg63
(lp622
S'session_id_carstore'
p623
asbag56
(g77
g58
NtRp624
(dp625
g61
(dp626
g88
g89
ssg70
g615
sg63
(lp627
S':'
asbag56
(g77
g58
NtRp628
(dp629
g61
(dp630
sg70
g615
sg63
(lp631
g56
(g57
g58
NtRp632
(dp633
g61
(dp634
g69
I4
ssg70
g628
sg63
(lp635
g56
(g65
g58
NtRp636
(dp637
g61
(dp638
g69
I3
ssg70
Nsg63
(lp639
g56
(g72
g58
NtRp640
(dp641
g61
(dp642
sg70
g636
sg63
(lp643
g56
(g77
g58
NtRp644
(dp645
g61
(dp646
g81
g82
ssg70
g640
sg63
(lp647
g270
asbag56
(g77
g58
NtRp648
(dp649
g61
(dp650
g88
g89
ssg70
g640
sg63
(lp651
S':'
asbag56
(g77
g58
NtRp652
(dp653
g61
(dp654
sg70
g640
sg63
(lp655
g56
(g57
g58
NtRp656
(dp657
g61
(dp658
g69
I3
ssg70
g652
sg63
(lp659
S''
asbasbasbag56
(g72
g58
NtRp660
(dp661
g61
(dp662
sg70
g636
sg63
(lp663
g56
(g77
g58
NtRp664
(dp665
g61
(dp666
g81
g82
ssg70
g660
sg63
(lp667
g291
asbag56
(g77
g58
NtRp668
(dp669
g61
(dp670
g88
g89
ssg70
g660
sg63
(lp671
S':'
asbag56
(g77
g58
NtRp672
(dp673
g61
(dp674
sg70
g660
sg63
(lp675
g56
(g57
g58
NtRp676
(dp677
g61
(dp678
g69
I3
ssg70
g672
sg63
(lp679
S''
asbasbasbag56
(g72
g58
NtRp680
(dp681
g61
(dp682
sg70
g636
sg63
(lp683
g56
(g77
g58
NtRp684
(dp685
g61
(dp686
g81
g82
ssg70
g680
sg63
(lp687
g312
asbag56
(g77
g58
NtRp688
(dp689
g61
(dp690
g88
g89
ssg70
g680
sg63
(lp691
S':'
asbag56
(g77
g58
NtRp692
(dp693
g61
(dp694
sg70
g680
sg63
(lp695
g56
(g57
g58
NtRp696
(dp697
g61
(dp698
g69
I3
ssg70
g692
sg63
(lp699
S''
asbasbasbag56
(g72
g58
NtRp700
(dp701
g61
(dp702
sg70
g636
sg63
(lp703
g56
(g77
g58
NtRp704
(dp705
g61
(dp706
g81
g82
ssg70
g700
sg63
(lp707
g333
asbag56
(g77
g58
NtRp708
(dp709
g61
(dp710
g88
g89
ssg70
g700
sg63
(lp711
S':'
asbag56
(g77
g58
NtRp712
(dp713
g61
(dp714
sg70
g700
sg63
(lp715
g56
(g57
g58
NtRp716
(dp717
g61
(dp718
g69
I3
ssg70
g712
sg63
(lp719
S''
asbasbasbag56
(g72
g58
NtRp720
(dp721
g61
(dp722
sg70
g636
sg63
(lp723
g56
(g77
g58
NtRp724
(dp725
g61
(dp726
g81
g82
ssg70
g720
sg63
(lp727
g354
asbag56
(g77
g58
NtRp728
(dp729
g61
(dp730
g88
g89
ssg70
g720
sg63
(lp731
S':'
asbag56
(g77
g58
NtRp732
(dp733
g61
(dp734
sg70
g720
sg63
(lp735
g56
(g57
g58
NtRp736
(dp737
g61
(dp738
g69
I3
ssg70
g732
sg63
(lp739
S''
asbasbasbag56
(g72
g58
NtRp740
(dp741
g61
(dp742
sg70
g636
sg63
(lp743
g56
(g77
g58
NtRp744
(dp745
g61
(dp746
g81
g82
ssg70
g740
sg63
(lp747
g375
asbag56
(g77
g58
NtRp748
(dp749
g61
(dp750
g88
g89
ssg70
g740
sg63
(lp751
S':'
asbag56
(g77
g58
NtRp752
(dp753
g61
(dp754
sg70
g740
sg63
(lp755
g56
(g57
g58
NtRp756
(dp757
g61
(dp758
g69
I3
ssg70
g752
sg63
(lp759
S''
asbasbasbag56
(g72
g58
NtRp760
(dp761
g61
(dp762
sg70
g636
sg63
(lp763
g56
(g77
g58
NtRp764
(dp765
g61
(dp766
g81
g82
ssg70
g760
sg63
(lp767
g396
asbag56
(g77
g58
NtRp768
(dp769
g61
(dp770
g88
g89
ssg70
g760
sg63
(lp771
S':'
asbag56
(g77
g58
NtRp772
(dp773
g61
(dp774
sg70
g760
sg63
(lp775
g56
(g57
g58
NtRp776
(dp777
g61
(dp778
g69
I3
ssg70
g772
sg63
(lp779
S''
asbasbasbag56
(g72
g58
NtRp780
(dp781
g61
(dp782
sg70
g636
sg63
(lp783
g56
(g77
g58
NtRp784
(dp785
g61
(dp786
g81
g82
ssg70
g780
sg63
(lp787
g417
asbag56
(g77
g58
NtRp788
(dp789
g61
(dp790
g88
g89
ssg70
g780
sg63
(lp791
S':'
asbag56
(g77
g58
NtRp792
(dp793
g61
(dp794
sg70
g780
sg63
(lp795
g56
(g57
g58
NtRp796
(dp797
g61
(dp798
g69
I3
ssg70
g792
sg63
(lp799
S''
asbasbasbasbasbasbasbag56
(g72
g58
NtRp800
(dp801
g61
(dp802
sg70
g233
sg63
(lp803
g56
(g77
g58
NtRp804
(dp805
g61
(dp806
g81
g82
ssg70
g800
sg63
(lp807
S'session_id_gallery'
p808
asbag56
(g77
g58
NtRp809
(dp810
g61
(dp811
g88
g89
ssg70
g800
sg63
(lp812
S':'
asbag56
(g77
g58
NtRp813
(dp814
g61
(dp815
sg70
g800
sg63
(lp816
g56
(g57
g58
NtRp817
(dp818
g61
(dp819
g69
I4
ssg70
g813
sg63
(lp820
g56
(g65
g58
NtRp821
(dp822
g61
(dp823
g69
I3
ssg70
Nsg63
(lp824
g56
(g72
g58
NtRp825
(dp826
g61
(dp827
sg70
g821
sg63
(lp828
g56
(g77
g58
NtRp829
(dp830
g61
(dp831
g81
g82
ssg70
g825
sg63
(lp832
g270
asbag56
(g77
g58
NtRp833
(dp834
g61
(dp835
g88
g89
ssg70
g825
sg63
(lp836
S':'
asbag56
(g77
g58
NtRp837
(dp838
g61
(dp839
sg70
g825
sg63
(lp840
g56
(g57
g58
NtRp841
(dp842
g61
(dp843
g69
I3
ssg70
g837
sg63
(lp844
S''
asbasbasbag56
(g72
g58
NtRp845
(dp846
g61
(dp847
sg70
g821
sg63
(lp848
g56
(g77
g58
NtRp849
(dp850
g61
(dp851
g81
g82
ssg70
g845
sg63
(lp852
g291
asbag56
(g77
g58
NtRp853
(dp854
g61
(dp855
g88
g89
ssg70
g845
sg63
(lp856
S':'
asbag56
(g77
g58
NtRp857
(dp858
g61
(dp859
sg70
g845
sg63
(lp860
g56
(g57
g58
NtRp861
(dp862
g61
(dp863
g69
I3
ssg70
g857
sg63
(lp864
S''
asbasbasbag56
(g72
g58
NtRp865
(dp866
g61
(dp867
sg70
g821
sg63
(lp868
g56
(g77
g58
NtRp869
(dp870
g61
(dp871
g81
g82
ssg70
g865
sg63
(lp872
g312
asbag56
(g77
g58
NtRp873
(dp874
g61
(dp875
g88
g89
ssg70
g865
sg63
(lp876
S':'
asbag56
(g77
g58
NtRp877
(dp878
g61
(dp879
sg70
g865
sg63
(lp880
g56
(g57
g58
NtRp881
(dp882
g61
(dp883
g69
I3
ssg70
g877
sg63
(lp884
S''
asbasbasbag56
(g72
g58
NtRp885
(dp886
g61
(dp887
sg70
g821
sg63
(lp888
g56
(g77
g58
NtRp889
(dp890
g61
(dp891
g81
g82
ssg70
g885
sg63
(lp892
g333
asbag56
(g77
g58
NtRp893
(dp894
g61
(dp895
g88
g89
ssg70
g885
sg63
(lp896
S':'
asbag56
(g77
g58
NtRp897
(dp898
g61
(dp899
sg70
g885
sg63
(lp900
g56
(g57
g58
NtRp901
(dp902
g61
(dp903
g69
I3
ssg70
g897
sg63
(lp904
S''
asbasbasbag56
(g72
g58
NtRp905
(dp906
g61
(dp907
sg70
g821
sg63
(lp908
g56
(g77
g58
NtRp909
(dp910
g61
(dp911
g81
g82
ssg70
g905
sg63
(lp912
g354
asbag56
(g77
g58
NtRp913
(dp914
g61
(dp915
g88
g89
ssg70
g905
sg63
(lp916
S':'
asbag56
(g77
g58
NtRp917
(dp918
g61
(dp919
sg70
g905
sg63
(lp920
g56
(g57
g58
NtRp921
(dp922
g61
(dp923
g69
I3
ssg70
g917
sg63
(lp924
S''
asbasbasbag56
(g72
g58
NtRp925
(dp926
g61
(dp927
sg70
g821
sg63
(lp928
g56
(g77
g58
NtRp929
(dp930
g61
(dp931
g81
g82
ssg70
g925
sg63
(lp932
g375
asbag56
(g77
g58
NtRp933
(dp934
g61
(dp935
g88
g89
ssg70
g925
sg63
(lp936
S':'
asbag56
(g77
g58
NtRp937
(dp938
g61
(dp939
sg70
g925
sg63
(lp940
g56
(g57
g58
NtRp941
(dp942
g61
(dp943
g69
I3
ssg70
g937
sg63
(lp944
S''
asbasbasbag56
(g72
g58
NtRp945
(dp946
g61
(dp947
sg70
g821
sg63
(lp948
g56
(g77
g58
NtRp949
(dp950
g61
(dp951
g81
g82
ssg70
g945
sg63
(lp952
g396
asbag56
(g77
g58
NtRp953
(dp954
g61
(dp955
g88
g89
ssg70
g945
sg63
(lp956
S':'
asbag56
(g77
g58
NtRp957
(dp958
g61
(dp959
sg70
g945
sg63
(lp960
g56
(g57
g58
NtRp961
(dp962
g61
(dp963
g69
I3
ssg70
g957
sg63
(lp964
S''
asbasbasbag56
(g72
g58
NtRp965
(dp966
g61
(dp967
sg70
g821
sg63
(lp968
g56
(g77
g58
NtRp969
(dp970
g61
(dp971
g81
g82
ssg70
g965
sg63
(lp972
g417
asbag56
(g77
g58
NtRp973
(dp974
g61
(dp975
g88
g89
ssg70
g965
sg63
(lp976
S':'
asbag56
(g77
g58
NtRp977
(dp978
g61
(dp979
sg70
g965
sg63
(lp980
g56
(g57
g58
NtRp981
(dp982
g61
(dp983
g69
I3
ssg70
g977
sg63
(lp984
S''
asbasbasbasbasbasbasbag56
(g72
g58
NtRp985
(dp986
g61
(dp987
sg70
g233
sg63
(lp988
g56
(g77
g58
NtRp989
(dp990
g61
(dp991
g81
g82
ssg70
g985
sg63
(lp992
S'session_id_welcome'
p993
asbag56
(g77
g58
NtRp994
(dp995
g61
(dp996
g88
g89
ssg70
g985
sg63
(lp997
S':'
asbag56
(g77
g58
NtRp998
(dp999
g61
(dp1000
sg70
g985
sg63
(lp1001
g56
(g57
g58
NtRp1002
(dp1003
g61
(dp1004
g69
I4
ssg70
g998
sg63
(lp1005
g56
(g65
g58
NtRp1006
(dp1007
g61
(dp1008
g69
I3
ssg70
Nsg63
(lp1009
g56
(g72
g58
NtRp1010
(dp1011
g61
(dp1012
sg70
g1006
sg63
(lp1013
g56
(g77
g58
NtRp1014
(dp1015
g61
(dp1016
g81
g82
ssg70
g1010
sg63
(lp1017
g270
asbag56
(g77
g58
NtRp1018
(dp1019
g61
(dp1020
g88
g89
ssg70
g1010
sg63
(lp1021
S':'
asbag56
(g77
g58
NtRp1022
(dp1023
g61
(dp1024
sg70
g1010
sg63
(lp1025
g56
(g57
g58
NtRp1026
(dp1027
g61
(dp1028
g69
I3
ssg70
g1022
sg63
(lp1029
S''
asbasbasbag56
(g72
g58
NtRp1030
(dp1031
g61
(dp1032
sg70
g1006
sg63
(lp1033
g56
(g77
g58
NtRp1034
(dp1035
g61
(dp1036
g81
g82
ssg70
g1030
sg63
(lp1037
g291
asbag56
(g77
g58
NtRp1038
(dp1039
g61
(dp1040
g88
g89
ssg70
g1030
sg63
(lp1041
S':'
asbag56
(g77
g58
NtRp1042
(dp1043
g61
(dp1044
sg70
g1030
sg63
(lp1045
g56
(g57
g58
NtRp1046
(dp1047
g61
(dp1048
g69
I3
ssg70
g1042
sg63
(lp1049
S''
asbasbasbag56
(g72
g58
NtRp1050
(dp1051
g61
(dp1052
sg70
g1006
sg63
(lp1053
g56
(g77
g58
NtRp1054
(dp1055
g61
(dp1056
g81
g82
ssg70
g1050
sg63
(lp1057
g312
asbag56
(g77
g58
NtRp1058
(dp1059
g61
(dp1060
g88
g89
ssg70
g1050
sg63
(lp1061
S':'
asbag56
(g77
g58
NtRp1062
(dp1063
g61
(dp1064
sg70
g1050
sg63
(lp1065
g56
(g57
g58
NtRp1066
(dp1067
g61
(dp1068
g69
I3
ssg70
g1062
sg63
(lp1069
S''
asbasbasbag56
(g72
g58
NtRp1070
(dp1071
g61
(dp1072
sg70
g1006
sg63
(lp1073
g56
(g77
g58
NtRp1074
(dp1075
g61
(dp1076
g81
g82
ssg70
g1070
sg63
(lp1077
g333
asbag56
(g77
g58
NtRp1078
(dp1079
g61
(dp1080
g88
g89
ssg70
g1070
sg63
(lp1081
S':'
asbag56
(g77
g58
NtRp1082
(dp1083
g61
(dp1084
sg70
g1070
sg63
(lp1085
g56
(g57
g58
NtRp1086
(dp1087
g61
(dp1088
g69
I3
ssg70
g1082
sg63
(lp1089
S''
asbasbasbag56
(g72
g58
NtRp1090
(dp1091
g61
(dp1092
sg70
g1006
sg63
(lp1093
g56
(g77
g58
NtRp1094
(dp1095
g61
(dp1096
g81
g82
ssg70
g1090
sg63
(lp1097
g354
asbag56
(g77
g58
NtRp1098
(dp1099
g61
(dp1100
g88
g89
ssg70
g1090
sg63
(lp1101
S':'
asbag56
(g77
g58
NtRp1102
(dp1103
g61
(dp1104
sg70
g1090
sg63
(lp1105
g56
(g57
g58
NtRp1106
(dp1107
g61
(dp1108
g69
I3
ssg70
g1102
sg63
(lp1109
S''
asbasbasbag56
(g72
g58
NtRp1110
(dp1111
g61
(dp1112
sg70
g1006
sg63
(lp1113
g56
(g77
g58
NtRp1114
(dp1115
g61
(dp1116
g81
g82
ssg70
g1110
sg63
(lp1117
g375
asbag56
(g77
g58
NtRp1118
(dp1119
g61
(dp1120
g88
g89
ssg70
g1110
sg63
(lp1121
S':'
asbag56
(g77
g58
NtRp1122
(dp1123
g61
(dp1124
sg70
g1110
sg63
(lp1125
g56
(g57
g58
NtRp1126
(dp1127
g61
(dp1128
g69
I3
ssg70
g1122
sg63
(lp1129
S''
asbasbasbag56
(g72
g58
NtRp1130
(dp1131
g61
(dp1132
sg70
g1006
sg63
(lp1133
g56
(g77
g58
NtRp1134
(dp1135
g61
(dp1136
g81
g82
ssg70
g1130
sg63
(lp1137
g396
asbag56
(g77
g58
NtRp1138
(dp1139
g61
(dp1140
g88
g89
ssg70
g1130
sg63
(lp1141
S':'
asbag56
(g77
g58
NtRp1142
(dp1143
g61
(dp1144
sg70
g1130
sg63
(lp1145
g56
(g57
g58
NtRp1146
(dp1147
g61
(dp1148
g69
I3
ssg70
g1142
sg63
(lp1149
S''
asbasbasbag56
(g72
g58
NtRp1150
(dp1151
g61
(dp1152
sg70
g1006
sg63
(lp1153
g56
(g77
g58
NtRp1154
(dp1155
g61
(dp1156
g81
g82
ssg70
g1150
sg63
(lp1157
g417
asbag56
(g77
g58
NtRp1158
(dp1159
g61
(dp1160
g88
g89
ssg70
g1150
sg63
(lp1161
S':'
asbag56
(g77
g58
NtRp1162
(dp1163
g61
(dp1164
sg70
g1150
sg63
(lp1165
g56
(g57
g58
NtRp1166
(dp1167
g61
(dp1168
g69
I3
ssg70
g1162
sg63
(lp1169
S''
asbasbasbasbasbasbasbasbasbasbasbag56
(g72
g58
NtRp1170
(dp1171
g61
(dp1172
sg70
g66
sg63
(lp1173
g56
(g77
g58
NtRp1174
(dp1175
g61
(dp1176
g81
g82
ssg70
g1170
sg63
(lp1177
S'env'
p1178
asbag56
(g77
g58
NtRp1179
(dp1180
g61
(dp1181
g88
g89
ssg70
g1170
sg63
(lp1182
S':'
asbag56
(g77
g58
NtRp1183
(dp1184
g61
(dp1185
sg70
g1170
sg63
(lp1186
g56
(g57
g58
NtRp1187
(dp1188
g61
(dp1189
g69
I5
ssg70
g1183
sg63
(lp1190
g56
(g65
g58
NtRp1191
(dp1192
g61
(dp1193
g69
I4
ssg70
Nsg63
(lp1194
g56
(g72
g58
NtRp1195
(dp1196
g61
(dp1197
sg70
g1191
sg63
(lp1198
g56
(g77
g58
NtRp1199
(dp1200
g61
(dp1201
g81
g82
ssg70
g1195
sg63
(lp1202
S'app_folders'
p1203
asbag56
(g77
g58
NtRp1204
(dp1205
g61
(dp1206
g88
g89
ssg70
g1195
sg63
(lp1207
S':'
asbag56
(g77
g58
NtRp1208
(dp1209
g61
(dp1210
sg70
g1195
sg63
(lp1211
g56
(g57
g58
NtRp1212
(dp1213
g61
(dp1214
g69
I4
ssg70
g1208
sg63
(lp1215
S"set(['/home/brencam/web2py/applications/admin/', '/home/brencam/web2py/applications/gallery/'])"
p1216
asbasbasbag56
(g72
g58
NtRp1217
(dp1218
g61
(dp1219
sg70
g1191
sg63
(lp1220
g56
(g77
g58
NtRp1221
(dp1222
g61
(dp1223
g81
g82
ssg70
g1217
sg63
(lp1224
S'applications_parent'
p1225
asbag56
(g77
g58
NtRp1226
(dp1227
g61
(dp1228
g88
g89
ssg70
g1217
sg63
(lp1229
S':'
asbag56
(g77
g58
NtRp1230
(dp1231
g61
(dp1232
sg70
g1217
sg63
(lp1233
g56
(g57
g58
NtRp1234
(dp1235
g61
(dp1236
g69
I4
ssg70
g1230
sg63
(lp1237
S'/home/brencam/web2py'
p1238
asbasbasbag56
(g72
g58
NtRp1239
(dp1240
g61
(dp1241
sg70
g1191
sg63
(lp1242
g56
(g77
g58
NtRp1243
(dp1244
g61
(dp1245
g81
g82
ssg70
g1239
sg63
(lp1246
S'cmd_args'
p1247
asbag56
(g77
g58
NtRp1248
(dp1249
g61
(dp1250
g88
g89
ssg70
g1239
sg63
(lp1251
S':'
asbag56
(g77
g58
NtRp1252
(dp1253
g61
(dp1254
sg70
g1239
sg63
(lp1255
g56
(g57
g58
NtRp1256
(dp1257
g61
(dp1258
g69
I4
ssg70
g1252
sg63
(lp1259
g56
(g65
g58
NtRp1260
(dp1261
g61
(dp1262
g69
I3
ssg70
Nsg63
(lp1263
sbasbasbasbag56
(g72
g58
NtRp1264
(dp1265
g61
(dp1266
sg70
g1191
sg63
(lp1267
g56
(g77
g58
NtRp1268
(dp1269
g61
(dp1270
g81
g82
ssg70
g1264
sg63
(lp1271
S'cmd_options'
p1272
asbag56
(g77
g58
NtRp1273
(dp1274
g61
(dp1275
g88
g89
ssg70
g1264
sg63
(lp1276
S':'
asbag56
(g77
g58
NtRp1277
(dp1278
g61
(dp1279
sg70
g1264
sg63
(lp1280
g56
(g57
g58
NtRp1281
(dp1282
g61
(dp1283
g69
I4
ssg70
g1277
sg63
(lp1284
S"<Values at 0xa97628c: {'verbose': False, 'ip': '127.0.0.1', 'shutdown_timeout': 5, 'taskbar': False, 'nocron': False, 'pid_filename': 'httpserver.pid', 'maxthreads': None, 'softcron': False, 'server_name': 'localhost.localdomain', 'bpython': False, 'nogui': True, 'port': 8000, 'extcron': False, 'debuglevel': 30, 'test': None, 'folder': '/home/brencam/web2py', 'config': '', 'import_models': False, 'winservice': '', 'shell': None, 'run': '', 'log_filename': 'httpserver.log', 'args': [''], 'ssl_ca_certificate': None, 'scheduler': None, 'profiler_filename': None, 'ssl_private_key': '', 'password': 'admin', 'request_queue_size': 5, 'ssl_certificate': '', 'cronjob': False, 'plain': False, 'quiet': False, 'interfaces': None, 'minthreads': None, 'timeout': 10, 'numthreads': None, 'nobanner': False}>"
p1285
asbasbasbag56
(g72
g58
NtRp1286
(dp1287
g61
(dp1288
sg70
g1191
sg63
(lp1289
g56
(g77
g58
NtRp1290
(dp1291
g61
(dp1292
g81
g82
ssg70
g1286
sg63
(lp1293
S'content_type'
p1294
asbag56
(g77
g58
NtRp1295
(dp1296
g61
(dp1297
g88
g89
ssg70
g1286
sg63
(lp1298
S':'
asbag56
(g77
g58
NtRp1299
(dp1300
g61
(dp1301
sg70
g1286
sg63
(lp1302
g56
(g57
g58
NtRp1303
(dp1304
g61
(dp1305
g69
I4
ssg70
g1299
sg63
(lp1306
S'application/x-www-form-urlencoded'
p1307
asbasbasbag56
(g72
g58
NtRp1308
(dp1309
g61
(dp1310
sg70
g1191
sg63
(lp1311
g56
(g77
g58
NtRp1312
(dp1313
g61
(dp1314
g81
g82
ssg70
g1308
sg63
(lp1315
S'db_sessions'
p1316
asbag56
(g77
g58
NtRp1317
(dp1318
g61
(dp1319
g88
g89
ssg70
g1308
sg63
(lp1320
S':'
asbag56
(g77
g58
NtRp1321
(dp1322
g61
(dp1323
sg70
g1308
sg63
(lp1324
g56
(g57
g58
NtRp1325
(dp1326
g61
(dp1327
g69
I4
ssg70
g1321
sg63
(lp1328
S'set([])'
p1329
asbasbasbag56
(g72
g58
NtRp1330
(dp1331
g61
(dp1332
sg70
g1191
sg63
(lp1333
g56
(g77
g58
NtRp1334
(dp1335
g61
(dp1336
g81
g82
ssg70
g1330
sg63
(lp1337
S'debugging'
p1338
asbag56
(g77
g58
NtRp1339
(dp1340
g61
(dp1341
g88
g89
ssg70
g1330
sg63
(lp1342
S':'
asbag56
(g77
g58
NtRp1343
(dp1344
g61
(dp1345
sg70
g1330
sg63
(lp1346
g56
(g57
g58
NtRp1347
(dp1348
g61
(dp1349
g69
I4
ssg70
g1343
sg63
(lp1350
S'False'
p1351
asbasbasbag56
(g72
g58
NtRp1352
(dp1353
g61
(dp1354
sg70
g1191
sg63
(lp1355
g56
(g77
g58
NtRp1356
(dp1357
g61
(dp1358
g81
g82
ssg70
g1352
sg63
(lp1359
S'gluon_parent'
p1360
asbag56
(g77
g58
NtRp1361
(dp1362
g61
(dp1363
g88
g89
ssg70
g1352
sg63
(lp1364
S':'
asbag56
(g77
g58
NtRp1365
(dp1366
g61
(dp1367
sg70
g1352
sg63
(lp1368
g56
(g57
g58
NtRp1369
(dp1370
g61
(dp1371
g69
I4
ssg70
g1365
sg63
(lp1372
S'/home/brencam/web2py'
p1373
asbasbasbag56
(g72
g58
NtRp1374
(dp1375
g61
(dp1376
sg70
g1191
sg63
(lp1377
g56
(g77
g58
NtRp1378
(dp1379
g61
(dp1380
g81
g82
ssg70
g1374
sg63
(lp1381
S'http_accept'
p1382
asbag56
(g77
g58
NtRp1383
(dp1384
g61
(dp1385
g88
g89
ssg70
g1374
sg63
(lp1386
S':'
asbag56
(g77
g58
NtRp1387
(dp1388
g61
(dp1389
sg70
g1374
sg63
(lp1390
g56
(g57
g58
NtRp1391
(dp1392
g61
(dp1393
g69
I4
ssg70
g1387
sg63
(lp1394
S'*/*'
p1395
asbasbasbag56
(g72
g58
NtRp1396
(dp1397
g61
(dp1398
sg70
g1191
sg63
(lp1399
g56
(g77
g58
NtRp1400
(dp1401
g61
(dp1402
g81
g82
ssg70
g1396
sg63
(lp1403
S'http_accept_charset'
p1404
asbag56
(g77
g58
NtRp1405
(dp1406
g61
(dp1407
g88
g89
ssg70
g1396
sg63
(lp1408
S':'
asbag56
(g77
g58
NtRp1409
(dp1410
g61
(dp1411
sg70
g1396
sg63
(lp1412
g56
(g57
g58
NtRp1413
(dp1414
g61
(dp1415
g69
I4
ssg70
g1409
sg63
(lp1416
S'ISO-8859-1,utf-8;q=0.7,*;q=0.3'
p1417
asbasbasbag56
(g72
g58
NtRp1418
(dp1419
g61
(dp1420
sg70
g1191
sg63
(lp1421
g56
(g77
g58
NtRp1422
(dp1423
g61
(dp1424
g81
g82
ssg70
g1418
sg63
(lp1425
S'http_accept_encoding'
p1426
asbag56
(g77
g58
NtRp1427
(dp1428
g61
(dp1429
g88
g89
ssg70
g1418
sg63
(lp1430
S':'
asbag56
(g77
g58
NtRp1431
(dp1432
g61
(dp1433
sg70
g1418
sg63
(lp1434
g56
(g57
g58
NtRp1435
(dp1436
g61
(dp1437
g69
I4
ssg70
g1431
sg63
(lp1438
S'gzip,deflate,sdch'
p1439
asbasbasbag56
(g72
g58
NtRp1440
(dp1441
g61
(dp1442
sg70
g1191
sg63
(lp1443
g56
(g77
g58
NtRp1444
(dp1445
g61
(dp1446
g81
g82
ssg70
g1440
sg63
(lp1447
S'http_accept_language'
p1448
asbag56
(g77
g58
NtRp1449
(dp1450
g61
(dp1451
g88
g89
ssg70
g1440
sg63
(lp1452
S':'
asbag56
(g77
g58
NtRp1453
(dp1454
g61
(dp1455
sg70
g1440
sg63
(lp1456
g56
(g57
g58
NtRp1457
(dp1458
g61
(dp1459
g69
I4
ssg70
g1453
sg63
(lp1460
S'en-US,en;q=0.8'
p1461
asbasbasbag56
(g72
g58
NtRp1462
(dp1463
g61
(dp1464
sg70
g1191
sg63
(lp1465
g56
(g77
g58
NtRp1466
(dp1467
g61
(dp1468
g81
g82
ssg70
g1462
sg63
(lp1469
S'http_cache_control'
p1470
asbag56
(g77
g58
NtRp1471
(dp1472
g61
(dp1473
g88
g89
ssg70
g1462
sg63
(lp1474
S':'
asbag56
(g77
g58
NtRp1475
(dp1476
g61
(dp1477
sg70
g1462
sg63
(lp1478
g56
(g57
g58
NtRp1479
(dp1480
g61
(dp1481
g69
I4
ssg70
g1475
sg63
(lp1482
S'no-cache'
p1483
asbasbasbag56
(g72
g58
NtRp1484
(dp1485
g61
(dp1486
sg70
g1191
sg63
(lp1487
g56
(g77
g58
NtRp1488
(dp1489
g61
(dp1490
g81
g82
ssg70
g1484
sg63
(lp1491
S'http_connection'
p1492
asbag56
(g77
g58
NtRp1493
(dp1494
g61
(dp1495
g88
g89
ssg70
g1484
sg63
(lp1496
S':'
asbag56
(g77
g58
NtRp1497
(dp1498
g61
(dp1499
sg70
g1484
sg63
(lp1500
g56
(g57
g58
NtRp1501
(dp1502
g61
(dp1503
g69
I4
ssg70
g1497
sg63
(lp1504
S'keep-alive'
p1505
asbasbasbag56
(g72
g58
NtRp1506
(dp1507
g61
(dp1508
sg70
g1191
sg63
(lp1509
g56
(g77
g58
NtRp1510
(dp1511
g61
(dp1512
g81
g82
ssg70
g1506
sg63
(lp1513
S'http_content_type'
p1514
asbag56
(g77
g58
NtRp1515
(dp1516
g61
(dp1517
g88
g89
ssg70
g1506
sg63
(lp1518
S':'
asbag56
(g77
g58
NtRp1519
(dp1520
g61
(dp1521
sg70
g1506
sg63
(lp1522
g56
(g57
g58
NtRp1523
(dp1524
g61
(dp1525
g69
I4
ssg70
g1519
sg63
(lp1526
g1307
asbasbasbag56
(g72
g58
NtRp1527
(dp1528
g61
(dp1529
sg70
g1191
sg63
(lp1530
g56
(g77
g58
NtRp1531
(dp1532
g61
(dp1533
g81
g82
ssg70
g1527
sg63
(lp1534
S'http_cookie'
p1535
asbag56
(g77
g58
NtRp1536
(dp1537
g61
(dp1538
g88
g89
ssg70
g1527
sg63
(lp1539
S':'
asbag56
(g77
g58
NtRp1540
(dp1541
g61
(dp1542
sg70
g1527
sg63
(lp1543
g56
(g57
g58
NtRp1544
(dp1545
g61
(dp1546
g69
I4
ssg70
g1540
sg63
(lp1547
S'__utma=96992031.552746526.1281494094.1291180555.1291186411.9; csrftoken=7b3621df70ed8d65c15785486fff8908; __utma_a2a=7438973308.1350086890.1318529964.1318645324.1318645410.28; session_id_welcome=127.0.0.1-e89cf04d-0b50-4bf6-92b3-026e707eb338; session_id_carstore=127.0.0.1-040400bf-f5a5-433f-a985-acb0a46fadd7; session_id_admin=127.0.0.1-d14f835c-118c-445e-8941-6ad99bd8ed54; session_id_gallery=127.0.0.1-dc8c13ed-0f92-4ade-ab82-5940ed42a3a5'
p1548
asbasbasbag56
(g72
g58
NtRp1549
(dp1550
g61
(dp1551
sg70
g1191
sg63
(lp1552
g56
(g77
g58
NtRp1553
(dp1554
g61
(dp1555
g81
g82
ssg70
g1549
sg63
(lp1556
S'http_host'
p1557
asbag56
(g77
g58
NtRp1558
(dp1559
g61
(dp1560
g88
g89
ssg70
g1549
sg63
(lp1561
S':'
asbag56
(g77
g58
NtRp1562
(dp1563
g61
(dp1564
sg70
g1549
sg63
(lp1565
g56
(g57
g58
NtRp1566
(dp1567
g61
(dp1568
g69
I4
ssg70
g1562
sg63
(lp1569
S'127.0.0.1:8000'
p1570
asbasbasbag56
(g72
g58
NtRp1571
(dp1572
g61
(dp1573
sg70
g1191
sg63
(lp1574
g56
(g77
g58
NtRp1575
(dp1576
g61
(dp1577
g81
g82
ssg70
g1571
sg63
(lp1578
S'http_pragma'
p1579
asbag56
(g77
g58
NtRp1580
(dp1581
g61
(dp1582
g88
g89
ssg70
g1571
sg63
(lp1583
S':'
asbag56
(g77
g58
NtRp1584
(dp1585
g61
(dp1586
sg70
g1571
sg63
(lp1587
g56
(g57
g58
NtRp1588
(dp1589
g61
(dp1590
g69
I4
ssg70
g1584
sg63
(lp1591
S'no-cache'
p1592
asbasbasbag56
(g72
g58
NtRp1593
(dp1594
g61
(dp1595
sg70
g1191
sg63
(lp1596
g56
(g77
g58
NtRp1597
(dp1598
g61
(dp1599
g81
g82
ssg70
g1593
sg63
(lp1600
S'http_referer'
p1601
asbag56
(g77
g58
NtRp1602
(dp1603
g61
(dp1604
g88
g89
ssg70
g1593
sg63
(lp1605
S':'
asbag56
(g77
g58
NtRp1606
(dp1607
g61
(dp1608
sg70
g1593
sg63
(lp1609
g56
(g57
g58
NtRp1610
(dp1611
g61
(dp1612
g69
I4
ssg70
g1606
sg63
(lp1613
S'http://127.0.0.1:8000/gallery/search/gettags'
p1614
asbasbasbag56
(g72
g58
NtRp1615
(dp1616
g61
(dp1617
sg70
g1191
sg63
(lp1618
g56
(g77
g58
NtRp1619
(dp1620
g61
(dp1621
g81
g82
ssg70
g1615
sg63
(lp1622
S'http_user_agent'
p1623
asbag56
(g77
g58
NtRp1624
(dp1625
g61
(dp1626
g88
g89
ssg70
g1615
sg63
(lp1627
S':'
asbag56
(g77
g58
NtRp1628
(dp1629
g61
(dp1630
sg70
g1615
sg63
(lp1631
g56
(g57
g58
NtRp1632
(dp1633
g61
(dp1634
g69
I4
ssg70
g1628
sg63
(lp1635
S'Mozilla/5.0 (X11; Linux i686) AppleWebKit/535.1 (KHTML, like Gecko) Chrome/14.0.835.204 Safari/535.1'
p1636
asbasbasbag56
(g72
g58
NtRp1637
(dp1638
g61
(dp1639
sg70
g1191
sg63
(lp1640
g56
(g77
g58
NtRp1641
(dp1642
g61
(dp1643
g81
g82
ssg70
g1637
sg63
(lp1644
S'http_x_requested_with'
p1645
asbag56
(g77
g58
NtRp1646
(dp1647
g61
(dp1648
g88
g89
ssg70
g1637
sg63
(lp1649
S':'
asbag56
(g77
g58
NtRp1650
(dp1651
g61
(dp1652
sg70
g1637
sg63
(lp1653
g56
(g57
g58
NtRp1654
(dp1655
g61
(dp1656
g69
I4
ssg70
g1650
sg63
(lp1657
S'XMLHttpRequest'
p1658
asbasbasbag56
(g72
g58
NtRp1659
(dp1660
g61
(dp1661
sg70
g1191
sg63
(lp1662
g56
(g77
g58
NtRp1663
(dp1664
g61
(dp1665
g81
g82
ssg70
g1659
sg63
(lp1666
S'is_jython'
p1667
asbag56
(g77
g58
NtRp1668
(dp1669
g61
(dp1670
g88
g89
ssg70
g1659
sg63
(lp1671
S':'
asbag56
(g77
g58
NtRp1672
(dp1673
g61
(dp1674
sg70
g1659
sg63
(lp1675
g56
(g57
g58
NtRp1676
(dp1677
g61
(dp1678
g69
I4
ssg70
g1672
sg63
(lp1679
g1351
asbasbasbag56
(g72
g58
NtRp1680
(dp1681
g61
(dp1682
sg70
g1191
sg63
(lp1683
g56
(g77
g58
NtRp1684
(dp1685
g61
(dp1686
g81
g82
ssg70
g1680
sg63
(lp1687
S'path_info'
p1688
asbag56
(g77
g58
NtRp1689
(dp1690
g61
(dp1691
g88
g89
ssg70
g1680
sg63
(lp1692
S':'
asbag56
(g77
g58
NtRp1693
(dp1694
g61
(dp1695
sg70
g1680
sg63
(lp1696
g56
(g57
g58
NtRp1697
(dp1698
g61
(dp1699
g69
I4
ssg70
g1693
sg63
(lp1700
S'/gallery/search/xmlgettags.json'
p1701
asbasbasbag56
(g72
g58
NtRp1702
(dp1703
g61
(dp1704
sg70
g1191
sg63
(lp1705
g56
(g77
g58
NtRp1706
(dp1707
g61
(dp1708
g81
g82
ssg70
g1702
sg63
(lp1709
S'query_string'
p1710
asbag56
(g77
g58
NtRp1711
(dp1712
g61
(dp1713
g88
g89
ssg70
g1702
sg63
(lp1714
S':'
asbag56
(g77
g58
NtRp1715
(dp1716
g61
(dp1717
sg70
g1702
sg63
(lp1718
g56
(g57
g58
NtRp1719
(dp1720
g61
(dp1721
g69
I4
ssg70
g1715
sg63
(lp1722
S''
asbasbasbag56
(g72
g58
NtRp1723
(dp1724
g61
(dp1725
sg70
g1191
sg63
(lp1726
g56
(g77
g58
NtRp1727
(dp1728
g61
(dp1729
g81
g82
ssg70
g1723
sg63
(lp1730
S'remote_addr'
p1731
asbag56
(g77
g58
NtRp1732
(dp1733
g61
(dp1734
g88
g89
ssg70
g1723
sg63
(lp1735
S':'
asbag56
(g77
g58
NtRp1736
(dp1737
g61
(dp1738
sg70
g1723
sg63
(lp1739
g56
(g57
g58
NtRp1740
(dp1741
g61
(dp1742
g69
I4
ssg70
g1736
sg63
(lp1743
g189
asbasbasbag56
(g72
g58
NtRp1744
(dp1745
g61
(dp1746
sg70
g1191
sg63
(lp1747
g56
(g77
g58
NtRp1748
(dp1749
g61
(dp1750
g81
g82
ssg70
g1744
sg63
(lp1751
S'remote_port'
p1752
asbag56
(g77
g58
NtRp1753
(dp1754
g61
(dp1755
g88
g89
ssg70
g1744
sg63
(lp1756
S':'
asbag56
(g77
g58
NtRp1757
(dp1758
g61
(dp1759
sg70
g1744
sg63
(lp1760
g56
(g57
g58
NtRp1761
(dp1762
g61
(dp1763
g69
I4
ssg70
g1757
sg63
(lp1764
S'35244'
p1765
asbasbasbag56
(g72
g58
NtRp1766
(dp1767
g61
(dp1768
sg70
g1191
sg63
(lp1769
g56
(g77
g58
NtRp1770
(dp1771
g61
(dp1772
g81
g82
ssg70
g1766
sg63
(lp1773
S'request_method'
p1774
asbag56
(g77
g58
NtRp1775
(dp1776
g61
(dp1777
g88
g89
ssg70
g1766
sg63
(lp1778
S':'
asbag56
(g77
g58
NtRp1779
(dp1780
g61
(dp1781
sg70
g1766
sg63
(lp1782
g56
(g57
g58
NtRp1783
(dp1784
g61
(dp1785
g69
I4
ssg70
g1779
sg63
(lp1786
S'GET'
p1787
asbasbasbag56
(g72
g58
NtRp1788
(dp1789
g61
(dp1790
sg70
g1191
sg63
(lp1791
g56
(g77
g58
NtRp1792
(dp1793
g61
(dp1794
g81
g82
ssg70
g1788
sg63
(lp1795
S'script_name'
p1796
asbag56
(g77
g58
NtRp1797
(dp1798
g61
(dp1799
g88
g89
ssg70
g1788
sg63
(lp1800
S':'
asbag56
(g77
g58
NtRp1801
(dp1802
g61
(dp1803
sg70
g1788
sg63
(lp1804
g56
(g57
g58
NtRp1805
(dp1806
g61
(dp1807
g69
I4
ssg70
g1801
sg63
(lp1808
S''
asbasbasbag56
(g72
g58
NtRp1809
(dp1810
g61
(dp1811
sg70
g1191
sg63
(lp1812
g56
(g77
g58
NtRp1813
(dp1814
g61
(dp1815
g81
g82
ssg70
g1809
sg63
(lp1816
S'server_name'
p1817
asbag56
(g77
g58
NtRp1818
(dp1819
g61
(dp1820
g88
g89
ssg70
g1809
sg63
(lp1821
S':'
asbag56
(g77
g58
NtRp1822
(dp1823
g61
(dp1824
sg70
g1809
sg63
(lp1825
g56
(g57
g58
NtRp1826
(dp1827
g61
(dp1828
g69
I4
ssg70
g1822
sg63
(lp1829
S'localhost.localdomain'
p1830
asbasbasbag56
(g72
g58
NtRp1831
(dp1832
g61
(dp1833
sg70
g1191
sg63
(lp1834
g56
(g77
g58
NtRp1835
(dp1836
g61
(dp1837
g81
g82
ssg70
g1831
sg63
(lp1838
S'server_port'
p1839
asbag56
(g77
g58
NtRp1840
(dp1841
g61
(dp1842
g88
g89
ssg70
g1831
sg63
(lp1843
S':'
asbag56
(g77
g58
NtRp1844
(dp1845
g61
(dp1846
sg70
g1831
sg63
(lp1847
g56
(g57
g58
NtRp1848
(dp1849
g61
(dp1850
g69
I4
ssg70
g1844
sg63
(lp1851
S'8000'
p1852
asbasbasbag56
(g72
g58
NtRp1853
(dp1854
g61
(dp1855
sg70
g1191
sg63
(lp1856
g56
(g77
g58
NtRp1857
(dp1858
g61
(dp1859
g81
g82
ssg70
g1853
sg63
(lp1860
S'server_protocol'
p1861
asbag56
(g77
g58
NtRp1862
(dp1863
g61
(dp1864
g88
g89
ssg70
g1853
sg63
(lp1865
S':'
asbag56
(g77
g58
NtRp1866
(dp1867
g61
(dp1868
sg70
g1853
sg63
(lp1869
g56
(g57
g58
NtRp1870
(dp1871
g61
(dp1872
g69
I4
ssg70
g1866
sg63
(lp1873
S'HTTP/1.1'
p1874
asbasbasbag56
(g72
g58
NtRp1875
(dp1876
g61
(dp1877
sg70
g1191
sg63
(lp1878
g56
(g77
g58
NtRp1879
(dp1880
g61
(dp1881
g81
g82
ssg70
g1875
sg63
(lp1882
S'server_software'
p1883
asbag56
(g77
g58
NtRp1884
(dp1885
g61
(dp1886
g88
g89
ssg70
g1875
sg63
(lp1887
S':'
asbag56
(g77
g58
NtRp1888
(dp1889
g61
(dp1890
sg70
g1875
sg63
(lp1891
g56
(g57
g58
NtRp1892
(dp1893
g61
(dp1894
g69
I4
ssg70
g1888
sg63
(lp1895
S'Rocket 1.2.4'
p1896
asbasbasbag56
(g72
g58
NtRp1897
(dp1898
g61
(dp1899
sg70
g1191
sg63
(lp1900
g56
(g77
g58
NtRp1901
(dp1902
g61
(dp1903
g81
g82
ssg70
g1897
sg63
(lp1904
S'web2py_crontype'
p1905
asbag56
(g77
g58
NtRp1906
(dp1907
g61
(dp1908
g88
g89
ssg70
g1897
sg63
(lp1909
S':'
asbag56
(g77
g58
NtRp1910
(dp1911
g61
(dp1912
sg70
g1897
sg63
(lp1913
g56
(g57
g58
NtRp1914
(dp1915
g61
(dp1916
g69
I4
ssg70
g1910
sg63
(lp1917
S'hard'
p1918
asbasbasbag56
(g72
g58
NtRp1919
(dp1920
g61
(dp1921
sg70
g1191
sg63
(lp1922
g56
(g77
g58
NtRp1923
(dp1924
g61
(dp1925
g81
g82
ssg70
g1919
sg63
(lp1926
S'web2py_path'
p1927
asbag56
(g77
g58
NtRp1928
(dp1929
g61
(dp1930
g88
g89
ssg70
g1919
sg63
(lp1931
S':'
asbag56
(g77
g58
NtRp1932
(dp1933
g61
(dp1934
sg70
g1919
sg63
(lp1935
g56
(g57
g58
NtRp1936
(dp1937
g61
(dp1938
g69
I4
ssg70
g1932
sg63
(lp1939
g1238
asbasbasbag56
(g72
g58
NtRp1940
(dp1941
g61
(dp1942
sg70
g1191
sg63
(lp1943
g56
(g77
g58
NtRp1944
(dp1945
g61
(dp1946
g81
g82
ssg70
g1940
sg63
(lp1947
S'web2py_version'
p1948
asbag56
(g77
g58
NtRp1949
(dp1950
g61
(dp1951
g88
g89
ssg70
g1940
sg63
(lp1952
S':'
asbag56
(g77
g58
NtRp1953
(dp1954
g61
(dp1955
sg70
g1940
sg63
(lp1956
g56
(g57
g58
NtRp1957
(dp1958
g61
(dp1959
g69
I4
ssg70
g1953
sg63
(lp1960
g56
(g65
g58
NtRp1961
(dp1962
g61
(dp1963
g69
I3
ssg70
Nsg63
(lp1964
g56
(g72
g58
NtRp1965
(dp1966
g61
(dp1967
sg70
g1961
sg63
(lp1968
g56
(g77
g58
NtRp1969
(dp1970
g61
(dp1971
sg70
g1965
sg63
(lp1972
g56
(g57
g58
NtRp1973
(dp1974
g61
(dp1975
g69
I3
ssg70
g1969
sg63
(lp1976
S'1'
asbasbasbag56
(g72
g58
NtRp1977
(dp1978
g61
(dp1979
sg70
g1961
sg63
(lp1980
g56
(g77
g58
NtRp1981
(dp1982
g61
(dp1983
sg70
g1977
sg63
(lp1984
g56
(g57
g58
NtRp1985
(dp1986
g61
(dp1987
g69
I3
ssg70
g1981
sg63
(lp1988
S'99'
p1989
asbasbasbag56
(g72
g58
NtRp1990
(dp1991
g61
(dp1992
sg70
g1961
sg63
(lp1993
g56
(g77
g58
NtRp1994
(dp1995
g61
(dp1996
sg70
g1990
sg63
(lp1997
g56
(g57
g58
NtRp1998
(dp1999
g61
(dp2000
g69
I3
ssg70
g1994
sg63
(lp2001
S'2'
asbasbasbag56
(g72
g58
NtRp2002
(dp2003
g61
(dp2004
sg70
g1961
sg63
(lp2005
g56
(g77
g58
NtRp2006
(dp2007
g61
(dp2008
sg70
g2002
sg63
(lp2009
g56
(g57
g58
NtRp2010
(dp2011
g61
(dp2012
g69
I3
ssg70
g2006
sg63
(lp2013
S'datetime.datetime(2011, 9, 26, 6, 55, 33)'
p2014
asbasbasbag56
(g72
g58
NtRp2015
(dp2016
g61
(dp2017
sg70
g1961
sg63
(lp2018
g56
(g77
g58
NtRp2019
(dp2020
g61
(dp2021
sg70
g2015
sg63
(lp2022
g56
(g57
g58
NtRp2023
(dp2024
g61
(dp2025
g69
I3
ssg70
g2019
sg63
(lp2026
S'stable'
p2027
asbasbasbasbasbasbasbag56
(g72
g58
NtRp2028
(dp2029
g61
(dp2030
sg70
g1191
sg63
(lp2031
g56
(g77
g58
NtRp2032
(dp2033
g61
(dp2034
g81
g82
ssg70
g2028
sg63
(lp2035
S'wsgi_errors'
p2036
asbag56
(g77
g58
NtRp2037
(dp2038
g61
(dp2039
g88
g89
ssg70
g2028
sg63
(lp2040
S':'
asbag56
(g77
g58
NtRp2041
(dp2042
g61
(dp2043
sg70
g2028
sg63
(lp2044
g56
(g57
g58
NtRp2045
(dp2046
g61
(dp2047
g69
I4
ssg70
g2041
sg63
(lp2048
S"<open file '<stderr>', mode 'w' at 0xb74340d0>"
p2049
asbasbasbag56
(g72
g58
NtRp2050
(dp2051
g61
(dp2052
sg70
g1191
sg63
(lp2053
g56
(g77
g58
NtRp2054
(dp2055
g61
(dp2056
g81
g82
ssg70
g2050
sg63
(lp2057
S'wsgi_file_wrapper'
p2058
asbag56
(g77
g58
NtRp2059
(dp2060
g61
(dp2061
g88
g89
ssg70
g2050
sg63
(lp2062
S':'
asbag56
(g77
g58
NtRp2063
(dp2064
g61
(dp2065
sg70
g2050
sg63
(lp2066
g56
(g57
g58
NtRp2067
(dp2068
g61
(dp2069
g69
I4
ssg70
g2063
sg63
(lp2070
S'<class wsgiref.util.FileWrapper at 0xa57350c>'
p2071
asbasbasbag56
(g72
g58
NtRp2072
(dp2073
g61
(dp2074
sg70
g1191
sg63
(lp2075
g56
(g77
g58
NtRp2076
(dp2077
g61
(dp2078
g81
g82
ssg70
g2072
sg63
(lp2079
S'wsgi_input'
p2080
asbag56
(g77
g58
NtRp2081
(dp2082
g61
(dp2083
g88
g89
ssg70
g2072
sg63
(lp2084
S':'
asbag56
(g77
g58
NtRp2085
(dp2086
g61
(dp2087
sg70
g2072
sg63
(lp2088
g56
(g57
g58
NtRp2089
(dp2090
g61
(dp2091
g69
I4
ssg70
g2085
sg63
(lp2092
S'<socket._fileobject object at 0xa8fbaac>'
p2093
asbasbasbag56
(g72
g58
NtRp2094
(dp2095
g61
(dp2096
sg70
g1191
sg63
(lp2097
g56
(g77
g58
NtRp2098
(dp2099
g61
(dp2100
g81
g82
ssg70
g2094
sg63
(lp2101
S'wsgi_multiprocess'
p2102
asbag56
(g77
g58
NtRp2103
(dp2104
g61
(dp2105
g88
g89
ssg70
g2094
sg63
(lp2106
S':'
asbag56
(g77
g58
NtRp2107
(dp2108
g61
(dp2109
sg70
g2094
sg63
(lp2110
g56
(g57
g58
NtRp2111
(dp2112
g61
(dp2113
g69
I4
ssg70
g2107
sg63
(lp2114
g1351
asbasbasbag56
(g72
g58
NtRp2115
(dp2116
g61
(dp2117
sg70
g1191
sg63
(lp2118
g56
(g77
g58
NtRp2119
(dp2120
g61
(dp2121
g81
g82
ssg70
g2115
sg63
(lp2122
S'wsgi_multithread'
p2123
asbag56
(g77
g58
NtRp2124
(dp2125
g61
(dp2126
g88
g89
ssg70
g2115
sg63
(lp2127
S':'
asbag56
(g77
g58
NtRp2128
(dp2129
g61
(dp2130
sg70
g2115
sg63
(lp2131
g56
(g57
g58
NtRp2132
(dp2133
g61
(dp2134
g69
I4
ssg70
g2128
sg63
(lp2135
g99
asbasbasbag56
(g72
g58
NtRp2136
(dp2137
g61
(dp2138
sg70
g1191
sg63
(lp2139
g56
(g77
g58
NtRp2140
(dp2141
g61
(dp2142
g81
g82
ssg70
g2136
sg63
(lp2143
S'wsgi_run_once'
p2144
asbag56
(g77
g58
NtRp2145
(dp2146
g61
(dp2147
g88
g89
ssg70
g2136
sg63
(lp2148
S':'
asbag56
(g77
g58
NtRp2149
(dp2150
g61
(dp2151
sg70
g2136
sg63
(lp2152
g56
(g57
g58
NtRp2153
(dp2154
g61
(dp2155
g69
I4
ssg70
g2149
sg63
(lp2156
g1351
asbasbasbag56
(g72
g58
NtRp2157
(dp2158
g61
(dp2159
sg70
g1191
sg63
(lp2160
g56
(g77
g58
NtRp2161
(dp2162
g61
(dp2163
g81
g82
ssg70
g2157
sg63
(lp2164
S'wsgi_url_scheme'
p2165
asbag56
(g77
g58
NtRp2166
(dp2167
g61
(dp2168
g88
g89
ssg70
g2157
sg63
(lp2169
S':'
asbag56
(g77
g58
NtRp2170
(dp2171
g61
(dp2172
sg70
g2157
sg63
(lp2173
g56
(g57
g58
NtRp2174
(dp2175
g61
(dp2176
g69
I4
ssg70
g2170
sg63
(lp2177
S'http'
p2178
asbasbasbag56
(g72
g58
NtRp2179
(dp2180
g61
(dp2181
sg70
g1191
sg63
(lp2182
g56
(g77
g58
NtRp2183
(dp2184
g61
(dp2185
g81
g82
ssg70
g2179
sg63
(lp2186
S'wsgi_version'
p2187
asbag56
(g77
g58
NtRp2188
(dp2189
g61
(dp2190
g88
g89
ssg70
g2179
sg63
(lp2191
S':'
asbag56
(g77
g58
NtRp2192
(dp2193
g61
(dp2194
sg70
g2179
sg63
(lp2195
g56
(g57
g58
NtRp2196
(dp2197
g61
(dp2198
g69
I4
ssg70
g2192
sg63
(lp2199
g56
(g65
g58
NtRp2200
(dp2201
g61
(dp2202
g69
I3
ssg70
Nsg63
(lp2203
g56
(g72
g58
NtRp2204
(dp2205
g61
(dp2206
sg70
g2200
sg63
(lp2207
g56
(g77
g58
NtRp2208
(dp2209
g61
(dp2210
sg70
g2204
sg63
(lp2211
g56
(g57
g58
NtRp2212
(dp2213
g61
(dp2214
g69
I3
ssg70
g2208
sg63
(lp2215
S'1'
asbasbasbag56
(g72
g58
NtRp2216
(dp2217
g61
(dp2218
sg70
g2200
sg63
(lp2219
g56
(g77
g58
NtRp2220
(dp2221
g61
(dp2222
sg70
g2216
sg63
(lp2223
g56
(g57
g58
NtRp2224
(dp2225
g61
(dp2226
g69
I3
ssg70
g2220
sg63
(lp2227
S'0'
asbasbasbasbasbasbasbasbasbasbasbag56
(g72
g58
NtRp2228
(dp2229
g61
(dp2230
sg70
g66
sg63
(lp2231
g56
(g77
g58
NtRp2232
(dp2233
g61
(dp2234
g81
g82
ssg70
g2228
sg63
(lp2235
S'extension'
p2236
asbag56
(g77
g58
NtRp2237
(dp2238
g61
(dp2239
g88
g89
ssg70
g2228
sg63
(lp2240
S':'
asbag56
(g77
g58
NtRp2241
(dp2242
g61
(dp2243
sg70
g2228
sg63
(lp2244
g56
(g57
g58
NtRp2245
(dp2246
g61
(dp2247
g69
I5
ssg70
g2241
sg63
(lp2248
S'json'
p2249
asbasbasbag56
(g72
g58
NtRp2250
(dp2251
g61
(dp2252
sg70
g66
sg63
(lp2253
g56
(g77
g58
NtRp2254
(dp2255
g61
(dp2256
g81
g82
ssg70
g2250
sg63
(lp2257
S'folder'
p2258
asbag56
(g77
g58
NtRp2259
(dp2260
g61
(dp2261
g88
g89
ssg70
g2250
sg63
(lp2262
S':'
asbag56
(g77
g58
NtRp2263
(dp2264
g61
(dp2265
sg70
g2250
sg63
(lp2266
g56
(g57
g58
NtRp2267
(dp2268
g61
(dp2269
g69
I5
ssg70
g2263
sg63
(lp2270
S'/home/brencam/web2py/applications/gallery/'
p2271
asbasbasbag56
(g72
g58
NtRp2272
(dp2273
g61
(dp2274
sg70
g66
sg63
(lp2275
g56
(g77
g58
NtRp2276
(dp2277
g61
(dp2278
g81
g82
ssg70
g2272
sg63
(lp2279
S'function'
p2280
asbag56
(g77
g58
NtRp2281
(dp2282
g61
(dp2283
g88
g89
ssg70
g2272
sg63
(lp2284
S':'
asbag56
(g77
g58
NtRp2285
(dp2286
g61
(dp2287
sg70
g2272
sg63
(lp2288
g56
(g57
g58
NtRp2289
(dp2290
g61
(dp2291
g69
I5
ssg70
g2285
sg63
(lp2292
S'xmlgettags'
p2293
asbasbasbag56
(g72
g58
NtRp2294
(dp2295
g61
(dp2296
sg70
g66
sg63
(lp2297
g56
(g77
g58
NtRp2298
(dp2299
g61
(dp2300
g81
g82
ssg70
g2294
sg63
(lp2301
S'get_vars'
p2302
asbag56
(g77
g58
NtRp2303
(dp2304
g61
(dp2305
g88
g89
ssg70
g2294
sg63
(lp2306
S':'
asbag56
(g77
g58
NtRp2307
(dp2308
g61
(dp2309
sg70
g2294
sg63
(lp2310
g56
(g57
g58
NtRp2311
(dp2312
g61
(dp2313
g69
I5
ssg70
g2307
sg63
(lp2314
g56
(g65
g58
NtRp2315
(dp2316
g61
(dp2317
g69
I4
ssg70
Nsg63
(lp2318
sbasbasbasbag56
(g72
g58
NtRp2319
(dp2320
g61
(dp2321
sg70
g66
sg63
(lp2322
g56
(g77
g58
NtRp2323
(dp2324
g61
(dp2325
g81
g82
ssg70
g2319
sg63
(lp2326
S'global_settings'
p2327
asbag56
(g77
g58
NtRp2328
(dp2329
g61
(dp2330
g88
g89
ssg70
g2319
sg63
(lp2331
S':'
asbag56
(g77
g58
NtRp2332
(dp2333
g61
(dp2334
sg70
g2319
sg63
(lp2335
g56
(g57
g58
NtRp2336
(dp2337
g61
(dp2338
g69
I5
ssg70
g2332
sg63
(lp2339
g56
(g65
g58
NtRp2340
(dp2341
g61
(dp2342
g69
I4
ssg70
Nsg63
(lp2343
g56
(g72
g58
NtRp2344
(dp2345
g61
(dp2346
sg70
g2340
sg63
(lp2347
g56
(g77
g58
NtRp2348
(dp2349
g61
(dp2350
g81
g82
ssg70
g2344
sg63
(lp2351
g1203
asbag56
(g77
g58
NtRp2352
(dp2353
g61
(dp2354
g88
g89
ssg70
g2344
sg63
(lp2355
S':'
asbag56
(g77
g58
NtRp2356
(dp2357
g61
(dp2358
sg70
g2344
sg63
(lp2359
g56
(g57
g58
NtRp2360
(dp2361
g61
(dp2362
g69
I4
ssg70
g2356
sg63
(lp2363
S"set(['/home/brencam/web2py/applications/admin/', '/home/brencam/web2py/applications/gallery/'])"
p2364
asbasbasbag56
(g72
g58
NtRp2365
(dp2366
g61
(dp2367
sg70
g2340
sg63
(lp2368
g56
(g77
g58
NtRp2369
(dp2370
g61
(dp2371
g81
g82
ssg70
g2365
sg63
(lp2372
g1225
asbag56
(g77
g58
NtRp2373
(dp2374
g61
(dp2375
g88
g89
ssg70
g2365
sg63
(lp2376
S':'
asbag56
(g77
g58
NtRp2377
(dp2378
g61
(dp2379
sg70
g2365
sg63
(lp2380
g56
(g57
g58
NtRp2381
(dp2382
g61
(dp2383
g69
I4
ssg70
g2377
sg63
(lp2384
g1238
asbasbasbag56
(g72
g58
NtRp2385
(dp2386
g61
(dp2387
sg70
g2340
sg63
(lp2388
g56
(g77
g58
NtRp2389
(dp2390
g61
(dp2391
g81
g82
ssg70
g2385
sg63
(lp2392
g1247
asbag56
(g77
g58
NtRp2393
(dp2394
g61
(dp2395
g88
g89
ssg70
g2385
sg63
(lp2396
S':'
asbag56
(g77
g58
NtRp2397
(dp2398
g61
(dp2399
sg70
g2385
sg63
(lp2400
g56
(g57
g58
NtRp2401
(dp2402
g61
(dp2403
g69
I4
ssg70
g2397
sg63
(lp2404
g56
(g65
g58
NtRp2405
(dp2406
g61
(dp2407
g69
I3
ssg70
Nsg63
(lp2408
sbasbasbasbag56
(g72
g58
NtRp2409
(dp2410
g61
(dp2411
sg70
g2340
sg63
(lp2412
g56
(g77
g58
NtRp2413
(dp2414
g61
(dp2415
g81
g82
ssg70
g2409
sg63
(lp2416
g1272
asbag56
(g77
g58
NtRp2417
(dp2418
g61
(dp2419
g88
g89
ssg70
g2409
sg63
(lp2420
S':'
asbag56
(g77
g58
NtRp2421
(dp2422
g61
(dp2423
sg70
g2409
sg63
(lp2424
g56
(g57
g58
NtRp2425
(dp2426
g61
(dp2427
g69
I4
ssg70
g2421
sg63
(lp2428
S"<Values at 0xa97628c: {'verbose': False, 'ip': '127.0.0.1', 'shutdown_timeout': 5, 'taskbar': False, 'nocron': False, 'pid_filename': 'httpserver.pid', 'maxthreads': None, 'softcron': False, 'server_name': 'localhost.localdomain', 'bpython': False, 'nogui': True, 'port': 8000, 'extcron': False, 'debuglevel': 30, 'test': None, 'folder': '/home/brencam/web2py', 'config': '', 'import_models': False, 'winservice': '', 'shell': None, 'run': '', 'log_filename': 'httpserver.log', 'args': [''], 'ssl_ca_certificate': None, 'scheduler': None, 'profiler_filename': None, 'ssl_private_key': '', 'password': 'admin', 'request_queue_size': 5, 'ssl_certificate': '', 'cronjob': False, 'plain': False, 'quiet': False, 'interfaces': None, 'minthreads': None, 'timeout': 10, 'numthreads': None, 'nobanner': False}>"
p2429
asbasbasbag56
(g72
g58
NtRp2430
(dp2431
g61
(dp2432
sg70
g2340
sg63
(lp2433
g56
(g77
g58
NtRp2434
(dp2435
g61
(dp2436
g81
g82
ssg70
g2430
sg63
(lp2437
g1316
asbag56
(g77
g58
NtRp2438
(dp2439
g61
(dp2440
g88
g89
ssg70
g2430
sg63
(lp2441
S':'
asbag56
(g77
g58
NtRp2442
(dp2443
g61
(dp2444
sg70
g2430
sg63
(lp2445
g56
(g57
g58
NtRp2446
(dp2447
g61
(dp2448
g69
I4
ssg70
g2442
sg63
(lp2449
S'set([])'
p2450
asbasbasbag56
(g72
g58
NtRp2451
(dp2452
g61
(dp2453
sg70
g2340
sg63
(lp2454
g56
(g77
g58
NtRp2455
(dp2456
g61
(dp2457
g81
g82
ssg70
g2451
sg63
(lp2458
g1338
asbag56
(g77
g58
NtRp2459
(dp2460
g61
(dp2461
g88
g89
ssg70
g2451
sg63
(lp2462
S':'
asbag56
(g77
g58
NtRp2463
(dp2464
g61
(dp2465
sg70
g2451
sg63
(lp2466
g56
(g57
g58
NtRp2467
(dp2468
g61
(dp2469
g69
I4
ssg70
g2463
sg63
(lp2470
g1351
asbasbasbag56
(g72
g58
NtRp2471
(dp2472
g61
(dp2473
sg70
g2340
sg63
(lp2474
g56
(g77
g58
NtRp2475
(dp2476
g61
(dp2477
g81
g82
ssg70
g2471
sg63
(lp2478
g1360
asbag56
(g77
g58
NtRp2479
(dp2480
g61
(dp2481
g88
g89
ssg70
g2471
sg63
(lp2482
S':'
asbag56
(g77
g58
NtRp2483
(dp2484
g61
(dp2485
sg70
g2471
sg63
(lp2486
g56
(g57
g58
NtRp2487
(dp2488
g61
(dp2489
g69
I4
ssg70
g2483
sg63
(lp2490
g1373
asbasbasbag56
(g72
g58
NtRp2491
(dp2492
g61
(dp2493
sg70
g2340
sg63
(lp2494
g56
(g77
g58
NtRp2495
(dp2496
g61
(dp2497
g81
g82
ssg70
g2491
sg63
(lp2498
g1667
asbag56
(g77
g58
NtRp2499
(dp2500
g61
(dp2501
g88
g89
ssg70
g2491
sg63
(lp2502
S':'
asbag56
(g77
g58
NtRp2503
(dp2504
g61
(dp2505
sg70
g2491
sg63
(lp2506
g56
(g57
g58
NtRp2507
(dp2508
g61
(dp2509
g69
I4
ssg70
g2503
sg63
(lp2510
g1351
asbasbasbag56
(g72
g58
NtRp2511
(dp2512
g61
(dp2513
sg70
g2340
sg63
(lp2514
g56
(g77
g58
NtRp2515
(dp2516
g61
(dp2517
g81
g82
ssg70
g2511
sg63
(lp2518
g1905
asbag56
(g77
g58
NtRp2519
(dp2520
g61
(dp2521
g88
g89
ssg70
g2511
sg63
(lp2522
S':'
asbag56
(g77
g58
NtRp2523
(dp2524
g61
(dp2525
sg70
g2511
sg63
(lp2526
g56
(g57
g58
NtRp2527
(dp2528
g61
(dp2529
g69
I4
ssg70
g2523
sg63
(lp2530
g1918
asbasbasbag56
(g72
g58
NtRp2531
(dp2532
g61
(dp2533
sg70
g2340
sg63
(lp2534
g56
(g77
g58
NtRp2535
(dp2536
g61
(dp2537
g81
g82
ssg70
g2531
sg63
(lp2538
g1948
asbag56
(g77
g58
NtRp2539
(dp2540
g61
(dp2541
g88
g89
ssg70
g2531
sg63
(lp2542
S':'
asbag56
(g77
g58
NtRp2543
(dp2544
g61
(dp2545
sg70
g2531
sg63
(lp2546
g56
(g57
g58
NtRp2547
(dp2548
g61
(dp2549
g69
I4
ssg70
g2543
sg63
(lp2550
g56
(g65
g58
NtRp2551
(dp2552
g61
(dp2553
g69
I3
ssg70
Nsg63
(lp2554
g56
(g72
g58
NtRp2555
(dp2556
g61
(dp2557
sg70
g2551
sg63
(lp2558
g56
(g77
g58
NtRp2559
(dp2560
g61
(dp2561
sg70
g2555
sg63
(lp2562
g56
(g57
g58
NtRp2563
(dp2564
g61
(dp2565
g69
I3
ssg70
g2559
sg63
(lp2566
S'1'
asbasbasbag56
(g72
g58
NtRp2567
(dp2568
g61
(dp2569
sg70
g2551
sg63
(lp2570
g56
(g77
g58
NtRp2571
(dp2572
g61
(dp2573
sg70
g2567
sg63
(lp2574
g56
(g57
g58
NtRp2575
(dp2576
g61
(dp2577
g69
I3
ssg70
g2571
sg63
(lp2578
S'99'
p2579
asbasbasbag56
(g72
g58
NtRp2580
(dp2581
g61
(dp2582
sg70
g2551
sg63
(lp2583
g56
(g77
g58
NtRp2584
(dp2585
g61
(dp2586
sg70
g2580
sg63
(lp2587
g56
(g57
g58
NtRp2588
(dp2589
g61
(dp2590
g69
I3
ssg70
g2584
sg63
(lp2591
S'2'
asbasbasbag56
(g72
g58
NtRp2592
(dp2593
g61
(dp2594
sg70
g2551
sg63
(lp2595
g56
(g77
g58
NtRp2596
(dp2597
g61
(dp2598
sg70
g2592
sg63
(lp2599
g56
(g57
g58
NtRp2600
(dp2601
g61
(dp2602
g69
I3
ssg70
g2596
sg63
(lp2603
S'datetime.datetime(2011, 9, 26, 6, 55, 33)'
p2604
asbasbasbag56
(g72
g58
NtRp2605
(dp2606
g61
(dp2607
sg70
g2551
sg63
(lp2608
g56
(g77
g58
NtRp2609
(dp2610
g61
(dp2611
sg70
g2605
sg63
(lp2612
g56
(g57
g58
NtRp2613
(dp2614
g61
(dp2615
g69
I3
ssg70
g2609
sg63
(lp2616
g2027
asbasbasbasbasbasbasbasbasbasbasbag56
(g72
g58
NtRp2617
(dp2618
g61
(dp2619
sg70
g66
sg63
(lp2620
g56
(g77
g58
NtRp2621
(dp2622
g61
(dp2623
g81
g82
ssg70
g2617
sg63
(lp2624
S'is_https'
p2625
asbag56
(g77
g58
NtRp2626
(dp2627
g61
(dp2628
g88
g89
ssg70
g2617
sg63
(lp2629
S':'
asbag56
(g77
g58
NtRp2630
(dp2631
g61
(dp2632
sg70
g2617
sg63
(lp2633
g56
(g57
g58
NtRp2634
(dp2635
g61
(dp2636
g69
I5
ssg70
g2630
sg63
(lp2637
g1351
asbasbasbag56
(g72
g58
NtRp2638
(dp2639
g61
(dp2640
sg70
g66
sg63
(lp2641
g56
(g77
g58
NtRp2642
(dp2643
g61
(dp2644
g81
g82
ssg70
g2638
sg63
(lp2645
S'is_local'
p2646
asbag56
(g77
g58
NtRp2647
(dp2648
g61
(dp2649
g88
g89
ssg70
g2638
sg63
(lp2650
S':'
asbag56
(g77
g58
NtRp2651
(dp2652
g61
(dp2653
sg70
g2638
sg63
(lp2654
g56
(g57
g58
NtRp2655
(dp2656
g61
(dp2657
g69
I5
ssg70
g2651
sg63
(lp2658
g99
asbasbasbag56
(g72
g58
NtRp2659
(dp2660
g61
(dp2661
sg70
g66
sg63
(lp2662
g56
(g77
g58
NtRp2663
(dp2664
g61
(dp2665
g81
g82
ssg70
g2659
sg63
(lp2666
S'is_restful'
p2667
asbag56
(g77
g58
NtRp2668
(dp2669
g61
(dp2670
g88
g89
ssg70
g2659
sg63
(lp2671
S':'
asbag56
(g77
g58
NtRp2672
(dp2673
g61
(dp2674
sg70
g2659
sg63
(lp2675
g56
(g57
g58
NtRp2676
(dp2677
g61
(dp2678
g69
I5
ssg70
g2672
sg63
(lp2679
g1351
asbasbasbag56
(g72
g58
NtRp2680
(dp2681
g61
(dp2682
sg70
g66
sg63
(lp2683
g56
(g77
g58
NtRp2684
(dp2685
g61
(dp2686
g81
g82
ssg70
g2680
sg63
(lp2687
S'now'
p2688
asbag56
(g77
g58
NtRp2689
(dp2690
g61
(dp2691
g88
g89
ssg70
g2680
sg63
(lp2692
S':'
asbag56
(g77
g58
NtRp2693
(dp2694
g61
(dp2695
sg70
g2680
sg63
(lp2696
g56
(g57
g58
NtRp2697
(dp2698
g61
(dp2699
g69
I5
ssg70
g2693
sg63
(lp2700
S'datetime.datetime(2011, 11, 5, 12, 28, 25, 920941)'
p2701
asbasbasbag56
(g72
g58
NtRp2702
(dp2703
g61
(dp2704
sg70
g66
sg63
(lp2705
g56
(g77
g58
NtRp2706
(dp2707
g61
(dp2708
g81
g82
ssg70
g2702
sg63
(lp2709
S'post_vars'
p2710
asbag56
(g77
g58
NtRp2711
(dp2712
g61
(dp2713
g88
g89
ssg70
g2702
sg63
(lp2714
S':'
asbag56
(g77
g58
NtRp2715
(dp2716
g61
(dp2717
sg70
g2702
sg63
(lp2718
g56
(g57
g58
NtRp2719
(dp2720
g61
(dp2721
g69
I5
ssg70
g2715
sg63
(lp2722
g56
(g65
g58
NtRp2723
(dp2724
g61
(dp2725
g69
I4
ssg70
Nsg63
(lp2726
sbasbasbasbag56
(g72
g58
NtRp2727
(dp2728
g61
(dp2729
sg70
g66
sg63
(lp2730
g56
(g77
g58
NtRp2731
(dp2732
g61
(dp2733
g81
g82
ssg70
g2727
sg63
(lp2734
S'raw_extension'
p2735
asbag56
(g77
g58
NtRp2736
(dp2737
g61
(dp2738
g88
g89
ssg70
g2727
sg63
(lp2739
S':'
asbag56
(g77
g58
NtRp2740
(dp2741
g61
(dp2742
sg70
g2727
sg63
(lp2743
g56
(g57
g58
NtRp2744
(dp2745
g61
(dp2746
g69
I5
ssg70
g2740
sg63
(lp2747
g2249
asbasbasbag56
(g72
g58
NtRp2748
(dp2749
g61
(dp2750
sg70
g66
sg63
(lp2751
g56
(g77
g58
NtRp2752
(dp2753
g61
(dp2754
g81
g82
ssg70
g2748
sg63
(lp2755
S'url'
p2756
asbag56
(g77
g58
NtRp2757
(dp2758
g61
(dp2759
g88
g89
ssg70
g2748
sg63
(lp2760
S':'
asbag56
(g77
g58
NtRp2761
(dp2762
g61
(dp2763
sg70
g2748
sg63
(lp2764
g56
(g57
g58
NtRp2765
(dp2766
g61
(dp2767
g69
I5
ssg70
g2761
sg63
(lp2768
S'/gallery/search/xmlgettags.json'
p2769
asbasbasbag56
(g72
g58
NtRp2770
(dp2771
g61
(dp2772
sg70
g66
sg63
(lp2773
g56
(g77
g58
NtRp2774
(dp2775
g61
(dp2776
g81
g82
ssg70
g2770
sg63
(lp2777
S'utcnow'
p2778
asbag56
(g77
g58
NtRp2779
(dp2780
g61
(dp2781
g88
g89
ssg70
g2770
sg63
(lp2782
S':'
asbag56
(g77
g58
NtRp2783
(dp2784
g61
(dp2785
sg70
g2770
sg63
(lp2786
g56
(g57
g58
NtRp2787
(dp2788
g61
(dp2789
g69
I5
ssg70
g2783
sg63
(lp2790
S'datetime.datetime(2011, 11, 5, 19, 28, 25, 920968)'
p2791
asbasbasbag56
(g72
g58
NtRp2792
(dp2793
g61
(dp2794
sg70
g66
sg63
(lp2795
g56
(g77
g58
NtRp2796
(dp2797
g61
(dp2798
g81
g82
ssg70
g2792
sg63
(lp2799
S'uuid'
p2800
asbag56
(g77
g58
NtRp2801
(dp2802
g61
(dp2803
g88
g89
ssg70
g2792
sg63
(lp2804
S':'
asbag56
(g77
g58
NtRp2805
(dp2806
g61
(dp2807
sg70
g2792
sg63
(lp2808
g56
(g57
g58
NtRp2809
(dp2810
g61
(dp2811
g69
I5
ssg70
g2805
sg63
(lp2812
S'gallery/127.0.0.1.2011-11-05.12-28-25.44c93452-fa94-40e7-a582-c4dd4911b2b3'
p2813
asbasbasbag56
(g72
g58
NtRp2814
(dp2815
g61
(dp2816
sg70
g66
sg63
(lp2817
g56
(g77
g58
NtRp2818
(dp2819
g61
(dp2820
g81
g82
ssg70
g2814
sg63
(lp2821
S'vars'
p2822
asbag56
(g77
g58
NtRp2823
(dp2824
g61
(dp2825
g88
g89
ssg70
g2814
sg63
(lp2826
S':'
asbag56
(g77
g58
NtRp2827
(dp2828
g61
(dp2829
sg70
g2814
sg63
(lp2830
g56
(g57
g58
NtRp2831
(dp2832
g61
(dp2833
g69
I5
ssg70
g2827
sg63
(lp2834
g56
(g65
g58
NtRp2835
(dp2836
g61
(dp2837
g69
I4
ssg70
Nsg63
(lp2838
sbasbasbasbag56
(g72
g58
NtRp2839
(dp2840
g61
(dp2841
sg70
g66
sg63
(lp2842
g56
(g77
g58
NtRp2843
(dp2844
g61
(dp2845
g81
g82
ssg70
g2839
sg63
(lp2846
S'wsgi'
p2847
asbag56
(g77
g58
NtRp2848
(dp2849
g61
(dp2850
g88
g89
ssg70
g2839
sg63
(lp2851
S':'
asbag56
(g77
g58
NtRp2852
(dp2853
g61
(dp2854
sg70
g2839
sg63
(lp2855
g56
(g57
g58
NtRp2856
(dp2857
g61
(dp2858
g69
I5
ssg70
g2852
sg63
(lp2859
g56
(g65
g58
NtRp2860
(dp2861
g61
(dp2862
g69
I4
ssg70
Nsg63
(lp2863
g56
(g72
g58
NtRp2864
(dp2865
g61
(dp2866
sg70
g2860
sg63
(lp2867
g56
(g77
g58
NtRp2868
(dp2869
g61
(dp2870
g81
g82
ssg70
g2864
sg63
(lp2871
S'environ'
p2872
asbag56
(g77
g58
NtRp2873
(dp2874
g61
(dp2875
g88
g89
ssg70
g2864
sg63
(lp2876
S':'
asbag56
(g77
g58
NtRp2877
(dp2878
g61
(dp2879
sg70
g2864
sg63
(lp2880
g56
(g57
g58
NtRp2881
(dp2882
g61
(dp2883
g69
I4
ssg70
g2877
sg63
(lp2884
g56
(g65
g58
NtRp2885
(dp2886
g61
(dp2887
g69
I3
ssg70
Nsg63
(lp2888
g56
(g72
g58
NtRp2889
(dp2890
g61
(dp2891
sg70
g2885
sg63
(lp2892
g56
(g77
g58
NtRp2893
(dp2894
g61
(dp2895
g81
g82
ssg70
g2889
sg63
(lp2896
S'CONTENT_TYPE'
p2897
asbag56
(g77
g58
NtRp2898
(dp2899
g61
(dp2900
g88
g89
ssg70
g2889
sg63
(lp2901
S':'
asbag56
(g77
g58
NtRp2902
(dp2903
g61
(dp2904
sg70
g2889
sg63
(lp2905
g56
(g57
g58
NtRp2906
(dp2907
g61
(dp2908
g69
I3
ssg70
g2902
sg63
(lp2909
g1307
asbasbasbag56
(g72
g58
NtRp2910
(dp2911
g61
(dp2912
sg70
g2885
sg63
(lp2913
g56
(g77
g58
NtRp2914
(dp2915
g61
(dp2916
g81
g82
ssg70
g2910
sg63
(lp2917
S'HTTP_ACCEPT'
p2918
asbag56
(g77
g58
NtRp2919
(dp2920
g61
(dp2921
g88
g89
ssg70
g2910
sg63
(lp2922
S':'
asbag56
(g77
g58
NtRp2923
(dp2924
g61
(dp2925
sg70
g2910
sg63
(lp2926
g56
(g57
g58
NtRp2927
(dp2928
g61
(dp2929
g69
I3
ssg70
g2923
sg63
(lp2930
g1395
asbasbasbag56
(g72
g58
NtRp2931
(dp2932
g61
(dp2933
sg70
g2885
sg63
(lp2934
g56
(g77
g58
NtRp2935
(dp2936
g61
(dp2937
g81
g82
ssg70
g2931
sg63
(lp2938
S'HTTP_ACCEPT_CHARSET'
p2939
asbag56
(g77
g58
NtRp2940
(dp2941
g61
(dp2942
g88
g89
ssg70
g2931
sg63
(lp2943
S':'
asbag56
(g77
g58
NtRp2944
(dp2945
g61
(dp2946
sg70
g2931
sg63
(lp2947
g56
(g57
g58
NtRp2948
(dp2949
g61
(dp2950
g69
I3
ssg70
g2944
sg63
(lp2951
g1417
asbasbasbag56
(g72
g58
NtRp2952
(dp2953
g61
(dp2954
sg70
g2885
sg63
(lp2955
g56
(g77
g58
NtRp2956
(dp2957
g61
(dp2958
g81
g82
ssg70
g2952
sg63
(lp2959
S'HTTP_ACCEPT_ENCODING'
p2960
asbag56
(g77
g58
NtRp2961
(dp2962
g61
(dp2963
g88
g89
ssg70
g2952
sg63
(lp2964
S':'
asbag56
(g77
g58
NtRp2965
(dp2966
g61
(dp2967
sg70
g2952
sg63
(lp2968
g56
(g57
g58
NtRp2969
(dp2970
g61
(dp2971
g69
I3
ssg70
g2965
sg63
(lp2972
g1439
asbasbasbag56
(g72
g58
NtRp2973
(dp2974
g61
(dp2975
sg70
g2885
sg63
(lp2976
g56
(g77
g58
NtRp2977
(dp2978
g61
(dp2979
g81
g82
ssg70
g2973
sg63
(lp2980
S'HTTP_ACCEPT_LANGUAGE'
p2981
asbag56
(g77
g58
NtRp2982
(dp2983
g61
(dp2984
g88
g89
ssg70
g2973
sg63
(lp2985
S':'
asbag56
(g77
g58
NtRp2986
(dp2987
g61
(dp2988
sg70
g2973
sg63
(lp2989
g56
(g57
g58
NtRp2990
(dp2991
g61
(dp2992
g69
I3
ssg70
g2986
sg63
(lp2993
g1461
asbasbasbag56
(g72
g58
NtRp2994
(dp2995
g61
(dp2996
sg70
g2885
sg63
(lp2997
g56
(g77
g58
NtRp2998
(dp2999
g61
(dp3000
g81
g82
ssg70
g2994
sg63
(lp3001
S'HTTP_CACHE_CONTROL'
p3002
asbag56
(g77
g58
NtRp3003
(dp3004
g61
(dp3005
g88
g89
ssg70
g2994
sg63
(lp3006
S':'
asbag56
(g77
g58
NtRp3007
(dp3008
g61
(dp3009
sg70
g2994
sg63
(lp3010
g56
(g57
g58
NtRp3011
(dp3012
g61
(dp3013
g69
I3
ssg70
g3007
sg63
(lp3014
g1483
asbasbasbag56
(g72
g58
NtRp3015
(dp3016
g61
(dp3017
sg70
g2885
sg63
(lp3018
g56
(g77
g58
NtRp3019
(dp3020
g61
(dp3021
g81
g82
ssg70
g3015
sg63
(lp3022
S'HTTP_CONNECTION'
p3023
asbag56
(g77
g58
NtRp3024
(dp3025
g61
(dp3026
g88
g89
ssg70
g3015
sg63
(lp3027
S':'
asbag56
(g77
g58
NtRp3028
(dp3029
g61
(dp3030
sg70
g3015
sg63
(lp3031
g56
(g57
g58
NtRp3032
(dp3033
g61
(dp3034
g69
I3
ssg70
g3028
sg63
(lp3035
g1505
asbasbasbag56
(g72
g58
NtRp3036
(dp3037
g61
(dp3038
sg70
g2885
sg63
(lp3039
g56
(g77
g58
NtRp3040
(dp3041
g61
(dp3042
g81
g82
ssg70
g3036
sg63
(lp3043
S'HTTP_CONTENT_TYPE'
p3044
asbag56
(g77
g58
NtRp3045
(dp3046
g61
(dp3047
g88
g89
ssg70
g3036
sg63
(lp3048
S':'
asbag56
(g77
g58
NtRp3049
(dp3050
g61
(dp3051
sg70
g3036
sg63
(lp3052
g56
(g57
g58
NtRp3053
(dp3054
g61
(dp3055
g69
I3
ssg70
g3049
sg63
(lp3056
g1307
asbasbasbag56
(g72
g58
NtRp3057
(dp3058
g61
(dp3059
sg70
g2885
sg63
(lp3060
g56
(g77
g58
NtRp3061
(dp3062
g61
(dp3063
g81
g82
ssg70
g3057
sg63
(lp3064
S'HTTP_COOKIE'
p3065
asbag56
(g77
g58
NtRp3066
(dp3067
g61
(dp3068
g88
g89
ssg70
g3057
sg63
(lp3069
S':'
asbag56
(g77
g58
NtRp3070
(dp3071
g61
(dp3072
sg70
g3057
sg63
(lp3073
g56
(g57
g58
NtRp3074
(dp3075
g61
(dp3076
g69
I3
ssg70
g3070
sg63
(lp3077
g1548
asbasbasbag56
(g72
g58
NtRp3078
(dp3079
g61
(dp3080
sg70
g2885
sg63
(lp3081
g56
(g77
g58
NtRp3082
(dp3083
g61
(dp3084
g81
g82
ssg70
g3078
sg63
(lp3085
S'HTTP_HOST'
p3086
asbag56
(g77
g58
NtRp3087
(dp3088
g61
(dp3089
g88
g89
ssg70
g3078
sg63
(lp3090
S':'
asbag56
(g77
g58
NtRp3091
(dp3092
g61
(dp3093
sg70
g3078
sg63
(lp3094
g56
(g57
g58
NtRp3095
(dp3096
g61
(dp3097
g69
I3
ssg70
g3091
sg63
(lp3098
g1570
asbasbasbag56
(g72
g58
NtRp3099
(dp3100
g61
(dp3101
sg70
g2885
sg63
(lp3102
g56
(g77
g58
NtRp3103
(dp3104
g61
(dp3105
g81
g82
ssg70
g3099
sg63
(lp3106
S'HTTP_PRAGMA'
p3107
asbag56
(g77
g58
NtRp3108
(dp3109
g61
(dp3110
g88
g89
ssg70
g3099
sg63
(lp3111
S':'
asbag56
(g77
g58
NtRp3112
(dp3113
g61
(dp3114
sg70
g3099
sg63
(lp3115
g56
(g57
g58
NtRp3116
(dp3117
g61
(dp3118
g69
I3
ssg70
g3112
sg63
(lp3119
g1592
asbasbasbag56
(g72
g58
NtRp3120
(dp3121
g61
(dp3122
sg70
g2885
sg63
(lp3123
g56
(g77
g58
NtRp3124
(dp3125
g61
(dp3126
g81
g82
ssg70
g3120
sg63
(lp3127
S'HTTP_REFERER'
p3128
asbag56
(g77
g58
NtRp3129
(dp3130
g61
(dp3131
g88
g89
ssg70
g3120
sg63
(lp3132
S':'
asbag56
(g77
g58
NtRp3133
(dp3134
g61
(dp3135
sg70
g3120
sg63
(lp3136
g56
(g57
g58
NtRp3137
(dp3138
g61
(dp3139
g69
I3
ssg70
g3133
sg63
(lp3140
g1614
asbasbasbag56
(g72
g58
NtRp3141
(dp3142
g61
(dp3143
sg70
g2885
sg63
(lp3144
g56
(g77
g58
NtRp3145
(dp3146
g61
(dp3147
g81
g82
ssg70
g3141
sg63
(lp3148
S'HTTP_USER_AGENT'
p3149
asbag56
(g77
g58
NtRp3150
(dp3151
g61
(dp3152
g88
g89
ssg70
g3141
sg63
(lp3153
S':'
asbag56
(g77
g58
NtRp3154
(dp3155
g61
(dp3156
sg70
g3141
sg63
(lp3157
g56
(g57
g58
NtRp3158
(dp3159
g61
(dp3160
g69
I3
ssg70
g3154
sg63
(lp3161
g1636
asbasbasbag56
(g72
g58
NtRp3162
(dp3163
g61
(dp3164
sg70
g2885
sg63
(lp3165
g56
(g77
g58
NtRp3166
(dp3167
g61
(dp3168
g81
g82
ssg70
g3162
sg63
(lp3169
S'HTTP_X_REQUESTED_WITH'
p3170
asbag56
(g77
g58
NtRp3171
(dp3172
g61
(dp3173
g88
g89
ssg70
g3162
sg63
(lp3174
S':'
asbag56
(g77
g58
NtRp3175
(dp3176
g61
(dp3177
sg70
g3162
sg63
(lp3178
g56
(g57
g58
NtRp3179
(dp3180
g61
(dp3181
g69
I3
ssg70
g3175
sg63
(lp3182
g1658
asbasbasbag56
(g72
g58
NtRp3183
(dp3184
g61
(dp3185
sg70
g2885
sg63
(lp3186
g56
(g77
g58
NtRp3187
(dp3188
g61
(dp3189
g81
g82
ssg70
g3183
sg63
(lp3190
S'PATH_INFO'
p3191
asbag56
(g77
g58
NtRp3192
(dp3193
g61
(dp3194
g88
g89
ssg70
g3183
sg63
(lp3195
S':'
asbag56
(g77
g58
NtRp3196
(dp3197
g61
(dp3198
sg70
g3183
sg63
(lp3199
g56
(g57
g58
NtRp3200
(dp3201
g61
(dp3202
g69
I3
ssg70
g3196
sg63
(lp3203
g1701
asbasbasbag56
(g72
g58
NtRp3204
(dp3205
g61
(dp3206
sg70
g2885
sg63
(lp3207
g56
(g77
g58
NtRp3208
(dp3209
g61
(dp3210
g81
g82
ssg70
g3204
sg63
(lp3211
S'QUERY_STRING'
p3212
asbag56
(g77
g58
NtRp3213
(dp3214
g61
(dp3215
g88
g89
ssg70
g3204
sg63
(lp3216
S':'
asbag56
(g77
g58
NtRp3217
(dp3218
g61
(dp3219
sg70
g3204
sg63
(lp3220
g56
(g57
g58
NtRp3221
(dp3222
g61
(dp3223
g69
I3
ssg70
g3217
sg63
(lp3224
S''
asbasbasbag56
(g72
g58
NtRp3225
(dp3226
g61
(dp3227
sg70
g2885
sg63
(lp3228
g56
(g77
g58
NtRp3229
(dp3230
g61
(dp3231
g81
g82
ssg70
g3225
sg63
(lp3232
S'REMOTE_ADDR'
p3233
asbag56
(g77
g58
NtRp3234
(dp3235
g61
(dp3236
g88
g89
ssg70
g3225
sg63
(lp3237
S':'
asbag56
(g77
g58
NtRp3238
(dp3239
g61
(dp3240
sg70
g3225
sg63
(lp3241
g56
(g57
g58
NtRp3242
(dp3243
g61
(dp3244
g69
I3
ssg70
g3238
sg63
(lp3245
g189
asbasbasbag56
(g72
g58
NtRp3246
(dp3247
g61
(dp3248
sg70
g2885
sg63
(lp3249
g56
(g77
g58
NtRp3250
(dp3251
g61
(dp3252
g81
g82
ssg70
g3246
sg63
(lp3253
S'REMOTE_PORT'
p3254
asbag56
(g77
g58
NtRp3255
(dp3256
g61
(dp3257
g88
g89
ssg70
g3246
sg63
(lp3258
S':'
asbag56
(g77
g58
NtRp3259
(dp3260
g61
(dp3261
sg70
g3246
sg63
(lp3262
g56
(g57
g58
NtRp3263
(dp3264
g61
(dp3265
g69
I3
ssg70
g3259
sg63
(lp3266
g1765
asbasbasbag56
(g72
g58
NtRp3267
(dp3268
g61
(dp3269
sg70
g2885
sg63
(lp3270
g56
(g77
g58
NtRp3271
(dp3272
g61
(dp3273
g81
g82
ssg70
g3267
sg63
(lp3274
S'REQUEST_METHOD'
p3275
asbag56
(g77
g58
NtRp3276
(dp3277
g61
(dp3278
g88
g89
ssg70
g3267
sg63
(lp3279
S':'
asbag56
(g77
g58
NtRp3280
(dp3281
g61
(dp3282
sg70
g3267
sg63
(lp3283
g56
(g57
g58
NtRp3284
(dp3285
g61
(dp3286
g69
I3
ssg70
g3280
sg63
(lp3287
g1787
asbasbasbag56
(g72
g58
NtRp3288
(dp3289
g61
(dp3290
sg70
g2885
sg63
(lp3291
g56
(g77
g58
NtRp3292
(dp3293
g61
(dp3294
g81
g82
ssg70
g3288
sg63
(lp3295
S'SCRIPT_NAME'
p3296
asbag56
(g77
g58
NtRp3297
(dp3298
g61
(dp3299
g88
g89
ssg70
g3288
sg63
(lp3300
S':'
asbag56
(g77
g58
NtRp3301
(dp3302
g61
(dp3303
sg70
g3288
sg63
(lp3304
g56
(g57
g58
NtRp3305
(dp3306
g61
(dp3307
g69
I3
ssg70
g3301
sg63
(lp3308
S''
asbasbasbag56
(g72
g58
NtRp3309
(dp3310
g61
(dp3311
sg70
g2885
sg63
(lp3312
g56
(g77
g58
NtRp3313
(dp3314
g61
(dp3315
g81
g82
ssg70
g3309
sg63
(lp3316
S'SERVER_NAME'
p3317
asbag56
(g77
g58
NtRp3318
(dp3319
g61
(dp3320
g88
g89
ssg70
g3309
sg63
(lp3321
S':'
asbag56
(g77
g58
NtRp3322
(dp3323
g61
(dp3324
sg70
g3309
sg63
(lp3325
g56
(g57
g58
NtRp3326
(dp3327
g61
(dp3328
g69
I3
ssg70
g3322
sg63
(lp3329
g1830
asbasbasbag56
(g72
g58
NtRp3330
(dp3331
g61
(dp3332
sg70
g2885
sg63
(lp3333
g56
(g77
g58
NtRp3334
(dp3335
g61
(dp3336
g81
g82
ssg70
g3330
sg63
(lp3337
S'SERVER_PORT'
p3338
asbag56
(g77
g58
NtRp3339
(dp3340
g61
(dp3341
g88
g89
ssg70
g3330
sg63
(lp3342
S':'
asbag56
(g77
g58
NtRp3343
(dp3344
g61
(dp3345
sg70
g3330
sg63
(lp3346
g56
(g57
g58
NtRp3347
(dp3348
g61
(dp3349
g69
I3
ssg70
g3343
sg63
(lp3350
g1852
asbasbasbag56
(g72
g58
NtRp3351
(dp3352
g61
(dp3353
sg70
g2885
sg63
(lp3354
g56
(g77
g58
NtRp3355
(dp3356
g61
(dp3357
g81
g82
ssg70
g3351
sg63
(lp3358
S'SERVER_PROTOCOL'
p3359
asbag56
(g77
g58
NtRp3360
(dp3361
g61
(dp3362
g88
g89
ssg70
g3351
sg63
(lp3363
S':'
asbag56
(g77
g58
NtRp3364
(dp3365
g61
(dp3366
sg70
g3351
sg63
(lp3367
g56
(g57
g58
NtRp3368
(dp3369
g61
(dp3370
g69
I3
ssg70
g3364
sg63
(lp3371
g1874
asbasbasbag56
(g72
g58
NtRp3372
(dp3373
g61
(dp3374
sg70
g2885
sg63
(lp3375
g56
(g77
g58
NtRp3376
(dp3377
g61
(dp3378
g81
g82
ssg70
g3372
sg63
(lp3379
S'SERVER_SOFTWARE'
p3380
asbag56
(g77
g58
NtRp3381
(dp3382
g61
(dp3383
g88
g89
ssg70
g3372
sg63
(lp3384
S':'
asbag56
(g77
g58
NtRp3385
(dp3386
g61
(dp3387
sg70
g3372
sg63
(lp3388
g56
(g57
g58
NtRp3389
(dp3390
g61
(dp3391
g69
I3
ssg70
g3385
sg63
(lp3392
g1896
asbasbasbag56
(g72
g58
NtRp3393
(dp3394
g61
(dp3395
sg70
g2885
sg63
(lp3396
g56
(g77
g58
NtRp3397
(dp3398
g61
(dp3399
g81
g82
ssg70
g3393
sg63
(lp3400
S'wsgi.errors'
p3401
asbag56
(g77
g58
NtRp3402
(dp3403
g61
(dp3404
g88
g89
ssg70
g3393
sg63
(lp3405
S':'
asbag56
(g77
g58
NtRp3406
(dp3407
g61
(dp3408
sg70
g3393
sg63
(lp3409
g56
(g57
g58
NtRp3410
(dp3411
g61
(dp3412
g69
I3
ssg70
g3406
sg63
(lp3413
S"<open file '<stderr>', mode 'w' at 0xb74340d0>"
p3414
asbasbasbag56
(g72
g58
NtRp3415
(dp3416
g61
(dp3417
sg70
g2885
sg63
(lp3418
g56
(g77
g58
NtRp3419
(dp3420
g61
(dp3421
g81
g82
ssg70
g3415
sg63
(lp3422
S'wsgi.file_wrapper'
p3423
asbag56
(g77
g58
NtRp3424
(dp3425
g61
(dp3426
g88
g89
ssg70
g3415
sg63
(lp3427
S':'
asbag56
(g77
g58
NtRp3428
(dp3429
g61
(dp3430
sg70
g3415
sg63
(lp3431
g56
(g57
g58
NtRp3432
(dp3433
g61
(dp3434
g69
I3
ssg70
g3428
sg63
(lp3435
S'<class wsgiref.util.FileWrapper at 0xa57350c>'
p3436
asbasbasbag56
(g72
g58
NtRp3437
(dp3438
g61
(dp3439
sg70
g2885
sg63
(lp3440
g56
(g77
g58
NtRp3441
(dp3442
g61
(dp3443
g81
g82
ssg70
g3437
sg63
(lp3444
S'wsgi.input'
p3445
asbag56
(g77
g58
NtRp3446
(dp3447
g61
(dp3448
g88
g89
ssg70
g3437
sg63
(lp3449
S':'
asbag56
(g77
g58
NtRp3450
(dp3451
g61
(dp3452
sg70
g3437
sg63
(lp3453
g56
(g57
g58
NtRp3454
(dp3455
g61
(dp3456
g69
I3
ssg70
g3450
sg63
(lp3457
S'<cStringIO.StringO object at 0xaf015f20>'
p3458
asbasbasbag56
(g72
g58
NtRp3459
(dp3460
g61
(dp3461
sg70
g2885
sg63
(lp3462
g56
(g77
g58
NtRp3463
(dp3464
g61
(dp3465
g81
g82
ssg70
g3459
sg63
(lp3466
S'wsgi.multiprocess'
p3467
asbag56
(g77
g58
NtRp3468
(dp3469
g61
(dp3470
g88
g89
ssg70
g3459
sg63
(lp3471
S':'
asbag56
(g77
g58
NtRp3472
(dp3473
g61
(dp3474
sg70
g3459
sg63
(lp3475
g56
(g57
g58
NtRp3476
(dp3477
g61
(dp3478
g69
I3
ssg70
g3472
sg63
(lp3479
g1351
asbasbasbag56
(g72
g58
NtRp3480
(dp3481
g61
(dp3482
sg70
g2885
sg63
(lp3483
g56
(g77
g58
NtRp3484
(dp3485
g61
(dp3486
g81
g82
ssg70
g3480
sg63
(lp3487
S'wsgi.multithread'
p3488
asbag56
(g77
g58
NtRp3489
(dp3490
g61
(dp3491
g88
g89
ssg70
g3480
sg63
(lp3492
S':'
asbag56
(g77
g58
NtRp3493
(dp3494
g61
(dp3495
sg70
g3480
sg63
(lp3496
g56
(g57
g58
NtRp3497
(dp3498
g61
(dp3499
g69
I3
ssg70
g3493
sg63
(lp3500
g99
asbasbasbag56
(g72
g58
NtRp3501
(dp3502
g61
(dp3503
sg70
g2885
sg63
(lp3504
g56
(g77
g58
NtRp3505
(dp3506
g61
(dp3507
g81
g82
ssg70
g3501
sg63
(lp3508
S'wsgi.run_once'
p3509
asbag56
(g77
g58
NtRp3510
(dp3511
g61
(dp3512
g88
g89
ssg70
g3501
sg63
(lp3513
S':'
asbag56
(g77
g58
NtRp3514
(dp3515
g61
(dp3516
sg70
g3501
sg63
(lp3517
g56
(g57
g58
NtRp3518
(dp3519
g61
(dp3520
g69
I3
ssg70
g3514
sg63
(lp3521
g1351
asbasbasbag56
(g72
g58
NtRp3522
(dp3523
g61
(dp3524
sg70
g2885
sg63
(lp3525
g56
(g77
g58
NtRp3526
(dp3527
g61
(dp3528
g81
g82
ssg70
g3522
sg63
(lp3529
S'wsgi.url_scheme'
p3530
asbag56
(g77
g58
NtRp3531
(dp3532
g61
(dp3533
g88
g89
ssg70
g3522
sg63
(lp3534
S':'
asbag56
(g77
g58
NtRp3535
(dp3536
g61
(dp3537
sg70
g3522
sg63
(lp3538
g56
(g57
g58
NtRp3539
(dp3540
g61
(dp3541
g69
I3
ssg70
g3535
sg63
(lp3542
g2178
asbasbasbag56
(g72
g58
NtRp3543
(dp3544
g61
(dp3545
sg70
g2885
sg63
(lp3546
g56
(g77
g58
NtRp3547
(dp3548
g61
(dp3549
g81
g82
ssg70
g3543
sg63
(lp3550
S'wsgi.version'
p3551
asbag56
(g77
g58
NtRp3552
(dp3553
g61
(dp3554
g88
g89
ssg70
g3543
sg63
(lp3555
S':'
asbag56
(g77
g58
NtRp3556
(dp3557
g61
(dp3558
sg70
g3543
sg63
(lp3559
g56
(g57
g58
NtRp3560
(dp3561
g61
(dp3562
g69
I3
ssg70
g3556
sg63
(lp3563
S'1'
asbasbasbasbasbasbasbasbasbasbasbasbasbsS'frames'
p3564
(lp3565
(dp3566
S'file'
p3567
S'/home/brencam/web2py/gluon/restricted.py'
p3568
sS'dump'
p3569
(dp3570
S'environment'
p3571
S"{'A': <class 'gluon.html.A'>, 'Auth': <class 'gluon.tools.Auth'>, 'B': <class 'gluon.html.B'>, 'BEAUTIFY': <class 'gluon.html.BEAUTIFY'>, 'BODY': <class 'gluon.html.BODY'>, 'BR': <class 'gluon.html.BR'>, 'BUTTON': <class 'gluon.html.BUTTON'>, 'CAT': <class 'gluon.html.CAT'>, 'CENTER': <class 'gluon.html.CENTER'>, 'CLEANUP': <class 'gluon.validators.CLEANUP'>, ...}"
p3572
sS'ccode'
p3573
S'<code object <module> at 0xb53d5b60, file "/home...lications/gallery/controllers/search.py", line 2>'
p3574
ssS'lnum'
p3575
I194
sS'lines'
p3576
(dp3577
I192
S'        else:'
p3578
sI193
S'            ccode = compile2(code,layer)'
p3579
sI194
S'        exec ccode in environment'
p3580
sI195
S'    except HTTP:'
p3581
sI196
S'        raise'
p3582
sI197
S'    except Exception, error:'
p3583
sI198
S'        # XXX Show exception in Wing IDE if running in debugger'
p3584
sI189
S'    try:'
p3585
sI190
S'        if type(code) == types.CodeType:'
p3586
sI191
S'            ccode = code'
p3587
ssS'call'
p3588
S"(code='# Search Controller\\nimport datetime\\n\\ndef getname...)\\n\\n\\n\\nresponse._vars=response._caller(xmlgettags)\\n', environment={'A': <class 'gluon.html.A'>, 'Auth': <class 'gluon.tools.Auth'>, 'B': <class 'gluon.html.B'>, 'BEAUTIFY': <class 'gluon.html.BEAUTIFY'>, 'BODY': <class 'gluon.html.BODY'>, 'BR': <class 'gluon.html.BR'>, 'BUTTON': <class 'gluon.html.BUTTON'>, 'CAT': <class 'gluon.html.CAT'>, 'CENTER': <class 'gluon.html.CENTER'>, 'CLEANUP': <class 'gluon.validators.CLEANUP'>, ...}, layer='/home/brencam/web2py/applications/gallery/controllers/search.py')"
p3589
sS'func'
p3590
S'restricted'
p3591
sa(dp3592
g3567
S'/home/brencam/web2py/applications/gallery/controllers/search.py'
p3593
sg3569
(dp3594
sg3575
I156
sg3576
(dp3595
I145
S''
sI146
S'    # Can I do a redirect from ajax request with the search results ??'
p3596
sI147
S"    #redirect (URL('default', 'showcss'))"
p3597
sI148
S''
sI149
S'    # Note the URL Syntax here to create a link to a different controller (the default)'
p3598
sI150
S'    # How to show thumbnails for selected images here as well ??'
p3599
sI151
S"#    return XML(UL(*[LI(A('%s ' % (img.title),_href=URL('default','show',args=img.id)))\\"
p3600
sI152
S'#                    for img in images]))'
p3601
sI153
S''
sI154
S''
ssg3588
S'()'
p3602
sg3590
S'<module>'
p3603
sa(dp3604
g3567
S'/home/brencam/web2py/gluon/globals.py'
p3605
sg3569
(dp3606
S'self'
p3607
S'undefined'
p3608
sS'f'
S'<function xmlgettags>'
p3609
ssg3575
I149
sg3576
(dp3610
I144
S'        self.meta = Storage()      # used by web2py_ajax.html'
p3611
sI145
S'        self.menu = []             # used by the default view layout'
p3612
sI146
S'        self.files = []            # used by web2py_ajax.html'
p3613
sI147
S'        self.generic_patterns = [] # patterns to allow generic views'
p3614
sI148
S'        self._vars = None'
p3615
sI149
S'        self._caller = lambda f: f()'
p3616
sI150
S'        self._view_environment = None'
p3617
sI151
S'        self._custom_commit = None'
p3618
sI152
S'        self._custom_rollback = None'
p3619
sI153
S''
ssg3588
S'(f=<function xmlgettags>)'
p3620
sg3590
S'<lambda>'
p3621
sa(dp3622
g3567
S'/home/brencam/web2py/applications/gallery/controllers/search.py'
p3623
sg3569
(dp3624
S'name'
p3625
g3608
sS'tags'
p3626
S'<gluon.dal.Rows object>'
p3627
sS'builtinid'
p3628
S'<built-in function id>'
p3629
sS'tags.id'
p3630
g3608
sS'tags.name'
p3631
g3608
sS'builtindict'
p3632
S"<type 'dict'>"
p3633
ssg3575
I42
sg3576
(dp3634
I37
S'def xmlgettags():'
p3635
sI38
S'    # get list of tagnames from tag table'
p3636
sI39
S'    # return in json format'
p3637
sI40
S'    tags  = db().select(db.tag.id, db.tag.name)'
p3638
sI41
S'    #return XML(tags)'
p3639
sI42
S'    return dict(id=tags.id, name=tags.name)'
p3640
sI43
S''
sI44
S''
sI45
S'def getnames_v2():'
p3641
sI46
S"    sval =''"
p3642
ssg3588
S'()'
p3643
sg3590
S'xmlgettags'
p3644
sasS'pyver'
p3645
S'Python 2.6.6: /usr/bin/python'
p3646
sS'session'
p3647
g56
(g57
g58
NtRp3648
(dp3649
g61
(dp3650
sg63
(lp3651
g56
(g65
g58
NtRp3652
(dp3653
g61
(dp3654
g69
I5
ssg70
Nsg63
(lp3655
g56
(g72
g58
NtRp3656
(dp3657
g61
(dp3658
sg70
g3652
sg63
(lp3659
g56
(g77
g58
NtRp3660
(dp3661
g61
(dp3662
g81
g82
ssg70
g3656
sg63
(lp3663
S'counter'
p3664
asbag56
(g77
g58
NtRp3665
(dp3666
g61
(dp3667
g88
g89
ssg70
g3656
sg63
(lp3668
S':'
asbag56
(g77
g58
NtRp3669
(dp3670
g61
(dp3671
sg70
g3656
sg63
(lp3672
g56
(g57
g58
NtRp3673
(dp3674
g61
(dp3675
g69
I5
ssg70
g3669
sg63
(lp3676
S'8'
asbasbasbasbasbsS'etype'
p3677
S"<type 'exceptions.AttributeError'>"
p3678
sS'date'
p3679
S'Sat Nov  5 12:28:25 2011'
p3680
sS'response'
p3681
g56
(g57
g58
NtRp3682
(dp3683
g61
(dp3684
sg63
(lp3685
g56
(g65
g58
NtRp3686
(dp3687
g61
(dp3688
g69
I5
ssg70
Nsg63
(lp3689
g56
(g72
g58
NtRp3690
(dp3691
g61
(dp3692
sg70
g3686
sg63
(lp3693
g56
(g77
g58
NtRp3694
(dp3695
g61
(dp3696
g81
g82
ssg70
g3690
sg63
(lp3697
g154
asbag56
(g77
g58
NtRp3698
(dp3699
g61
(dp3700
g88
g89
ssg70
g3690
sg63
(lp3701
S':'
asbag56
(g77
g58
NtRp3702
(dp3703
g61
(dp3704
sg70
g3690
sg63
(lp3705
g56
(g57
g58
NtRp3706
(dp3707
g61
(dp3708
g69
I5
ssg70
g3702
sg63
(lp3709
S'<cStringIO.StringO object at 0xae2b09a0>'
p3710
asbasbasbag56
(g72
g58
NtRp3711
(dp3712
g61
(dp3713
sg70
g3686
sg63
(lp3714
g56
(g77
g58
NtRp3715
(dp3716
g61
(dp3717
g81
g82
ssg70
g3711
sg63
(lp3718
g220
asbag56
(g77
g58
NtRp3719
(dp3720
g61
(dp3721
g88
g89
ssg70
g3711
sg63
(lp3722
S':'
asbag56
(g77
g58
NtRp3723
(dp3724
g61
(dp3725
sg70
g3711
sg63
(lp3726
g56
(g57
g58
NtRp3727
(dp3728
g61
(dp3729
g69
I5
ssg70
g3723
sg63
(lp3730
g56
(g65
g58
NtRp3731
(dp3732
g61
(dp3733
g69
I4
ssg70
Nsg63
(lp3734
g56
(g72
g58
NtRp3735
(dp3736
g61
(dp3737
sg70
g3731
sg63
(lp3738
g56
(g77
g58
NtRp3739
(dp3740
g61
(dp3741
g81
g82
ssg70
g3735
sg63
(lp3742
S'session_id_gallery'
p3743
asbag56
(g77
g58
NtRp3744
(dp3745
g61
(dp3746
g88
g89
ssg70
g3735
sg63
(lp3747
S':'
asbag56
(g77
g58
NtRp3748
(dp3749
g61
(dp3750
sg70
g3735
sg63
(lp3751
g56
(g57
g58
NtRp3752
(dp3753
g61
(dp3754
g69
I4
ssg70
g3748
sg63
(lp3755
g56
(g65
g58
NtRp3756
(dp3757
g61
(dp3758
g69
I3
ssg70
Nsg63
(lp3759
g56
(g72
g58
NtRp3760
(dp3761
g61
(dp3762
sg70
g3756
sg63
(lp3763
g56
(g77
g58
NtRp3764
(dp3765
g61
(dp3766
g81
g82
ssg70
g3760
sg63
(lp3767
g270
asbag56
(g77
g58
NtRp3768
(dp3769
g61
(dp3770
g88
g89
ssg70
g3760
sg63
(lp3771
S':'
asbag56
(g77
g58
NtRp3772
(dp3773
g61
(dp3774
sg70
g3760
sg63
(lp3775
g56
(g57
g58
NtRp3776
(dp3777
g61
(dp3778
g69
I3
ssg70
g3772
sg63
(lp3779
S''
asbasbasbag56
(g72
g58
NtRp3780
(dp3781
g61
(dp3782
sg70
g3756
sg63
(lp3783
g56
(g77
g58
NtRp3784
(dp3785
g61
(dp3786
g81
g82
ssg70
g3780
sg63
(lp3787
g291
asbag56
(g77
g58
NtRp3788
(dp3789
g61
(dp3790
g88
g89
ssg70
g3780
sg63
(lp3791
S':'
asbag56
(g77
g58
NtRp3792
(dp3793
g61
(dp3794
sg70
g3780
sg63
(lp3795
g56
(g57
g58
NtRp3796
(dp3797
g61
(dp3798
g69
I3
ssg70
g3792
sg63
(lp3799
S''
asbasbasbag56
(g72
g58
NtRp3800
(dp3801
g61
(dp3802
sg70
g3756
sg63
(lp3803
g56
(g77
g58
NtRp3804
(dp3805
g61
(dp3806
g81
g82
ssg70
g3800
sg63
(lp3807
g312
asbag56
(g77
g58
NtRp3808
(dp3809
g61
(dp3810
g88
g89
ssg70
g3800
sg63
(lp3811
S':'
asbag56
(g77
g58
NtRp3812
(dp3813
g61
(dp3814
sg70
g3800
sg63
(lp3815
g56
(g57
g58
NtRp3816
(dp3817
g61
(dp3818
g69
I3
ssg70
g3812
sg63
(lp3819
S''
asbasbasbag56
(g72
g58
NtRp3820
(dp3821
g61
(dp3822
sg70
g3756
sg63
(lp3823
g56
(g77
g58
NtRp3824
(dp3825
g61
(dp3826
g81
g82
ssg70
g3820
sg63
(lp3827
g333
asbag56
(g77
g58
NtRp3828
(dp3829
g61
(dp3830
g88
g89
ssg70
g3820
sg63
(lp3831
S':'
asbag56
(g77
g58
NtRp3832
(dp3833
g61
(dp3834
sg70
g3820
sg63
(lp3835
g56
(g57
g58
NtRp3836
(dp3837
g61
(dp3838
g69
I3
ssg70
g3832
sg63
(lp3839
S''
asbasbasbag56
(g72
g58
NtRp3840
(dp3841
g61
(dp3842
sg70
g3756
sg63
(lp3843
g56
(g77
g58
NtRp3844
(dp3845
g61
(dp3846
g81
g82
ssg70
g3840
sg63
(lp3847
g354
asbag56
(g77
g58
NtRp3848
(dp3849
g61
(dp3850
g88
g89
ssg70
g3840
sg63
(lp3851
S':'
asbag56
(g77
g58
NtRp3852
(dp3853
g61
(dp3854
sg70
g3840
sg63
(lp3855
g56
(g57
g58
NtRp3856
(dp3857
g61
(dp3858
g69
I3
ssg70
g3852
sg63
(lp3859
S''
asbasbasbag56
(g72
g58
NtRp3860
(dp3861
g61
(dp3862
sg70
g3756
sg63
(lp3863
g56
(g77
g58
NtRp3864
(dp3865
g61
(dp3866
g81
g82
ssg70
g3860
sg63
(lp3867
g375
asbag56
(g77
g58
NtRp3868
(dp3869
g61
(dp3870
g88
g89
ssg70
g3860
sg63
(lp3871
S':'
asbag56
(g77
g58
NtRp3872
(dp3873
g61
(dp3874
sg70
g3860
sg63
(lp3875
g56
(g57
g58
NtRp3876
(dp3877
g61
(dp3878
g69
I3
ssg70
g3872
sg63
(lp3879
S'/'
asbasbasbag56
(g72
g58
NtRp3880
(dp3881
g61
(dp3882
sg70
g3756
sg63
(lp3883
g56
(g77
g58
NtRp3884
(dp3885
g61
(dp3886
g81
g82
ssg70
g3880
sg63
(lp3887
g396
asbag56
(g77
g58
NtRp3888
(dp3889
g61
(dp3890
g88
g89
ssg70
g3880
sg63
(lp3891
S':'
asbag56
(g77
g58
NtRp3892
(dp3893
g61
(dp3894
sg70
g3880
sg63
(lp3895
g56
(g57
g58
NtRp3896
(dp3897
g61
(dp3898
g69
I3
ssg70
g3892
sg63
(lp3899
S''
asbasbasbag56
(g72
g58
NtRp3900
(dp3901
g61
(dp3902
sg70
g3756
sg63
(lp3903
g56
(g77
g58
NtRp3904
(dp3905
g61
(dp3906
g81
g82
ssg70
g3900
sg63
(lp3907
g417
asbag56
(g77
g58
NtRp3908
(dp3909
g61
(dp3910
g88
g89
ssg70
g3900
sg63
(lp3911
S':'
asbag56
(g77
g58
NtRp3912
(dp3913
g61
(dp3914
sg70
g3900
sg63
(lp3915
g56
(g57
g58
NtRp3916
(dp3917
g61
(dp3918
g69
I3
ssg70
g3912
sg63
(lp3919
S''
asbasbasbasbasbasbasbasbasbasbasbag56
(g72
g58
NtRp3920
(dp3921
g61
(dp3922
sg70
g3686
sg63
(lp3923
g56
(g77
g58
NtRp3924
(dp3925
g61
(dp3926
g81
g82
ssg70
g3920
sg63
(lp3927
S'files'
p3928
asbag56
(g77
g58
NtRp3929
(dp3930
g61
(dp3931
g88
g89
ssg70
g3920
sg63
(lp3932
S':'
asbag56
(g77
g58
NtRp3933
(dp3934
g61
(dp3935
sg70
g3920
sg63
(lp3936
g56
(g57
g58
NtRp3937
(dp3938
g61
(dp3939
g69
I5
ssg70
g3933
sg63
(lp3940
g56
(g65
g58
NtRp3941
(dp3942
g61
(dp3943
g69
I4
ssg70
Nsg63
(lp3944
sbasbasbasbag56
(g72
g58
NtRp3945
(dp3946
g61
(dp3947
sg70
g3686
sg63
(lp3948
g56
(g77
g58
NtRp3949
(dp3950
g61
(dp3951
g81
g82
ssg70
g3945
sg63
(lp3952
S'flash'
p3953
asbag56
(g77
g58
NtRp3954
(dp3955
g61
(dp3956
g88
g89
ssg70
g3945
sg63
(lp3957
S':'
asbag56
(g77
g58
NtRp3958
(dp3959
g61
(dp3960
sg70
g3945
sg63
(lp3961
g56
(g57
g58
NtRp3962
(dp3963
g61
(dp3964
g69
I5
ssg70
g3958
sg63
(lp3965
S''
asbasbasbag56
(g72
g58
NtRp3966
(dp3967
g61
(dp3968
sg70
g3686
sg63
(lp3969
g56
(g77
g58
NtRp3970
(dp3971
g61
(dp3972
g81
g82
ssg70
g3966
sg63
(lp3973
S'generic_patterns'
p3974
asbag56
(g77
g58
NtRp3975
(dp3976
g61
(dp3977
g88
g89
ssg70
g3966
sg63
(lp3978
S':'
asbag56
(g77
g58
NtRp3979
(dp3980
g61
(dp3981
sg70
g3966
sg63
(lp3982
g56
(g57
g58
NtRp3983
(dp3984
g61
(dp3985
g69
I5
ssg70
g3979
sg63
(lp3986
g56
(g65
g58
NtRp3987
(dp3988
g61
(dp3989
g69
I4
ssg70
Nsg63
(lp3990
g56
(g72
g58
NtRp3991
(dp3992
g61
(dp3993
sg70
g3987
sg63
(lp3994
g56
(g77
g58
NtRp3995
(dp3996
g61
(dp3997
sg70
g3991
sg63
(lp3998
g56
(g57
g58
NtRp3999
(dp4000
g61
(dp4001
g69
I4
ssg70
g3995
sg63
(lp4002
S'*'
asbasbasbasbasbasbasbag56
(g72
g58
NtRp4003
(dp4004
g61
(dp4005
sg70
g3686
sg63
(lp4006
g56
(g77
g58
NtRp4007
(dp4008
g61
(dp4009
g81
g82
ssg70
g4003
sg63
(lp4010
S'headers'
p4011
asbag56
(g77
g58
NtRp4012
(dp4013
g61
(dp4014
g88
g89
ssg70
g4003
sg63
(lp4015
S':'
asbag56
(g77
g58
NtRp4016
(dp4017
g61
(dp4018
sg70
g4003
sg63
(lp4019
g56
(g57
g58
NtRp4020
(dp4021
g61
(dp4022
g69
I5
ssg70
g4016
sg63
(lp4023
g56
(g65
g58
NtRp4024
(dp4025
g61
(dp4026
g69
I4
ssg70
Nsg63
(lp4027
g56
(g72
g58
NtRp4028
(dp4029
g61
(dp4030
sg70
g4024
sg63
(lp4031
g56
(g77
g58
NtRp4032
(dp4033
g61
(dp4034
g81
g82
ssg70
g4028
sg63
(lp4035
S'Cache-Control'
p4036
asbag56
(g77
g58
NtRp4037
(dp4038
g61
(dp4039
g88
g89
ssg70
g4028
sg63
(lp4040
S':'
asbag56
(g77
g58
NtRp4041
(dp4042
g61
(dp4043
sg70
g4028
sg63
(lp4044
g56
(g57
g58
NtRp4045
(dp4046
g61
(dp4047
g69
I4
ssg70
g4041
sg63
(lp4048
S'no-store, no-cache, must-revalidate, post-check=0, pre-check=0'
p4049
asbasbasbag56
(g72
g58
NtRp4050
(dp4051
g61
(dp4052
sg70
g4024
sg63
(lp4053
g56
(g77
g58
NtRp4054
(dp4055
g61
(dp4056
g81
g82
ssg70
g4050
sg63
(lp4057
S'Content-Type'
p4058
asbag56
(g77
g58
NtRp4059
(dp4060
g61
(dp4061
g88
g89
ssg70
g4050
sg63
(lp4062
S':'
asbag56
(g77
g58
NtRp4063
(dp4064
g61
(dp4065
sg70
g4050
sg63
(lp4066
g56
(g57
g58
NtRp4067
(dp4068
g61
(dp4069
g69
I4
ssg70
g4063
sg63
(lp4070
S'application/json'
p4071
asbasbasbag56
(g72
g58
NtRp4072
(dp4073
g61
(dp4074
sg70
g4024
sg63
(lp4075
g56
(g77
g58
NtRp4076
(dp4077
g61
(dp4078
g81
g82
ssg70
g4072
sg63
(lp4079
S'Expires'
p4080
asbag56
(g77
g58
NtRp4081
(dp4082
g61
(dp4083
g88
g89
ssg70
g4072
sg63
(lp4084
S':'
asbag56
(g77
g58
NtRp4085
(dp4086
g61
(dp4087
sg70
g4072
sg63
(lp4088
g56
(g57
g58
NtRp4089
(dp4090
g61
(dp4091
g69
I4
ssg70
g4085
sg63
(lp4092
S'Sat, 05 Nov 2011 19:28:25 GMT'
p4093
asbasbasbag56
(g72
g58
NtRp4094
(dp4095
g61
(dp4096
sg70
g4024
sg63
(lp4097
g56
(g77
g58
NtRp4098
(dp4099
g61
(dp4100
g81
g82
ssg70
g4094
sg63
(lp4101
S'Pragma'
p4102
asbag56
(g77
g58
NtRp4103
(dp4104
g61
(dp4105
g88
g89
ssg70
g4094
sg63
(lp4106
S':'
asbag56
(g77
g58
NtRp4107
(dp4108
g61
(dp4109
sg70
g4094
sg63
(lp4110
g56
(g57
g58
NtRp4111
(dp4112
g61
(dp4113
g69
I4
ssg70
g4107
sg63
(lp4114
S'no-cache'
p4115
asbasbasbag56
(g72
g58
NtRp4116
(dp4117
g61
(dp4118
sg70
g4024
sg63
(lp4119
g56
(g77
g58
NtRp4120
(dp4121
g61
(dp4122
g81
g82
ssg70
g4116
sg63
(lp4123
S'X-Powered-By'
p4124
asbag56
(g77
g58
NtRp4125
(dp4126
g61
(dp4127
g88
g89
ssg70
g4116
sg63
(lp4128
S':'
asbag56
(g77
g58
NtRp4129
(dp4130
g61
(dp4131
sg70
g4116
sg63
(lp4132
g56
(g57
g58
NtRp4133
(dp4134
g61
(dp4135
g69
I4
ssg70
g4129
sg63
(lp4136
S'web2py'
p4137
asbasbasbasbasbasbasbag56
(g72
g58
NtRp4138
(dp4139
g61
(dp4140
sg70
g3686
sg63
(lp4141
g56
(g77
g58
NtRp4142
(dp4143
g61
(dp4144
g81
g82
ssg70
g4138
sg63
(lp4145
S'menu'
p4146
asbag56
(g77
g58
NtRp4147
(dp4148
g61
(dp4149
g88
g89
ssg70
g4138
sg63
(lp4150
S':'
asbag56
(g77
g58
NtRp4151
(dp4152
g61
(dp4153
sg70
g4138
sg63
(lp4154
g56
(g57
g58
NtRp4155
(dp4156
g61
(dp4157
g69
I5
ssg70
g4151
sg63
(lp4158
g56
(g65
g58
NtRp4159
(dp4160
g61
(dp4161
g69
I4
ssg70
Nsg63
(lp4162
g56
(g72
g58
NtRp4163
(dp4164
g61
(dp4165
sg70
g4159
sg63
(lp4166
g56
(g77
g58
NtRp4167
(dp4168
g61
(dp4169
sg70
g4163
sg63
(lp4170
g56
(g57
g58
NtRp4171
(dp4172
g61
(dp4173
g69
I4
ssg70
g4167
sg63
(lp4174
g56
(g65
g58
NtRp4175
(dp4176
g61
(dp4177
g69
I3
ssg70
Nsg63
(lp4178
g56
(g72
g58
NtRp4179
(dp4180
g61
(dp4181
sg70
g4175
sg63
(lp4182
g56
(g77
g58
NtRp4183
(dp4184
g61
(dp4185
sg70
g4179
sg63
(lp4186
g56
(g57
g58
NtRp4187
(dp4188
g61
(dp4189
g69
I3
ssg70
g4183
sg63
(lp4190
cgluon.languages
lazyT_unpickle
p4191
(S's\x04\x00\x00\x00Home'
tRp4192
asbasbasbag56
(g72
g58
NtRp4193
(dp4194
g61
(dp4195
sg70
g4175
sg63
(lp4196
g56
(g77
g58
NtRp4197
(dp4198
g61
(dp4199
sg70
g4193
sg63
(lp4200
g56
(g57
g58
NtRp4201
(dp4202
g61
(dp4203
g69
I3
ssg70
g4197
sg63
(lp4204
g1351
asbasbasbag56
(g72
g58
NtRp4205
(dp4206
g61
(dp4207
sg70
g4175
sg63
(lp4208
g56
(g77
g58
NtRp4209
(dp4210
g61
(dp4211
sg70
g4205
sg63
(lp4212
g56
(g57
g58
NtRp4213
(dp4214
g61
(dp4215
g69
I3
ssg70
g4209
sg63
(lp4216
S'/gallery/default/index.json'
p4217
asbasbasbag56
(g72
g58
NtRp4218
(dp4219
g61
(dp4220
sg70
g4175
sg63
(lp4221
g56
(g77
g58
NtRp4222
(dp4223
g61
(dp4224
sg70
g4218
sg63
(lp4225
g56
(g57
g58
NtRp4226
(dp4227
g61
(dp4228
g69
I3
ssg70
g4222
sg63
(lp4229
g56
(g65
g58
NtRp4230
(dp4231
g61
(dp4232
g69
I2
ssg70
Nsg63
(lp4233
sbasbasbasbasbasbasbasbag56
(g72
g58
NtRp4234
(dp4235
g61
(dp4236
sg70
g4159
sg63
(lp4237
g56
(g77
g58
NtRp4238
(dp4239
g61
(dp4240
sg70
g4234
sg63
(lp4241
g56
(g57
g58
NtRp4242
(dp4243
g61
(dp4244
g69
I4
ssg70
g4238
sg63
(lp4245
g56
(g65
g58
NtRp4246
(dp4247
g61
(dp4248
g69
I3
ssg70
Nsg63
(lp4249
g56
(g72
g58
NtRp4250
(dp4251
g61
(dp4252
sg70
g4246
sg63
(lp4253
g56
(g77
g58
NtRp4254
(dp4255
g61
(dp4256
sg70
g4250
sg63
(lp4257
g56
(g57
g58
NtRp4258
(dp4259
g61
(dp4260
g69
I3
ssg70
g4254
sg63
(lp4261
g4191
(S's\r\x00\x00\x00Gallery - CSS'
tRp4262
asbasbasbag56
(g72
g58
NtRp4263
(dp4264
g61
(dp4265
sg70
g4246
sg63
(lp4266
g56
(g77
g58
NtRp4267
(dp4268
g61
(dp4269
sg70
g4263
sg63
(lp4270
g56
(g57
g58
NtRp4271
(dp4272
g61
(dp4273
g69
I3
ssg70
g4267
sg63
(lp4274
g1351
asbasbasbag56
(g72
g58
NtRp4275
(dp4276
g61
(dp4277
sg70
g4246
sg63
(lp4278
g56
(g77
g58
NtRp4279
(dp4280
g61
(dp4281
sg70
g4275
sg63
(lp4282
g56
(g57
g58
NtRp4283
(dp4284
g61
(dp4285
g69
I3
ssg70
g4279
sg63
(lp4286
S'/gallery/default/showcss.json'
p4287
asbasbasbag56
(g72
g58
NtRp4288
(dp4289
g61
(dp4290
sg70
g4246
sg63
(lp4291
g56
(g77
g58
NtRp4292
(dp4293
g61
(dp4294
sg70
g4288
sg63
(lp4295
g56
(g57
g58
NtRp4296
(dp4297
g61
(dp4298
g69
I3
ssg70
g4292
sg63
(lp4299
g56
(g65
g58
NtRp4300
(dp4301
g61
(dp4302
g69
I2
ssg70
Nsg63
(lp4303
sbasbasbasbasbasbasbasbag56
(g72
g58
NtRp4304
(dp4305
g61
(dp4306
sg70
g4159
sg63
(lp4307
g56
(g77
g58
NtRp4308
(dp4309
g61
(dp4310
sg70
g4304
sg63
(lp4311
g56
(g57
g58
NtRp4312
(dp4313
g61
(dp4314
g69
I4
ssg70
g4308
sg63
(lp4315
g56
(g65
g58
NtRp4316
(dp4317
g61
(dp4318
g69
I3
ssg70
Nsg63
(lp4319
g56
(g72
g58
NtRp4320
(dp4321
g61
(dp4322
sg70
g4316
sg63
(lp4323
g56
(g77
g58
NtRp4324
(dp4325
g61
(dp4326
sg70
g4320
sg63
(lp4327
g56
(g57
g58
NtRp4328
(dp4329
g61
(dp4330
g69
I3
ssg70
g4324
sg63
(lp4331
g4191
(S's\x10\x00\x00\x00Gallery - JQuery'
tRp4332
asbasbasbag56
(g72
g58
NtRp4333
(dp4334
g61
(dp4335
sg70
g4316
sg63
(lp4336
g56
(g77
g58
NtRp4337
(dp4338
g61
(dp4339
sg70
g4333
sg63
(lp4340
g56
(g57
g58
NtRp4341
(dp4342
g61
(dp4343
g69
I3
ssg70
g4337
sg63
(lp4344
g1351
asbasbasbag56
(g72
g58
NtRp4345
(dp4346
g61
(dp4347
sg70
g4316
sg63
(lp4348
g56
(g77
g58
NtRp4349
(dp4350
g61
(dp4351
sg70
g4345
sg63
(lp4352
g56
(g57
g58
NtRp4353
(dp4354
g61
(dp4355
g69
I3
ssg70
g4349
sg63
(lp4356
S'/gallery/default/showjq.json'
p4357
asbasbasbag56
(g72
g58
NtRp4358
(dp4359
g61
(dp4360
sg70
g4316
sg63
(lp4361
g56
(g77
g58
NtRp4362
(dp4363
g61
(dp4364
sg70
g4358
sg63
(lp4365
g56
(g57
g58
NtRp4366
(dp4367
g61
(dp4368
g69
I3
ssg70
g4362
sg63
(lp4369
g56
(g65
g58
NtRp4370
(dp4371
g61
(dp4372
g69
I2
ssg70
Nsg63
(lp4373
sbasbasbasbasbasbasbasbag56
(g72
g58
NtRp4374
(dp4375
g61
(dp4376
sg70
g4159
sg63
(lp4377
g56
(g77
g58
NtRp4378
(dp4379
g61
(dp4380
sg70
g4374
sg63
(lp4381
g56
(g57
g58
NtRp4382
(dp4383
g61
(dp4384
g69
I4
ssg70
g4378
sg63
(lp4385
g56
(g65
g58
NtRp4386
(dp4387
g61
(dp4388
g69
I3
ssg70
Nsg63
(lp4389
g56
(g72
g58
NtRp4390
(dp4391
g61
(dp4392
sg70
g4386
sg63
(lp4393
g56
(g77
g58
NtRp4394
(dp4395
g61
(dp4396
sg70
g4390
sg63
(lp4397
g56
(g57
g58
NtRp4398
(dp4399
g61
(dp4400
g69
I3
ssg70
g4394
sg63
(lp4401
g4191
(S's\x0e\x00\x00\x00Gallery - Dojo'
tRp4402
asbasbasbag56
(g72
g58
NtRp4403
(dp4404
g61
(dp4405
sg70
g4386
sg63
(lp4406
g56
(g77
g58
NtRp4407
(dp4408
g61
(dp4409
sg70
g4403
sg63
(lp4410
g56
(g57
g58
NtRp4411
(dp4412
g61
(dp4413
g69
I3
ssg70
g4407
sg63
(lp4414
g1351
asbasbasbag56
(g72
g58
NtRp4415
(dp4416
g61
(dp4417
sg70
g4386
sg63
(lp4418
g56
(g77
g58
NtRp4419
(dp4420
g61
(dp4421
sg70
g4415
sg63
(lp4422
g56
(g57
g58
NtRp4423
(dp4424
g61
(dp4425
g69
I3
ssg70
g4419
sg63
(lp4426
S'/gallery/default/index.json'
p4427
asbasbasbag56
(g72
g58
NtRp4428
(dp4429
g61
(dp4430
sg70
g4386
sg63
(lp4431
g56
(g77
g58
NtRp4432
(dp4433
g61
(dp4434
sg70
g4428
sg63
(lp4435
g56
(g57
g58
NtRp4436
(dp4437
g61
(dp4438
g69
I3
ssg70
g4432
sg63
(lp4439
g56
(g65
g58
NtRp4440
(dp4441
g61
(dp4442
g69
I2
ssg70
Nsg63
(lp4443
sbasbasbasbasbasbasbasbag56
(g72
g58
NtRp4444
(dp4445
g61
(dp4446
sg70
g4159
sg63
(lp4447
g56
(g77
g58
NtRp4448
(dp4449
g61
(dp4450
sg70
g4444
sg63
(lp4451
g56
(g57
g58
NtRp4452
(dp4453
g61
(dp4454
g69
I4
ssg70
g4448
sg63
(lp4455
g56
(g65
g58
NtRp4456
(dp4457
g61
(dp4458
g69
I3
ssg70
Nsg63
(lp4459
g56
(g72
g58
NtRp4460
(dp4461
g61
(dp4462
sg70
g4456
sg63
(lp4463
g56
(g77
g58
NtRp4464
(dp4465
g61
(dp4466
sg70
g4460
sg63
(lp4467
g56
(g57
g58
NtRp4468
(dp4469
g61
(dp4470
g69
I3
ssg70
g4464
sg63
(lp4471
g4191
(S's\x11\x00\x00\x00AjaxSearch - Dojo'
tRp4472
asbasbasbag56
(g72
g58
NtRp4473
(dp4474
g61
(dp4475
sg70
g4456
sg63
(lp4476
g56
(g77
g58
NtRp4477
(dp4478
g61
(dp4479
sg70
g4473
sg63
(lp4480
g56
(g57
g58
NtRp4481
(dp4482
g61
(dp4483
g69
I3
ssg70
g4477
sg63
(lp4484
g1351
asbasbasbag56
(g72
g58
NtRp4485
(dp4486
g61
(dp4487
sg70
g4456
sg63
(lp4488
g56
(g77
g58
NtRp4489
(dp4490
g61
(dp4491
sg70
g4485
sg63
(lp4492
g56
(g57
g58
NtRp4493
(dp4494
g61
(dp4495
g69
I3
ssg70
g4489
sg63
(lp4496
S'/gallery/default/sendform.json'
p4497
asbasbasbag56
(g72
g58
NtRp4498
(dp4499
g61
(dp4500
sg70
g4456
sg63
(lp4501
g56
(g77
g58
NtRp4502
(dp4503
g61
(dp4504
sg70
g4498
sg63
(lp4505
g56
(g57
g58
NtRp4506
(dp4507
g61
(dp4508
g69
I3
ssg70
g4502
sg63
(lp4509
g56
(g65
g58
NtRp4510
(dp4511
g61
(dp4512
g69
I2
ssg70
Nsg63
(lp4513
sbasbasbasbasbasbasbasbag56
(g72
g58
NtRp4514
(dp4515
g61
(dp4516
sg70
g4159
sg63
(lp4517
g56
(g77
g58
NtRp4518
(dp4519
g61
(dp4520
sg70
g4514
sg63
(lp4521
g56
(g57
g58
NtRp4522
(dp4523
g61
(dp4524
g69
I4
ssg70
g4518
sg63
(lp4525
g56
(g65
g58
NtRp4526
(dp4527
g61
(dp4528
g69
I3
ssg70
Nsg63
(lp4529
g56
(g72
g58
NtRp4530
(dp4531
g61
(dp4532
sg70
g4526
sg63
(lp4533
g56
(g77
g58
NtRp4534
(dp4535
g61
(dp4536
sg70
g4530
sg63
(lp4537
g56
(g57
g58
NtRp4538
(dp4539
g61
(dp4540
g69
I3
ssg70
g4534
sg63
(lp4541
g4191
(S's\x07\x00\x00\x00TagList'
tRp4542
asbasbasbag56
(g72
g58
NtRp4543
(dp4544
g61
(dp4545
sg70
g4526
sg63
(lp4546
g56
(g77
g58
NtRp4547
(dp4548
g61
(dp4549
sg70
g4543
sg63
(lp4550
g56
(g57
g58
NtRp4551
(dp4552
g61
(dp4553
g69
I3
ssg70
g4547
sg63
(lp4554
g1351
asbasbasbag56
(g72
g58
NtRp4555
(dp4556
g61
(dp4557
sg70
g4526
sg63
(lp4558
g56
(g77
g58
NtRp4559
(dp4560
g61
(dp4561
sg70
g4555
sg63
(lp4562
g56
(g57
g58
NtRp4563
(dp4564
g61
(dp4565
g69
I3
ssg70
g4559
sg63
(lp4566
S'/gallery/search/gettags.json'
p4567
asbasbasbag56
(g72
g58
NtRp4568
(dp4569
g61
(dp4570
sg70
g4526
sg63
(lp4571
g56
(g77
g58
NtRp4572
(dp4573
g61
(dp4574
sg70
g4568
sg63
(lp4575
g56
(g57
g58
NtRp4576
(dp4577
g61
(dp4578
g69
I3
ssg70
g4572
sg63
(lp4579
g56
(g65
g58
NtRp4580
(dp4581
g61
(dp4582
g69
I2
ssg70
Nsg63
(lp4583
sbasbasbasbasbasbasbasbag56
(g72
g58
NtRp4584
(dp4585
g61
(dp4586
sg70
g4159
sg63
(lp4587
g56
(g77
g58
NtRp4588
(dp4589
g61
(dp4590
sg70
g4584
sg63
(lp4591
g56
(g57
g58
NtRp4592
(dp4593
g61
(dp4594
g69
I4
ssg70
g4588
sg63
(lp4595
g56
(g65
g58
NtRp4596
(dp4597
g61
(dp4598
g69
I3
ssg70
Nsg63
(lp4599
g56
(g72
g58
NtRp4600
(dp4601
g61
(dp4602
sg70
g4596
sg63
(lp4603
g56
(g77
g58
NtRp4604
(dp4605
g61
(dp4606
sg70
g4600
sg63
(lp4607
g56
(g57
g58
NtRp4608
(dp4609
g61
(dp4610
g69
I3
ssg70
g4604
sg63
(lp4611
g4191
(S's\x05\x00\x00\x00Admin'
tRp4612
asbasbasbag56
(g72
g58
NtRp4613
(dp4614
g61
(dp4615
sg70
g4596
sg63
(lp4616
g56
(g77
g58
NtRp4617
(dp4618
g61
(dp4619
sg70
g4613
sg63
(lp4620
g56
(g57
g58
NtRp4621
(dp4622
g61
(dp4623
g69
I3
ssg70
g4617
sg63
(lp4624
g1351
asbasbasbag56
(g72
g58
NtRp4625
(dp4626
g61
(dp4627
sg70
g4596
sg63
(lp4628
g56
(g77
g58
NtRp4629
(dp4630
g61
(dp4631
sg70
g4625
sg63
(lp4632
g56
(g57
g58
NtRp4633
(dp4634
g61
(dp4635
g69
I3
ssg70
g4629
sg63
(lp4636
S'/admin/default/index.json'
p4637
asbasbasbag56
(g72
g58
NtRp4638
(dp4639
g61
(dp4640
sg70
g4596
sg63
(lp4641
g56
(g77
g58
NtRp4642
(dp4643
g61
(dp4644
sg70
g4638
sg63
(lp4645
g56
(g57
g58
NtRp4646
(dp4647
g61
(dp4648
g69
I3
ssg70
g4642
sg63
(lp4649
g56
(g65
g58
NtRp4650
(dp4651
g61
(dp4652
g69
I2
ssg70
Nsg63
(lp4653
sbasbasbasbasbasbasbasbasbasbasbasbag56
(g72
g58
NtRp4654
(dp4655
g61
(dp4656
sg70
g3686
sg63
(lp4657
g56
(g77
g58
NtRp4658
(dp4659
g61
(dp4660
g81
g82
ssg70
g4654
sg63
(lp4661
S'meta'
p4662
asbag56
(g77
g58
NtRp4663
(dp4664
g61
(dp4665
g88
g89
ssg70
g4654
sg63
(lp4666
S':'
asbag56
(g77
g58
NtRp4667
(dp4668
g61
(dp4669
sg70
g4654
sg63
(lp4670
g56
(g57
g58
NtRp4671
(dp4672
g61
(dp4673
g69
I5
ssg70
g4667
sg63
(lp4674
g56
(g65
g58
NtRp4675
(dp4676
g61
(dp4677
g69
I4
ssg70
Nsg63
(lp4678
g56
(g72
g58
NtRp4679
(dp4680
g61
(dp4681
sg70
g4675
sg63
(lp4682
g56
(g77
g58
NtRp4683
(dp4684
g61
(dp4685
g81
g82
ssg70
g4679
sg63
(lp4686
S'author'
p4687
asbag56
(g77
g58
NtRp4688
(dp4689
g61
(dp4690
g88
g89
ssg70
g4679
sg63
(lp4691
S':'
asbag56
(g77
g58
NtRp4692
(dp4693
g61
(dp4694
sg70
g4679
sg63
(lp4695
g56
(g57
g58
NtRp4696
(dp4697
g61
(dp4698
g69
I4
ssg70
g4692
sg63
(lp4699
S'Your Name <you@example.com>'
p4700
asbasbasbag56
(g72
g58
NtRp4701
(dp4702
g61
(dp4703
sg70
g4675
sg63
(lp4704
g56
(g77
g58
NtRp4705
(dp4706
g61
(dp4707
g81
g82
ssg70
g4701
sg63
(lp4708
S'copyright'
p4709
asbag56
(g77
g58
NtRp4710
(dp4711
g61
(dp4712
g88
g89
ssg70
g4701
sg63
(lp4713
S':'
asbag56
(g77
g58
NtRp4714
(dp4715
g61
(dp4716
sg70
g4701
sg63
(lp4717
g56
(g57
g58
NtRp4718
(dp4719
g61
(dp4720
g69
I4
ssg70
g4714
sg63
(lp4721
S'Copyright 2011'
p4722
asbasbasbag56
(g72
g58
NtRp4723
(dp4724
g61
(dp4725
sg70
g4675
sg63
(lp4726
g56
(g77
g58
NtRp4727
(dp4728
g61
(dp4729
g81
g82
ssg70
g4723
sg63
(lp4730
S'description'
p4731
asbag56
(g77
g58
NtRp4732
(dp4733
g61
(dp4734
g88
g89
ssg70
g4723
sg63
(lp4735
S':'
asbag56
(g77
g58
NtRp4736
(dp4737
g61
(dp4738
sg70
g4723
sg63
(lp4739
g56
(g57
g58
NtRp4740
(dp4741
g61
(dp4742
g69
I4
ssg70
g4736
sg63
(lp4743
S'a cool new app'
p4744
asbasbasbag56
(g72
g58
NtRp4745
(dp4746
g61
(dp4747
sg70
g4675
sg63
(lp4748
g56
(g77
g58
NtRp4749
(dp4750
g61
(dp4751
g81
g82
ssg70
g4745
sg63
(lp4752
S'generator'
p4753
asbag56
(g77
g58
NtRp4754
(dp4755
g61
(dp4756
g88
g89
ssg70
g4745
sg63
(lp4757
S':'
asbag56
(g77
g58
NtRp4758
(dp4759
g61
(dp4760
sg70
g4745
sg63
(lp4761
g56
(g57
g58
NtRp4762
(dp4763
g61
(dp4764
g69
I4
ssg70
g4758
sg63
(lp4765
S'Web2py Web Framework'
p4766
asbasbasbag56
(g72
g58
NtRp4767
(dp4768
g61
(dp4769
sg70
g4675
sg63
(lp4770
g56
(g77
g58
NtRp4771
(dp4772
g61
(dp4773
g81
g82
ssg70
g4767
sg63
(lp4774
S'keywords'
p4775
asbag56
(g77
g58
NtRp4776
(dp4777
g61
(dp4778
g88
g89
ssg70
g4767
sg63
(lp4779
S':'
asbag56
(g77
g58
NtRp4780
(dp4781
g61
(dp4782
sg70
g4767
sg63
(lp4783
g56
(g57
g58
NtRp4784
(dp4785
g61
(dp4786
g69
I4
ssg70
g4780
sg63
(lp4787
S'web2py, python, framework'
p4788
asbasbasbasbasbasbasbag56
(g72
g58
NtRp4789
(dp4790
g61
(dp4791
sg70
g3686
sg63
(lp4792
g56
(g77
g58
NtRp4793
(dp4794
g61
(dp4795
g81
g82
ssg70
g4789
sg63
(lp4796
S'postprocessing'
p4797
asbag56
(g77
g58
NtRp4798
(dp4799
g61
(dp4800
g88
g89
ssg70
g4789
sg63
(lp4801
S':'
asbag56
(g77
g58
NtRp4802
(dp4803
g61
(dp4804
sg70
g4789
sg63
(lp4805
g56
(g57
g58
NtRp4806
(dp4807
g61
(dp4808
g69
I5
ssg70
g4802
sg63
(lp4809
g56
(g65
g58
NtRp4810
(dp4811
g61
(dp4812
g69
I4
ssg70
Nsg63
(lp4813
sbasbasbasbag56
(g72
g58
NtRp4814
(dp4815
g61
(dp4816
sg70
g3686
sg63
(lp4817
g56
(g77
g58
NtRp4818
(dp4819
g61
(dp4820
g81
g82
ssg70
g4814
sg63
(lp4821
S'session_file'
p4822
asbag56
(g77
g58
NtRp4823
(dp4824
g61
(dp4825
g88
g89
ssg70
g4814
sg63
(lp4826
S':'
asbag56
(g77
g58
NtRp4827
(dp4828
g61
(dp4829
sg70
g4814
sg63
(lp4830
g56
(g57
g58
NtRp4831
(dp4832
g61
(dp4833
g69
I5
ssg70
g4827
sg63
(lp4834
S"<open file '/home/brencam/web2py/applications/gallery/sessions/127.0.0.1-dc8c13ed-0f92-4ade-ab82-5940ed42a3a5', mode 'rb+' at 0xaf3026a8>"
p4835
asbasbasbag56
(g72
g58
NtRp4836
(dp4837
g61
(dp4838
sg70
g3686
sg63
(lp4839
g56
(g77
g58
NtRp4840
(dp4841
g61
(dp4842
g81
g82
ssg70
g4836
sg63
(lp4843
S'session_filename'
p4844
asbag56
(g77
g58
NtRp4845
(dp4846
g61
(dp4847
g88
g89
ssg70
g4836
sg63
(lp4848
S':'
asbag56
(g77
g58
NtRp4849
(dp4850
g61
(dp4851
sg70
g4836
sg63
(lp4852
g56
(g57
g58
NtRp4853
(dp4854
g61
(dp4855
g69
I5
ssg70
g4849
sg63
(lp4856
S'/home/brencam/web2py/applications/gallery/sessions/127.0.0.1-dc8c13ed-0f92-4ade-ab82-5940ed42a3a5'
p4857
asbasbasbag56
(g72
g58
NtRp4858
(dp4859
g61
(dp4860
sg70
g3686
sg63
(lp4861
g56
(g77
g58
NtRp4862
(dp4863
g61
(dp4864
g81
g82
ssg70
g4858
sg63
(lp4865
S'session_id'
p4866
asbag56
(g77
g58
NtRp4867
(dp4868
g61
(dp4869
g88
g89
ssg70
g4858
sg63
(lp4870
S':'
asbag56
(g77
g58
NtRp4871
(dp4872
g61
(dp4873
sg70
g4858
sg63
(lp4874
g56
(g57
g58
NtRp4875
(dp4876
g61
(dp4877
g69
I5
ssg70
g4871
sg63
(lp4878
S'127.0.0.1-dc8c13ed-0f92-4ade-ab82-5940ed42a3a5'
p4879
asbasbasbag56
(g72
g58
NtRp4880
(dp4881
g61
(dp4882
sg70
g3686
sg63
(lp4883
g56
(g77
g58
NtRp4884
(dp4885
g61
(dp4886
g81
g82
ssg70
g4880
sg63
(lp4887
S'session_id_name'
p4888
asbag56
(g77
g58
NtRp4889
(dp4890
g61
(dp4891
g88
g89
ssg70
g4880
sg63
(lp4892
S':'
asbag56
(g77
g58
NtRp4893
(dp4894
g61
(dp4895
sg70
g4880
sg63
(lp4896
g56
(g57
g58
NtRp4897
(dp4898
g61
(dp4899
g69
I5
ssg70
g4893
sg63
(lp4900
g3743
asbasbasbag56
(g72
g58
NtRp4901
(dp4902
g61
(dp4903
sg70
g3686
sg63
(lp4904
g56
(g77
g58
NtRp4905
(dp4906
g61
(dp4907
g81
g82
ssg70
g4901
sg63
(lp4908
S'session_locked'
p4909
asbag56
(g77
g58
NtRp4910
(dp4911
g61
(dp4912
g88
g89
ssg70
g4901
sg63
(lp4913
S':'
asbag56
(g77
g58
NtRp4914
(dp4915
g61
(dp4916
sg70
g4901
sg63
(lp4917
g56
(g57
g58
NtRp4918
(dp4919
g61
(dp4920
g69
I5
ssg70
g4914
sg63
(lp4921
g99
asbasbasbag56
(g72
g58
NtRp4922
(dp4923
g61
(dp4924
sg70
g3686
sg63
(lp4925
g56
(g77
g58
NtRp4926
(dp4927
g61
(dp4928
g81
g82
ssg70
g4922
sg63
(lp4929
S'session_new'
p4930
asbag56
(g77
g58
NtRp4931
(dp4932
g61
(dp4933
g88
g89
ssg70
g4922
sg63
(lp4934
S':'
asbag56
(g77
g58
NtRp4935
(dp4936
g61
(dp4937
sg70
g4922
sg63
(lp4938
g56
(g57
g58
NtRp4939
(dp4940
g61
(dp4941
g69
I5
ssg70
g4935
sg63
(lp4942
g1351
asbasbasbag56
(g72
g58
NtRp4943
(dp4944
g61
(dp4945
sg70
g3686
sg63
(lp4946
g56
(g77
g58
NtRp4947
(dp4948
g61
(dp4949
g81
g82
ssg70
g4943
sg63
(lp4950
S'status'
p4951
asbag56
(g77
g58
NtRp4952
(dp4953
g61
(dp4954
g88
g89
ssg70
g4943
sg63
(lp4955
S':'
asbag56
(g77
g58
NtRp4956
(dp4957
g61
(dp4958
sg70
g4943
sg63
(lp4959
g56
(g57
g58
NtRp4960
(dp4961
g61
(dp4962
g69
I5
ssg70
g4956
sg63
(lp4963
S'200'
p4964
asbasbasbag56
(g72
g58
NtRp4965
(dp4966
g61
(dp4967
sg70
g3686
sg63
(lp4968
g56
(g77
g58
NtRp4969
(dp4970
g61
(dp4971
g81
g82
ssg70
g4965
sg63
(lp4972
S'subtitle'
p4973
asbag56
(g77
g58
NtRp4974
(dp4975
g61
(dp4976
g88
g89
ssg70
g4965
sg63
(lp4977
S':'
asbag56
(g77
g58
NtRp4978
(dp4979
g61
(dp4980
sg70
g4965
sg63
(lp4981
g56
(g57
g58
NtRp4982
(dp4983
g61
(dp4984
g69
I5
ssg70
g4978
sg63
(lp4985
g4191
(S's1\x00\x00\x00Web2py and CSS, JQuery vs Dojo Image Gallery Demo'
tRp4986
asbasbasbag56
(g72
g58
NtRp4987
(dp4988
g61
(dp4989
sg70
g3686
sg63
(lp4990
g56
(g77
g58
NtRp4991
(dp4992
g61
(dp4993
g81
g82
ssg70
g4987
sg63
(lp4994
S'title'
p4995
asbag56
(g77
g58
NtRp4996
(dp4997
g61
(dp4998
g88
g89
ssg70
g4987
sg63
(lp4999
S':'
asbag56
(g77
g58
NtRp5000
(dp5001
g61
(dp5002
sg70
g4987
sg63
(lp5003
g56
(g57
g58
NtRp5004
(dp5005
g61
(dp5006
g69
I5
ssg70
g5000
sg63
(lp5007
S'My Photo Gallery Demo'
p5008
asbasbasbag56
(g72
g58
NtRp5009
(dp5010
g61
(dp5011
sg70
g3686
sg63
(lp5012
g56
(g77
g58
NtRp5013
(dp5014
g61
(dp5015
g81
g82
ssg70
g5009
sg63
(lp5016
g2800
asbag56
(g77
g58
NtRp5017
(dp5018
g61
(dp5019
g88
g89
ssg70
g5009
sg63
(lp5020
S':'
asbag56
(g77
g58
NtRp5021
(dp5022
g61
(dp5023
sg70
g5009
sg63
(lp5024
g56
(g57
g58
NtRp5025
(dp5026
g61
(dp5027
g69
I5
ssg70
g5021
sg63
(lp5028
g2813
asbasbasbag56
(g72
g58
NtRp5029
(dp5030
g61
(dp5031
sg70
g3686
sg63
(lp5032
g56
(g77
g58
NtRp5033
(dp5034
g61
(dp5035
g81
g82
ssg70
g5029
sg63
(lp5036
S'view'
p5037
asbag56
(g77
g58
NtRp5038
(dp5039
g61
(dp5040
g88
g89
ssg70
g5029
sg63
(lp5041
S':'
asbag56
(g77
g58
NtRp5042
(dp5043
g61
(dp5044
sg70
g5029
sg63
(lp5045
g56
(g57
g58
NtRp5046
(dp5047
g61
(dp5048
g69
I5
ssg70
g5042
sg63
(lp5049
S'search/xmlgettags.json'
p5050
asbasbasbasbasbsS'locals'
p5051
(dp5052
S'tags'
p5053
S'<gluon.dal.Rows object>'
p5054
sssS'traceback'
p5055
S'Traceback (most recent call last):\n  File "/home/brencam/web2py/gluon/restricted.py", line 194, in restricted\n    exec ccode in environment\n  File "/home/brencam/web2py/applications/gallery/controllers/search.py", line 156, in <module>\n  File "/home/brencam/web2py/gluon/globals.py", line 149, in <lambda>\n    self._caller = lambda f: f()\n  File "/home/brencam/web2py/applications/gallery/controllers/search.py", line 42, in xmlgettags\n    return dict(id=tags.id, name=tags.name)\nAttributeError: \'Rows\' object has no attribute \'id\'\n'
p5056
s.