(dp1
S'output'
p2
S''
sS'layer'
p3
S'/home/brencam/web2py/applications/gallery/controllers/search.py'
p4
sS'code'
p5
S'# Search Controller\nimport datetime\n\ndef getnames():\n    # for ajax search -  find list of images - match on search string\n    # (need to return list in json format ??)\n    print \'*************  processing ajax request *********** at %s\' %datetime.datetime.now().ctime()\n\n    sval =\'\'\n    if  request.vars[\'q\']:\n        sval = request.vars[\'q\']\n\n        #queries with %LIKE% ****HERE BE THE DRAGONS!!!!******\n\n        images = db(db.image.title.like(sval+\'%\')).select()\n    else:\n        images = db(db.image.ALL).select()\n\n#    html =  XML( <img src="{{=URL(\'download\', args=image.file)}}" width="120"  height="100"  for image in images)\n\n#    print \'***************   html **********\' html\n  \n    r = images[0]\n    # return image and title as link\n    return XML(DIV(LI(IMG(_src=URL(\'default\',\'download\', args= r.file), _alt="", _width="120",  _height="100"), A(r.title, _href=URL(\'default\',\'show\',r.id)))))\n\n#    return XML( A(IMG(_src=URL(\'default\',\'download\', args= r.file), _alt="", _width="120",  _height="100"), _href=URL(\'default\',\'index\')))\n\n    \n\n#<li><img  src="{{=URL(\'download\', args=image.file)}}" width="120"  height="100" />{{=A(image.title, _href=URL("show", args=image.id))}}\n#</li>\n\n\n    # Can I do a redirect from ajax request with the search results ??\n    #redirect (URL(\'default\', \'showcss\'))\n\n    # Note the URL Syntax here to create a link to a different controller (the default)\n    # How to show thumbnails for selected images here as well ??\n#    return XML(UL(*[LI(A(\'%s \' % (img.title),_href=URL(\'default\',\'show\',args=img.id)))\\\n#                    for img in images]))\n\n\n\nresponse._vars=response._caller(getnames)\n'
p6
sS'snapshot'
p7
(dp8
S'exception'
p9
(dp10
S'__hash__'
p11
S"<method-wrapper '__hash__' of exceptions.AttributeError object>"
p12
sS'__setattr__'
p13
S"<method-wrapper '__setattr__' of exceptions.AttributeError object>"
p14
sS'__reduce_ex__'
p15
S'<built-in method __reduce_ex__ of exceptions.AttributeError object>'
p16
sS'__getslice__'
p17
S"<method-wrapper '__getslice__' of exceptions.AttributeError object>"
p18
sS'__getitem__'
p19
S"<method-wrapper '__getitem__' of exceptions.AttributeError object>"
p20
sS'__setstate__'
p21
S'<built-in method __setstate__ of exceptions.AttributeError object>'
p22
sS'__reduce__'
p23
S'<built-in method __reduce__ of exceptions.AttributeError object>'
p24
sS'__str__'
p25
S"<method-wrapper '__str__' of exceptions.AttributeError object>"
p26
sS'__format__'
p27
S'<built-in method __format__ of exceptions.AttributeError object>'
p28
sS'__getattribute__'
p29
S"<method-wrapper '__getattribute__' of exceptions.AttributeError object>"
p30
sS'__class__'
p31
S"<type 'exceptions.AttributeError'>"
p32
sS'__unicode__'
p33
S'<built-in method __unicode__ of exceptions.AttributeError object>'
p34
sS'__delattr__'
p35
S"<method-wrapper '__delattr__' of exceptions.AttributeError object>"
p36
sS'__subclasshook__'
p37
S'<built-in method __subclasshook__ of type object>'
p38
sS'__repr__'
p39
S"<method-wrapper '__repr__' of exceptions.AttributeError object>"
p40
sS'args'
p41
S'("\'int\' object has no attribute \'__name__\'",)'
p42
sS'__dict__'
p43
S'{}'
p44
sS'__sizeof__'
p45
S'<built-in method __sizeof__ of exceptions.AttributeError object>'
p46
sS'__doc__'
p47
S"'Attribute not found.'"
p48
sS'__init__'
p49
S"<method-wrapper '__init__' of exceptions.AttributeError object>"
p50
sS'__new__'
p51
S'<built-in method __new__ of type object>'
p52
ssS'evalue'
p53
S"'int' object has no attribute '__name__'"
p54
sS'request'
p55
ccopy_reg
_reconstructor
p56
(cgluon.html
BEAUTIFY
p57
c__builtin__
object
p58
NtRp59
(dp60
S'attributes'
p61
(dp62
sS'components'
p63
(lp64
g56
(cgluon.html
TABLE
p65
g58
NtRp66
(dp67
g61
(dp68
S'level'
p69
I5
ssS'parent'
p70
Nsg63
(lp71
g56
(cgluon.html
TR
p72
g58
NtRp73
(dp74
g61
(dp75
sg70
g66
sg63
(lp76
g56
(cgluon.html
TD
p77
g58
NtRp78
(dp79
g61
(dp80
S'_style'
p81
S'font-weight:bold;'
p82
ssg70
g73
sg63
(lp83
S'ajax'
p84
asbag56
(g77
g58
NtRp85
(dp86
g61
(dp87
S'_valign'
p88
S'top'
p89
ssg70
g73
sg63
(lp90
S':'
asbag56
(g77
g58
NtRp91
(dp92
g61
(dp93
sg70
g73
sg63
(lp94
g56
(g57
g58
NtRp95
(dp96
g61
(dp97
g69
I5
ssg70
g91
sg63
(lp98
S'True'
p99
asbasbasbag56
(g72
g58
NtRp100
(dp101
g61
(dp102
sg70
g66
sg63
(lp103
g56
(g77
g58
NtRp104
(dp105
g61
(dp106
g81
g82
ssg70
g100
sg63
(lp107
S'application'
p108
asbag56
(g77
g58
NtRp109
(dp110
g61
(dp111
g88
g89
ssg70
g100
sg63
(lp112
S':'
asbag56
(g77
g58
NtRp113
(dp114
g61
(dp115
sg70
g100
sg63
(lp116
g56
(g57
g58
NtRp117
(dp118
g61
(dp119
g69
I5
ssg70
g113
sg63
(lp120
S'gallery'
p121
asbasbasbag56
(g72
g58
NtRp122
(dp123
g61
(dp124
sg70
g66
sg63
(lp125
g56
(g77
g58
NtRp126
(dp127
g61
(dp128
g81
g82
ssg70
g122
sg63
(lp129
g41
asbag56
(g77
g58
NtRp130
(dp131
g61
(dp132
g88
g89
ssg70
g122
sg63
(lp133
S':'
asbag56
(g77
g58
NtRp134
(dp135
g61
(dp136
sg70
g122
sg63
(lp137
g56
(g57
g58
NtRp138
(dp139
g61
(dp140
g69
I5
ssg70
g134
sg63
(lp141
g56
(g65
g58
NtRp142
(dp143
g61
(dp144
g69
I4
ssg70
Nsg63
(lp145
sbasbasbasbag56
(g72
g58
NtRp146
(dp147
g61
(dp148
sg70
g66
sg63
(lp149
g56
(g77
g58
NtRp150
(dp151
g61
(dp152
g81
g82
ssg70
g146
sg63
(lp153
S'body'
p154
asbag56
(g77
g58
NtRp155
(dp156
g61
(dp157
g88
g89
ssg70
g146
sg63
(lp158
S':'
asbag56
(g77
g58
NtRp159
(dp160
g61
(dp161
sg70
g146
sg63
(lp162
g56
(g57
g58
NtRp163
(dp164
g61
(dp165
g69
I5
ssg70
g159
sg63
(lp166
S'<cStringIO.StringO object at 0x8ab53a0>'
p167
asbasbasbag56
(g72
g58
NtRp168
(dp169
g61
(dp170
sg70
g66
sg63
(lp171
g56
(g77
g58
NtRp172
(dp173
g61
(dp174
g81
g82
ssg70
g168
sg63
(lp175
S'client'
p176
asbag56
(g77
g58
NtRp177
(dp178
g61
(dp179
g88
g89
ssg70
g168
sg63
(lp180
S':'
asbag56
(g77
g58
NtRp181
(dp182
g61
(dp183
sg70
g168
sg63
(lp184
g56
(g57
g58
NtRp185
(dp186
g61
(dp187
g69
I5
ssg70
g181
sg63
(lp188
S'127.0.0.1'
p189
asbasbasbag56
(g72
g58
NtRp190
(dp191
g61
(dp192
sg70
g66
sg63
(lp193
g56
(g77
g58
NtRp194
(dp195
g61
(dp196
g81
g82
ssg70
g190
sg63
(lp197
S'controller'
p198
asbag56
(g77
g58
NtRp199
(dp200
g61
(dp201
g88
g89
ssg70
g190
sg63
(lp202
S':'
asbag56
(g77
g58
NtRp203
(dp204
g61
(dp205
sg70
g190
sg63
(lp206
g56
(g57
g58
NtRp207
(dp208
g61
(dp209
g69
I5
ssg70
g203
sg63
(lp210
S'search'
p211
asbasbasbag56
(g72
g58
NtRp212
(dp213
g61
(dp214
sg70
g66
sg63
(lp215
g56
(g77
g58
NtRp216
(dp217
g61
(dp218
g81
g82
ssg70
g212
sg63
(lp219
S'cookies'
p220
asbag56
(g77
g58
NtRp221
(dp222
g61
(dp223
g88
g89
ssg70
g212
sg63
(lp224
S':'
asbag56
(g77
g58
NtRp225
(dp226
g61
(dp227
sg70
g212
sg63
(lp228
g56
(g57
g58
NtRp229
(dp230
g61
(dp231
g69
I5
ssg70
g225
sg63
(lp232
g56
(g65
g58
NtRp233
(dp234
g61
(dp235
g69
I4
ssg70
Nsg63
(lp236
g56
(g72
g58
NtRp237
(dp238
g61
(dp239
sg70
g233
sg63
(lp240
g56
(g77
g58
NtRp241
(dp242
g61
(dp243
g81
g82
ssg70
g237
sg63
(lp244
S'csrftoken'
p245
asbag56
(g77
g58
NtRp246
(dp247
g61
(dp248
g88
g89
ssg70
g237
sg63
(lp249
S':'
asbag56
(g77
g58
NtRp250
(dp251
g61
(dp252
sg70
g237
sg63
(lp253
g56
(g57
g58
NtRp254
(dp255
g61
(dp256
g69
I4
ssg70
g250
sg63
(lp257
g56
(g65
g58
NtRp258
(dp259
g61
(dp260
g69
I3
ssg70
Nsg63
(lp261
g56
(g72
g58
NtRp262
(dp263
g61
(dp264
sg70
g258
sg63
(lp265
g56
(g77
g58
NtRp266
(dp267
g61
(dp268
g81
g82
ssg70
g262
sg63
(lp269
S'comment'
p270
asbag56
(g77
g58
NtRp271
(dp272
g61
(dp273
g88
g89
ssg70
g262
sg63
(lp274
S':'
asbag56
(g77
g58
NtRp275
(dp276
g61
(dp277
sg70
g262
sg63
(lp278
g56
(g57
g58
NtRp279
(dp280
g61
(dp281
g69
I3
ssg70
g275
sg63
(lp282
S''
asbasbasbag56
(g72
g58
NtRp283
(dp284
g61
(dp285
sg70
g258
sg63
(lp286
g56
(g77
g58
NtRp287
(dp288
g61
(dp289
g81
g82
ssg70
g283
sg63
(lp290
S'domain'
p291
asbag56
(g77
g58
NtRp292
(dp293
g61
(dp294
g88
g89
ssg70
g283
sg63
(lp295
S':'
asbag56
(g77
g58
NtRp296
(dp297
g61
(dp298
sg70
g283
sg63
(lp299
g56
(g57
g58
NtRp300
(dp301
g61
(dp302
g69
I3
ssg70
g296
sg63
(lp303
S''
asbasbasbag56
(g72
g58
NtRp304
(dp305
g61
(dp306
sg70
g258
sg63
(lp307
g56
(g77
g58
NtRp308
(dp309
g61
(dp310
g81
g82
ssg70
g304
sg63
(lp311
S'expires'
p312
asbag56
(g77
g58
NtRp313
(dp314
g61
(dp315
g88
g89
ssg70
g304
sg63
(lp316
S':'
asbag56
(g77
g58
NtRp317
(dp318
g61
(dp319
sg70
g304
sg63
(lp320
g56
(g57
g58
NtRp321
(dp322
g61
(dp323
g69
I3
ssg70
g317
sg63
(lp324
S''
asbasbasbag56
(g72
g58
NtRp325
(dp326
g61
(dp327
sg70
g258
sg63
(lp328
g56
(g77
g58
NtRp329
(dp330
g61
(dp331
g81
g82
ssg70
g325
sg63
(lp332
S'httponly'
p333
asbag56
(g77
g58
NtRp334
(dp335
g61
(dp336
g88
g89
ssg70
g325
sg63
(lp337
S':'
asbag56
(g77
g58
NtRp338
(dp339
g61
(dp340
sg70
g325
sg63
(lp341
g56
(g57
g58
NtRp342
(dp343
g61
(dp344
g69
I3
ssg70
g338
sg63
(lp345
S''
asbasbasbag56
(g72
g58
NtRp346
(dp347
g61
(dp348
sg70
g258
sg63
(lp349
g56
(g77
g58
NtRp350
(dp351
g61
(dp352
g81
g82
ssg70
g346
sg63
(lp353
S'max-age'
p354
asbag56
(g77
g58
NtRp355
(dp356
g61
(dp357
g88
g89
ssg70
g346
sg63
(lp358
S':'
asbag56
(g77
g58
NtRp359
(dp360
g61
(dp361
sg70
g346
sg63
(lp362
g56
(g57
g58
NtRp363
(dp364
g61
(dp365
g69
I3
ssg70
g359
sg63
(lp366
S''
asbasbasbag56
(g72
g58
NtRp367
(dp368
g61
(dp369
sg70
g258
sg63
(lp370
g56
(g77
g58
NtRp371
(dp372
g61
(dp373
g81
g82
ssg70
g367
sg63
(lp374
S'path'
p375
asbag56
(g77
g58
NtRp376
(dp377
g61
(dp378
g88
g89
ssg70
g367
sg63
(lp379
S':'
asbag56
(g77
g58
NtRp380
(dp381
g61
(dp382
sg70
g367
sg63
(lp383
g56
(g57
g58
NtRp384
(dp385
g61
(dp386
g69
I3
ssg70
g380
sg63
(lp387
S''
asbasbasbag56
(g72
g58
NtRp388
(dp389
g61
(dp390
sg70
g258
sg63
(lp391
g56
(g77
g58
NtRp392
(dp393
g61
(dp394
g81
g82
ssg70
g388
sg63
(lp395
S'secure'
p396
asbag56
(g77
g58
NtRp397
(dp398
g61
(dp399
g88
g89
ssg70
g388
sg63
(lp400
S':'
asbag56
(g77
g58
NtRp401
(dp402
g61
(dp403
sg70
g388
sg63
(lp404
g56
(g57
g58
NtRp405
(dp406
g61
(dp407
g69
I3
ssg70
g401
sg63
(lp408
S''
asbasbasbag56
(g72
g58
NtRp409
(dp410
g61
(dp411
sg70
g258
sg63
(lp412
g56
(g77
g58
NtRp413
(dp414
g61
(dp415
g81
g82
ssg70
g409
sg63
(lp416
S'version'
p417
asbag56
(g77
g58
NtRp418
(dp419
g61
(dp420
g88
g89
ssg70
g409
sg63
(lp421
S':'
asbag56
(g77
g58
NtRp422
(dp423
g61
(dp424
sg70
g409
sg63
(lp425
g56
(g57
g58
NtRp426
(dp427
g61
(dp428
g69
I3
ssg70
g422
sg63
(lp429
S''
asbasbasbasbasbasbasbag56
(g72
g58
NtRp430
(dp431
g61
(dp432
sg70
g233
sg63
(lp433
g56
(g77
g58
NtRp434
(dp435
g61
(dp436
g81
g82
ssg70
g430
sg63
(lp437
S'session_id_admin'
p438
asbag56
(g77
g58
NtRp439
(dp440
g61
(dp441
g88
g89
ssg70
g430
sg63
(lp442
S':'
asbag56
(g77
g58
NtRp443
(dp444
g61
(dp445
sg70
g430
sg63
(lp446
g56
(g57
g58
NtRp447
(dp448
g61
(dp449
g69
I4
ssg70
g443
sg63
(lp450
g56
(g65
g58
NtRp451
(dp452
g61
(dp453
g69
I3
ssg70
Nsg63
(lp454
g56
(g72
g58
NtRp455
(dp456
g61
(dp457
sg70
g451
sg63
(lp458
g56
(g77
g58
NtRp459
(dp460
g61
(dp461
g81
g82
ssg70
g455
sg63
(lp462
g270
asbag56
(g77
g58
NtRp463
(dp464
g61
(dp465
g88
g89
ssg70
g455
sg63
(lp466
S':'
asbag56
(g77
g58
NtRp467
(dp468
g61
(dp469
sg70
g455
sg63
(lp470
g56
(g57
g58
NtRp471
(dp472
g61
(dp473
g69
I3
ssg70
g467
sg63
(lp474
S''
asbasbasbag56
(g72
g58
NtRp475
(dp476
g61
(dp477
sg70
g451
sg63
(lp478
g56
(g77
g58
NtRp479
(dp480
g61
(dp481
g81
g82
ssg70
g475
sg63
(lp482
g291
asbag56
(g77
g58
NtRp483
(dp484
g61
(dp485
g88
g89
ssg70
g475
sg63
(lp486
S':'
asbag56
(g77
g58
NtRp487
(dp488
g61
(dp489
sg70
g475
sg63
(lp490
g56
(g57
g58
NtRp491
(dp492
g61
(dp493
g69
I3
ssg70
g487
sg63
(lp494
S''
asbasbasbag56
(g72
g58
NtRp495
(dp496
g61
(dp497
sg70
g451
sg63
(lp498
g56
(g77
g58
NtRp499
(dp500
g61
(dp501
g81
g82
ssg70
g495
sg63
(lp502
g312
asbag56
(g77
g58
NtRp503
(dp504
g61
(dp505
g88
g89
ssg70
g495
sg63
(lp506
S':'
asbag56
(g77
g58
NtRp507
(dp508
g61
(dp509
sg70
g495
sg63
(lp510
g56
(g57
g58
NtRp511
(dp512
g61
(dp513
g69
I3
ssg70
g507
sg63
(lp514
S''
asbasbasbag56
(g72
g58
NtRp515
(dp516
g61
(dp517
sg70
g451
sg63
(lp518
g56
(g77
g58
NtRp519
(dp520
g61
(dp521
g81
g82
ssg70
g515
sg63
(lp522
g333
asbag56
(g77
g58
NtRp523
(dp524
g61
(dp525
g88
g89
ssg70
g515
sg63
(lp526
S':'
asbag56
(g77
g58
NtRp527
(dp528
g61
(dp529
sg70
g515
sg63
(lp530
g56
(g57
g58
NtRp531
(dp532
g61
(dp533
g69
I3
ssg70
g527
sg63
(lp534
S''
asbasbasbag56
(g72
g58
NtRp535
(dp536
g61
(dp537
sg70
g451
sg63
(lp538
g56
(g77
g58
NtRp539
(dp540
g61
(dp541
g81
g82
ssg70
g535
sg63
(lp542
g354
asbag56
(g77
g58
NtRp543
(dp544
g61
(dp545
g88
g89
ssg70
g535
sg63
(lp546
S':'
asbag56
(g77
g58
NtRp547
(dp548
g61
(dp549
sg70
g535
sg63
(lp550
g56
(g57
g58
NtRp551
(dp552
g61
(dp553
g69
I3
ssg70
g547
sg63
(lp554
S''
asbasbasbag56
(g72
g58
NtRp555
(dp556
g61
(dp557
sg70
g451
sg63
(lp558
g56
(g77
g58
NtRp559
(dp560
g61
(dp561
g81
g82
ssg70
g555
sg63
(lp562
g375
asbag56
(g77
g58
NtRp563
(dp564
g61
(dp565
g88
g89
ssg70
g555
sg63
(lp566
S':'
asbag56
(g77
g58
NtRp567
(dp568
g61
(dp569
sg70
g555
sg63
(lp570
g56
(g57
g58
NtRp571
(dp572
g61
(dp573
g69
I3
ssg70
g567
sg63
(lp574
S''
asbasbasbag56
(g72
g58
NtRp575
(dp576
g61
(dp577
sg70
g451
sg63
(lp578
g56
(g77
g58
NtRp579
(dp580
g61
(dp581
g81
g82
ssg70
g575
sg63
(lp582
g396
asbag56
(g77
g58
NtRp583
(dp584
g61
(dp585
g88
g89
ssg70
g575
sg63
(lp586
S':'
asbag56
(g77
g58
NtRp587
(dp588
g61
(dp589
sg70
g575
sg63
(lp590
g56
(g57
g58
NtRp591
(dp592
g61
(dp593
g69
I3
ssg70
g587
sg63
(lp594
S''
asbasbasbag56
(g72
g58
NtRp595
(dp596
g61
(dp597
sg70
g451
sg63
(lp598
g56
(g77
g58
NtRp599
(dp600
g61
(dp601
g81
g82
ssg70
g595
sg63
(lp602
g417
asbag56
(g77
g58
NtRp603
(dp604
g61
(dp605
g88
g89
ssg70
g595
sg63
(lp606
S':'
asbag56
(g77
g58
NtRp607
(dp608
g61
(dp609
sg70
g595
sg63
(lp610
g56
(g57
g58
NtRp611
(dp612
g61
(dp613
g69
I3
ssg70
g607
sg63
(lp614
S''
asbasbasbasbasbasbasbag56
(g72
g58
NtRp615
(dp616
g61
(dp617
sg70
g233
sg63
(lp618
g56
(g77
g58
NtRp619
(dp620
g61
(dp621
g81
g82
ssg70
g615
sg63
(lp622
S'session_id_gallery'
p623
asbag56
(g77
g58
NtRp624
(dp625
g61
(dp626
g88
g89
ssg70
g615
sg63
(lp627
S':'
asbag56
(g77
g58
NtRp628
(dp629
g61
(dp630
sg70
g615
sg63
(lp631
g56
(g57
g58
NtRp632
(dp633
g61
(dp634
g69
I4
ssg70
g628
sg63
(lp635
g56
(g65
g58
NtRp636
(dp637
g61
(dp638
g69
I3
ssg70
Nsg63
(lp639
g56
(g72
g58
NtRp640
(dp641
g61
(dp642
sg70
g636
sg63
(lp643
g56
(g77
g58
NtRp644
(dp645
g61
(dp646
g81
g82
ssg70
g640
sg63
(lp647
g270
asbag56
(g77
g58
NtRp648
(dp649
g61
(dp650
g88
g89
ssg70
g640
sg63
(lp651
S':'
asbag56
(g77
g58
NtRp652
(dp653
g61
(dp654
sg70
g640
sg63
(lp655
g56
(g57
g58
NtRp656
(dp657
g61
(dp658
g69
I3
ssg70
g652
sg63
(lp659
S''
asbasbasbag56
(g72
g58
NtRp660
(dp661
g61
(dp662
sg70
g636
sg63
(lp663
g56
(g77
g58
NtRp664
(dp665
g61
(dp666
g81
g82
ssg70
g660
sg63
(lp667
g291
asbag56
(g77
g58
NtRp668
(dp669
g61
(dp670
g88
g89
ssg70
g660
sg63
(lp671
S':'
asbag56
(g77
g58
NtRp672
(dp673
g61
(dp674
sg70
g660
sg63
(lp675
g56
(g57
g58
NtRp676
(dp677
g61
(dp678
g69
I3
ssg70
g672
sg63
(lp679
S''
asbasbasbag56
(g72
g58
NtRp680
(dp681
g61
(dp682
sg70
g636
sg63
(lp683
g56
(g77
g58
NtRp684
(dp685
g61
(dp686
g81
g82
ssg70
g680
sg63
(lp687
g312
asbag56
(g77
g58
NtRp688
(dp689
g61
(dp690
g88
g89
ssg70
g680
sg63
(lp691
S':'
asbag56
(g77
g58
NtRp692
(dp693
g61
(dp694
sg70
g680
sg63
(lp695
g56
(g57
g58
NtRp696
(dp697
g61
(dp698
g69
I3
ssg70
g692
sg63
(lp699
S''
asbasbasbag56
(g72
g58
NtRp700
(dp701
g61
(dp702
sg70
g636
sg63
(lp703
g56
(g77
g58
NtRp704
(dp705
g61
(dp706
g81
g82
ssg70
g700
sg63
(lp707
g333
asbag56
(g77
g58
NtRp708
(dp709
g61
(dp710
g88
g89
ssg70
g700
sg63
(lp711
S':'
asbag56
(g77
g58
NtRp712
(dp713
g61
(dp714
sg70
g700
sg63
(lp715
g56
(g57
g58
NtRp716
(dp717
g61
(dp718
g69
I3
ssg70
g712
sg63
(lp719
S''
asbasbasbag56
(g72
g58
NtRp720
(dp721
g61
(dp722
sg70
g636
sg63
(lp723
g56
(g77
g58
NtRp724
(dp725
g61
(dp726
g81
g82
ssg70
g720
sg63
(lp727
g354
asbag56
(g77
g58
NtRp728
(dp729
g61
(dp730
g88
g89
ssg70
g720
sg63
(lp731
S':'
asbag56
(g77
g58
NtRp732
(dp733
g61
(dp734
sg70
g720
sg63
(lp735
g56
(g57
g58
NtRp736
(dp737
g61
(dp738
g69
I3
ssg70
g732
sg63
(lp739
S''
asbasbasbag56
(g72
g58
NtRp740
(dp741
g61
(dp742
sg70
g636
sg63
(lp743
g56
(g77
g58
NtRp744
(dp745
g61
(dp746
g81
g82
ssg70
g740
sg63
(lp747
g375
asbag56
(g77
g58
NtRp748
(dp749
g61
(dp750
g88
g89
ssg70
g740
sg63
(lp751
S':'
asbag56
(g77
g58
NtRp752
(dp753
g61
(dp754
sg70
g740
sg63
(lp755
g56
(g57
g58
NtRp756
(dp757
g61
(dp758
g69
I3
ssg70
g752
sg63
(lp759
S''
asbasbasbag56
(g72
g58
NtRp760
(dp761
g61
(dp762
sg70
g636
sg63
(lp763
g56
(g77
g58
NtRp764
(dp765
g61
(dp766
g81
g82
ssg70
g760
sg63
(lp767
g396
asbag56
(g77
g58
NtRp768
(dp769
g61
(dp770
g88
g89
ssg70
g760
sg63
(lp771
S':'
asbag56
(g77
g58
NtRp772
(dp773
g61
(dp774
sg70
g760
sg63
(lp775
g56
(g57
g58
NtRp776
(dp777
g61
(dp778
g69
I3
ssg70
g772
sg63
(lp779
S''
asbasbasbag56
(g72
g58
NtRp780
(dp781
g61
(dp782
sg70
g636
sg63
(lp783
g56
(g77
g58
NtRp784
(dp785
g61
(dp786
g81
g82
ssg70
g780
sg63
(lp787
g417
asbag56
(g77
g58
NtRp788
(dp789
g61
(dp790
g88
g89
ssg70
g780
sg63
(lp791
S':'
asbag56
(g77
g58
NtRp792
(dp793
g61
(dp794
sg70
g780
sg63
(lp795
g56
(g57
g58
NtRp796
(dp797
g61
(dp798
g69
I3
ssg70
g792
sg63
(lp799
S''
asbasbasbasbasbasbasbag56
(g72
g58
NtRp800
(dp801
g61
(dp802
sg70
g233
sg63
(lp803
g56
(g77
g58
NtRp804
(dp805
g61
(dp806
g81
g82
ssg70
g800
sg63
(lp807
S'session_id_welcome'
p808
asbag56
(g77
g58
NtRp809
(dp810
g61
(dp811
g88
g89
ssg70
g800
sg63
(lp812
S':'
asbag56
(g77
g58
NtRp813
(dp814
g61
(dp815
sg70
g800
sg63
(lp816
g56
(g57
g58
NtRp817
(dp818
g61
(dp819
g69
I4
ssg70
g813
sg63
(lp820
g56
(g65
g58
NtRp821
(dp822
g61
(dp823
g69
I3
ssg70
Nsg63
(lp824
g56
(g72
g58
NtRp825
(dp826
g61
(dp827
sg70
g821
sg63
(lp828
g56
(g77
g58
NtRp829
(dp830
g61
(dp831
g81
g82
ssg70
g825
sg63
(lp832
g270
asbag56
(g77
g58
NtRp833
(dp834
g61
(dp835
g88
g89
ssg70
g825
sg63
(lp836
S':'
asbag56
(g77
g58
NtRp837
(dp838
g61
(dp839
sg70
g825
sg63
(lp840
g56
(g57
g58
NtRp841
(dp842
g61
(dp843
g69
I3
ssg70
g837
sg63
(lp844
S''
asbasbasbag56
(g72
g58
NtRp845
(dp846
g61
(dp847
sg70
g821
sg63
(lp848
g56
(g77
g58
NtRp849
(dp850
g61
(dp851
g81
g82
ssg70
g845
sg63
(lp852
g291
asbag56
(g77
g58
NtRp853
(dp854
g61
(dp855
g88
g89
ssg70
g845
sg63
(lp856
S':'
asbag56
(g77
g58
NtRp857
(dp858
g61
(dp859
sg70
g845
sg63
(lp860
g56
(g57
g58
NtRp861
(dp862
g61
(dp863
g69
I3
ssg70
g857
sg63
(lp864
S''
asbasbasbag56
(g72
g58
NtRp865
(dp866
g61
(dp867
sg70
g821
sg63
(lp868
g56
(g77
g58
NtRp869
(dp870
g61
(dp871
g81
g82
ssg70
g865
sg63
(lp872
g312
asbag56
(g77
g58
NtRp873
(dp874
g61
(dp875
g88
g89
ssg70
g865
sg63
(lp876
S':'
asbag56
(g77
g58
NtRp877
(dp878
g61
(dp879
sg70
g865
sg63
(lp880
g56
(g57
g58
NtRp881
(dp882
g61
(dp883
g69
I3
ssg70
g877
sg63
(lp884
S''
asbasbasbag56
(g72
g58
NtRp885
(dp886
g61
(dp887
sg70
g821
sg63
(lp888
g56
(g77
g58
NtRp889
(dp890
g61
(dp891
g81
g82
ssg70
g885
sg63
(lp892
g333
asbag56
(g77
g58
NtRp893
(dp894
g61
(dp895
g88
g89
ssg70
g885
sg63
(lp896
S':'
asbag56
(g77
g58
NtRp897
(dp898
g61
(dp899
sg70
g885
sg63
(lp900
g56
(g57
g58
NtRp901
(dp902
g61
(dp903
g69
I3
ssg70
g897
sg63
(lp904
S''
asbasbasbag56
(g72
g58
NtRp905
(dp906
g61
(dp907
sg70
g821
sg63
(lp908
g56
(g77
g58
NtRp909
(dp910
g61
(dp911
g81
g82
ssg70
g905
sg63
(lp912
g354
asbag56
(g77
g58
NtRp913
(dp914
g61
(dp915
g88
g89
ssg70
g905
sg63
(lp916
S':'
asbag56
(g77
g58
NtRp917
(dp918
g61
(dp919
sg70
g905
sg63
(lp920
g56
(g57
g58
NtRp921
(dp922
g61
(dp923
g69
I3
ssg70
g917
sg63
(lp924
S''
asbasbasbag56
(g72
g58
NtRp925
(dp926
g61
(dp927
sg70
g821
sg63
(lp928
g56
(g77
g58
NtRp929
(dp930
g61
(dp931
g81
g82
ssg70
g925
sg63
(lp932
g375
asbag56
(g77
g58
NtRp933
(dp934
g61
(dp935
g88
g89
ssg70
g925
sg63
(lp936
S':'
asbag56
(g77
g58
NtRp937
(dp938
g61
(dp939
sg70
g925
sg63
(lp940
g56
(g57
g58
NtRp941
(dp942
g61
(dp943
g69
I3
ssg70
g937
sg63
(lp944
S''
asbasbasbag56
(g72
g58
NtRp945
(dp946
g61
(dp947
sg70
g821
sg63
(lp948
g56
(g77
g58
NtRp949
(dp950
g61
(dp951
g81
g82
ssg70
g945
sg63
(lp952
g396
asbag56
(g77
g58
NtRp953
(dp954
g61
(dp955
g88
g89
ssg70
g945
sg63
(lp956
S':'
asbag56
(g77
g58
NtRp957
(dp958
g61
(dp959
sg70
g945
sg63
(lp960
g56
(g57
g58
NtRp961
(dp962
g61
(dp963
g69
I3
ssg70
g957
sg63
(lp964
S''
asbasbasbag56
(g72
g58
NtRp965
(dp966
g61
(dp967
sg70
g821
sg63
(lp968
g56
(g77
g58
NtRp969
(dp970
g61
(dp971
g81
g82
ssg70
g965
sg63
(lp972
g417
asbag56
(g77
g58
NtRp973
(dp974
g61
(dp975
g88
g89
ssg70
g965
sg63
(lp976
S':'
asbag56
(g77
g58
NtRp977
(dp978
g61
(dp979
sg70
g965
sg63
(lp980
g56
(g57
g58
NtRp981
(dp982
g61
(dp983
g69
I3
ssg70
g977
sg63
(lp984
S''
asbasbasbasbasbasbasbasbasbasbasbag56
(g72
g58
NtRp985
(dp986
g61
(dp987
sg70
g66
sg63
(lp988
g56
(g77
g58
NtRp989
(dp990
g61
(dp991
g81
g82
ssg70
g985
sg63
(lp992
S'env'
p993
asbag56
(g77
g58
NtRp994
(dp995
g61
(dp996
g88
g89
ssg70
g985
sg63
(lp997
S':'
asbag56
(g77
g58
NtRp998
(dp999
g61
(dp1000
sg70
g985
sg63
(lp1001
g56
(g57
g58
NtRp1002
(dp1003
g61
(dp1004
g69
I5
ssg70
g998
sg63
(lp1005
g56
(g65
g58
NtRp1006
(dp1007
g61
(dp1008
g69
I4
ssg70
Nsg63
(lp1009
g56
(g72
g58
NtRp1010
(dp1011
g61
(dp1012
sg70
g1006
sg63
(lp1013
g56
(g77
g58
NtRp1014
(dp1015
g61
(dp1016
g81
g82
ssg70
g1010
sg63
(lp1017
S'app_folders'
p1018
asbag56
(g77
g58
NtRp1019
(dp1020
g61
(dp1021
g88
g89
ssg70
g1010
sg63
(lp1022
S':'
asbag56
(g77
g58
NtRp1023
(dp1024
g61
(dp1025
sg70
g1010
sg63
(lp1026
g56
(g57
g58
NtRp1027
(dp1028
g61
(dp1029
g69
I4
ssg70
g1023
sg63
(lp1030
S"set(['/home/brencam/web2py/applications/gallery/'])"
p1031
asbasbasbag56
(g72
g58
NtRp1032
(dp1033
g61
(dp1034
sg70
g1006
sg63
(lp1035
g56
(g77
g58
NtRp1036
(dp1037
g61
(dp1038
g81
g82
ssg70
g1032
sg63
(lp1039
S'applications_parent'
p1040
asbag56
(g77
g58
NtRp1041
(dp1042
g61
(dp1043
g88
g89
ssg70
g1032
sg63
(lp1044
S':'
asbag56
(g77
g58
NtRp1045
(dp1046
g61
(dp1047
sg70
g1032
sg63
(lp1048
g56
(g57
g58
NtRp1049
(dp1050
g61
(dp1051
g69
I4
ssg70
g1045
sg63
(lp1052
S'/home/brencam/web2py'
p1053
asbasbasbag56
(g72
g58
NtRp1054
(dp1055
g61
(dp1056
sg70
g1006
sg63
(lp1057
g56
(g77
g58
NtRp1058
(dp1059
g61
(dp1060
g81
g82
ssg70
g1054
sg63
(lp1061
S'cmd_args'
p1062
asbag56
(g77
g58
NtRp1063
(dp1064
g61
(dp1065
g88
g89
ssg70
g1054
sg63
(lp1066
S':'
asbag56
(g77
g58
NtRp1067
(dp1068
g61
(dp1069
sg70
g1054
sg63
(lp1070
g56
(g57
g58
NtRp1071
(dp1072
g61
(dp1073
g69
I4
ssg70
g1067
sg63
(lp1074
g56
(g65
g58
NtRp1075
(dp1076
g61
(dp1077
g69
I3
ssg70
Nsg63
(lp1078
sbasbasbasbag56
(g72
g58
NtRp1079
(dp1080
g61
(dp1081
sg70
g1006
sg63
(lp1082
g56
(g77
g58
NtRp1083
(dp1084
g61
(dp1085
g81
g82
ssg70
g1079
sg63
(lp1086
S'cmd_options'
p1087
asbag56
(g77
g58
NtRp1088
(dp1089
g61
(dp1090
g88
g89
ssg70
g1079
sg63
(lp1091
S':'
asbag56
(g77
g58
NtRp1092
(dp1093
g61
(dp1094
sg70
g1079
sg63
(lp1095
g56
(g57
g58
NtRp1096
(dp1097
g61
(dp1098
g69
I4
ssg70
g1092
sg63
(lp1099
S"<Values at 0x8e5026c: {'verbose': False, 'ip': '127.0.0.1', 'shutdown_timeout': 5, 'taskbar': False, 'nocron': False, 'pid_filename': 'httpserver.pid', 'maxthreads': None, 'softcron': False, 'server_name': 'localhost.localdomain', 'bpython': False, 'nogui': False, 'port': 8000, 'extcron': False, 'debuglevel': 30, 'test': None, 'folder': '/home/brencam/web2py', 'config': '', 'import_models': False, 'winservice': '', 'shell': None, 'run': '', 'log_filename': 'httpserver.log', 'args': [''], 'ssl_ca_certificate': None, 'scheduler': None, 'profiler_filename': None, 'ssl_private_key': '', 'password': 'admin', 'request_queue_size': 5, 'ssl_certificate': '', 'cronjob': False, 'plain': False, 'quiet': False, 'interfaces': None, 'minthreads': None, 'timeout': 10, 'numthreads': None, 'nobanner': False}>"
p1100
asbasbasbag56
(g72
g58
NtRp1101
(dp1102
g61
(dp1103
sg70
g1006
sg63
(lp1104
g56
(g77
g58
NtRp1105
(dp1106
g61
(dp1107
g81
g82
ssg70
g1101
sg63
(lp1108
S'content_type'
p1109
asbag56
(g77
g58
NtRp1110
(dp1111
g61
(dp1112
g88
g89
ssg70
g1101
sg63
(lp1113
S':'
asbag56
(g77
g58
NtRp1114
(dp1115
g61
(dp1116
sg70
g1101
sg63
(lp1117
g56
(g57
g58
NtRp1118
(dp1119
g61
(dp1120
g69
I4
ssg70
g1114
sg63
(lp1121
S'application/x-www-form-urlencoded'
p1122
asbasbasbag56
(g72
g58
NtRp1123
(dp1124
g61
(dp1125
sg70
g1006
sg63
(lp1126
g56
(g77
g58
NtRp1127
(dp1128
g61
(dp1129
g81
g82
ssg70
g1123
sg63
(lp1130
S'db_sessions'
p1131
asbag56
(g77
g58
NtRp1132
(dp1133
g61
(dp1134
g88
g89
ssg70
g1123
sg63
(lp1135
S':'
asbag56
(g77
g58
NtRp1136
(dp1137
g61
(dp1138
sg70
g1123
sg63
(lp1139
g56
(g57
g58
NtRp1140
(dp1141
g61
(dp1142
g69
I4
ssg70
g1136
sg63
(lp1143
S'set([])'
p1144
asbasbasbag56
(g72
g58
NtRp1145
(dp1146
g61
(dp1147
sg70
g1006
sg63
(lp1148
g56
(g77
g58
NtRp1149
(dp1150
g61
(dp1151
g81
g82
ssg70
g1145
sg63
(lp1152
S'debugging'
p1153
asbag56
(g77
g58
NtRp1154
(dp1155
g61
(dp1156
g88
g89
ssg70
g1145
sg63
(lp1157
S':'
asbag56
(g77
g58
NtRp1158
(dp1159
g61
(dp1160
sg70
g1145
sg63
(lp1161
g56
(g57
g58
NtRp1162
(dp1163
g61
(dp1164
g69
I4
ssg70
g1158
sg63
(lp1165
S'False'
p1166
asbasbasbag56
(g72
g58
NtRp1167
(dp1168
g61
(dp1169
sg70
g1006
sg63
(lp1170
g56
(g77
g58
NtRp1171
(dp1172
g61
(dp1173
g81
g82
ssg70
g1167
sg63
(lp1174
S'gluon_parent'
p1175
asbag56
(g77
g58
NtRp1176
(dp1177
g61
(dp1178
g88
g89
ssg70
g1167
sg63
(lp1179
S':'
asbag56
(g77
g58
NtRp1180
(dp1181
g61
(dp1182
sg70
g1167
sg63
(lp1183
g56
(g57
g58
NtRp1184
(dp1185
g61
(dp1186
g69
I4
ssg70
g1180
sg63
(lp1187
S'/home/brencam/web2py'
p1188
asbasbasbag56
(g72
g58
NtRp1189
(dp1190
g61
(dp1191
sg70
g1006
sg63
(lp1192
g56
(g77
g58
NtRp1193
(dp1194
g61
(dp1195
g81
g82
ssg70
g1189
sg63
(lp1196
S'http_accept'
p1197
asbag56
(g77
g58
NtRp1198
(dp1199
g61
(dp1200
g88
g89
ssg70
g1189
sg63
(lp1201
S':'
asbag56
(g77
g58
NtRp1202
(dp1203
g61
(dp1204
sg70
g1189
sg63
(lp1205
g56
(g57
g58
NtRp1206
(dp1207
g61
(dp1208
g69
I4
ssg70
g1202
sg63
(lp1209
S'*/*'
p1210
asbasbasbag56
(g72
g58
NtRp1211
(dp1212
g61
(dp1213
sg70
g1006
sg63
(lp1214
g56
(g77
g58
NtRp1215
(dp1216
g61
(dp1217
g81
g82
ssg70
g1211
sg63
(lp1218
S'http_accept_charset'
p1219
asbag56
(g77
g58
NtRp1220
(dp1221
g61
(dp1222
g88
g89
ssg70
g1211
sg63
(lp1223
S':'
asbag56
(g77
g58
NtRp1224
(dp1225
g61
(dp1226
sg70
g1211
sg63
(lp1227
g56
(g57
g58
NtRp1228
(dp1229
g61
(dp1230
g69
I4
ssg70
g1224
sg63
(lp1231
S'ISO-8859-1,utf-8;q=0.7,*;q=0.3'
p1232
asbasbasbag56
(g72
g58
NtRp1233
(dp1234
g61
(dp1235
sg70
g1006
sg63
(lp1236
g56
(g77
g58
NtRp1237
(dp1238
g61
(dp1239
g81
g82
ssg70
g1233
sg63
(lp1240
S'http_accept_encoding'
p1241
asbag56
(g77
g58
NtRp1242
(dp1243
g61
(dp1244
g88
g89
ssg70
g1233
sg63
(lp1245
S':'
asbag56
(g77
g58
NtRp1246
(dp1247
g61
(dp1248
sg70
g1233
sg63
(lp1249
g56
(g57
g58
NtRp1250
(dp1251
g61
(dp1252
g69
I4
ssg70
g1246
sg63
(lp1253
S'gzip,deflate,sdch'
p1254
asbasbasbag56
(g72
g58
NtRp1255
(dp1256
g61
(dp1257
sg70
g1006
sg63
(lp1258
g56
(g77
g58
NtRp1259
(dp1260
g61
(dp1261
g81
g82
ssg70
g1255
sg63
(lp1262
S'http_accept_language'
p1263
asbag56
(g77
g58
NtRp1264
(dp1265
g61
(dp1266
g88
g89
ssg70
g1255
sg63
(lp1267
S':'
asbag56
(g77
g58
NtRp1268
(dp1269
g61
(dp1270
sg70
g1255
sg63
(lp1271
g56
(g57
g58
NtRp1272
(dp1273
g61
(dp1274
g69
I4
ssg70
g1268
sg63
(lp1275
S'en-US,en;q=0.8'
p1276
asbasbasbag56
(g72
g58
NtRp1277
(dp1278
g61
(dp1279
sg70
g1006
sg63
(lp1280
g56
(g77
g58
NtRp1281
(dp1282
g61
(dp1283
g81
g82
ssg70
g1277
sg63
(lp1284
S'http_connection'
p1285
asbag56
(g77
g58
NtRp1286
(dp1287
g61
(dp1288
g88
g89
ssg70
g1277
sg63
(lp1289
S':'
asbag56
(g77
g58
NtRp1290
(dp1291
g61
(dp1292
sg70
g1277
sg63
(lp1293
g56
(g57
g58
NtRp1294
(dp1295
g61
(dp1296
g69
I4
ssg70
g1290
sg63
(lp1297
S'keep-alive'
p1298
asbasbasbag56
(g72
g58
NtRp1299
(dp1300
g61
(dp1301
sg70
g1006
sg63
(lp1302
g56
(g77
g58
NtRp1303
(dp1304
g61
(dp1305
g81
g82
ssg70
g1299
sg63
(lp1306
S'http_content_type'
p1307
asbag56
(g77
g58
NtRp1308
(dp1309
g61
(dp1310
g88
g89
ssg70
g1299
sg63
(lp1311
S':'
asbag56
(g77
g58
NtRp1312
(dp1313
g61
(dp1314
sg70
g1299
sg63
(lp1315
g56
(g57
g58
NtRp1316
(dp1317
g61
(dp1318
g69
I4
ssg70
g1312
sg63
(lp1319
g1122
asbasbasbag56
(g72
g58
NtRp1320
(dp1321
g61
(dp1322
sg70
g1006
sg63
(lp1323
g56
(g77
g58
NtRp1324
(dp1325
g61
(dp1326
g81
g82
ssg70
g1320
sg63
(lp1327
S'http_cookie'
p1328
asbag56
(g77
g58
NtRp1329
(dp1330
g61
(dp1331
g88
g89
ssg70
g1320
sg63
(lp1332
S':'
asbag56
(g77
g58
NtRp1333
(dp1334
g61
(dp1335
sg70
g1320
sg63
(lp1336
g56
(g57
g58
NtRp1337
(dp1338
g61
(dp1339
g69
I4
ssg70
g1333
sg63
(lp1340
S'__utma=96992031.552746526.1281494094.1291180555.1291186411.9; csrftoken=7b3621df70ed8d65c15785486fff8908; __utma_a2a=7438973308.1350086890.1318529964.1318645324.1318645410.28; session_id_welcome=127.0.0.1-9322c3cc-e1a6-4fc2-b7c8-5cd888a9f623; session_id_admin=127.0.0.1-b8619749-4c92-404b-8804-b812f3f5a3ed; session_id_gallery=127.0.0.1-5764d7f9-8178-4db1-bc94-76589577a2e3'
p1341
asbasbasbag56
(g72
g58
NtRp1342
(dp1343
g61
(dp1344
sg70
g1006
sg63
(lp1345
g56
(g77
g58
NtRp1346
(dp1347
g61
(dp1348
g81
g82
ssg70
g1342
sg63
(lp1349
S'http_host'
p1350
asbag56
(g77
g58
NtRp1351
(dp1352
g61
(dp1353
g88
g89
ssg70
g1342
sg63
(lp1354
S':'
asbag56
(g77
g58
NtRp1355
(dp1356
g61
(dp1357
sg70
g1342
sg63
(lp1358
g56
(g57
g58
NtRp1359
(dp1360
g61
(dp1361
g69
I4
ssg70
g1355
sg63
(lp1362
S'127.0.0.1:8000'
p1363
asbasbasbag56
(g72
g58
NtRp1364
(dp1365
g61
(dp1366
sg70
g1006
sg63
(lp1367
g56
(g77
g58
NtRp1368
(dp1369
g61
(dp1370
g81
g82
ssg70
g1364
sg63
(lp1371
S'http_referer'
p1372
asbag56
(g77
g58
NtRp1373
(dp1374
g61
(dp1375
g88
g89
ssg70
g1364
sg63
(lp1376
S':'
asbag56
(g77
g58
NtRp1377
(dp1378
g61
(dp1379
sg70
g1364
sg63
(lp1380
g56
(g57
g58
NtRp1381
(dp1382
g61
(dp1383
g69
I4
ssg70
g1377
sg63
(lp1384
S'http://127.0.0.1:8000/gallery/default/sendform'
p1385
asbasbasbag56
(g72
g58
NtRp1386
(dp1387
g61
(dp1388
sg70
g1006
sg63
(lp1389
g56
(g77
g58
NtRp1390
(dp1391
g61
(dp1392
g81
g82
ssg70
g1386
sg63
(lp1393
S'http_user_agent'
p1394
asbag56
(g77
g58
NtRp1395
(dp1396
g61
(dp1397
g88
g89
ssg70
g1386
sg63
(lp1398
S':'
asbag56
(g77
g58
NtRp1399
(dp1400
g61
(dp1401
sg70
g1386
sg63
(lp1402
g56
(g57
g58
NtRp1403
(dp1404
g61
(dp1405
g69
I4
ssg70
g1399
sg63
(lp1406
S'Mozilla/5.0 (X11; Linux i686) AppleWebKit/535.1 (KHTML, like Gecko) Chrome/14.0.835.204 Safari/535.1'
p1407
asbasbasbag56
(g72
g58
NtRp1408
(dp1409
g61
(dp1410
sg70
g1006
sg63
(lp1411
g56
(g77
g58
NtRp1412
(dp1413
g61
(dp1414
g81
g82
ssg70
g1408
sg63
(lp1415
S'http_x_requested_with'
p1416
asbag56
(g77
g58
NtRp1417
(dp1418
g61
(dp1419
g88
g89
ssg70
g1408
sg63
(lp1420
S':'
asbag56
(g77
g58
NtRp1421
(dp1422
g61
(dp1423
sg70
g1408
sg63
(lp1424
g56
(g57
g58
NtRp1425
(dp1426
g61
(dp1427
g69
I4
ssg70
g1421
sg63
(lp1428
S'XMLHttpRequest'
p1429
asbasbasbag56
(g72
g58
NtRp1430
(dp1431
g61
(dp1432
sg70
g1006
sg63
(lp1433
g56
(g77
g58
NtRp1434
(dp1435
g61
(dp1436
g81
g82
ssg70
g1430
sg63
(lp1437
S'is_jython'
p1438
asbag56
(g77
g58
NtRp1439
(dp1440
g61
(dp1441
g88
g89
ssg70
g1430
sg63
(lp1442
S':'
asbag56
(g77
g58
NtRp1443
(dp1444
g61
(dp1445
sg70
g1430
sg63
(lp1446
g56
(g57
g58
NtRp1447
(dp1448
g61
(dp1449
g69
I4
ssg70
g1443
sg63
(lp1450
g1166
asbasbasbag56
(g72
g58
NtRp1451
(dp1452
g61
(dp1453
sg70
g1006
sg63
(lp1454
g56
(g77
g58
NtRp1455
(dp1456
g61
(dp1457
g81
g82
ssg70
g1451
sg63
(lp1458
S'path_info'
p1459
asbag56
(g77
g58
NtRp1460
(dp1461
g61
(dp1462
g88
g89
ssg70
g1451
sg63
(lp1463
S':'
asbag56
(g77
g58
NtRp1464
(dp1465
g61
(dp1466
sg70
g1451
sg63
(lp1467
g56
(g57
g58
NtRp1468
(dp1469
g61
(dp1470
g69
I4
ssg70
g1464
sg63
(lp1471
S'/gallery/search/getnames'
p1472
asbasbasbag56
(g72
g58
NtRp1473
(dp1474
g61
(dp1475
sg70
g1006
sg63
(lp1476
g56
(g77
g58
NtRp1477
(dp1478
g61
(dp1479
g81
g82
ssg70
g1473
sg63
(lp1480
S'query_string'
p1481
asbag56
(g77
g58
NtRp1482
(dp1483
g61
(dp1484
g88
g89
ssg70
g1473
sg63
(lp1485
S':'
asbag56
(g77
g58
NtRp1486
(dp1487
g61
(dp1488
sg70
g1473
sg63
(lp1489
g56
(g57
g58
NtRp1490
(dp1491
g61
(dp1492
g69
I4
ssg70
g1486
sg63
(lp1493
S'q=p'
p1494
asbasbasbag56
(g72
g58
NtRp1495
(dp1496
g61
(dp1497
sg70
g1006
sg63
(lp1498
g56
(g77
g58
NtRp1499
(dp1500
g61
(dp1501
g81
g82
ssg70
g1495
sg63
(lp1502
S'remote_addr'
p1503
asbag56
(g77
g58
NtRp1504
(dp1505
g61
(dp1506
g88
g89
ssg70
g1495
sg63
(lp1507
S':'
asbag56
(g77
g58
NtRp1508
(dp1509
g61
(dp1510
sg70
g1495
sg63
(lp1511
g56
(g57
g58
NtRp1512
(dp1513
g61
(dp1514
g69
I4
ssg70
g1508
sg63
(lp1515
g189
asbasbasbag56
(g72
g58
NtRp1516
(dp1517
g61
(dp1518
sg70
g1006
sg63
(lp1519
g56
(g77
g58
NtRp1520
(dp1521
g61
(dp1522
g81
g82
ssg70
g1516
sg63
(lp1523
S'remote_port'
p1524
asbag56
(g77
g58
NtRp1525
(dp1526
g61
(dp1527
g88
g89
ssg70
g1516
sg63
(lp1528
S':'
asbag56
(g77
g58
NtRp1529
(dp1530
g61
(dp1531
sg70
g1516
sg63
(lp1532
g56
(g57
g58
NtRp1533
(dp1534
g61
(dp1535
g69
I4
ssg70
g1529
sg63
(lp1536
S'51150'
p1537
asbasbasbag56
(g72
g58
NtRp1538
(dp1539
g61
(dp1540
sg70
g1006
sg63
(lp1541
g56
(g77
g58
NtRp1542
(dp1543
g61
(dp1544
g81
g82
ssg70
g1538
sg63
(lp1545
S'request_method'
p1546
asbag56
(g77
g58
NtRp1547
(dp1548
g61
(dp1549
g88
g89
ssg70
g1538
sg63
(lp1550
S':'
asbag56
(g77
g58
NtRp1551
(dp1552
g61
(dp1553
sg70
g1538
sg63
(lp1554
g56
(g57
g58
NtRp1555
(dp1556
g61
(dp1557
g69
I4
ssg70
g1551
sg63
(lp1558
S'GET'
p1559
asbasbasbag56
(g72
g58
NtRp1560
(dp1561
g61
(dp1562
sg70
g1006
sg63
(lp1563
g56
(g77
g58
NtRp1564
(dp1565
g61
(dp1566
g81
g82
ssg70
g1560
sg63
(lp1567
S'script_name'
p1568
asbag56
(g77
g58
NtRp1569
(dp1570
g61
(dp1571
g88
g89
ssg70
g1560
sg63
(lp1572
S':'
asbag56
(g77
g58
NtRp1573
(dp1574
g61
(dp1575
sg70
g1560
sg63
(lp1576
g56
(g57
g58
NtRp1577
(dp1578
g61
(dp1579
g69
I4
ssg70
g1573
sg63
(lp1580
S''
asbasbasbag56
(g72
g58
NtRp1581
(dp1582
g61
(dp1583
sg70
g1006
sg63
(lp1584
g56
(g77
g58
NtRp1585
(dp1586
g61
(dp1587
g81
g82
ssg70
g1581
sg63
(lp1588
S'server_name'
p1589
asbag56
(g77
g58
NtRp1590
(dp1591
g61
(dp1592
g88
g89
ssg70
g1581
sg63
(lp1593
S':'
asbag56
(g77
g58
NtRp1594
(dp1595
g61
(dp1596
sg70
g1581
sg63
(lp1597
g56
(g57
g58
NtRp1598
(dp1599
g61
(dp1600
g69
I4
ssg70
g1594
sg63
(lp1601
S'localhost.localdomain'
p1602
asbasbasbag56
(g72
g58
NtRp1603
(dp1604
g61
(dp1605
sg70
g1006
sg63
(lp1606
g56
(g77
g58
NtRp1607
(dp1608
g61
(dp1609
g81
g82
ssg70
g1603
sg63
(lp1610
S'server_port'
p1611
asbag56
(g77
g58
NtRp1612
(dp1613
g61
(dp1614
g88
g89
ssg70
g1603
sg63
(lp1615
S':'
asbag56
(g77
g58
NtRp1616
(dp1617
g61
(dp1618
sg70
g1603
sg63
(lp1619
g56
(g57
g58
NtRp1620
(dp1621
g61
(dp1622
g69
I4
ssg70
g1616
sg63
(lp1623
S'8000'
p1624
asbasbasbag56
(g72
g58
NtRp1625
(dp1626
g61
(dp1627
sg70
g1006
sg63
(lp1628
g56
(g77
g58
NtRp1629
(dp1630
g61
(dp1631
g81
g82
ssg70
g1625
sg63
(lp1632
S'server_protocol'
p1633
asbag56
(g77
g58
NtRp1634
(dp1635
g61
(dp1636
g88
g89
ssg70
g1625
sg63
(lp1637
S':'
asbag56
(g77
g58
NtRp1638
(dp1639
g61
(dp1640
sg70
g1625
sg63
(lp1641
g56
(g57
g58
NtRp1642
(dp1643
g61
(dp1644
g69
I4
ssg70
g1638
sg63
(lp1645
S'HTTP/1.1'
p1646
asbasbasbag56
(g72
g58
NtRp1647
(dp1648
g61
(dp1649
sg70
g1006
sg63
(lp1650
g56
(g77
g58
NtRp1651
(dp1652
g61
(dp1653
g81
g82
ssg70
g1647
sg63
(lp1654
S'server_software'
p1655
asbag56
(g77
g58
NtRp1656
(dp1657
g61
(dp1658
g88
g89
ssg70
g1647
sg63
(lp1659
S':'
asbag56
(g77
g58
NtRp1660
(dp1661
g61
(dp1662
sg70
g1647
sg63
(lp1663
g56
(g57
g58
NtRp1664
(dp1665
g61
(dp1666
g69
I4
ssg70
g1660
sg63
(lp1667
S'Rocket 1.2.4'
p1668
asbasbasbag56
(g72
g58
NtRp1669
(dp1670
g61
(dp1671
sg70
g1006
sg63
(lp1672
g56
(g77
g58
NtRp1673
(dp1674
g61
(dp1675
g81
g82
ssg70
g1669
sg63
(lp1676
S'web2py_crontype'
p1677
asbag56
(g77
g58
NtRp1678
(dp1679
g61
(dp1680
g88
g89
ssg70
g1669
sg63
(lp1681
S':'
asbag56
(g77
g58
NtRp1682
(dp1683
g61
(dp1684
sg70
g1669
sg63
(lp1685
g56
(g57
g58
NtRp1686
(dp1687
g61
(dp1688
g69
I4
ssg70
g1682
sg63
(lp1689
S'hard'
p1690
asbasbasbag56
(g72
g58
NtRp1691
(dp1692
g61
(dp1693
sg70
g1006
sg63
(lp1694
g56
(g77
g58
NtRp1695
(dp1696
g61
(dp1697
g81
g82
ssg70
g1691
sg63
(lp1698
S'web2py_path'
p1699
asbag56
(g77
g58
NtRp1700
(dp1701
g61
(dp1702
g88
g89
ssg70
g1691
sg63
(lp1703
S':'
asbag56
(g77
g58
NtRp1704
(dp1705
g61
(dp1706
sg70
g1691
sg63
(lp1707
g56
(g57
g58
NtRp1708
(dp1709
g61
(dp1710
g69
I4
ssg70
g1704
sg63
(lp1711
g1053
asbasbasbag56
(g72
g58
NtRp1712
(dp1713
g61
(dp1714
sg70
g1006
sg63
(lp1715
g56
(g77
g58
NtRp1716
(dp1717
g61
(dp1718
g81
g82
ssg70
g1712
sg63
(lp1719
S'web2py_version'
p1720
asbag56
(g77
g58
NtRp1721
(dp1722
g61
(dp1723
g88
g89
ssg70
g1712
sg63
(lp1724
S':'
asbag56
(g77
g58
NtRp1725
(dp1726
g61
(dp1727
sg70
g1712
sg63
(lp1728
g56
(g57
g58
NtRp1729
(dp1730
g61
(dp1731
g69
I4
ssg70
g1725
sg63
(lp1732
g56
(g65
g58
NtRp1733
(dp1734
g61
(dp1735
g69
I3
ssg70
Nsg63
(lp1736
g56
(g72
g58
NtRp1737
(dp1738
g61
(dp1739
sg70
g1733
sg63
(lp1740
g56
(g77
g58
NtRp1741
(dp1742
g61
(dp1743
sg70
g1737
sg63
(lp1744
g56
(g57
g58
NtRp1745
(dp1746
g61
(dp1747
g69
I3
ssg70
g1741
sg63
(lp1748
S'1'
asbasbasbag56
(g72
g58
NtRp1749
(dp1750
g61
(dp1751
sg70
g1733
sg63
(lp1752
g56
(g77
g58
NtRp1753
(dp1754
g61
(dp1755
sg70
g1749
sg63
(lp1756
g56
(g57
g58
NtRp1757
(dp1758
g61
(dp1759
g69
I3
ssg70
g1753
sg63
(lp1760
S'99'
p1761
asbasbasbag56
(g72
g58
NtRp1762
(dp1763
g61
(dp1764
sg70
g1733
sg63
(lp1765
g56
(g77
g58
NtRp1766
(dp1767
g61
(dp1768
sg70
g1762
sg63
(lp1769
g56
(g57
g58
NtRp1770
(dp1771
g61
(dp1772
g69
I3
ssg70
g1766
sg63
(lp1773
S'2'
asbasbasbag56
(g72
g58
NtRp1774
(dp1775
g61
(dp1776
sg70
g1733
sg63
(lp1777
g56
(g77
g58
NtRp1778
(dp1779
g61
(dp1780
sg70
g1774
sg63
(lp1781
g56
(g57
g58
NtRp1782
(dp1783
g61
(dp1784
g69
I3
ssg70
g1778
sg63
(lp1785
S'datetime.datetime(2011, 9, 26, 6, 55, 33)'
p1786
asbasbasbag56
(g72
g58
NtRp1787
(dp1788
g61
(dp1789
sg70
g1733
sg63
(lp1790
g56
(g77
g58
NtRp1791
(dp1792
g61
(dp1793
sg70
g1787
sg63
(lp1794
g56
(g57
g58
NtRp1795
(dp1796
g61
(dp1797
g69
I3
ssg70
g1791
sg63
(lp1798
S'stable'
p1799
asbasbasbasbasbasbasbag56
(g72
g58
NtRp1800
(dp1801
g61
(dp1802
sg70
g1006
sg63
(lp1803
g56
(g77
g58
NtRp1804
(dp1805
g61
(dp1806
g81
g82
ssg70
g1800
sg63
(lp1807
S'wsgi_errors'
p1808
asbag56
(g77
g58
NtRp1809
(dp1810
g61
(dp1811
g88
g89
ssg70
g1800
sg63
(lp1812
S':'
asbag56
(g77
g58
NtRp1813
(dp1814
g61
(dp1815
sg70
g1800
sg63
(lp1816
g56
(g57
g58
NtRp1817
(dp1818
g61
(dp1819
g69
I4
ssg70
g1813
sg63
(lp1820
S"<open file '<stderr>', mode 'w' at 0xb75610d0>"
p1821
asbasbasbag56
(g72
g58
NtRp1822
(dp1823
g61
(dp1824
sg70
g1006
sg63
(lp1825
g56
(g77
g58
NtRp1826
(dp1827
g61
(dp1828
g81
g82
ssg70
g1822
sg63
(lp1829
S'wsgi_file_wrapper'
p1830
asbag56
(g77
g58
NtRp1831
(dp1832
g61
(dp1833
g88
g89
ssg70
g1822
sg63
(lp1834
S':'
asbag56
(g77
g58
NtRp1835
(dp1836
g61
(dp1837
sg70
g1822
sg63
(lp1838
g56
(g57
g58
NtRp1839
(dp1840
g61
(dp1841
g69
I4
ssg70
g1835
sg63
(lp1842
S'<class wsgiref.util.FileWrapper at 0x8a4d50c>'
p1843
asbasbasbag56
(g72
g58
NtRp1844
(dp1845
g61
(dp1846
sg70
g1006
sg63
(lp1847
g56
(g77
g58
NtRp1848
(dp1849
g61
(dp1850
g81
g82
ssg70
g1844
sg63
(lp1851
S'wsgi_input'
p1852
asbag56
(g77
g58
NtRp1853
(dp1854
g61
(dp1855
g88
g89
ssg70
g1844
sg63
(lp1856
S':'
asbag56
(g77
g58
NtRp1857
(dp1858
g61
(dp1859
sg70
g1844
sg63
(lp1860
g56
(g57
g58
NtRp1861
(dp1862
g61
(dp1863
g69
I4
ssg70
g1857
sg63
(lp1864
S'<socket._fileobject object at 0x874d4ac>'
p1865
asbasbasbag56
(g72
g58
NtRp1866
(dp1867
g61
(dp1868
sg70
g1006
sg63
(lp1869
g56
(g77
g58
NtRp1870
(dp1871
g61
(dp1872
g81
g82
ssg70
g1866
sg63
(lp1873
S'wsgi_multiprocess'
p1874
asbag56
(g77
g58
NtRp1875
(dp1876
g61
(dp1877
g88
g89
ssg70
g1866
sg63
(lp1878
S':'
asbag56
(g77
g58
NtRp1879
(dp1880
g61
(dp1881
sg70
g1866
sg63
(lp1882
g56
(g57
g58
NtRp1883
(dp1884
g61
(dp1885
g69
I4
ssg70
g1879
sg63
(lp1886
g1166
asbasbasbag56
(g72
g58
NtRp1887
(dp1888
g61
(dp1889
sg70
g1006
sg63
(lp1890
g56
(g77
g58
NtRp1891
(dp1892
g61
(dp1893
g81
g82
ssg70
g1887
sg63
(lp1894
S'wsgi_multithread'
p1895
asbag56
(g77
g58
NtRp1896
(dp1897
g61
(dp1898
g88
g89
ssg70
g1887
sg63
(lp1899
S':'
asbag56
(g77
g58
NtRp1900
(dp1901
g61
(dp1902
sg70
g1887
sg63
(lp1903
g56
(g57
g58
NtRp1904
(dp1905
g61
(dp1906
g69
I4
ssg70
g1900
sg63
(lp1907
g99
asbasbasbag56
(g72
g58
NtRp1908
(dp1909
g61
(dp1910
sg70
g1006
sg63
(lp1911
g56
(g77
g58
NtRp1912
(dp1913
g61
(dp1914
g81
g82
ssg70
g1908
sg63
(lp1915
S'wsgi_run_once'
p1916
asbag56
(g77
g58
NtRp1917
(dp1918
g61
(dp1919
g88
g89
ssg70
g1908
sg63
(lp1920
S':'
asbag56
(g77
g58
NtRp1921
(dp1922
g61
(dp1923
sg70
g1908
sg63
(lp1924
g56
(g57
g58
NtRp1925
(dp1926
g61
(dp1927
g69
I4
ssg70
g1921
sg63
(lp1928
g1166
asbasbasbag56
(g72
g58
NtRp1929
(dp1930
g61
(dp1931
sg70
g1006
sg63
(lp1932
g56
(g77
g58
NtRp1933
(dp1934
g61
(dp1935
g81
g82
ssg70
g1929
sg63
(lp1936
S'wsgi_url_scheme'
p1937
asbag56
(g77
g58
NtRp1938
(dp1939
g61
(dp1940
g88
g89
ssg70
g1929
sg63
(lp1941
S':'
asbag56
(g77
g58
NtRp1942
(dp1943
g61
(dp1944
sg70
g1929
sg63
(lp1945
g56
(g57
g58
NtRp1946
(dp1947
g61
(dp1948
g69
I4
ssg70
g1942
sg63
(lp1949
S'http'
p1950
asbasbasbag56
(g72
g58
NtRp1951
(dp1952
g61
(dp1953
sg70
g1006
sg63
(lp1954
g56
(g77
g58
NtRp1955
(dp1956
g61
(dp1957
g81
g82
ssg70
g1951
sg63
(lp1958
S'wsgi_version'
p1959
asbag56
(g77
g58
NtRp1960
(dp1961
g61
(dp1962
g88
g89
ssg70
g1951
sg63
(lp1963
S':'
asbag56
(g77
g58
NtRp1964
(dp1965
g61
(dp1966
sg70
g1951
sg63
(lp1967
g56
(g57
g58
NtRp1968
(dp1969
g61
(dp1970
g69
I4
ssg70
g1964
sg63
(lp1971
g56
(g65
g58
NtRp1972
(dp1973
g61
(dp1974
g69
I3
ssg70
Nsg63
(lp1975
g56
(g72
g58
NtRp1976
(dp1977
g61
(dp1978
sg70
g1972
sg63
(lp1979
g56
(g77
g58
NtRp1980
(dp1981
g61
(dp1982
sg70
g1976
sg63
(lp1983
g56
(g57
g58
NtRp1984
(dp1985
g61
(dp1986
g69
I3
ssg70
g1980
sg63
(lp1987
S'1'
asbasbasbag56
(g72
g58
NtRp1988
(dp1989
g61
(dp1990
sg70
g1972
sg63
(lp1991
g56
(g77
g58
NtRp1992
(dp1993
g61
(dp1994
sg70
g1988
sg63
(lp1995
g56
(g57
g58
NtRp1996
(dp1997
g61
(dp1998
g69
I3
ssg70
g1992
sg63
(lp1999
S'0'
asbasbasbasbasbasbasbasbasbasbasbag56
(g72
g58
NtRp2000
(dp2001
g61
(dp2002
sg70
g66
sg63
(lp2003
g56
(g77
g58
NtRp2004
(dp2005
g61
(dp2006
g81
g82
ssg70
g2000
sg63
(lp2007
S'extension'
p2008
asbag56
(g77
g58
NtRp2009
(dp2010
g61
(dp2011
g88
g89
ssg70
g2000
sg63
(lp2012
S':'
asbag56
(g77
g58
NtRp2013
(dp2014
g61
(dp2015
sg70
g2000
sg63
(lp2016
g56
(g57
g58
NtRp2017
(dp2018
g61
(dp2019
g69
I5
ssg70
g2013
sg63
(lp2020
S'html'
p2021
asbasbasbag56
(g72
g58
NtRp2022
(dp2023
g61
(dp2024
sg70
g66
sg63
(lp2025
g56
(g77
g58
NtRp2026
(dp2027
g61
(dp2028
g81
g82
ssg70
g2022
sg63
(lp2029
S'folder'
p2030
asbag56
(g77
g58
NtRp2031
(dp2032
g61
(dp2033
g88
g89
ssg70
g2022
sg63
(lp2034
S':'
asbag56
(g77
g58
NtRp2035
(dp2036
g61
(dp2037
sg70
g2022
sg63
(lp2038
g56
(g57
g58
NtRp2039
(dp2040
g61
(dp2041
g69
I5
ssg70
g2035
sg63
(lp2042
S'/home/brencam/web2py/applications/gallery/'
p2043
asbasbasbag56
(g72
g58
NtRp2044
(dp2045
g61
(dp2046
sg70
g66
sg63
(lp2047
g56
(g77
g58
NtRp2048
(dp2049
g61
(dp2050
g81
g82
ssg70
g2044
sg63
(lp2051
S'function'
p2052
asbag56
(g77
g58
NtRp2053
(dp2054
g61
(dp2055
g88
g89
ssg70
g2044
sg63
(lp2056
S':'
asbag56
(g77
g58
NtRp2057
(dp2058
g61
(dp2059
sg70
g2044
sg63
(lp2060
g56
(g57
g58
NtRp2061
(dp2062
g61
(dp2063
g69
I5
ssg70
g2057
sg63
(lp2064
S'getnames'
p2065
asbasbasbag56
(g72
g58
NtRp2066
(dp2067
g61
(dp2068
sg70
g66
sg63
(lp2069
g56
(g77
g58
NtRp2070
(dp2071
g61
(dp2072
g81
g82
ssg70
g2066
sg63
(lp2073
S'get_vars'
p2074
asbag56
(g77
g58
NtRp2075
(dp2076
g61
(dp2077
g88
g89
ssg70
g2066
sg63
(lp2078
S':'
asbag56
(g77
g58
NtRp2079
(dp2080
g61
(dp2081
sg70
g2066
sg63
(lp2082
g56
(g57
g58
NtRp2083
(dp2084
g61
(dp2085
g69
I5
ssg70
g2079
sg63
(lp2086
g56
(g65
g58
NtRp2087
(dp2088
g61
(dp2089
g69
I4
ssg70
Nsg63
(lp2090
g56
(g72
g58
NtRp2091
(dp2092
g61
(dp2093
sg70
g2087
sg63
(lp2094
g56
(g77
g58
NtRp2095
(dp2096
g61
(dp2097
g81
g82
ssg70
g2091
sg63
(lp2098
S'q'
asbag56
(g77
g58
NtRp2099
(dp2100
g61
(dp2101
g88
g89
ssg70
g2091
sg63
(lp2102
S':'
asbag56
(g77
g58
NtRp2103
(dp2104
g61
(dp2105
sg70
g2091
sg63
(lp2106
g56
(g57
g58
NtRp2107
(dp2108
g61
(dp2109
g69
I4
ssg70
g2103
sg63
(lp2110
S'p'
asbasbasbasbasbasbasbag56
(g72
g58
NtRp2111
(dp2112
g61
(dp2113
sg70
g66
sg63
(lp2114
g56
(g77
g58
NtRp2115
(dp2116
g61
(dp2117
g81
g82
ssg70
g2111
sg63
(lp2118
S'global_settings'
p2119
asbag56
(g77
g58
NtRp2120
(dp2121
g61
(dp2122
g88
g89
ssg70
g2111
sg63
(lp2123
S':'
asbag56
(g77
g58
NtRp2124
(dp2125
g61
(dp2126
sg70
g2111
sg63
(lp2127
g56
(g57
g58
NtRp2128
(dp2129
g61
(dp2130
g69
I5
ssg70
g2124
sg63
(lp2131
g56
(g65
g58
NtRp2132
(dp2133
g61
(dp2134
g69
I4
ssg70
Nsg63
(lp2135
g56
(g72
g58
NtRp2136
(dp2137
g61
(dp2138
sg70
g2132
sg63
(lp2139
g56
(g77
g58
NtRp2140
(dp2141
g61
(dp2142
g81
g82
ssg70
g2136
sg63
(lp2143
g1018
asbag56
(g77
g58
NtRp2144
(dp2145
g61
(dp2146
g88
g89
ssg70
g2136
sg63
(lp2147
S':'
asbag56
(g77
g58
NtRp2148
(dp2149
g61
(dp2150
sg70
g2136
sg63
(lp2151
g56
(g57
g58
NtRp2152
(dp2153
g61
(dp2154
g69
I4
ssg70
g2148
sg63
(lp2155
S"set(['/home/brencam/web2py/applications/gallery/'])"
p2156
asbasbasbag56
(g72
g58
NtRp2157
(dp2158
g61
(dp2159
sg70
g2132
sg63
(lp2160
g56
(g77
g58
NtRp2161
(dp2162
g61
(dp2163
g81
g82
ssg70
g2157
sg63
(lp2164
g1040
asbag56
(g77
g58
NtRp2165
(dp2166
g61
(dp2167
g88
g89
ssg70
g2157
sg63
(lp2168
S':'
asbag56
(g77
g58
NtRp2169
(dp2170
g61
(dp2171
sg70
g2157
sg63
(lp2172
g56
(g57
g58
NtRp2173
(dp2174
g61
(dp2175
g69
I4
ssg70
g2169
sg63
(lp2176
g1053
asbasbasbag56
(g72
g58
NtRp2177
(dp2178
g61
(dp2179
sg70
g2132
sg63
(lp2180
g56
(g77
g58
NtRp2181
(dp2182
g61
(dp2183
g81
g82
ssg70
g2177
sg63
(lp2184
g1062
asbag56
(g77
g58
NtRp2185
(dp2186
g61
(dp2187
g88
g89
ssg70
g2177
sg63
(lp2188
S':'
asbag56
(g77
g58
NtRp2189
(dp2190
g61
(dp2191
sg70
g2177
sg63
(lp2192
g56
(g57
g58
NtRp2193
(dp2194
g61
(dp2195
g69
I4
ssg70
g2189
sg63
(lp2196
g56
(g65
g58
NtRp2197
(dp2198
g61
(dp2199
g69
I3
ssg70
Nsg63
(lp2200
sbasbasbasbag56
(g72
g58
NtRp2201
(dp2202
g61
(dp2203
sg70
g2132
sg63
(lp2204
g56
(g77
g58
NtRp2205
(dp2206
g61
(dp2207
g81
g82
ssg70
g2201
sg63
(lp2208
g1087
asbag56
(g77
g58
NtRp2209
(dp2210
g61
(dp2211
g88
g89
ssg70
g2201
sg63
(lp2212
S':'
asbag56
(g77
g58
NtRp2213
(dp2214
g61
(dp2215
sg70
g2201
sg63
(lp2216
g56
(g57
g58
NtRp2217
(dp2218
g61
(dp2219
g69
I4
ssg70
g2213
sg63
(lp2220
S"<Values at 0x8e5026c: {'verbose': False, 'ip': '127.0.0.1', 'shutdown_timeout': 5, 'taskbar': False, 'nocron': False, 'pid_filename': 'httpserver.pid', 'maxthreads': None, 'softcron': False, 'server_name': 'localhost.localdomain', 'bpython': False, 'nogui': False, 'port': 8000, 'extcron': False, 'debuglevel': 30, 'test': None, 'folder': '/home/brencam/web2py', 'config': '', 'import_models': False, 'winservice': '', 'shell': None, 'run': '', 'log_filename': 'httpserver.log', 'args': [''], 'ssl_ca_certificate': None, 'scheduler': None, 'profiler_filename': None, 'ssl_private_key': '', 'password': 'admin', 'request_queue_size': 5, 'ssl_certificate': '', 'cronjob': False, 'plain': False, 'quiet': False, 'interfaces': None, 'minthreads': None, 'timeout': 10, 'numthreads': None, 'nobanner': False}>"
p2221
asbasbasbag56
(g72
g58
NtRp2222
(dp2223
g61
(dp2224
sg70
g2132
sg63
(lp2225
g56
(g77
g58
NtRp2226
(dp2227
g61
(dp2228
g81
g82
ssg70
g2222
sg63
(lp2229
g1131
asbag56
(g77
g58
NtRp2230
(dp2231
g61
(dp2232
g88
g89
ssg70
g2222
sg63
(lp2233
S':'
asbag56
(g77
g58
NtRp2234
(dp2235
g61
(dp2236
sg70
g2222
sg63
(lp2237
g56
(g57
g58
NtRp2238
(dp2239
g61
(dp2240
g69
I4
ssg70
g2234
sg63
(lp2241
S'set([])'
p2242
asbasbasbag56
(g72
g58
NtRp2243
(dp2244
g61
(dp2245
sg70
g2132
sg63
(lp2246
g56
(g77
g58
NtRp2247
(dp2248
g61
(dp2249
g81
g82
ssg70
g2243
sg63
(lp2250
g1153
asbag56
(g77
g58
NtRp2251
(dp2252
g61
(dp2253
g88
g89
ssg70
g2243
sg63
(lp2254
S':'
asbag56
(g77
g58
NtRp2255
(dp2256
g61
(dp2257
sg70
g2243
sg63
(lp2258
g56
(g57
g58
NtRp2259
(dp2260
g61
(dp2261
g69
I4
ssg70
g2255
sg63
(lp2262
g1166
asbasbasbag56
(g72
g58
NtRp2263
(dp2264
g61
(dp2265
sg70
g2132
sg63
(lp2266
g56
(g77
g58
NtRp2267
(dp2268
g61
(dp2269
g81
g82
ssg70
g2263
sg63
(lp2270
g1175
asbag56
(g77
g58
NtRp2271
(dp2272
g61
(dp2273
g88
g89
ssg70
g2263
sg63
(lp2274
S':'
asbag56
(g77
g58
NtRp2275
(dp2276
g61
(dp2277
sg70
g2263
sg63
(lp2278
g56
(g57
g58
NtRp2279
(dp2280
g61
(dp2281
g69
I4
ssg70
g2275
sg63
(lp2282
g1188
asbasbasbag56
(g72
g58
NtRp2283
(dp2284
g61
(dp2285
sg70
g2132
sg63
(lp2286
g56
(g77
g58
NtRp2287
(dp2288
g61
(dp2289
g81
g82
ssg70
g2283
sg63
(lp2290
g1438
asbag56
(g77
g58
NtRp2291
(dp2292
g61
(dp2293
g88
g89
ssg70
g2283
sg63
(lp2294
S':'
asbag56
(g77
g58
NtRp2295
(dp2296
g61
(dp2297
sg70
g2283
sg63
(lp2298
g56
(g57
g58
NtRp2299
(dp2300
g61
(dp2301
g69
I4
ssg70
g2295
sg63
(lp2302
g1166
asbasbasbag56
(g72
g58
NtRp2303
(dp2304
g61
(dp2305
sg70
g2132
sg63
(lp2306
g56
(g77
g58
NtRp2307
(dp2308
g61
(dp2309
g81
g82
ssg70
g2303
sg63
(lp2310
g1677
asbag56
(g77
g58
NtRp2311
(dp2312
g61
(dp2313
g88
g89
ssg70
g2303
sg63
(lp2314
S':'
asbag56
(g77
g58
NtRp2315
(dp2316
g61
(dp2317
sg70
g2303
sg63
(lp2318
g56
(g57
g58
NtRp2319
(dp2320
g61
(dp2321
g69
I4
ssg70
g2315
sg63
(lp2322
g1690
asbasbasbag56
(g72
g58
NtRp2323
(dp2324
g61
(dp2325
sg70
g2132
sg63
(lp2326
g56
(g77
g58
NtRp2327
(dp2328
g61
(dp2329
g81
g82
ssg70
g2323
sg63
(lp2330
g1720
asbag56
(g77
g58
NtRp2331
(dp2332
g61
(dp2333
g88
g89
ssg70
g2323
sg63
(lp2334
S':'
asbag56
(g77
g58
NtRp2335
(dp2336
g61
(dp2337
sg70
g2323
sg63
(lp2338
g56
(g57
g58
NtRp2339
(dp2340
g61
(dp2341
g69
I4
ssg70
g2335
sg63
(lp2342
g56
(g65
g58
NtRp2343
(dp2344
g61
(dp2345
g69
I3
ssg70
Nsg63
(lp2346
g56
(g72
g58
NtRp2347
(dp2348
g61
(dp2349
sg70
g2343
sg63
(lp2350
g56
(g77
g58
NtRp2351
(dp2352
g61
(dp2353
sg70
g2347
sg63
(lp2354
g56
(g57
g58
NtRp2355
(dp2356
g61
(dp2357
g69
I3
ssg70
g2351
sg63
(lp2358
S'1'
asbasbasbag56
(g72
g58
NtRp2359
(dp2360
g61
(dp2361
sg70
g2343
sg63
(lp2362
g56
(g77
g58
NtRp2363
(dp2364
g61
(dp2365
sg70
g2359
sg63
(lp2366
g56
(g57
g58
NtRp2367
(dp2368
g61
(dp2369
g69
I3
ssg70
g2363
sg63
(lp2370
S'99'
p2371
asbasbasbag56
(g72
g58
NtRp2372
(dp2373
g61
(dp2374
sg70
g2343
sg63
(lp2375
g56
(g77
g58
NtRp2376
(dp2377
g61
(dp2378
sg70
g2372
sg63
(lp2379
g56
(g57
g58
NtRp2380
(dp2381
g61
(dp2382
g69
I3
ssg70
g2376
sg63
(lp2383
S'2'
asbasbasbag56
(g72
g58
NtRp2384
(dp2385
g61
(dp2386
sg70
g2343
sg63
(lp2387
g56
(g77
g58
NtRp2388
(dp2389
g61
(dp2390
sg70
g2384
sg63
(lp2391
g56
(g57
g58
NtRp2392
(dp2393
g61
(dp2394
g69
I3
ssg70
g2388
sg63
(lp2395
S'datetime.datetime(2011, 9, 26, 6, 55, 33)'
p2396
asbasbasbag56
(g72
g58
NtRp2397
(dp2398
g61
(dp2399
sg70
g2343
sg63
(lp2400
g56
(g77
g58
NtRp2401
(dp2402
g61
(dp2403
sg70
g2397
sg63
(lp2404
g56
(g57
g58
NtRp2405
(dp2406
g61
(dp2407
g69
I3
ssg70
g2401
sg63
(lp2408
g1799
asbasbasbasbasbasbasbasbasbasbasbag56
(g72
g58
NtRp2409
(dp2410
g61
(dp2411
sg70
g66
sg63
(lp2412
g56
(g77
g58
NtRp2413
(dp2414
g61
(dp2415
g81
g82
ssg70
g2409
sg63
(lp2416
S'is_https'
p2417
asbag56
(g77
g58
NtRp2418
(dp2419
g61
(dp2420
g88
g89
ssg70
g2409
sg63
(lp2421
S':'
asbag56
(g77
g58
NtRp2422
(dp2423
g61
(dp2424
sg70
g2409
sg63
(lp2425
g56
(g57
g58
NtRp2426
(dp2427
g61
(dp2428
g69
I5
ssg70
g2422
sg63
(lp2429
g1166
asbasbasbag56
(g72
g58
NtRp2430
(dp2431
g61
(dp2432
sg70
g66
sg63
(lp2433
g56
(g77
g58
NtRp2434
(dp2435
g61
(dp2436
g81
g82
ssg70
g2430
sg63
(lp2437
S'is_local'
p2438
asbag56
(g77
g58
NtRp2439
(dp2440
g61
(dp2441
g88
g89
ssg70
g2430
sg63
(lp2442
S':'
asbag56
(g77
g58
NtRp2443
(dp2444
g61
(dp2445
sg70
g2430
sg63
(lp2446
g56
(g57
g58
NtRp2447
(dp2448
g61
(dp2449
g69
I5
ssg70
g2443
sg63
(lp2450
g99
asbasbasbag56
(g72
g58
NtRp2451
(dp2452
g61
(dp2453
sg70
g66
sg63
(lp2454
g56
(g77
g58
NtRp2455
(dp2456
g61
(dp2457
g81
g82
ssg70
g2451
sg63
(lp2458
S'is_restful'
p2459
asbag56
(g77
g58
NtRp2460
(dp2461
g61
(dp2462
g88
g89
ssg70
g2451
sg63
(lp2463
S':'
asbag56
(g77
g58
NtRp2464
(dp2465
g61
(dp2466
sg70
g2451
sg63
(lp2467
g56
(g57
g58
NtRp2468
(dp2469
g61
(dp2470
g69
I5
ssg70
g2464
sg63
(lp2471
g1166
asbasbasbag56
(g72
g58
NtRp2472
(dp2473
g61
(dp2474
sg70
g66
sg63
(lp2475
g56
(g77
g58
NtRp2476
(dp2477
g61
(dp2478
g81
g82
ssg70
g2472
sg63
(lp2479
S'now'
p2480
asbag56
(g77
g58
NtRp2481
(dp2482
g61
(dp2483
g88
g89
ssg70
g2472
sg63
(lp2484
S':'
asbag56
(g77
g58
NtRp2485
(dp2486
g61
(dp2487
sg70
g2472
sg63
(lp2488
g56
(g57
g58
NtRp2489
(dp2490
g61
(dp2491
g69
I5
ssg70
g2485
sg63
(lp2492
S'datetime.datetime(2011, 11, 2, 22, 27, 54, 945390)'
p2493
asbasbasbag56
(g72
g58
NtRp2494
(dp2495
g61
(dp2496
sg70
g66
sg63
(lp2497
g56
(g77
g58
NtRp2498
(dp2499
g61
(dp2500
g81
g82
ssg70
g2494
sg63
(lp2501
S'post_vars'
p2502
asbag56
(g77
g58
NtRp2503
(dp2504
g61
(dp2505
g88
g89
ssg70
g2494
sg63
(lp2506
S':'
asbag56
(g77
g58
NtRp2507
(dp2508
g61
(dp2509
sg70
g2494
sg63
(lp2510
g56
(g57
g58
NtRp2511
(dp2512
g61
(dp2513
g69
I5
ssg70
g2507
sg63
(lp2514
g56
(g65
g58
NtRp2515
(dp2516
g61
(dp2517
g69
I4
ssg70
Nsg63
(lp2518
sbasbasbasbag56
(g72
g58
NtRp2519
(dp2520
g61
(dp2521
sg70
g66
sg63
(lp2522
g56
(g77
g58
NtRp2523
(dp2524
g61
(dp2525
g81
g82
ssg70
g2519
sg63
(lp2526
S'url'
p2527
asbag56
(g77
g58
NtRp2528
(dp2529
g61
(dp2530
g88
g89
ssg70
g2519
sg63
(lp2531
S':'
asbag56
(g77
g58
NtRp2532
(dp2533
g61
(dp2534
sg70
g2519
sg63
(lp2535
g56
(g57
g58
NtRp2536
(dp2537
g61
(dp2538
g69
I5
ssg70
g2532
sg63
(lp2539
S'/gallery/search/getnames'
p2540
asbasbasbag56
(g72
g58
NtRp2541
(dp2542
g61
(dp2543
sg70
g66
sg63
(lp2544
g56
(g77
g58
NtRp2545
(dp2546
g61
(dp2547
g81
g82
ssg70
g2541
sg63
(lp2548
S'utcnow'
p2549
asbag56
(g77
g58
NtRp2550
(dp2551
g61
(dp2552
g88
g89
ssg70
g2541
sg63
(lp2553
S':'
asbag56
(g77
g58
NtRp2554
(dp2555
g61
(dp2556
sg70
g2541
sg63
(lp2557
g56
(g57
g58
NtRp2558
(dp2559
g61
(dp2560
g69
I5
ssg70
g2554
sg63
(lp2561
S'datetime.datetime(2011, 11, 3, 5, 27, 54, 945429)'
p2562
asbasbasbag56
(g72
g58
NtRp2563
(dp2564
g61
(dp2565
sg70
g66
sg63
(lp2566
g56
(g77
g58
NtRp2567
(dp2568
g61
(dp2569
g81
g82
ssg70
g2563
sg63
(lp2570
S'uuid'
p2571
asbag56
(g77
g58
NtRp2572
(dp2573
g61
(dp2574
g88
g89
ssg70
g2563
sg63
(lp2575
S':'
asbag56
(g77
g58
NtRp2576
(dp2577
g61
(dp2578
sg70
g2563
sg63
(lp2579
g56
(g57
g58
NtRp2580
(dp2581
g61
(dp2582
g69
I5
ssg70
g2576
sg63
(lp2583
S'gallery/127.0.0.1.2011-11-02.22-27-54.754bd710-80d1-46ec-8ca9-5224c71c9412'
p2584
asbasbasbag56
(g72
g58
NtRp2585
(dp2586
g61
(dp2587
sg70
g66
sg63
(lp2588
g56
(g77
g58
NtRp2589
(dp2590
g61
(dp2591
g81
g82
ssg70
g2585
sg63
(lp2592
S'vars'
p2593
asbag56
(g77
g58
NtRp2594
(dp2595
g61
(dp2596
g88
g89
ssg70
g2585
sg63
(lp2597
S':'
asbag56
(g77
g58
NtRp2598
(dp2599
g61
(dp2600
sg70
g2585
sg63
(lp2601
g56
(g57
g58
NtRp2602
(dp2603
g61
(dp2604
g69
I5
ssg70
g2598
sg63
(lp2605
g56
(g65
g58
NtRp2606
(dp2607
g61
(dp2608
g69
I4
ssg70
Nsg63
(lp2609
g56
(g72
g58
NtRp2610
(dp2611
g61
(dp2612
sg70
g2606
sg63
(lp2613
g56
(g77
g58
NtRp2614
(dp2615
g61
(dp2616
g81
g82
ssg70
g2610
sg63
(lp2617
S'q'
asbag56
(g77
g58
NtRp2618
(dp2619
g61
(dp2620
g88
g89
ssg70
g2610
sg63
(lp2621
S':'
asbag56
(g77
g58
NtRp2622
(dp2623
g61
(dp2624
sg70
g2610
sg63
(lp2625
g56
(g57
g58
NtRp2626
(dp2627
g61
(dp2628
g69
I4
ssg70
g2622
sg63
(lp2629
S'p'
asbasbasbasbasbasbasbag56
(g72
g58
NtRp2630
(dp2631
g61
(dp2632
sg70
g66
sg63
(lp2633
g56
(g77
g58
NtRp2634
(dp2635
g61
(dp2636
g81
g82
ssg70
g2630
sg63
(lp2637
S'wsgi'
p2638
asbag56
(g77
g58
NtRp2639
(dp2640
g61
(dp2641
g88
g89
ssg70
g2630
sg63
(lp2642
S':'
asbag56
(g77
g58
NtRp2643
(dp2644
g61
(dp2645
sg70
g2630
sg63
(lp2646
g56
(g57
g58
NtRp2647
(dp2648
g61
(dp2649
g69
I5
ssg70
g2643
sg63
(lp2650
g56
(g65
g58
NtRp2651
(dp2652
g61
(dp2653
g69
I4
ssg70
Nsg63
(lp2654
g56
(g72
g58
NtRp2655
(dp2656
g61
(dp2657
sg70
g2651
sg63
(lp2658
g56
(g77
g58
NtRp2659
(dp2660
g61
(dp2661
g81
g82
ssg70
g2655
sg63
(lp2662
S'environ'
p2663
asbag56
(g77
g58
NtRp2664
(dp2665
g61
(dp2666
g88
g89
ssg70
g2655
sg63
(lp2667
S':'
asbag56
(g77
g58
NtRp2668
(dp2669
g61
(dp2670
sg70
g2655
sg63
(lp2671
g56
(g57
g58
NtRp2672
(dp2673
g61
(dp2674
g69
I4
ssg70
g2668
sg63
(lp2675
g56
(g65
g58
NtRp2676
(dp2677
g61
(dp2678
g69
I3
ssg70
Nsg63
(lp2679
g56
(g72
g58
NtRp2680
(dp2681
g61
(dp2682
sg70
g2676
sg63
(lp2683
g56
(g77
g58
NtRp2684
(dp2685
g61
(dp2686
g81
g82
ssg70
g2680
sg63
(lp2687
S'CONTENT_TYPE'
p2688
asbag56
(g77
g58
NtRp2689
(dp2690
g61
(dp2691
g88
g89
ssg70
g2680
sg63
(lp2692
S':'
asbag56
(g77
g58
NtRp2693
(dp2694
g61
(dp2695
sg70
g2680
sg63
(lp2696
g56
(g57
g58
NtRp2697
(dp2698
g61
(dp2699
g69
I3
ssg70
g2693
sg63
(lp2700
g1122
asbasbasbag56
(g72
g58
NtRp2701
(dp2702
g61
(dp2703
sg70
g2676
sg63
(lp2704
g56
(g77
g58
NtRp2705
(dp2706
g61
(dp2707
g81
g82
ssg70
g2701
sg63
(lp2708
S'HTTP_ACCEPT'
p2709
asbag56
(g77
g58
NtRp2710
(dp2711
g61
(dp2712
g88
g89
ssg70
g2701
sg63
(lp2713
S':'
asbag56
(g77
g58
NtRp2714
(dp2715
g61
(dp2716
sg70
g2701
sg63
(lp2717
g56
(g57
g58
NtRp2718
(dp2719
g61
(dp2720
g69
I3
ssg70
g2714
sg63
(lp2721
g1210
asbasbasbag56
(g72
g58
NtRp2722
(dp2723
g61
(dp2724
sg70
g2676
sg63
(lp2725
g56
(g77
g58
NtRp2726
(dp2727
g61
(dp2728
g81
g82
ssg70
g2722
sg63
(lp2729
S'HTTP_ACCEPT_CHARSET'
p2730
asbag56
(g77
g58
NtRp2731
(dp2732
g61
(dp2733
g88
g89
ssg70
g2722
sg63
(lp2734
S':'
asbag56
(g77
g58
NtRp2735
(dp2736
g61
(dp2737
sg70
g2722
sg63
(lp2738
g56
(g57
g58
NtRp2739
(dp2740
g61
(dp2741
g69
I3
ssg70
g2735
sg63
(lp2742
g1232
asbasbasbag56
(g72
g58
NtRp2743
(dp2744
g61
(dp2745
sg70
g2676
sg63
(lp2746
g56
(g77
g58
NtRp2747
(dp2748
g61
(dp2749
g81
g82
ssg70
g2743
sg63
(lp2750
S'HTTP_ACCEPT_ENCODING'
p2751
asbag56
(g77
g58
NtRp2752
(dp2753
g61
(dp2754
g88
g89
ssg70
g2743
sg63
(lp2755
S':'
asbag56
(g77
g58
NtRp2756
(dp2757
g61
(dp2758
sg70
g2743
sg63
(lp2759
g56
(g57
g58
NtRp2760
(dp2761
g61
(dp2762
g69
I3
ssg70
g2756
sg63
(lp2763
g1254
asbasbasbag56
(g72
g58
NtRp2764
(dp2765
g61
(dp2766
sg70
g2676
sg63
(lp2767
g56
(g77
g58
NtRp2768
(dp2769
g61
(dp2770
g81
g82
ssg70
g2764
sg63
(lp2771
S'HTTP_ACCEPT_LANGUAGE'
p2772
asbag56
(g77
g58
NtRp2773
(dp2774
g61
(dp2775
g88
g89
ssg70
g2764
sg63
(lp2776
S':'
asbag56
(g77
g58
NtRp2777
(dp2778
g61
(dp2779
sg70
g2764
sg63
(lp2780
g56
(g57
g58
NtRp2781
(dp2782
g61
(dp2783
g69
I3
ssg70
g2777
sg63
(lp2784
g1276
asbasbasbag56
(g72
g58
NtRp2785
(dp2786
g61
(dp2787
sg70
g2676
sg63
(lp2788
g56
(g77
g58
NtRp2789
(dp2790
g61
(dp2791
g81
g82
ssg70
g2785
sg63
(lp2792
S'HTTP_CONNECTION'
p2793
asbag56
(g77
g58
NtRp2794
(dp2795
g61
(dp2796
g88
g89
ssg70
g2785
sg63
(lp2797
S':'
asbag56
(g77
g58
NtRp2798
(dp2799
g61
(dp2800
sg70
g2785
sg63
(lp2801
g56
(g57
g58
NtRp2802
(dp2803
g61
(dp2804
g69
I3
ssg70
g2798
sg63
(lp2805
g1298
asbasbasbag56
(g72
g58
NtRp2806
(dp2807
g61
(dp2808
sg70
g2676
sg63
(lp2809
g56
(g77
g58
NtRp2810
(dp2811
g61
(dp2812
g81
g82
ssg70
g2806
sg63
(lp2813
S'HTTP_CONTENT_TYPE'
p2814
asbag56
(g77
g58
NtRp2815
(dp2816
g61
(dp2817
g88
g89
ssg70
g2806
sg63
(lp2818
S':'
asbag56
(g77
g58
NtRp2819
(dp2820
g61
(dp2821
sg70
g2806
sg63
(lp2822
g56
(g57
g58
NtRp2823
(dp2824
g61
(dp2825
g69
I3
ssg70
g2819
sg63
(lp2826
g1122
asbasbasbag56
(g72
g58
NtRp2827
(dp2828
g61
(dp2829
sg70
g2676
sg63
(lp2830
g56
(g77
g58
NtRp2831
(dp2832
g61
(dp2833
g81
g82
ssg70
g2827
sg63
(lp2834
S'HTTP_COOKIE'
p2835
asbag56
(g77
g58
NtRp2836
(dp2837
g61
(dp2838
g88
g89
ssg70
g2827
sg63
(lp2839
S':'
asbag56
(g77
g58
NtRp2840
(dp2841
g61
(dp2842
sg70
g2827
sg63
(lp2843
g56
(g57
g58
NtRp2844
(dp2845
g61
(dp2846
g69
I3
ssg70
g2840
sg63
(lp2847
g1341
asbasbasbag56
(g72
g58
NtRp2848
(dp2849
g61
(dp2850
sg70
g2676
sg63
(lp2851
g56
(g77
g58
NtRp2852
(dp2853
g61
(dp2854
g81
g82
ssg70
g2848
sg63
(lp2855
S'HTTP_HOST'
p2856
asbag56
(g77
g58
NtRp2857
(dp2858
g61
(dp2859
g88
g89
ssg70
g2848
sg63
(lp2860
S':'
asbag56
(g77
g58
NtRp2861
(dp2862
g61
(dp2863
sg70
g2848
sg63
(lp2864
g56
(g57
g58
NtRp2865
(dp2866
g61
(dp2867
g69
I3
ssg70
g2861
sg63
(lp2868
g1363
asbasbasbag56
(g72
g58
NtRp2869
(dp2870
g61
(dp2871
sg70
g2676
sg63
(lp2872
g56
(g77
g58
NtRp2873
(dp2874
g61
(dp2875
g81
g82
ssg70
g2869
sg63
(lp2876
S'HTTP_REFERER'
p2877
asbag56
(g77
g58
NtRp2878
(dp2879
g61
(dp2880
g88
g89
ssg70
g2869
sg63
(lp2881
S':'
asbag56
(g77
g58
NtRp2882
(dp2883
g61
(dp2884
sg70
g2869
sg63
(lp2885
g56
(g57
g58
NtRp2886
(dp2887
g61
(dp2888
g69
I3
ssg70
g2882
sg63
(lp2889
g1385
asbasbasbag56
(g72
g58
NtRp2890
(dp2891
g61
(dp2892
sg70
g2676
sg63
(lp2893
g56
(g77
g58
NtRp2894
(dp2895
g61
(dp2896
g81
g82
ssg70
g2890
sg63
(lp2897
S'HTTP_USER_AGENT'
p2898
asbag56
(g77
g58
NtRp2899
(dp2900
g61
(dp2901
g88
g89
ssg70
g2890
sg63
(lp2902
S':'
asbag56
(g77
g58
NtRp2903
(dp2904
g61
(dp2905
sg70
g2890
sg63
(lp2906
g56
(g57
g58
NtRp2907
(dp2908
g61
(dp2909
g69
I3
ssg70
g2903
sg63
(lp2910
g1407
asbasbasbag56
(g72
g58
NtRp2911
(dp2912
g61
(dp2913
sg70
g2676
sg63
(lp2914
g56
(g77
g58
NtRp2915
(dp2916
g61
(dp2917
g81
g82
ssg70
g2911
sg63
(lp2918
S'HTTP_X_REQUESTED_WITH'
p2919
asbag56
(g77
g58
NtRp2920
(dp2921
g61
(dp2922
g88
g89
ssg70
g2911
sg63
(lp2923
S':'
asbag56
(g77
g58
NtRp2924
(dp2925
g61
(dp2926
sg70
g2911
sg63
(lp2927
g56
(g57
g58
NtRp2928
(dp2929
g61
(dp2930
g69
I3
ssg70
g2924
sg63
(lp2931
g1429
asbasbasbag56
(g72
g58
NtRp2932
(dp2933
g61
(dp2934
sg70
g2676
sg63
(lp2935
g56
(g77
g58
NtRp2936
(dp2937
g61
(dp2938
g81
g82
ssg70
g2932
sg63
(lp2939
S'PATH_INFO'
p2940
asbag56
(g77
g58
NtRp2941
(dp2942
g61
(dp2943
g88
g89
ssg70
g2932
sg63
(lp2944
S':'
asbag56
(g77
g58
NtRp2945
(dp2946
g61
(dp2947
sg70
g2932
sg63
(lp2948
g56
(g57
g58
NtRp2949
(dp2950
g61
(dp2951
g69
I3
ssg70
g2945
sg63
(lp2952
g1472
asbasbasbag56
(g72
g58
NtRp2953
(dp2954
g61
(dp2955
sg70
g2676
sg63
(lp2956
g56
(g77
g58
NtRp2957
(dp2958
g61
(dp2959
g81
g82
ssg70
g2953
sg63
(lp2960
S'QUERY_STRING'
p2961
asbag56
(g77
g58
NtRp2962
(dp2963
g61
(dp2964
g88
g89
ssg70
g2953
sg63
(lp2965
S':'
asbag56
(g77
g58
NtRp2966
(dp2967
g61
(dp2968
sg70
g2953
sg63
(lp2969
g56
(g57
g58
NtRp2970
(dp2971
g61
(dp2972
g69
I3
ssg70
g2966
sg63
(lp2973
g1494
asbasbasbag56
(g72
g58
NtRp2974
(dp2975
g61
(dp2976
sg70
g2676
sg63
(lp2977
g56
(g77
g58
NtRp2978
(dp2979
g61
(dp2980
g81
g82
ssg70
g2974
sg63
(lp2981
S'REMOTE_ADDR'
p2982
asbag56
(g77
g58
NtRp2983
(dp2984
g61
(dp2985
g88
g89
ssg70
g2974
sg63
(lp2986
S':'
asbag56
(g77
g58
NtRp2987
(dp2988
g61
(dp2989
sg70
g2974
sg63
(lp2990
g56
(g57
g58
NtRp2991
(dp2992
g61
(dp2993
g69
I3
ssg70
g2987
sg63
(lp2994
g189
asbasbasbag56
(g72
g58
NtRp2995
(dp2996
g61
(dp2997
sg70
g2676
sg63
(lp2998
g56
(g77
g58
NtRp2999
(dp3000
g61
(dp3001
g81
g82
ssg70
g2995
sg63
(lp3002
S'REMOTE_PORT'
p3003
asbag56
(g77
g58
NtRp3004
(dp3005
g61
(dp3006
g88
g89
ssg70
g2995
sg63
(lp3007
S':'
asbag56
(g77
g58
NtRp3008
(dp3009
g61
(dp3010
sg70
g2995
sg63
(lp3011
g56
(g57
g58
NtRp3012
(dp3013
g61
(dp3014
g69
I3
ssg70
g3008
sg63
(lp3015
g1537
asbasbasbag56
(g72
g58
NtRp3016
(dp3017
g61
(dp3018
sg70
g2676
sg63
(lp3019
g56
(g77
g58
NtRp3020
(dp3021
g61
(dp3022
g81
g82
ssg70
g3016
sg63
(lp3023
S'REQUEST_METHOD'
p3024
asbag56
(g77
g58
NtRp3025
(dp3026
g61
(dp3027
g88
g89
ssg70
g3016
sg63
(lp3028
S':'
asbag56
(g77
g58
NtRp3029
(dp3030
g61
(dp3031
sg70
g3016
sg63
(lp3032
g56
(g57
g58
NtRp3033
(dp3034
g61
(dp3035
g69
I3
ssg70
g3029
sg63
(lp3036
g1559
asbasbasbag56
(g72
g58
NtRp3037
(dp3038
g61
(dp3039
sg70
g2676
sg63
(lp3040
g56
(g77
g58
NtRp3041
(dp3042
g61
(dp3043
g81
g82
ssg70
g3037
sg63
(lp3044
S'SCRIPT_NAME'
p3045
asbag56
(g77
g58
NtRp3046
(dp3047
g61
(dp3048
g88
g89
ssg70
g3037
sg63
(lp3049
S':'
asbag56
(g77
g58
NtRp3050
(dp3051
g61
(dp3052
sg70
g3037
sg63
(lp3053
g56
(g57
g58
NtRp3054
(dp3055
g61
(dp3056
g69
I3
ssg70
g3050
sg63
(lp3057
S''
asbasbasbag56
(g72
g58
NtRp3058
(dp3059
g61
(dp3060
sg70
g2676
sg63
(lp3061
g56
(g77
g58
NtRp3062
(dp3063
g61
(dp3064
g81
g82
ssg70
g3058
sg63
(lp3065
S'SERVER_NAME'
p3066
asbag56
(g77
g58
NtRp3067
(dp3068
g61
(dp3069
g88
g89
ssg70
g3058
sg63
(lp3070
S':'
asbag56
(g77
g58
NtRp3071
(dp3072
g61
(dp3073
sg70
g3058
sg63
(lp3074
g56
(g57
g58
NtRp3075
(dp3076
g61
(dp3077
g69
I3
ssg70
g3071
sg63
(lp3078
g1602
asbasbasbag56
(g72
g58
NtRp3079
(dp3080
g61
(dp3081
sg70
g2676
sg63
(lp3082
g56
(g77
g58
NtRp3083
(dp3084
g61
(dp3085
g81
g82
ssg70
g3079
sg63
(lp3086
S'SERVER_PORT'
p3087
asbag56
(g77
g58
NtRp3088
(dp3089
g61
(dp3090
g88
g89
ssg70
g3079
sg63
(lp3091
S':'
asbag56
(g77
g58
NtRp3092
(dp3093
g61
(dp3094
sg70
g3079
sg63
(lp3095
g56
(g57
g58
NtRp3096
(dp3097
g61
(dp3098
g69
I3
ssg70
g3092
sg63
(lp3099
g1624
asbasbasbag56
(g72
g58
NtRp3100
(dp3101
g61
(dp3102
sg70
g2676
sg63
(lp3103
g56
(g77
g58
NtRp3104
(dp3105
g61
(dp3106
g81
g82
ssg70
g3100
sg63
(lp3107
S'SERVER_PROTOCOL'
p3108
asbag56
(g77
g58
NtRp3109
(dp3110
g61
(dp3111
g88
g89
ssg70
g3100
sg63
(lp3112
S':'
asbag56
(g77
g58
NtRp3113
(dp3114
g61
(dp3115
sg70
g3100
sg63
(lp3116
g56
(g57
g58
NtRp3117
(dp3118
g61
(dp3119
g69
I3
ssg70
g3113
sg63
(lp3120
g1646
asbasbasbag56
(g72
g58
NtRp3121
(dp3122
g61
(dp3123
sg70
g2676
sg63
(lp3124
g56
(g77
g58
NtRp3125
(dp3126
g61
(dp3127
g81
g82
ssg70
g3121
sg63
(lp3128
S'SERVER_SOFTWARE'
p3129
asbag56
(g77
g58
NtRp3130
(dp3131
g61
(dp3132
g88
g89
ssg70
g3121
sg63
(lp3133
S':'
asbag56
(g77
g58
NtRp3134
(dp3135
g61
(dp3136
sg70
g3121
sg63
(lp3137
g56
(g57
g58
NtRp3138
(dp3139
g61
(dp3140
g69
I3
ssg70
g3134
sg63
(lp3141
g1668
asbasbasbag56
(g72
g58
NtRp3142
(dp3143
g61
(dp3144
sg70
g2676
sg63
(lp3145
g56
(g77
g58
NtRp3146
(dp3147
g61
(dp3148
g81
g82
ssg70
g3142
sg63
(lp3149
S'wsgi.errors'
p3150
asbag56
(g77
g58
NtRp3151
(dp3152
g61
(dp3153
g88
g89
ssg70
g3142
sg63
(lp3154
S':'
asbag56
(g77
g58
NtRp3155
(dp3156
g61
(dp3157
sg70
g3142
sg63
(lp3158
g56
(g57
g58
NtRp3159
(dp3160
g61
(dp3161
g69
I3
ssg70
g3155
sg63
(lp3162
S"<open file '<stderr>', mode 'w' at 0xb75610d0>"
p3163
asbasbasbag56
(g72
g58
NtRp3164
(dp3165
g61
(dp3166
sg70
g2676
sg63
(lp3167
g56
(g77
g58
NtRp3168
(dp3169
g61
(dp3170
g81
g82
ssg70
g3164
sg63
(lp3171
S'wsgi.file_wrapper'
p3172
asbag56
(g77
g58
NtRp3173
(dp3174
g61
(dp3175
g88
g89
ssg70
g3164
sg63
(lp3176
S':'
asbag56
(g77
g58
NtRp3177
(dp3178
g61
(dp3179
sg70
g3164
sg63
(lp3180
g56
(g57
g58
NtRp3181
(dp3182
g61
(dp3183
g69
I3
ssg70
g3177
sg63
(lp3184
S'<class wsgiref.util.FileWrapper at 0x8a4d50c>'
p3185
asbasbasbag56
(g72
g58
NtRp3186
(dp3187
g61
(dp3188
sg70
g2676
sg63
(lp3189
g56
(g77
g58
NtRp3190
(dp3191
g61
(dp3192
g81
g82
ssg70
g3186
sg63
(lp3193
S'wsgi.input'
p3194
asbag56
(g77
g58
NtRp3195
(dp3196
g61
(dp3197
g88
g89
ssg70
g3186
sg63
(lp3198
S':'
asbag56
(g77
g58
NtRp3199
(dp3200
g61
(dp3201
sg70
g3186
sg63
(lp3202
g56
(g57
g58
NtRp3203
(dp3204
g61
(dp3205
g69
I3
ssg70
g3199
sg63
(lp3206
S'<cStringIO.StringO object at 0x8ab53a0>'
p3207
asbasbasbag56
(g72
g58
NtRp3208
(dp3209
g61
(dp3210
sg70
g2676
sg63
(lp3211
g56
(g77
g58
NtRp3212
(dp3213
g61
(dp3214
g81
g82
ssg70
g3208
sg63
(lp3215
S'wsgi.multiprocess'
p3216
asbag56
(g77
g58
NtRp3217
(dp3218
g61
(dp3219
g88
g89
ssg70
g3208
sg63
(lp3220
S':'
asbag56
(g77
g58
NtRp3221
(dp3222
g61
(dp3223
sg70
g3208
sg63
(lp3224
g56
(g57
g58
NtRp3225
(dp3226
g61
(dp3227
g69
I3
ssg70
g3221
sg63
(lp3228
g1166
asbasbasbag56
(g72
g58
NtRp3229
(dp3230
g61
(dp3231
sg70
g2676
sg63
(lp3232
g56
(g77
g58
NtRp3233
(dp3234
g61
(dp3235
g81
g82
ssg70
g3229
sg63
(lp3236
S'wsgi.multithread'
p3237
asbag56
(g77
g58
NtRp3238
(dp3239
g61
(dp3240
g88
g89
ssg70
g3229
sg63
(lp3241
S':'
asbag56
(g77
g58
NtRp3242
(dp3243
g61
(dp3244
sg70
g3229
sg63
(lp3245
g56
(g57
g58
NtRp3246
(dp3247
g61
(dp3248
g69
I3
ssg70
g3242
sg63
(lp3249
g99
asbasbasbag56
(g72
g58
NtRp3250
(dp3251
g61
(dp3252
sg70
g2676
sg63
(lp3253
g56
(g77
g58
NtRp3254
(dp3255
g61
(dp3256
g81
g82
ssg70
g3250
sg63
(lp3257
S'wsgi.run_once'
p3258
asbag56
(g77
g58
NtRp3259
(dp3260
g61
(dp3261
g88
g89
ssg70
g3250
sg63
(lp3262
S':'
asbag56
(g77
g58
NtRp3263
(dp3264
g61
(dp3265
sg70
g3250
sg63
(lp3266
g56
(g57
g58
NtRp3267
(dp3268
g61
(dp3269
g69
I3
ssg70
g3263
sg63
(lp3270
g1166
asbasbasbag56
(g72
g58
NtRp3271
(dp3272
g61
(dp3273
sg70
g2676
sg63
(lp3274
g56
(g77
g58
NtRp3275
(dp3276
g61
(dp3277
g81
g82
ssg70
g3271
sg63
(lp3278
S'wsgi.url_scheme'
p3279
asbag56
(g77
g58
NtRp3280
(dp3281
g61
(dp3282
g88
g89
ssg70
g3271
sg63
(lp3283
S':'
asbag56
(g77
g58
NtRp3284
(dp3285
g61
(dp3286
sg70
g3271
sg63
(lp3287
g56
(g57
g58
NtRp3288
(dp3289
g61
(dp3290
g69
I3
ssg70
g3284
sg63
(lp3291
g1950
asbasbasbag56
(g72
g58
NtRp3292
(dp3293
g61
(dp3294
sg70
g2676
sg63
(lp3295
g56
(g77
g58
NtRp3296
(dp3297
g61
(dp3298
g81
g82
ssg70
g3292
sg63
(lp3299
S'wsgi.version'
p3300
asbag56
(g77
g58
NtRp3301
(dp3302
g61
(dp3303
g88
g89
ssg70
g3292
sg63
(lp3304
S':'
asbag56
(g77
g58
NtRp3305
(dp3306
g61
(dp3307
sg70
g3292
sg63
(lp3308
g56
(g57
g58
NtRp3309
(dp3310
g61
(dp3311
g69
I3
ssg70
g3305
sg63
(lp3312
S'1'
asbasbasbasbasbasbasbasbasbasbasbasbasbsS'frames'
p3313
(lp3314
(dp3315
S'file'
p3316
S'/home/brencam/web2py/gluon/restricted.py'
p3317
sS'dump'
p3318
(dp3319
S'environment'
p3320
S"{'A': <class 'gluon.html.A'>, 'Auth': <class 'gluon.tools.Auth'>, 'B': <class 'gluon.html.B'>, 'BEAUTIFY': <class 'gluon.html.BEAUTIFY'>, 'BODY': <class 'gluon.html.BODY'>, 'BR': <class 'gluon.html.BR'>, 'BUTTON': <class 'gluon.html.BUTTON'>, 'CAT': <class 'gluon.html.CAT'>, 'CENTER': <class 'gluon.html.CENTER'>, 'CLEANUP': <class 'gluon.validators.CLEANUP'>, ...}"
p3321
sS'ccode'
p3322
S'<code object <module> at 0xaf5aecc8, file "/home...lications/gallery/controllers/search.py", line 2>'
p3323
ssS'lnum'
p3324
I194
sS'lines'
p3325
(dp3326
I192
S'        else:'
p3327
sI193
S'            ccode = compile2(code,layer)'
p3328
sI194
S'        exec ccode in environment'
p3329
sI195
S'    except HTTP:'
p3330
sI196
S'        raise'
p3331
sI197
S'    except Exception, error:'
p3332
sI198
S'        # XXX Show exception in Wing IDE if running in debugger'
p3333
sI189
S'    try:'
p3334
sI190
S'        if type(code) == types.CodeType:'
p3335
sI191
S'            ccode = code'
p3336
ssS'call'
p3337
S"(code='# Search Controller\\nimport datetime\\n\\ndef getname...]))\\n\\n\\n\\nresponse._vars=response._caller(getnames)\\n', environment={'A': <class 'gluon.html.A'>, 'Auth': <class 'gluon.tools.Auth'>, 'B': <class 'gluon.html.B'>, 'BEAUTIFY': <class 'gluon.html.BEAUTIFY'>, 'BODY': <class 'gluon.html.BODY'>, 'BR': <class 'gluon.html.BR'>, 'BUTTON': <class 'gluon.html.BUTTON'>, 'CAT': <class 'gluon.html.CAT'>, 'CENTER': <class 'gluon.html.CENTER'>, 'CLEANUP': <class 'gluon.validators.CLEANUP'>, ...}, layer='/home/brencam/web2py/applications/gallery/controllers/search.py')"
p3338
sS'func'
p3339
S'restricted'
p3340
sa(dp3341
g3316
S'/home/brencam/web2py/applications/gallery/controllers/search.py'
p3342
sg3318
(dp3343
sg3324
I45
sg3325
(dp3344
I34
S''
sI35
S'    # Can I do a redirect from ajax request with the search results ??'
p3345
sI36
S"    #redirect (URL('default', 'showcss'))"
p3346
sI37
S''
sI38
S'    # Note the URL Syntax here to create a link to a different controller (the default)'
p3347
sI39
S'    # How to show thumbnails for selected images here as well ??'
p3348
sI40
S"#    return XML(UL(*[LI(A('%s ' % (img.title),_href=URL('default','show',args=img.id)))\\"
p3349
sI41
S'#                    for img in images]))'
p3350
sI42
S''
sI43
S''
ssg3337
S'()'
p3351
sg3339
S'<module>'
p3352
sa(dp3353
g3316
S'/home/brencam/web2py/gluon/globals.py'
p3354
sg3318
(dp3355
S'self'
p3356
S'undefined'
p3357
sS'f'
S'<function getnames>'
p3358
ssg3324
I149
sg3325
(dp3359
I144
S'        self.meta = Storage()      # used by web2py_ajax.html'
p3360
sI145
S'        self.menu = []             # used by the default view layout'
p3361
sI146
S'        self.files = []            # used by web2py_ajax.html'
p3362
sI147
S'        self.generic_patterns = [] # patterns to allow generic views'
p3363
sI148
S'        self._vars = None'
p3364
sI149
S'        self._caller = lambda f: f()'
p3365
sI150
S'        self._view_environment = None'
p3366
sI151
S'        self._custom_commit = None'
p3367
sI152
S'        self._custom_rollback = None'
p3368
sI153
S''
ssg3337
S'(f=<function getnames>)'
p3369
sg3339
S'<lambda>'
p3370
sa(dp3371
g3316
S'/home/brencam/web2py/applications/gallery/controllers/search.py'
p3372
sg3318
(dp3373
S'args'
p3374
g3357
sS'_href'
p3375
g3357
sS'global IMG'
p3376
S"<class 'gluon.html.IMG'>"
p3377
sS'_width'
p3378
g3357
sS'_height'
p3379
g3357
sS'global LI'
p3380
S"<class 'gluon.html.LI'>"
p3381
sS'r.file'
p3382
S"'image.file.9a14a91e2319e424.70617269736d61726169732e706e67.png'"
p3383
sS'r.title'
p3384
S"'parismarais'"
p3385
sS'_src'
p3386
g3357
sS'global URL'
p3387
S'<function URL>'
p3388
sS'_alt'
p3389
g3357
sS'global DIV'
p3390
S"<class 'gluon.html.DIV'>"
p3391
sS'r'
S"<Row {'comment': <gluon.dal.Set object at 0x8a82...elete_record': <function <lambda> at 0x8a81844>}>"
p3392
sS'global XML'
p3393
S"<class 'gluon.html.XML'>"
p3394
sS'global A'
p3395
S"<class 'gluon.html.A'>"
p3396
sS'r.id'
p3397
S'7'
ssg3324
I25
sg3325
(dp3398
I20
S''
sI21
S"#    print '***************   html **********' html"
p3399
sI22
S''
sI23
S'    r = images[0]'
p3400
sI24
S'    # return image and title as link'
p3401
sI25
S'    return XML(DIV(LI(IMG(_src=URL(\'default\',\'download\', args= r.file), _alt="", _width="120",  _height="100"), A(r.title, _href=URL(\'default\',\'show\',r.id)))))'
p3402
sI26
S''
sI27
S'#    return XML( A(IMG(_src=URL(\'default\',\'download\', args= r.file), _alt="", _width="120",  _height="100"), _href=URL(\'default\',\'index\')))'
p3403
sI28
S''
sI29
S''
ssg3337
S'()'
p3404
sg3339
S'getnames'
p3405
sa(dp3406
g3316
S'/home/brencam/web2py/gluon/html.py'
p3407
sg3318
(dp3408
S'function'
p3409
S"'getnames'"
p3410
sS'f.__name__'
p3411
g3357
sS'f'
S'7'
ssg3324
I233
sg3325
(dp3412
I228
S'        application = a'
p3413
sI229
S'    if c:'
p3414
sI230
S'        controller = c'
p3415
sI231
S'    if f:'
p3416
sI232
S'        if not isinstance(f, str):'
p3417
sI233
S'            function = f.__name__'
p3418
sI234
S"        elif '.' in f:"
p3419
sI235
S"            function, extension = f.split('.', 1)"
p3420
sI236
S'        else:'
p3421
sI237
S'            function = f'
p3422
ssg3337
S"(a='default', c='show', f=7, r=<Storage {'body': <cStringIO.StringO object at 0...<Storage {'q': 'p'}>, 'post_vars': <Storage {}>}>, args=[], vars={}, anchor='', extension=None, env=<Storage {'debugging': False, 'http_user_agent':..., 'query_string': 'q=p', 'wsgi_run_once': False}>, hmac_key=None, hash_vars=True, salt=None, user_signature=None, scheme=None, host=None, port=None, encode_embedded_slash=False)"
p3423
sg3339
S'URL'
p3424
sasS'pyver'
p3425
S'Python 2.6.6: /usr/bin/python'
p3426
sS'session'
p3427
g56
(g57
g58
NtRp3428
(dp3429
g61
(dp3430
sg63
(lp3431
g56
(g65
g58
NtRp3432
(dp3433
g61
(dp3434
g69
I5
ssg70
Nsg63
(lp3435
sbasbsS'etype'
p3436
S"<type 'exceptions.AttributeError'>"
p3437
sS'date'
p3438
S'Wed Nov  2 22:27:54 2011'
p3439
sS'response'
p3440
g56
(g57
g58
NtRp3441
(dp3442
g61
(dp3443
sg63
(lp3444
g56
(g65
g58
NtRp3445
(dp3446
g61
(dp3447
g69
I5
ssg70
Nsg63
(lp3448
g56
(g72
g58
NtRp3449
(dp3450
g61
(dp3451
sg70
g3445
sg63
(lp3452
g56
(g77
g58
NtRp3453
(dp3454
g61
(dp3455
g81
g82
ssg70
g3449
sg63
(lp3456
g154
asbag56
(g77
g58
NtRp3457
(dp3458
g61
(dp3459
g88
g89
ssg70
g3449
sg63
(lp3460
S':'
asbag56
(g77
g58
NtRp3461
(dp3462
g61
(dp3463
sg70
g3449
sg63
(lp3464
g56
(g57
g58
NtRp3465
(dp3466
g61
(dp3467
g69
I5
ssg70
g3461
sg63
(lp3468
S'<cStringIO.StringO object at 0x8ab5740>'
p3469
asbasbasbag56
(g72
g58
NtRp3470
(dp3471
g61
(dp3472
sg70
g3445
sg63
(lp3473
g56
(g77
g58
NtRp3474
(dp3475
g61
(dp3476
g81
g82
ssg70
g3470
sg63
(lp3477
g220
asbag56
(g77
g58
NtRp3478
(dp3479
g61
(dp3480
g88
g89
ssg70
g3470
sg63
(lp3481
S':'
asbag56
(g77
g58
NtRp3482
(dp3483
g61
(dp3484
sg70
g3470
sg63
(lp3485
g56
(g57
g58
NtRp3486
(dp3487
g61
(dp3488
g69
I5
ssg70
g3482
sg63
(lp3489
g56
(g65
g58
NtRp3490
(dp3491
g61
(dp3492
g69
I4
ssg70
Nsg63
(lp3493
g56
(g72
g58
NtRp3494
(dp3495
g61
(dp3496
sg70
g3490
sg63
(lp3497
g56
(g77
g58
NtRp3498
(dp3499
g61
(dp3500
g81
g82
ssg70
g3494
sg63
(lp3501
S'session_id_gallery'
p3502
asbag56
(g77
g58
NtRp3503
(dp3504
g61
(dp3505
g88
g89
ssg70
g3494
sg63
(lp3506
S':'
asbag56
(g77
g58
NtRp3507
(dp3508
g61
(dp3509
sg70
g3494
sg63
(lp3510
g56
(g57
g58
NtRp3511
(dp3512
g61
(dp3513
g69
I4
ssg70
g3507
sg63
(lp3514
g56
(g65
g58
NtRp3515
(dp3516
g61
(dp3517
g69
I3
ssg70
Nsg63
(lp3518
g56
(g72
g58
NtRp3519
(dp3520
g61
(dp3521
sg70
g3515
sg63
(lp3522
g56
(g77
g58
NtRp3523
(dp3524
g61
(dp3525
g81
g82
ssg70
g3519
sg63
(lp3526
g270
asbag56
(g77
g58
NtRp3527
(dp3528
g61
(dp3529
g88
g89
ssg70
g3519
sg63
(lp3530
S':'
asbag56
(g77
g58
NtRp3531
(dp3532
g61
(dp3533
sg70
g3519
sg63
(lp3534
g56
(g57
g58
NtRp3535
(dp3536
g61
(dp3537
g69
I3
ssg70
g3531
sg63
(lp3538
S''
asbasbasbag56
(g72
g58
NtRp3539
(dp3540
g61
(dp3541
sg70
g3515
sg63
(lp3542
g56
(g77
g58
NtRp3543
(dp3544
g61
(dp3545
g81
g82
ssg70
g3539
sg63
(lp3546
g291
asbag56
(g77
g58
NtRp3547
(dp3548
g61
(dp3549
g88
g89
ssg70
g3539
sg63
(lp3550
S':'
asbag56
(g77
g58
NtRp3551
(dp3552
g61
(dp3553
sg70
g3539
sg63
(lp3554
g56
(g57
g58
NtRp3555
(dp3556
g61
(dp3557
g69
I3
ssg70
g3551
sg63
(lp3558
S''
asbasbasbag56
(g72
g58
NtRp3559
(dp3560
g61
(dp3561
sg70
g3515
sg63
(lp3562
g56
(g77
g58
NtRp3563
(dp3564
g61
(dp3565
g81
g82
ssg70
g3559
sg63
(lp3566
g312
asbag56
(g77
g58
NtRp3567
(dp3568
g61
(dp3569
g88
g89
ssg70
g3559
sg63
(lp3570
S':'
asbag56
(g77
g58
NtRp3571
(dp3572
g61
(dp3573
sg70
g3559
sg63
(lp3574
g56
(g57
g58
NtRp3575
(dp3576
g61
(dp3577
g69
I3
ssg70
g3571
sg63
(lp3578
S''
asbasbasbag56
(g72
g58
NtRp3579
(dp3580
g61
(dp3581
sg70
g3515
sg63
(lp3582
g56
(g77
g58
NtRp3583
(dp3584
g61
(dp3585
g81
g82
ssg70
g3579
sg63
(lp3586
g333
asbag56
(g77
g58
NtRp3587
(dp3588
g61
(dp3589
g88
g89
ssg70
g3579
sg63
(lp3590
S':'
asbag56
(g77
g58
NtRp3591
(dp3592
g61
(dp3593
sg70
g3579
sg63
(lp3594
g56
(g57
g58
NtRp3595
(dp3596
g61
(dp3597
g69
I3
ssg70
g3591
sg63
(lp3598
S''
asbasbasbag56
(g72
g58
NtRp3599
(dp3600
g61
(dp3601
sg70
g3515
sg63
(lp3602
g56
(g77
g58
NtRp3603
(dp3604
g61
(dp3605
g81
g82
ssg70
g3599
sg63
(lp3606
g354
asbag56
(g77
g58
NtRp3607
(dp3608
g61
(dp3609
g88
g89
ssg70
g3599
sg63
(lp3610
S':'
asbag56
(g77
g58
NtRp3611
(dp3612
g61
(dp3613
sg70
g3599
sg63
(lp3614
g56
(g57
g58
NtRp3615
(dp3616
g61
(dp3617
g69
I3
ssg70
g3611
sg63
(lp3618
S''
asbasbasbag56
(g72
g58
NtRp3619
(dp3620
g61
(dp3621
sg70
g3515
sg63
(lp3622
g56
(g77
g58
NtRp3623
(dp3624
g61
(dp3625
g81
g82
ssg70
g3619
sg63
(lp3626
g375
asbag56
(g77
g58
NtRp3627
(dp3628
g61
(dp3629
g88
g89
ssg70
g3619
sg63
(lp3630
S':'
asbag56
(g77
g58
NtRp3631
(dp3632
g61
(dp3633
sg70
g3619
sg63
(lp3634
g56
(g57
g58
NtRp3635
(dp3636
g61
(dp3637
g69
I3
ssg70
g3631
sg63
(lp3638
S'/'
asbasbasbag56
(g72
g58
NtRp3639
(dp3640
g61
(dp3641
sg70
g3515
sg63
(lp3642
g56
(g77
g58
NtRp3643
(dp3644
g61
(dp3645
g81
g82
ssg70
g3639
sg63
(lp3646
g396
asbag56
(g77
g58
NtRp3647
(dp3648
g61
(dp3649
g88
g89
ssg70
g3639
sg63
(lp3650
S':'
asbag56
(g77
g58
NtRp3651
(dp3652
g61
(dp3653
sg70
g3639
sg63
(lp3654
g56
(g57
g58
NtRp3655
(dp3656
g61
(dp3657
g69
I3
ssg70
g3651
sg63
(lp3658
S''
asbasbasbag56
(g72
g58
NtRp3659
(dp3660
g61
(dp3661
sg70
g3515
sg63
(lp3662
g56
(g77
g58
NtRp3663
(dp3664
g61
(dp3665
g81
g82
ssg70
g3659
sg63
(lp3666
g417
asbag56
(g77
g58
NtRp3667
(dp3668
g61
(dp3669
g88
g89
ssg70
g3659
sg63
(lp3670
S':'
asbag56
(g77
g58
NtRp3671
(dp3672
g61
(dp3673
sg70
g3659
sg63
(lp3674
g56
(g57
g58
NtRp3675
(dp3676
g61
(dp3677
g69
I3
ssg70
g3671
sg63
(lp3678
S''
asbasbasbasbasbasbasbasbasbasbasbag56
(g72
g58
NtRp3679
(dp3680
g61
(dp3681
sg70
g3445
sg63
(lp3682
g56
(g77
g58
NtRp3683
(dp3684
g61
(dp3685
g81
g82
ssg70
g3679
sg63
(lp3686
S'files'
p3687
asbag56
(g77
g58
NtRp3688
(dp3689
g61
(dp3690
g88
g89
ssg70
g3679
sg63
(lp3691
S':'
asbag56
(g77
g58
NtRp3692
(dp3693
g61
(dp3694
sg70
g3679
sg63
(lp3695
g56
(g57
g58
NtRp3696
(dp3697
g61
(dp3698
g69
I5
ssg70
g3692
sg63
(lp3699
g56
(g65
g58
NtRp3700
(dp3701
g61
(dp3702
g69
I4
ssg70
Nsg63
(lp3703
sbasbasbasbag56
(g72
g58
NtRp3704
(dp3705
g61
(dp3706
sg70
g3445
sg63
(lp3707
g56
(g77
g58
NtRp3708
(dp3709
g61
(dp3710
g81
g82
ssg70
g3704
sg63
(lp3711
S'flash'
p3712
asbag56
(g77
g58
NtRp3713
(dp3714
g61
(dp3715
g88
g89
ssg70
g3704
sg63
(lp3716
S':'
asbag56
(g77
g58
NtRp3717
(dp3718
g61
(dp3719
sg70
g3704
sg63
(lp3720
g56
(g57
g58
NtRp3721
(dp3722
g61
(dp3723
g69
I5
ssg70
g3717
sg63
(lp3724
S''
asbasbasbag56
(g72
g58
NtRp3725
(dp3726
g61
(dp3727
sg70
g3445
sg63
(lp3728
g56
(g77
g58
NtRp3729
(dp3730
g61
(dp3731
g81
g82
ssg70
g3725
sg63
(lp3732
S'generic_patterns'
p3733
asbag56
(g77
g58
NtRp3734
(dp3735
g61
(dp3736
g88
g89
ssg70
g3725
sg63
(lp3737
S':'
asbag56
(g77
g58
NtRp3738
(dp3739
g61
(dp3740
sg70
g3725
sg63
(lp3741
g56
(g57
g58
NtRp3742
(dp3743
g61
(dp3744
g69
I5
ssg70
g3738
sg63
(lp3745
g56
(g65
g58
NtRp3746
(dp3747
g61
(dp3748
g69
I4
ssg70
Nsg63
(lp3749
g56
(g72
g58
NtRp3750
(dp3751
g61
(dp3752
sg70
g3746
sg63
(lp3753
g56
(g77
g58
NtRp3754
(dp3755
g61
(dp3756
sg70
g3750
sg63
(lp3757
g56
(g57
g58
NtRp3758
(dp3759
g61
(dp3760
g69
I4
ssg70
g3754
sg63
(lp3761
S'*'
asbasbasbasbasbasbasbag56
(g72
g58
NtRp3762
(dp3763
g61
(dp3764
sg70
g3445
sg63
(lp3765
g56
(g77
g58
NtRp3766
(dp3767
g61
(dp3768
g81
g82
ssg70
g3762
sg63
(lp3769
S'headers'
p3770
asbag56
(g77
g58
NtRp3771
(dp3772
g61
(dp3773
g88
g89
ssg70
g3762
sg63
(lp3774
S':'
asbag56
(g77
g58
NtRp3775
(dp3776
g61
(dp3777
sg70
g3762
sg63
(lp3778
g56
(g57
g58
NtRp3779
(dp3780
g61
(dp3781
g69
I5
ssg70
g3775
sg63
(lp3782
g56
(g65
g58
NtRp3783
(dp3784
g61
(dp3785
g69
I4
ssg70
Nsg63
(lp3786
g56
(g72
g58
NtRp3787
(dp3788
g61
(dp3789
sg70
g3783
sg63
(lp3790
g56
(g77
g58
NtRp3791
(dp3792
g61
(dp3793
g81
g82
ssg70
g3787
sg63
(lp3794
S'Cache-Control'
p3795
asbag56
(g77
g58
NtRp3796
(dp3797
g61
(dp3798
g88
g89
ssg70
g3787
sg63
(lp3799
S':'
asbag56
(g77
g58
NtRp3800
(dp3801
g61
(dp3802
sg70
g3787
sg63
(lp3803
g56
(g57
g58
NtRp3804
(dp3805
g61
(dp3806
g69
I4
ssg70
g3800
sg63
(lp3807
S'no-store, no-cache, must-revalidate, post-check=0, pre-check=0'
p3808
asbasbasbag56
(g72
g58
NtRp3809
(dp3810
g61
(dp3811
sg70
g3783
sg63
(lp3812
g56
(g77
g58
NtRp3813
(dp3814
g61
(dp3815
g81
g82
ssg70
g3809
sg63
(lp3816
S'Content-Type'
p3817
asbag56
(g77
g58
NtRp3818
(dp3819
g61
(dp3820
g88
g89
ssg70
g3809
sg63
(lp3821
S':'
asbag56
(g77
g58
NtRp3822
(dp3823
g61
(dp3824
sg70
g3809
sg63
(lp3825
g56
(g57
g58
NtRp3826
(dp3827
g61
(dp3828
g69
I4
ssg70
g3822
sg63
(lp3829
S'text/html; charset=utf-8'
p3830
asbasbasbag56
(g72
g58
NtRp3831
(dp3832
g61
(dp3833
sg70
g3783
sg63
(lp3834
g56
(g77
g58
NtRp3835
(dp3836
g61
(dp3837
g81
g82
ssg70
g3831
sg63
(lp3838
S'Expires'
p3839
asbag56
(g77
g58
NtRp3840
(dp3841
g61
(dp3842
g88
g89
ssg70
g3831
sg63
(lp3843
S':'
asbag56
(g77
g58
NtRp3844
(dp3845
g61
(dp3846
sg70
g3831
sg63
(lp3847
g56
(g57
g58
NtRp3848
(dp3849
g61
(dp3850
g69
I4
ssg70
g3844
sg63
(lp3851
S'Thu, 03 Nov 2011 05:27:54 GMT'
p3852
asbasbasbag56
(g72
g58
NtRp3853
(dp3854
g61
(dp3855
sg70
g3783
sg63
(lp3856
g56
(g77
g58
NtRp3857
(dp3858
g61
(dp3859
g81
g82
ssg70
g3853
sg63
(lp3860
S'Pragma'
p3861
asbag56
(g77
g58
NtRp3862
(dp3863
g61
(dp3864
g88
g89
ssg70
g3853
sg63
(lp3865
S':'
asbag56
(g77
g58
NtRp3866
(dp3867
g61
(dp3868
sg70
g3853
sg63
(lp3869
g56
(g57
g58
NtRp3870
(dp3871
g61
(dp3872
g69
I4
ssg70
g3866
sg63
(lp3873
S'no-cache'
p3874
asbasbasbag56
(g72
g58
NtRp3875
(dp3876
g61
(dp3877
sg70
g3783
sg63
(lp3878
g56
(g77
g58
NtRp3879
(dp3880
g61
(dp3881
g81
g82
ssg70
g3875
sg63
(lp3882
S'X-Powered-By'
p3883
asbag56
(g77
g58
NtRp3884
(dp3885
g61
(dp3886
g88
g89
ssg70
g3875
sg63
(lp3887
S':'
asbag56
(g77
g58
NtRp3888
(dp3889
g61
(dp3890
sg70
g3875
sg63
(lp3891
g56
(g57
g58
NtRp3892
(dp3893
g61
(dp3894
g69
I4
ssg70
g3888
sg63
(lp3895
S'web2py'
p3896
asbasbasbasbasbasbasbag56
(g72
g58
NtRp3897
(dp3898
g61
(dp3899
sg70
g3445
sg63
(lp3900
g56
(g77
g58
NtRp3901
(dp3902
g61
(dp3903
g81
g82
ssg70
g3897
sg63
(lp3904
S'menu'
p3905
asbag56
(g77
g58
NtRp3906
(dp3907
g61
(dp3908
g88
g89
ssg70
g3897
sg63
(lp3909
S':'
asbag56
(g77
g58
NtRp3910
(dp3911
g61
(dp3912
sg70
g3897
sg63
(lp3913
g56
(g57
g58
NtRp3914
(dp3915
g61
(dp3916
g69
I5
ssg70
g3910
sg63
(lp3917
g56
(g65
g58
NtRp3918
(dp3919
g61
(dp3920
g69
I4
ssg70
Nsg63
(lp3921
g56
(g72
g58
NtRp3922
(dp3923
g61
(dp3924
sg70
g3918
sg63
(lp3925
g56
(g77
g58
NtRp3926
(dp3927
g61
(dp3928
sg70
g3922
sg63
(lp3929
g56
(g57
g58
NtRp3930
(dp3931
g61
(dp3932
g69
I4
ssg70
g3926
sg63
(lp3933
g56
(g65
g58
NtRp3934
(dp3935
g61
(dp3936
g69
I3
ssg70
Nsg63
(lp3937
g56
(g72
g58
NtRp3938
(dp3939
g61
(dp3940
sg70
g3934
sg63
(lp3941
g56
(g77
g58
NtRp3942
(dp3943
g61
(dp3944
sg70
g3938
sg63
(lp3945
g56
(g57
g58
NtRp3946
(dp3947
g61
(dp3948
g69
I3
ssg70
g3942
sg63
(lp3949
cgluon.languages
lazyT_unpickle
p3950
(S's\x04\x00\x00\x00Home'
tRp3951
asbasbasbag56
(g72
g58
NtRp3952
(dp3953
g61
(dp3954
sg70
g3934
sg63
(lp3955
g56
(g77
g58
NtRp3956
(dp3957
g61
(dp3958
sg70
g3952
sg63
(lp3959
g56
(g57
g58
NtRp3960
(dp3961
g61
(dp3962
g69
I3
ssg70
g3956
sg63
(lp3963
g1166
asbasbasbag56
(g72
g58
NtRp3964
(dp3965
g61
(dp3966
sg70
g3934
sg63
(lp3967
g56
(g77
g58
NtRp3968
(dp3969
g61
(dp3970
sg70
g3964
sg63
(lp3971
g56
(g57
g58
NtRp3972
(dp3973
g61
(dp3974
g69
I3
ssg70
g3968
sg63
(lp3975
S'/gallery/default/index'
p3976
asbasbasbag56
(g72
g58
NtRp3977
(dp3978
g61
(dp3979
sg70
g3934
sg63
(lp3980
g56
(g77
g58
NtRp3981
(dp3982
g61
(dp3983
sg70
g3977
sg63
(lp3984
g56
(g57
g58
NtRp3985
(dp3986
g61
(dp3987
g69
I3
ssg70
g3981
sg63
(lp3988
g56
(g65
g58
NtRp3989
(dp3990
g61
(dp3991
g69
I2
ssg70
Nsg63
(lp3992
sbasbasbasbasbasbasbasbag56
(g72
g58
NtRp3993
(dp3994
g61
(dp3995
sg70
g3918
sg63
(lp3996
g56
(g77
g58
NtRp3997
(dp3998
g61
(dp3999
sg70
g3993
sg63
(lp4000
g56
(g57
g58
NtRp4001
(dp4002
g61
(dp4003
g69
I4
ssg70
g3997
sg63
(lp4004
g56
(g65
g58
NtRp4005
(dp4006
g61
(dp4007
g69
I3
ssg70
Nsg63
(lp4008
g56
(g72
g58
NtRp4009
(dp4010
g61
(dp4011
sg70
g4005
sg63
(lp4012
g56
(g77
g58
NtRp4013
(dp4014
g61
(dp4015
sg70
g4009
sg63
(lp4016
g56
(g57
g58
NtRp4017
(dp4018
g61
(dp4019
g69
I3
ssg70
g4013
sg63
(lp4020
g3950
(S's\r\x00\x00\x00Gallery - CSS'
tRp4021
asbasbasbag56
(g72
g58
NtRp4022
(dp4023
g61
(dp4024
sg70
g4005
sg63
(lp4025
g56
(g77
g58
NtRp4026
(dp4027
g61
(dp4028
sg70
g4022
sg63
(lp4029
g56
(g57
g58
NtRp4030
(dp4031
g61
(dp4032
g69
I3
ssg70
g4026
sg63
(lp4033
g1166
asbasbasbag56
(g72
g58
NtRp4034
(dp4035
g61
(dp4036
sg70
g4005
sg63
(lp4037
g56
(g77
g58
NtRp4038
(dp4039
g61
(dp4040
sg70
g4034
sg63
(lp4041
g56
(g57
g58
NtRp4042
(dp4043
g61
(dp4044
g69
I3
ssg70
g4038
sg63
(lp4045
S'/gallery/default/showcss'
p4046
asbasbasbag56
(g72
g58
NtRp4047
(dp4048
g61
(dp4049
sg70
g4005
sg63
(lp4050
g56
(g77
g58
NtRp4051
(dp4052
g61
(dp4053
sg70
g4047
sg63
(lp4054
g56
(g57
g58
NtRp4055
(dp4056
g61
(dp4057
g69
I3
ssg70
g4051
sg63
(lp4058
g56
(g65
g58
NtRp4059
(dp4060
g61
(dp4061
g69
I2
ssg70
Nsg63
(lp4062
sbasbasbasbasbasbasbasbag56
(g72
g58
NtRp4063
(dp4064
g61
(dp4065
sg70
g3918
sg63
(lp4066
g56
(g77
g58
NtRp4067
(dp4068
g61
(dp4069
sg70
g4063
sg63
(lp4070
g56
(g57
g58
NtRp4071
(dp4072
g61
(dp4073
g69
I4
ssg70
g4067
sg63
(lp4074
g56
(g65
g58
NtRp4075
(dp4076
g61
(dp4077
g69
I3
ssg70
Nsg63
(lp4078
g56
(g72
g58
NtRp4079
(dp4080
g61
(dp4081
sg70
g4075
sg63
(lp4082
g56
(g77
g58
NtRp4083
(dp4084
g61
(dp4085
sg70
g4079
sg63
(lp4086
g56
(g57
g58
NtRp4087
(dp4088
g61
(dp4089
g69
I3
ssg70
g4083
sg63
(lp4090
g3950
(S's\x10\x00\x00\x00Gallery - JQuery'
tRp4091
asbasbasbag56
(g72
g58
NtRp4092
(dp4093
g61
(dp4094
sg70
g4075
sg63
(lp4095
g56
(g77
g58
NtRp4096
(dp4097
g61
(dp4098
sg70
g4092
sg63
(lp4099
g56
(g57
g58
NtRp4100
(dp4101
g61
(dp4102
g69
I3
ssg70
g4096
sg63
(lp4103
g1166
asbasbasbag56
(g72
g58
NtRp4104
(dp4105
g61
(dp4106
sg70
g4075
sg63
(lp4107
g56
(g77
g58
NtRp4108
(dp4109
g61
(dp4110
sg70
g4104
sg63
(lp4111
g56
(g57
g58
NtRp4112
(dp4113
g61
(dp4114
g69
I3
ssg70
g4108
sg63
(lp4115
S'/gallery/default/showjq'
p4116
asbasbasbag56
(g72
g58
NtRp4117
(dp4118
g61
(dp4119
sg70
g4075
sg63
(lp4120
g56
(g77
g58
NtRp4121
(dp4122
g61
(dp4123
sg70
g4117
sg63
(lp4124
g56
(g57
g58
NtRp4125
(dp4126
g61
(dp4127
g69
I3
ssg70
g4121
sg63
(lp4128
g56
(g65
g58
NtRp4129
(dp4130
g61
(dp4131
g69
I2
ssg70
Nsg63
(lp4132
sbasbasbasbasbasbasbasbag56
(g72
g58
NtRp4133
(dp4134
g61
(dp4135
sg70
g3918
sg63
(lp4136
g56
(g77
g58
NtRp4137
(dp4138
g61
(dp4139
sg70
g4133
sg63
(lp4140
g56
(g57
g58
NtRp4141
(dp4142
g61
(dp4143
g69
I4
ssg70
g4137
sg63
(lp4144
g56
(g65
g58
NtRp4145
(dp4146
g61
(dp4147
g69
I3
ssg70
Nsg63
(lp4148
g56
(g72
g58
NtRp4149
(dp4150
g61
(dp4151
sg70
g4145
sg63
(lp4152
g56
(g77
g58
NtRp4153
(dp4154
g61
(dp4155
sg70
g4149
sg63
(lp4156
g56
(g57
g58
NtRp4157
(dp4158
g61
(dp4159
g69
I3
ssg70
g4153
sg63
(lp4160
g3950
(S's\x0e\x00\x00\x00Gallery - Dojo'
tRp4161
asbasbasbag56
(g72
g58
NtRp4162
(dp4163
g61
(dp4164
sg70
g4145
sg63
(lp4165
g56
(g77
g58
NtRp4166
(dp4167
g61
(dp4168
sg70
g4162
sg63
(lp4169
g56
(g57
g58
NtRp4170
(dp4171
g61
(dp4172
g69
I3
ssg70
g4166
sg63
(lp4173
g1166
asbasbasbag56
(g72
g58
NtRp4174
(dp4175
g61
(dp4176
sg70
g4145
sg63
(lp4177
g56
(g77
g58
NtRp4178
(dp4179
g61
(dp4180
sg70
g4174
sg63
(lp4181
g56
(g57
g58
NtRp4182
(dp4183
g61
(dp4184
g69
I3
ssg70
g4178
sg63
(lp4185
S'/gallery/default/index'
p4186
asbasbasbag56
(g72
g58
NtRp4187
(dp4188
g61
(dp4189
sg70
g4145
sg63
(lp4190
g56
(g77
g58
NtRp4191
(dp4192
g61
(dp4193
sg70
g4187
sg63
(lp4194
g56
(g57
g58
NtRp4195
(dp4196
g61
(dp4197
g69
I3
ssg70
g4191
sg63
(lp4198
g56
(g65
g58
NtRp4199
(dp4200
g61
(dp4201
g69
I2
ssg70
Nsg63
(lp4202
sbasbasbasbasbasbasbasbag56
(g72
g58
NtRp4203
(dp4204
g61
(dp4205
sg70
g3918
sg63
(lp4206
g56
(g77
g58
NtRp4207
(dp4208
g61
(dp4209
sg70
g4203
sg63
(lp4210
g56
(g57
g58
NtRp4211
(dp4212
g61
(dp4213
g69
I4
ssg70
g4207
sg63
(lp4214
g56
(g65
g58
NtRp4215
(dp4216
g61
(dp4217
g69
I3
ssg70
Nsg63
(lp4218
g56
(g72
g58
NtRp4219
(dp4220
g61
(dp4221
sg70
g4215
sg63
(lp4222
g56
(g77
g58
NtRp4223
(dp4224
g61
(dp4225
sg70
g4219
sg63
(lp4226
g56
(g57
g58
NtRp4227
(dp4228
g61
(dp4229
g69
I3
ssg70
g4223
sg63
(lp4230
g3950
(S's\x0f\x00\x00\x00SendForm - Dojo'
tRp4231
asbasbasbag56
(g72
g58
NtRp4232
(dp4233
g61
(dp4234
sg70
g4215
sg63
(lp4235
g56
(g77
g58
NtRp4236
(dp4237
g61
(dp4238
sg70
g4232
sg63
(lp4239
g56
(g57
g58
NtRp4240
(dp4241
g61
(dp4242
g69
I3
ssg70
g4236
sg63
(lp4243
g1166
asbasbasbag56
(g72
g58
NtRp4244
(dp4245
g61
(dp4246
sg70
g4215
sg63
(lp4247
g56
(g77
g58
NtRp4248
(dp4249
g61
(dp4250
sg70
g4244
sg63
(lp4251
g56
(g57
g58
NtRp4252
(dp4253
g61
(dp4254
g69
I3
ssg70
g4248
sg63
(lp4255
S'/gallery/default/sendform'
p4256
asbasbasbag56
(g72
g58
NtRp4257
(dp4258
g61
(dp4259
sg70
g4215
sg63
(lp4260
g56
(g77
g58
NtRp4261
(dp4262
g61
(dp4263
sg70
g4257
sg63
(lp4264
g56
(g57
g58
NtRp4265
(dp4266
g61
(dp4267
g69
I3
ssg70
g4261
sg63
(lp4268
g56
(g65
g58
NtRp4269
(dp4270
g61
(dp4271
g69
I2
ssg70
Nsg63
(lp4272
sbasbasbasbasbasbasbasbasbasbasbasbag56
(g72
g58
NtRp4273
(dp4274
g61
(dp4275
sg70
g3445
sg63
(lp4276
g56
(g77
g58
NtRp4277
(dp4278
g61
(dp4279
g81
g82
ssg70
g4273
sg63
(lp4280
S'meta'
p4281
asbag56
(g77
g58
NtRp4282
(dp4283
g61
(dp4284
g88
g89
ssg70
g4273
sg63
(lp4285
S':'
asbag56
(g77
g58
NtRp4286
(dp4287
g61
(dp4288
sg70
g4273
sg63
(lp4289
g56
(g57
g58
NtRp4290
(dp4291
g61
(dp4292
g69
I5
ssg70
g4286
sg63
(lp4293
g56
(g65
g58
NtRp4294
(dp4295
g61
(dp4296
g69
I4
ssg70
Nsg63
(lp4297
g56
(g72
g58
NtRp4298
(dp4299
g61
(dp4300
sg70
g4294
sg63
(lp4301
g56
(g77
g58
NtRp4302
(dp4303
g61
(dp4304
g81
g82
ssg70
g4298
sg63
(lp4305
S'author'
p4306
asbag56
(g77
g58
NtRp4307
(dp4308
g61
(dp4309
g88
g89
ssg70
g4298
sg63
(lp4310
S':'
asbag56
(g77
g58
NtRp4311
(dp4312
g61
(dp4313
sg70
g4298
sg63
(lp4314
g56
(g57
g58
NtRp4315
(dp4316
g61
(dp4317
g69
I4
ssg70
g4311
sg63
(lp4318
S'Your Name <you@example.com>'
p4319
asbasbasbag56
(g72
g58
NtRp4320
(dp4321
g61
(dp4322
sg70
g4294
sg63
(lp4323
g56
(g77
g58
NtRp4324
(dp4325
g61
(dp4326
g81
g82
ssg70
g4320
sg63
(lp4327
S'copyright'
p4328
asbag56
(g77
g58
NtRp4329
(dp4330
g61
(dp4331
g88
g89
ssg70
g4320
sg63
(lp4332
S':'
asbag56
(g77
g58
NtRp4333
(dp4334
g61
(dp4335
sg70
g4320
sg63
(lp4336
g56
(g57
g58
NtRp4337
(dp4338
g61
(dp4339
g69
I4
ssg70
g4333
sg63
(lp4340
S'Copyright 2011'
p4341
asbasbasbag56
(g72
g58
NtRp4342
(dp4343
g61
(dp4344
sg70
g4294
sg63
(lp4345
g56
(g77
g58
NtRp4346
(dp4347
g61
(dp4348
g81
g82
ssg70
g4342
sg63
(lp4349
S'description'
p4350
asbag56
(g77
g58
NtRp4351
(dp4352
g61
(dp4353
g88
g89
ssg70
g4342
sg63
(lp4354
S':'
asbag56
(g77
g58
NtRp4355
(dp4356
g61
(dp4357
sg70
g4342
sg63
(lp4358
g56
(g57
g58
NtRp4359
(dp4360
g61
(dp4361
g69
I4
ssg70
g4355
sg63
(lp4362
S'a cool new app'
p4363
asbasbasbag56
(g72
g58
NtRp4364
(dp4365
g61
(dp4366
sg70
g4294
sg63
(lp4367
g56
(g77
g58
NtRp4368
(dp4369
g61
(dp4370
g81
g82
ssg70
g4364
sg63
(lp4371
S'generator'
p4372
asbag56
(g77
g58
NtRp4373
(dp4374
g61
(dp4375
g88
g89
ssg70
g4364
sg63
(lp4376
S':'
asbag56
(g77
g58
NtRp4377
(dp4378
g61
(dp4379
sg70
g4364
sg63
(lp4380
g56
(g57
g58
NtRp4381
(dp4382
g61
(dp4383
g69
I4
ssg70
g4377
sg63
(lp4384
S'Web2py Web Framework'
p4385
asbasbasbag56
(g72
g58
NtRp4386
(dp4387
g61
(dp4388
sg70
g4294
sg63
(lp4389
g56
(g77
g58
NtRp4390
(dp4391
g61
(dp4392
g81
g82
ssg70
g4386
sg63
(lp4393
S'keywords'
p4394
asbag56
(g77
g58
NtRp4395
(dp4396
g61
(dp4397
g88
g89
ssg70
g4386
sg63
(lp4398
S':'
asbag56
(g77
g58
NtRp4399
(dp4400
g61
(dp4401
sg70
g4386
sg63
(lp4402
g56
(g57
g58
NtRp4403
(dp4404
g61
(dp4405
g69
I4
ssg70
g4399
sg63
(lp4406
S'web2py, python, framework'
p4407
asbasbasbasbasbasbasbag56
(g72
g58
NtRp4408
(dp4409
g61
(dp4410
sg70
g3445
sg63
(lp4411
g56
(g77
g58
NtRp4412
(dp4413
g61
(dp4414
g81
g82
ssg70
g4408
sg63
(lp4415
S'postprocessing'
p4416
asbag56
(g77
g58
NtRp4417
(dp4418
g61
(dp4419
g88
g89
ssg70
g4408
sg63
(lp4420
S':'
asbag56
(g77
g58
NtRp4421
(dp4422
g61
(dp4423
sg70
g4408
sg63
(lp4424
g56
(g57
g58
NtRp4425
(dp4426
g61
(dp4427
g69
I5
ssg70
g4421
sg63
(lp4428
g56
(g65
g58
NtRp4429
(dp4430
g61
(dp4431
g69
I4
ssg70
Nsg63
(lp4432
sbasbasbasbag56
(g72
g58
NtRp4433
(dp4434
g61
(dp4435
sg70
g3445
sg63
(lp4436
g56
(g77
g58
NtRp4437
(dp4438
g61
(dp4439
g81
g82
ssg70
g4433
sg63
(lp4440
S'session_file'
p4441
asbag56
(g77
g58
NtRp4442
(dp4443
g61
(dp4444
g88
g89
ssg70
g4433
sg63
(lp4445
S':'
asbag56
(g77
g58
NtRp4446
(dp4447
g61
(dp4448
sg70
g4433
sg63
(lp4449
g56
(g57
g58
NtRp4450
(dp4451
g61
(dp4452
g69
I5
ssg70
g4446
sg63
(lp4453
S"<open file '/home/brencam/web2py/applications/gallery/sessions/127.0.0.1-5764d7f9-8178-4db1-bc94-76589577a2e3', mode 'rb+' at 0xaf069c28>"
p4454
asbasbasbag56
(g72
g58
NtRp4455
(dp4456
g61
(dp4457
sg70
g3445
sg63
(lp4458
g56
(g77
g58
NtRp4459
(dp4460
g61
(dp4461
g81
g82
ssg70
g4455
sg63
(lp4462
S'session_filename'
p4463
asbag56
(g77
g58
NtRp4464
(dp4465
g61
(dp4466
g88
g89
ssg70
g4455
sg63
(lp4467
S':'
asbag56
(g77
g58
NtRp4468
(dp4469
g61
(dp4470
sg70
g4455
sg63
(lp4471
g56
(g57
g58
NtRp4472
(dp4473
g61
(dp4474
g69
I5
ssg70
g4468
sg63
(lp4475
S'/home/brencam/web2py/applications/gallery/sessions/127.0.0.1-5764d7f9-8178-4db1-bc94-76589577a2e3'
p4476
asbasbasbag56
(g72
g58
NtRp4477
(dp4478
g61
(dp4479
sg70
g3445
sg63
(lp4480
g56
(g77
g58
NtRp4481
(dp4482
g61
(dp4483
g81
g82
ssg70
g4477
sg63
(lp4484
S'session_id'
p4485
asbag56
(g77
g58
NtRp4486
(dp4487
g61
(dp4488
g88
g89
ssg70
g4477
sg63
(lp4489
S':'
asbag56
(g77
g58
NtRp4490
(dp4491
g61
(dp4492
sg70
g4477
sg63
(lp4493
g56
(g57
g58
NtRp4494
(dp4495
g61
(dp4496
g69
I5
ssg70
g4490
sg63
(lp4497
S'127.0.0.1-5764d7f9-8178-4db1-bc94-76589577a2e3'
p4498
asbasbasbag56
(g72
g58
NtRp4499
(dp4500
g61
(dp4501
sg70
g3445
sg63
(lp4502
g56
(g77
g58
NtRp4503
(dp4504
g61
(dp4505
g81
g82
ssg70
g4499
sg63
(lp4506
S'session_id_name'
p4507
asbag56
(g77
g58
NtRp4508
(dp4509
g61
(dp4510
g88
g89
ssg70
g4499
sg63
(lp4511
S':'
asbag56
(g77
g58
NtRp4512
(dp4513
g61
(dp4514
sg70
g4499
sg63
(lp4515
g56
(g57
g58
NtRp4516
(dp4517
g61
(dp4518
g69
I5
ssg70
g4512
sg63
(lp4519
g3502
asbasbasbag56
(g72
g58
NtRp4520
(dp4521
g61
(dp4522
sg70
g3445
sg63
(lp4523
g56
(g77
g58
NtRp4524
(dp4525
g61
(dp4526
g81
g82
ssg70
g4520
sg63
(lp4527
S'session_locked'
p4528
asbag56
(g77
g58
NtRp4529
(dp4530
g61
(dp4531
g88
g89
ssg70
g4520
sg63
(lp4532
S':'
asbag56
(g77
g58
NtRp4533
(dp4534
g61
(dp4535
sg70
g4520
sg63
(lp4536
g56
(g57
g58
NtRp4537
(dp4538
g61
(dp4539
g69
I5
ssg70
g4533
sg63
(lp4540
g99
asbasbasbag56
(g72
g58
NtRp4541
(dp4542
g61
(dp4543
sg70
g3445
sg63
(lp4544
g56
(g77
g58
NtRp4545
(dp4546
g61
(dp4547
g81
g82
ssg70
g4541
sg63
(lp4548
S'session_new'
p4549
asbag56
(g77
g58
NtRp4550
(dp4551
g61
(dp4552
g88
g89
ssg70
g4541
sg63
(lp4553
S':'
asbag56
(g77
g58
NtRp4554
(dp4555
g61
(dp4556
sg70
g4541
sg63
(lp4557
g56
(g57
g58
NtRp4558
(dp4559
g61
(dp4560
g69
I5
ssg70
g4554
sg63
(lp4561
g1166
asbasbasbag56
(g72
g58
NtRp4562
(dp4563
g61
(dp4564
sg70
g3445
sg63
(lp4565
g56
(g77
g58
NtRp4566
(dp4567
g61
(dp4568
g81
g82
ssg70
g4562
sg63
(lp4569
S'status'
p4570
asbag56
(g77
g58
NtRp4571
(dp4572
g61
(dp4573
g88
g89
ssg70
g4562
sg63
(lp4574
S':'
asbag56
(g77
g58
NtRp4575
(dp4576
g61
(dp4577
sg70
g4562
sg63
(lp4578
g56
(g57
g58
NtRp4579
(dp4580
g61
(dp4581
g69
I5
ssg70
g4575
sg63
(lp4582
S'200'
p4583
asbasbasbag56
(g72
g58
NtRp4584
(dp4585
g61
(dp4586
sg70
g3445
sg63
(lp4587
g56
(g77
g58
NtRp4588
(dp4589
g61
(dp4590
g81
g82
ssg70
g4584
sg63
(lp4591
S'subtitle'
p4592
asbag56
(g77
g58
NtRp4593
(dp4594
g61
(dp4595
g88
g89
ssg70
g4584
sg63
(lp4596
S':'
asbag56
(g77
g58
NtRp4597
(dp4598
g61
(dp4599
sg70
g4584
sg63
(lp4600
g56
(g57
g58
NtRp4601
(dp4602
g61
(dp4603
g69
I5
ssg70
g4597
sg63
(lp4604
g3950
(S's1\x00\x00\x00Web2py and CSS, JQuery vs Dojo Image Gallery Demo'
tRp4605
asbasbasbag56
(g72
g58
NtRp4606
(dp4607
g61
(dp4608
sg70
g3445
sg63
(lp4609
g56
(g77
g58
NtRp4610
(dp4611
g61
(dp4612
g81
g82
ssg70
g4606
sg63
(lp4613
S'title'
p4614
asbag56
(g77
g58
NtRp4615
(dp4616
g61
(dp4617
g88
g89
ssg70
g4606
sg63
(lp4618
S':'
asbag56
(g77
g58
NtRp4619
(dp4620
g61
(dp4621
sg70
g4606
sg63
(lp4622
g56
(g57
g58
NtRp4623
(dp4624
g61
(dp4625
g69
I5
ssg70
g4619
sg63
(lp4626
S'My Photo Gallery Demo'
p4627
asbasbasbag56
(g72
g58
NtRp4628
(dp4629
g61
(dp4630
sg70
g3445
sg63
(lp4631
g56
(g77
g58
NtRp4632
(dp4633
g61
(dp4634
g81
g82
ssg70
g4628
sg63
(lp4635
g2571
asbag56
(g77
g58
NtRp4636
(dp4637
g61
(dp4638
g88
g89
ssg70
g4628
sg63
(lp4639
S':'
asbag56
(g77
g58
NtRp4640
(dp4641
g61
(dp4642
sg70
g4628
sg63
(lp4643
g56
(g57
g58
NtRp4644
(dp4645
g61
(dp4646
g69
I5
ssg70
g4640
sg63
(lp4647
g2584
asbasbasbag56
(g72
g58
NtRp4648
(dp4649
g61
(dp4650
sg70
g3445
sg63
(lp4651
g56
(g77
g58
NtRp4652
(dp4653
g61
(dp4654
g81
g82
ssg70
g4648
sg63
(lp4655
S'view'
p4656
asbag56
(g77
g58
NtRp4657
(dp4658
g61
(dp4659
g88
g89
ssg70
g4648
sg63
(lp4660
S':'
asbag56
(g77
g58
NtRp4661
(dp4662
g61
(dp4663
sg70
g4648
sg63
(lp4664
g56
(g57
g58
NtRp4665
(dp4666
g61
(dp4667
g69
I5
ssg70
g4661
sg63
(lp4668
S'search/getnames.html'
p4669
asbasbasbasbasbsS'locals'
p4670
(dp4671
g2052
S"'getnames'"
p4672
sS'a'
S"'default'"
p4673
sS'c'
S"'show'"
p4674
sS'scheme'
p4675
S'None'
p4676
sS'encode_embedded_slash'
p4677
g1166
sg2008
S'None'
p4678
sg2593
g44
sS'f'
S'7'
sg41
S'[]'
p4679
sS'hash_vars'
p4680
g99
sg198
S"'show'"
p4681
sS'port'
p4682
S'None'
p4683
sS'current'
p4684
S'<thread._local object>'
p4685
sS'hmac_key'
p4686
S'None'
p4687
sS'host'
p4688
S'None'
p4689
sg108
S"'default'"
p4690
sS'user_signature'
p4691
S'None'
p4692
sg993
S"<Storage {'debugging': False, 'http_user_agent':..., 'query_string': 'q=p', 'wsgi_run_once': False}>"
p4693
sS'r'
S"<Storage {'body': <cStringIO.StringO object at 0...<Storage {'q': 'p'}>, 'post_vars': <Storage {}>}>"
p4694
sS'salt'
p4695
S'None'
p4696
sS'anchor'
p4697
S"''"
p4698
sssS'traceback'
p4699
S'Traceback (most recent call last):\n  File "/home/brencam/web2py/gluon/restricted.py", line 194, in restricted\n    exec ccode in environment\n  File "/home/brencam/web2py/applications/gallery/controllers/search.py", line 45, in <module>\n  File "/home/brencam/web2py/gluon/globals.py", line 149, in <lambda>\n    self._caller = lambda f: f()\n  File "/home/brencam/web2py/applications/gallery/controllers/search.py", line 25, in getnames\n    return XML(DIV(LI(IMG(_src=URL(\'default\',\'download\', args= r.file), _alt="", _width="120",  _height="100"), A(r.title, _href=URL(\'default\',\'show\',r.id)))))\n  File "/home/brencam/web2py/gluon/html.py", line 233, in URL\n    function = f.__name__\nAttributeError: \'int\' object has no attribute \'__name__\'\n'
p4700
s.