(dp1
S'output'
p2
S''
sS'layer'
p3
S'/home/brencam/web2py/applications/gallery/controllers/search.py'
p4
sS'code'
p5
S'# Search Controller\nimport datetime\n\ndef getnames():\n    sval =\'\'\n    if  request.vars[\'q\']:\n        sval = request.vars[\'q\']\n\n        #queries with %LIKE% ****HERE BE THE DRAGONS!!!!******\n\n        images = db(db.image.title.like(sval+\'%\')).select()\n    else:\n        #images = db(db.image.ALL).select()\n        images = db().select(db.image.ALL)\n\n\n    # finally - got a working syntax - watch out for (mis) matching parens \n    # combine IMG and A tags in generated XML that is passed to the view\n    # tricky syntax\n    # the LI [] structure below creates a list from the generator created by the inner for \n    # !!GOTCHA!! - Assignment of params is position dependent - ???forum qn???\n    # Note the assignment of \'_id\' below needs to be at the end, not at the beginning\n    # ??Web2py documentation issue??\n\n    return XML( UL(*LI ([ (IMG (_src=URL(\'default\',\'download\', args= img.file), _width="120", _height="100"  ), A(img.title,_href=URL(\'default\',\'show\', args=img.id))) for img in images]) , _id=\'albumlist\'))\n\n    # the LI [] structure below creates a list from the generator created by the inner for \n    #return XML( UL(*LI ([ (IMG (_src=URL(\'default\',\'download\', args= img.file), _width="120", _height="100"  ), A(img.title,_href=URL(\'default\',\'show\', args=img.file))) for img in images])))\n    \n    \ndef gettags():\n    # get list of tagnames from tag table\n    tags  = db().select(db.tag.id, db.tag.name)\n    #return XML(tags)\n    return dict(tags=tags)        \n \ndef xmlgettags():\n    # get list of tagnames from tag table\n    # return in json format\n    tags  = db().select(db.tag.id, db.tag.name)\n    #return XML(tags)\n    #return dict(id=\'1\', name=\'places\')\n    #return dict(id=tags.id, name=tags.name)\n    #return dict(item=tags)\n    return (item=tags)\n\n    \n\ndef getnames_v2():\n    sval =\'\'\n    if  request.vars[\'q\']:\n        sval = request.vars[\'q\']\n\n        #queries with %LIKE% ****HERE BE THE DRAGONS!!!!******\n\n        images = db(db.image.title.like(sval+\'%\')).select()\n    else:\n        images = db(db.image.ALL).select()\n    # finally - got a working syntax - watch out for (mis) matching parens \n    # combine IMG and A tags in generated XML that is passed to the view\n    # tricky syntax\n    # the LI [] structure below creates a list from the generator created by the inner for \n    s = "<ul id=\'albumlist\'>"\n    for r in images:\n        print  s\n        s += LI(IMG(_src=URL(\'default\',\'download\', args= r.file), _width="120", _height="100"  ), A(r.title, _href=URL(\'default\',\'show\',args=r.id))).xml()\n        #s +=  \', \'\n        #s += A(r.title, _href=URL(\'default\',\'show\',args=r.id)).xml()\n    s += "</UL>"\n    #print s\n    return XML(s)\n\n\n\ndef zz_getnames():\n    # for ajax search -  find list of images - match on search string\n    # (need to return list in json format ??)\n    print \'*************  processing ajax request *********** at %s\' %datetime.datetime.now().ctime()\n\n    sval =\'\'\n    if  request.vars[\'q\']:\n        sval = request.vars[\'q\']\n\n        #queries with %LIKE% ****HERE BE THE DRAGONS!!!!******\n\n        images = db(db.image.title.like(sval+\'%\')).select()\n    else:\n        images = db(db.image.ALL).select()\n\n#    html =  XML( <img src="{{=URL(\'download\', args=image.file)}}" width="120"  height="100"  for image in images)\n\n#    print \'***************   html **********\' html\n  \n    r = images[0]\n\n    # return image and title for all matches\n    #return XML(DIV(LI(*[IMG(_src=URL(\'default\',\'download\', args= r.file), _width="120", _height="100" ) for r in images])))\n\n    #s = "<div class=\'myclass\'>"\n    #s =""\n    s = "<ul id=\'albumlist\'>"\n    for r in images:\n        print  s\n        s += LI(IMG(_src=URL(\'default\',\'download\', args= r.file), _width="120", _height="100"  ), A(r.title, _href=URL(\'default\',\'show\',args=r.id))).xml()\n        #s +=  \', \'\n        #s += A(r.title, _href=URL(\'default\',\'show\',args=r.id)).xml()\n    s += "</UL>"\n    #print s\n\n    # finally - got a working syntax - watch out for (mis) matching parens \n    # combine IMG and A tags in generated XML that is passed to the view\n    # tricky syntax\n    # the LI [] structure below creates a list from the generator created by the inner for \n    return XML( UL(*LI ([ (IMG (_src=URL(\'default\',\'download\', args= img.file), _width="120", _height="100"  ), A(img.title,_href=URL(\'default\',\'show\', args=img.file))) for img in images])))\n    \n\n\n    #str = LI(IMG(_src=URL(\'default\',\'download\', args= r.file), _width="120", _height="100"  ), A(r.title, _href=URL(\'default\',\'show\',args=r.id)))\n    #print str.xml()\n\n#    return XML(LI(IMG(_src=URL(\'default\',\'download\', args= img.file), _width="120", _height="100"  ), A(r.title, _href=URL(\'default\',\'show\',args=img.id))) for img in images)\n    #return x\n\n    #return XML(s)\n\n#    return XML(UL(LI([IMG(_src=URL(\'default\',\'download\', args= r.file), _width="120", _height="100" ) \\\n#    for r in images])))\n\n    # working \n    #return XML(DIV(LI(*[IMG(_src=URL(\'default\',\'download\', args= r.file), _width="120", _height="100" ) \\\n    #for r in images])))\n\n\n\n# A(r.title, _href=URL(\'default\',\'show\',args=r.id)))))\n\n\n    # return image and title as link  - one image\n    #return XML(DIV(LI(IMG(_src=URL(\'default\',\'download\', args= r.file), _alt="", _width="120",  _height="100"), A(r.title, _href=URL(\'default\',\'show\',args=r.id)))))\n\n\n#    return XML( A(IMG(_src=URL(\'default\',\'download\', args= r.file), _alt="", _width="120",  _height="100"), _href=URL(\'default\',\'index\')))\n\n    \n\n#<li><img  src="{{=URL(\'download\', args=image.file)}}" width="120"  height="100" />{{=A(image.title, _href=URL("show", args=image.id))}}\n#</li>\n\n\n    # Can I do a redirect from ajax request with the search results ??\n    #redirect (URL(\'default\', \'showcss\'))\n\n    # Note the URL Syntax here to create a link to a different controller (the default)\n    # How to show thumbnails for selected images here as well ??\n#    return XML(UL(*[LI(A(\'%s \' % (img.title),_href=URL(\'default\',\'show\',args=img.id)))\\\n#                    for img in images]))\n\n\n\nresponse._vars=response._caller(gettags)\n'
p6
sS'snapshot'
p7
(dp8
S'exception'
p9
(dp10
S'__getslice__'
p11
S"<method-wrapper '__getslice__' of exceptions.SyntaxError object>"
p12
sS'text'
p13
S"'    return (item=tags)\\n'"
p14
sS'__str__'
p15
S"<method-wrapper '__str__' of exceptions.SyntaxError object>"
p16
sS'__reduce__'
p17
S'<built-in method __reduce__ of exceptions.SyntaxError object>'
p18
sS'__dict__'
p19
S'{}'
p20
sS'__sizeof__'
p21
S'<built-in method __sizeof__ of exceptions.SyntaxError object>'
p22
sS'__init__'
p23
S"<method-wrapper '__init__' of exceptions.SyntaxError object>"
p24
sS'__setattr__'
p25
S"<method-wrapper '__setattr__' of exceptions.SyntaxError object>"
p26
sS'__reduce_ex__'
p27
S'<built-in method __reduce_ex__ of exceptions.SyntaxError object>'
p28
sS'__new__'
p29
S'<built-in method __new__ of type object>'
p30
sS'__format__'
p31
S'<built-in method __format__ of exceptions.SyntaxError object>'
p32
sS'__class__'
p33
S"<type 'exceptions.SyntaxError'>"
p34
sS'filename'
p35
S"'/home/brencam/web2py/applications/gallery/controllers/search.py'"
p36
sS'lineno'
p37
S'45'
p38
sS'msg'
p39
S"'invalid syntax'"
p40
sS'__doc__'
p41
S"'Invalid syntax.'"
p42
sS'__getitem__'
p43
S"<method-wrapper '__getitem__' of exceptions.SyntaxError object>"
p44
sS'__setstate__'
p45
S'<built-in method __setstate__ of exceptions.SyntaxError object>'
p46
sS'__getattribute__'
p47
S"<method-wrapper '__getattribute__' of exceptions.SyntaxError object>"
p48
sS'print_file_and_line'
p49
S'None'
p50
sS'args'
p51
S"('invalid syntax', ('/home/brencam/web2py/applications/gallery/controllers/search.py', 45, 17, '    return (item=tags)\\n'))"
p52
sS'__subclasshook__'
p53
S'<built-in method __subclasshook__ of type object>'
p54
sS'offset'
p55
S'17'
p56
sS'__unicode__'
p57
S'<built-in method __unicode__ of exceptions.SyntaxError object>'
p58
sS'__delattr__'
p59
S"<method-wrapper '__delattr__' of exceptions.SyntaxError object>"
p60
sS'__repr__'
p61
S"<method-wrapper '__repr__' of exceptions.SyntaxError object>"
p62
sS'__hash__'
p63
S"<method-wrapper '__hash__' of exceptions.SyntaxError object>"
p64
ssS'evalue'
p65
S'invalid syntax (search.py, line 45)'
p66
sS'request'
p67
ccopy_reg
_reconstructor
p68
(cgluon.html
BEAUTIFY
p69
c__builtin__
object
p70
NtRp71
(dp72
S'attributes'
p73
(dp74
sS'components'
p75
(lp76
g68
(cgluon.html
TABLE
p77
g70
NtRp78
(dp79
g73
(dp80
S'level'
p81
I5
ssS'parent'
p82
Nsg75
(lp83
g68
(cgluon.html
TR
p84
g70
NtRp85
(dp86
g73
(dp87
sg82
g78
sg75
(lp88
g68
(cgluon.html
TD
p89
g70
NtRp90
(dp91
g73
(dp92
S'_style'
p93
S'font-weight:bold;'
p94
ssg82
g85
sg75
(lp95
S'ajax'
p96
asbag68
(g89
g70
NtRp97
(dp98
g73
(dp99
S'_valign'
p100
S'top'
p101
ssg82
g85
sg75
(lp102
S':'
asbag68
(g89
g70
NtRp103
(dp104
g73
(dp105
sg82
g85
sg75
(lp106
g68
(g69
g70
NtRp107
(dp108
g73
(dp109
g81
I5
ssg82
g103
sg75
(lp110
S'False'
p111
asbasbasbag68
(g84
g70
NtRp112
(dp113
g73
(dp114
sg82
g78
sg75
(lp115
g68
(g89
g70
NtRp116
(dp117
g73
(dp118
g93
g94
ssg82
g112
sg75
(lp119
S'application'
p120
asbag68
(g89
g70
NtRp121
(dp122
g73
(dp123
g100
g101
ssg82
g112
sg75
(lp124
S':'
asbag68
(g89
g70
NtRp125
(dp126
g73
(dp127
sg82
g112
sg75
(lp128
g68
(g69
g70
NtRp129
(dp130
g73
(dp131
g81
I5
ssg82
g125
sg75
(lp132
S'gallery'
p133
asbasbasbag68
(g84
g70
NtRp134
(dp135
g73
(dp136
sg82
g78
sg75
(lp137
g68
(g89
g70
NtRp138
(dp139
g73
(dp140
g93
g94
ssg82
g134
sg75
(lp141
g51
asbag68
(g89
g70
NtRp142
(dp143
g73
(dp144
g100
g101
ssg82
g134
sg75
(lp145
S':'
asbag68
(g89
g70
NtRp146
(dp147
g73
(dp148
sg82
g134
sg75
(lp149
g68
(g69
g70
NtRp150
(dp151
g73
(dp152
g81
I5
ssg82
g146
sg75
(lp153
g68
(g77
g70
NtRp154
(dp155
g73
(dp156
g81
I4
ssg82
Nsg75
(lp157
sbasbasbasbag68
(g84
g70
NtRp158
(dp159
g73
(dp160
sg82
g78
sg75
(lp161
g68
(g89
g70
NtRp162
(dp163
g73
(dp164
g93
g94
ssg82
g158
sg75
(lp165
S'body'
p166
asbag68
(g89
g70
NtRp167
(dp168
g73
(dp169
g100
g101
ssg82
g158
sg75
(lp170
S':'
asbag68
(g89
g70
NtRp171
(dp172
g73
(dp173
sg82
g158
sg75
(lp174
g68
(g69
g70
NtRp175
(dp176
g73
(dp177
g81
I5
ssg82
g171
sg75
(lp178
S'<cStringIO.StringO object at 0xae9b76e0>'
p179
asbasbasbag68
(g84
g70
NtRp180
(dp181
g73
(dp182
sg82
g78
sg75
(lp183
g68
(g89
g70
NtRp184
(dp185
g73
(dp186
g93
g94
ssg82
g180
sg75
(lp187
S'client'
p188
asbag68
(g89
g70
NtRp189
(dp190
g73
(dp191
g100
g101
ssg82
g180
sg75
(lp192
S':'
asbag68
(g89
g70
NtRp193
(dp194
g73
(dp195
sg82
g180
sg75
(lp196
g68
(g69
g70
NtRp197
(dp198
g73
(dp199
g81
I5
ssg82
g193
sg75
(lp200
S'127.0.0.1'
p201
asbasbasbag68
(g84
g70
NtRp202
(dp203
g73
(dp204
sg82
g78
sg75
(lp205
g68
(g89
g70
NtRp206
(dp207
g73
(dp208
g93
g94
ssg82
g202
sg75
(lp209
S'controller'
p210
asbag68
(g89
g70
NtRp211
(dp212
g73
(dp213
g100
g101
ssg82
g202
sg75
(lp214
S':'
asbag68
(g89
g70
NtRp215
(dp216
g73
(dp217
sg82
g202
sg75
(lp218
g68
(g69
g70
NtRp219
(dp220
g73
(dp221
g81
I5
ssg82
g215
sg75
(lp222
S'search'
p223
asbasbasbag68
(g84
g70
NtRp224
(dp225
g73
(dp226
sg82
g78
sg75
(lp227
g68
(g89
g70
NtRp228
(dp229
g73
(dp230
g93
g94
ssg82
g224
sg75
(lp231
S'cookies'
p232
asbag68
(g89
g70
NtRp233
(dp234
g73
(dp235
g100
g101
ssg82
g224
sg75
(lp236
S':'
asbag68
(g89
g70
NtRp237
(dp238
g73
(dp239
sg82
g224
sg75
(lp240
g68
(g69
g70
NtRp241
(dp242
g73
(dp243
g81
I5
ssg82
g237
sg75
(lp244
g68
(g77
g70
NtRp245
(dp246
g73
(dp247
g81
I4
ssg82
Nsg75
(lp248
g68
(g84
g70
NtRp249
(dp250
g73
(dp251
sg82
g245
sg75
(lp252
g68
(g89
g70
NtRp253
(dp254
g73
(dp255
g93
g94
ssg82
g249
sg75
(lp256
S'csrftoken'
p257
asbag68
(g89
g70
NtRp258
(dp259
g73
(dp260
g100
g101
ssg82
g249
sg75
(lp261
S':'
asbag68
(g89
g70
NtRp262
(dp263
g73
(dp264
sg82
g249
sg75
(lp265
g68
(g69
g70
NtRp266
(dp267
g73
(dp268
g81
I4
ssg82
g262
sg75
(lp269
g68
(g77
g70
NtRp270
(dp271
g73
(dp272
g81
I3
ssg82
Nsg75
(lp273
g68
(g84
g70
NtRp274
(dp275
g73
(dp276
sg82
g270
sg75
(lp277
g68
(g89
g70
NtRp278
(dp279
g73
(dp280
g93
g94
ssg82
g274
sg75
(lp281
S'comment'
p282
asbag68
(g89
g70
NtRp283
(dp284
g73
(dp285
g100
g101
ssg82
g274
sg75
(lp286
S':'
asbag68
(g89
g70
NtRp287
(dp288
g73
(dp289
sg82
g274
sg75
(lp290
g68
(g69
g70
NtRp291
(dp292
g73
(dp293
g81
I3
ssg82
g287
sg75
(lp294
S''
asbasbasbag68
(g84
g70
NtRp295
(dp296
g73
(dp297
sg82
g270
sg75
(lp298
g68
(g89
g70
NtRp299
(dp300
g73
(dp301
g93
g94
ssg82
g295
sg75
(lp302
S'domain'
p303
asbag68
(g89
g70
NtRp304
(dp305
g73
(dp306
g100
g101
ssg82
g295
sg75
(lp307
S':'
asbag68
(g89
g70
NtRp308
(dp309
g73
(dp310
sg82
g295
sg75
(lp311
g68
(g69
g70
NtRp312
(dp313
g73
(dp314
g81
I3
ssg82
g308
sg75
(lp315
S''
asbasbasbag68
(g84
g70
NtRp316
(dp317
g73
(dp318
sg82
g270
sg75
(lp319
g68
(g89
g70
NtRp320
(dp321
g73
(dp322
g93
g94
ssg82
g316
sg75
(lp323
S'expires'
p324
asbag68
(g89
g70
NtRp325
(dp326
g73
(dp327
g100
g101
ssg82
g316
sg75
(lp328
S':'
asbag68
(g89
g70
NtRp329
(dp330
g73
(dp331
sg82
g316
sg75
(lp332
g68
(g69
g70
NtRp333
(dp334
g73
(dp335
g81
I3
ssg82
g329
sg75
(lp336
S''
asbasbasbag68
(g84
g70
NtRp337
(dp338
g73
(dp339
sg82
g270
sg75
(lp340
g68
(g89
g70
NtRp341
(dp342
g73
(dp343
g93
g94
ssg82
g337
sg75
(lp344
S'httponly'
p345
asbag68
(g89
g70
NtRp346
(dp347
g73
(dp348
g100
g101
ssg82
g337
sg75
(lp349
S':'
asbag68
(g89
g70
NtRp350
(dp351
g73
(dp352
sg82
g337
sg75
(lp353
g68
(g69
g70
NtRp354
(dp355
g73
(dp356
g81
I3
ssg82
g350
sg75
(lp357
S''
asbasbasbag68
(g84
g70
NtRp358
(dp359
g73
(dp360
sg82
g270
sg75
(lp361
g68
(g89
g70
NtRp362
(dp363
g73
(dp364
g93
g94
ssg82
g358
sg75
(lp365
S'max-age'
p366
asbag68
(g89
g70
NtRp367
(dp368
g73
(dp369
g100
g101
ssg82
g358
sg75
(lp370
S':'
asbag68
(g89
g70
NtRp371
(dp372
g73
(dp373
sg82
g358
sg75
(lp374
g68
(g69
g70
NtRp375
(dp376
g73
(dp377
g81
I3
ssg82
g371
sg75
(lp378
S''
asbasbasbag68
(g84
g70
NtRp379
(dp380
g73
(dp381
sg82
g270
sg75
(lp382
g68
(g89
g70
NtRp383
(dp384
g73
(dp385
g93
g94
ssg82
g379
sg75
(lp386
S'path'
p387
asbag68
(g89
g70
NtRp388
(dp389
g73
(dp390
g100
g101
ssg82
g379
sg75
(lp391
S':'
asbag68
(g89
g70
NtRp392
(dp393
g73
(dp394
sg82
g379
sg75
(lp395
g68
(g69
g70
NtRp396
(dp397
g73
(dp398
g81
I3
ssg82
g392
sg75
(lp399
S''
asbasbasbag68
(g84
g70
NtRp400
(dp401
g73
(dp402
sg82
g270
sg75
(lp403
g68
(g89
g70
NtRp404
(dp405
g73
(dp406
g93
g94
ssg82
g400
sg75
(lp407
S'secure'
p408
asbag68
(g89
g70
NtRp409
(dp410
g73
(dp411
g100
g101
ssg82
g400
sg75
(lp412
S':'
asbag68
(g89
g70
NtRp413
(dp414
g73
(dp415
sg82
g400
sg75
(lp416
g68
(g69
g70
NtRp417
(dp418
g73
(dp419
g81
I3
ssg82
g413
sg75
(lp420
S''
asbasbasbag68
(g84
g70
NtRp421
(dp422
g73
(dp423
sg82
g270
sg75
(lp424
g68
(g89
g70
NtRp425
(dp426
g73
(dp427
g93
g94
ssg82
g421
sg75
(lp428
S'version'
p429
asbag68
(g89
g70
NtRp430
(dp431
g73
(dp432
g100
g101
ssg82
g421
sg75
(lp433
S':'
asbag68
(g89
g70
NtRp434
(dp435
g73
(dp436
sg82
g421
sg75
(lp437
g68
(g69
g70
NtRp438
(dp439
g73
(dp440
g81
I3
ssg82
g434
sg75
(lp441
S''
asbasbasbasbasbasbasbag68
(g84
g70
NtRp442
(dp443
g73
(dp444
sg82
g245
sg75
(lp445
g68
(g89
g70
NtRp446
(dp447
g73
(dp448
g93
g94
ssg82
g442
sg75
(lp449
S'session_id_admin'
p450
asbag68
(g89
g70
NtRp451
(dp452
g73
(dp453
g100
g101
ssg82
g442
sg75
(lp454
S':'
asbag68
(g89
g70
NtRp455
(dp456
g73
(dp457
sg82
g442
sg75
(lp458
g68
(g69
g70
NtRp459
(dp460
g73
(dp461
g81
I4
ssg82
g455
sg75
(lp462
g68
(g77
g70
NtRp463
(dp464
g73
(dp465
g81
I3
ssg82
Nsg75
(lp466
g68
(g84
g70
NtRp467
(dp468
g73
(dp469
sg82
g463
sg75
(lp470
g68
(g89
g70
NtRp471
(dp472
g73
(dp473
g93
g94
ssg82
g467
sg75
(lp474
g282
asbag68
(g89
g70
NtRp475
(dp476
g73
(dp477
g100
g101
ssg82
g467
sg75
(lp478
S':'
asbag68
(g89
g70
NtRp479
(dp480
g73
(dp481
sg82
g467
sg75
(lp482
g68
(g69
g70
NtRp483
(dp484
g73
(dp485
g81
I3
ssg82
g479
sg75
(lp486
S''
asbasbasbag68
(g84
g70
NtRp487
(dp488
g73
(dp489
sg82
g463
sg75
(lp490
g68
(g89
g70
NtRp491
(dp492
g73
(dp493
g93
g94
ssg82
g487
sg75
(lp494
g303
asbag68
(g89
g70
NtRp495
(dp496
g73
(dp497
g100
g101
ssg82
g487
sg75
(lp498
S':'
asbag68
(g89
g70
NtRp499
(dp500
g73
(dp501
sg82
g487
sg75
(lp502
g68
(g69
g70
NtRp503
(dp504
g73
(dp505
g81
I3
ssg82
g499
sg75
(lp506
S''
asbasbasbag68
(g84
g70
NtRp507
(dp508
g73
(dp509
sg82
g463
sg75
(lp510
g68
(g89
g70
NtRp511
(dp512
g73
(dp513
g93
g94
ssg82
g507
sg75
(lp514
g324
asbag68
(g89
g70
NtRp515
(dp516
g73
(dp517
g100
g101
ssg82
g507
sg75
(lp518
S':'
asbag68
(g89
g70
NtRp519
(dp520
g73
(dp521
sg82
g507
sg75
(lp522
g68
(g69
g70
NtRp523
(dp524
g73
(dp525
g81
I3
ssg82
g519
sg75
(lp526
S''
asbasbasbag68
(g84
g70
NtRp527
(dp528
g73
(dp529
sg82
g463
sg75
(lp530
g68
(g89
g70
NtRp531
(dp532
g73
(dp533
g93
g94
ssg82
g527
sg75
(lp534
g345
asbag68
(g89
g70
NtRp535
(dp536
g73
(dp537
g100
g101
ssg82
g527
sg75
(lp538
S':'
asbag68
(g89
g70
NtRp539
(dp540
g73
(dp541
sg82
g527
sg75
(lp542
g68
(g69
g70
NtRp543
(dp544
g73
(dp545
g81
I3
ssg82
g539
sg75
(lp546
S''
asbasbasbag68
(g84
g70
NtRp547
(dp548
g73
(dp549
sg82
g463
sg75
(lp550
g68
(g89
g70
NtRp551
(dp552
g73
(dp553
g93
g94
ssg82
g547
sg75
(lp554
g366
asbag68
(g89
g70
NtRp555
(dp556
g73
(dp557
g100
g101
ssg82
g547
sg75
(lp558
S':'
asbag68
(g89
g70
NtRp559
(dp560
g73
(dp561
sg82
g547
sg75
(lp562
g68
(g69
g70
NtRp563
(dp564
g73
(dp565
g81
I3
ssg82
g559
sg75
(lp566
S''
asbasbasbag68
(g84
g70
NtRp567
(dp568
g73
(dp569
sg82
g463
sg75
(lp570
g68
(g89
g70
NtRp571
(dp572
g73
(dp573
g93
g94
ssg82
g567
sg75
(lp574
g387
asbag68
(g89
g70
NtRp575
(dp576
g73
(dp577
g100
g101
ssg82
g567
sg75
(lp578
S':'
asbag68
(g89
g70
NtRp579
(dp580
g73
(dp581
sg82
g567
sg75
(lp582
g68
(g69
g70
NtRp583
(dp584
g73
(dp585
g81
I3
ssg82
g579
sg75
(lp586
S''
asbasbasbag68
(g84
g70
NtRp587
(dp588
g73
(dp589
sg82
g463
sg75
(lp590
g68
(g89
g70
NtRp591
(dp592
g73
(dp593
g93
g94
ssg82
g587
sg75
(lp594
g408
asbag68
(g89
g70
NtRp595
(dp596
g73
(dp597
g100
g101
ssg82
g587
sg75
(lp598
S':'
asbag68
(g89
g70
NtRp599
(dp600
g73
(dp601
sg82
g587
sg75
(lp602
g68
(g69
g70
NtRp603
(dp604
g73
(dp605
g81
I3
ssg82
g599
sg75
(lp606
S''
asbasbasbag68
(g84
g70
NtRp607
(dp608
g73
(dp609
sg82
g463
sg75
(lp610
g68
(g89
g70
NtRp611
(dp612
g73
(dp613
g93
g94
ssg82
g607
sg75
(lp614
g429
asbag68
(g89
g70
NtRp615
(dp616
g73
(dp617
g100
g101
ssg82
g607
sg75
(lp618
S':'
asbag68
(g89
g70
NtRp619
(dp620
g73
(dp621
sg82
g607
sg75
(lp622
g68
(g69
g70
NtRp623
(dp624
g73
(dp625
g81
I3
ssg82
g619
sg75
(lp626
S''
asbasbasbasbasbasbasbag68
(g84
g70
NtRp627
(dp628
g73
(dp629
sg82
g245
sg75
(lp630
g68
(g89
g70
NtRp631
(dp632
g73
(dp633
g93
g94
ssg82
g627
sg75
(lp634
S'session_id_carstore'
p635
asbag68
(g89
g70
NtRp636
(dp637
g73
(dp638
g100
g101
ssg82
g627
sg75
(lp639
S':'
asbag68
(g89
g70
NtRp640
(dp641
g73
(dp642
sg82
g627
sg75
(lp643
g68
(g69
g70
NtRp644
(dp645
g73
(dp646
g81
I4
ssg82
g640
sg75
(lp647
g68
(g77
g70
NtRp648
(dp649
g73
(dp650
g81
I3
ssg82
Nsg75
(lp651
g68
(g84
g70
NtRp652
(dp653
g73
(dp654
sg82
g648
sg75
(lp655
g68
(g89
g70
NtRp656
(dp657
g73
(dp658
g93
g94
ssg82
g652
sg75
(lp659
g282
asbag68
(g89
g70
NtRp660
(dp661
g73
(dp662
g100
g101
ssg82
g652
sg75
(lp663
S':'
asbag68
(g89
g70
NtRp664
(dp665
g73
(dp666
sg82
g652
sg75
(lp667
g68
(g69
g70
NtRp668
(dp669
g73
(dp670
g81
I3
ssg82
g664
sg75
(lp671
S''
asbasbasbag68
(g84
g70
NtRp672
(dp673
g73
(dp674
sg82
g648
sg75
(lp675
g68
(g89
g70
NtRp676
(dp677
g73
(dp678
g93
g94
ssg82
g672
sg75
(lp679
g303
asbag68
(g89
g70
NtRp680
(dp681
g73
(dp682
g100
g101
ssg82
g672
sg75
(lp683
S':'
asbag68
(g89
g70
NtRp684
(dp685
g73
(dp686
sg82
g672
sg75
(lp687
g68
(g69
g70
NtRp688
(dp689
g73
(dp690
g81
I3
ssg82
g684
sg75
(lp691
S''
asbasbasbag68
(g84
g70
NtRp692
(dp693
g73
(dp694
sg82
g648
sg75
(lp695
g68
(g89
g70
NtRp696
(dp697
g73
(dp698
g93
g94
ssg82
g692
sg75
(lp699
g324
asbag68
(g89
g70
NtRp700
(dp701
g73
(dp702
g100
g101
ssg82
g692
sg75
(lp703
S':'
asbag68
(g89
g70
NtRp704
(dp705
g73
(dp706
sg82
g692
sg75
(lp707
g68
(g69
g70
NtRp708
(dp709
g73
(dp710
g81
I3
ssg82
g704
sg75
(lp711
S''
asbasbasbag68
(g84
g70
NtRp712
(dp713
g73
(dp714
sg82
g648
sg75
(lp715
g68
(g89
g70
NtRp716
(dp717
g73
(dp718
g93
g94
ssg82
g712
sg75
(lp719
g345
asbag68
(g89
g70
NtRp720
(dp721
g73
(dp722
g100
g101
ssg82
g712
sg75
(lp723
S':'
asbag68
(g89
g70
NtRp724
(dp725
g73
(dp726
sg82
g712
sg75
(lp727
g68
(g69
g70
NtRp728
(dp729
g73
(dp730
g81
I3
ssg82
g724
sg75
(lp731
S''
asbasbasbag68
(g84
g70
NtRp732
(dp733
g73
(dp734
sg82
g648
sg75
(lp735
g68
(g89
g70
NtRp736
(dp737
g73
(dp738
g93
g94
ssg82
g732
sg75
(lp739
g366
asbag68
(g89
g70
NtRp740
(dp741
g73
(dp742
g100
g101
ssg82
g732
sg75
(lp743
S':'
asbag68
(g89
g70
NtRp744
(dp745
g73
(dp746
sg82
g732
sg75
(lp747
g68
(g69
g70
NtRp748
(dp749
g73
(dp750
g81
I3
ssg82
g744
sg75
(lp751
S''
asbasbasbag68
(g84
g70
NtRp752
(dp753
g73
(dp754
sg82
g648
sg75
(lp755
g68
(g89
g70
NtRp756
(dp757
g73
(dp758
g93
g94
ssg82
g752
sg75
(lp759
g387
asbag68
(g89
g70
NtRp760
(dp761
g73
(dp762
g100
g101
ssg82
g752
sg75
(lp763
S':'
asbag68
(g89
g70
NtRp764
(dp765
g73
(dp766
sg82
g752
sg75
(lp767
g68
(g69
g70
NtRp768
(dp769
g73
(dp770
g81
I3
ssg82
g764
sg75
(lp771
S''
asbasbasbag68
(g84
g70
NtRp772
(dp773
g73
(dp774
sg82
g648
sg75
(lp775
g68
(g89
g70
NtRp776
(dp777
g73
(dp778
g93
g94
ssg82
g772
sg75
(lp779
g408
asbag68
(g89
g70
NtRp780
(dp781
g73
(dp782
g100
g101
ssg82
g772
sg75
(lp783
S':'
asbag68
(g89
g70
NtRp784
(dp785
g73
(dp786
sg82
g772
sg75
(lp787
g68
(g69
g70
NtRp788
(dp789
g73
(dp790
g81
I3
ssg82
g784
sg75
(lp791
S''
asbasbasbag68
(g84
g70
NtRp792
(dp793
g73
(dp794
sg82
g648
sg75
(lp795
g68
(g89
g70
NtRp796
(dp797
g73
(dp798
g93
g94
ssg82
g792
sg75
(lp799
g429
asbag68
(g89
g70
NtRp800
(dp801
g73
(dp802
g100
g101
ssg82
g792
sg75
(lp803
S':'
asbag68
(g89
g70
NtRp804
(dp805
g73
(dp806
sg82
g792
sg75
(lp807
g68
(g69
g70
NtRp808
(dp809
g73
(dp810
g81
I3
ssg82
g804
sg75
(lp811
S''
asbasbasbasbasbasbasbag68
(g84
g70
NtRp812
(dp813
g73
(dp814
sg82
g245
sg75
(lp815
g68
(g89
g70
NtRp816
(dp817
g73
(dp818
g93
g94
ssg82
g812
sg75
(lp819
S'session_id_gallery'
p820
asbag68
(g89
g70
NtRp821
(dp822
g73
(dp823
g100
g101
ssg82
g812
sg75
(lp824
S':'
asbag68
(g89
g70
NtRp825
(dp826
g73
(dp827
sg82
g812
sg75
(lp828
g68
(g69
g70
NtRp829
(dp830
g73
(dp831
g81
I4
ssg82
g825
sg75
(lp832
g68
(g77
g70
NtRp833
(dp834
g73
(dp835
g81
I3
ssg82
Nsg75
(lp836
g68
(g84
g70
NtRp837
(dp838
g73
(dp839
sg82
g833
sg75
(lp840
g68
(g89
g70
NtRp841
(dp842
g73
(dp843
g93
g94
ssg82
g837
sg75
(lp844
g282
asbag68
(g89
g70
NtRp845
(dp846
g73
(dp847
g100
g101
ssg82
g837
sg75
(lp848
S':'
asbag68
(g89
g70
NtRp849
(dp850
g73
(dp851
sg82
g837
sg75
(lp852
g68
(g69
g70
NtRp853
(dp854
g73
(dp855
g81
I3
ssg82
g849
sg75
(lp856
S''
asbasbasbag68
(g84
g70
NtRp857
(dp858
g73
(dp859
sg82
g833
sg75
(lp860
g68
(g89
g70
NtRp861
(dp862
g73
(dp863
g93
g94
ssg82
g857
sg75
(lp864
g303
asbag68
(g89
g70
NtRp865
(dp866
g73
(dp867
g100
g101
ssg82
g857
sg75
(lp868
S':'
asbag68
(g89
g70
NtRp869
(dp870
g73
(dp871
sg82
g857
sg75
(lp872
g68
(g69
g70
NtRp873
(dp874
g73
(dp875
g81
I3
ssg82
g869
sg75
(lp876
S''
asbasbasbag68
(g84
g70
NtRp877
(dp878
g73
(dp879
sg82
g833
sg75
(lp880
g68
(g89
g70
NtRp881
(dp882
g73
(dp883
g93
g94
ssg82
g877
sg75
(lp884
g324
asbag68
(g89
g70
NtRp885
(dp886
g73
(dp887
g100
g101
ssg82
g877
sg75
(lp888
S':'
asbag68
(g89
g70
NtRp889
(dp890
g73
(dp891
sg82
g877
sg75
(lp892
g68
(g69
g70
NtRp893
(dp894
g73
(dp895
g81
I3
ssg82
g889
sg75
(lp896
S''
asbasbasbag68
(g84
g70
NtRp897
(dp898
g73
(dp899
sg82
g833
sg75
(lp900
g68
(g89
g70
NtRp901
(dp902
g73
(dp903
g93
g94
ssg82
g897
sg75
(lp904
g345
asbag68
(g89
g70
NtRp905
(dp906
g73
(dp907
g100
g101
ssg82
g897
sg75
(lp908
S':'
asbag68
(g89
g70
NtRp909
(dp910
g73
(dp911
sg82
g897
sg75
(lp912
g68
(g69
g70
NtRp913
(dp914
g73
(dp915
g81
I3
ssg82
g909
sg75
(lp916
S''
asbasbasbag68
(g84
g70
NtRp917
(dp918
g73
(dp919
sg82
g833
sg75
(lp920
g68
(g89
g70
NtRp921
(dp922
g73
(dp923
g93
g94
ssg82
g917
sg75
(lp924
g366
asbag68
(g89
g70
NtRp925
(dp926
g73
(dp927
g100
g101
ssg82
g917
sg75
(lp928
S':'
asbag68
(g89
g70
NtRp929
(dp930
g73
(dp931
sg82
g917
sg75
(lp932
g68
(g69
g70
NtRp933
(dp934
g73
(dp935
g81
I3
ssg82
g929
sg75
(lp936
S''
asbasbasbag68
(g84
g70
NtRp937
(dp938
g73
(dp939
sg82
g833
sg75
(lp940
g68
(g89
g70
NtRp941
(dp942
g73
(dp943
g93
g94
ssg82
g937
sg75
(lp944
g387
asbag68
(g89
g70
NtRp945
(dp946
g73
(dp947
g100
g101
ssg82
g937
sg75
(lp948
S':'
asbag68
(g89
g70
NtRp949
(dp950
g73
(dp951
sg82
g937
sg75
(lp952
g68
(g69
g70
NtRp953
(dp954
g73
(dp955
g81
I3
ssg82
g949
sg75
(lp956
S''
asbasbasbag68
(g84
g70
NtRp957
(dp958
g73
(dp959
sg82
g833
sg75
(lp960
g68
(g89
g70
NtRp961
(dp962
g73
(dp963
g93
g94
ssg82
g957
sg75
(lp964
g408
asbag68
(g89
g70
NtRp965
(dp966
g73
(dp967
g100
g101
ssg82
g957
sg75
(lp968
S':'
asbag68
(g89
g70
NtRp969
(dp970
g73
(dp971
sg82
g957
sg75
(lp972
g68
(g69
g70
NtRp973
(dp974
g73
(dp975
g81
I3
ssg82
g969
sg75
(lp976
S''
asbasbasbag68
(g84
g70
NtRp977
(dp978
g73
(dp979
sg82
g833
sg75
(lp980
g68
(g89
g70
NtRp981
(dp982
g73
(dp983
g93
g94
ssg82
g977
sg75
(lp984
g429
asbag68
(g89
g70
NtRp985
(dp986
g73
(dp987
g100
g101
ssg82
g977
sg75
(lp988
S':'
asbag68
(g89
g70
NtRp989
(dp990
g73
(dp991
sg82
g977
sg75
(lp992
g68
(g69
g70
NtRp993
(dp994
g73
(dp995
g81
I3
ssg82
g989
sg75
(lp996
S''
asbasbasbasbasbasbasbag68
(g84
g70
NtRp997
(dp998
g73
(dp999
sg82
g245
sg75
(lp1000
g68
(g89
g70
NtRp1001
(dp1002
g73
(dp1003
g93
g94
ssg82
g997
sg75
(lp1004
S'session_id_welcome'
p1005
asbag68
(g89
g70
NtRp1006
(dp1007
g73
(dp1008
g100
g101
ssg82
g997
sg75
(lp1009
S':'
asbag68
(g89
g70
NtRp1010
(dp1011
g73
(dp1012
sg82
g997
sg75
(lp1013
g68
(g69
g70
NtRp1014
(dp1015
g73
(dp1016
g81
I4
ssg82
g1010
sg75
(lp1017
g68
(g77
g70
NtRp1018
(dp1019
g73
(dp1020
g81
I3
ssg82
Nsg75
(lp1021
g68
(g84
g70
NtRp1022
(dp1023
g73
(dp1024
sg82
g1018
sg75
(lp1025
g68
(g89
g70
NtRp1026
(dp1027
g73
(dp1028
g93
g94
ssg82
g1022
sg75
(lp1029
g282
asbag68
(g89
g70
NtRp1030
(dp1031
g73
(dp1032
g100
g101
ssg82
g1022
sg75
(lp1033
S':'
asbag68
(g89
g70
NtRp1034
(dp1035
g73
(dp1036
sg82
g1022
sg75
(lp1037
g68
(g69
g70
NtRp1038
(dp1039
g73
(dp1040
g81
I3
ssg82
g1034
sg75
(lp1041
S''
asbasbasbag68
(g84
g70
NtRp1042
(dp1043
g73
(dp1044
sg82
g1018
sg75
(lp1045
g68
(g89
g70
NtRp1046
(dp1047
g73
(dp1048
g93
g94
ssg82
g1042
sg75
(lp1049
g303
asbag68
(g89
g70
NtRp1050
(dp1051
g73
(dp1052
g100
g101
ssg82
g1042
sg75
(lp1053
S':'
asbag68
(g89
g70
NtRp1054
(dp1055
g73
(dp1056
sg82
g1042
sg75
(lp1057
g68
(g69
g70
NtRp1058
(dp1059
g73
(dp1060
g81
I3
ssg82
g1054
sg75
(lp1061
S''
asbasbasbag68
(g84
g70
NtRp1062
(dp1063
g73
(dp1064
sg82
g1018
sg75
(lp1065
g68
(g89
g70
NtRp1066
(dp1067
g73
(dp1068
g93
g94
ssg82
g1062
sg75
(lp1069
g324
asbag68
(g89
g70
NtRp1070
(dp1071
g73
(dp1072
g100
g101
ssg82
g1062
sg75
(lp1073
S':'
asbag68
(g89
g70
NtRp1074
(dp1075
g73
(dp1076
sg82
g1062
sg75
(lp1077
g68
(g69
g70
NtRp1078
(dp1079
g73
(dp1080
g81
I3
ssg82
g1074
sg75
(lp1081
S''
asbasbasbag68
(g84
g70
NtRp1082
(dp1083
g73
(dp1084
sg82
g1018
sg75
(lp1085
g68
(g89
g70
NtRp1086
(dp1087
g73
(dp1088
g93
g94
ssg82
g1082
sg75
(lp1089
g345
asbag68
(g89
g70
NtRp1090
(dp1091
g73
(dp1092
g100
g101
ssg82
g1082
sg75
(lp1093
S':'
asbag68
(g89
g70
NtRp1094
(dp1095
g73
(dp1096
sg82
g1082
sg75
(lp1097
g68
(g69
g70
NtRp1098
(dp1099
g73
(dp1100
g81
I3
ssg82
g1094
sg75
(lp1101
S''
asbasbasbag68
(g84
g70
NtRp1102
(dp1103
g73
(dp1104
sg82
g1018
sg75
(lp1105
g68
(g89
g70
NtRp1106
(dp1107
g73
(dp1108
g93
g94
ssg82
g1102
sg75
(lp1109
g366
asbag68
(g89
g70
NtRp1110
(dp1111
g73
(dp1112
g100
g101
ssg82
g1102
sg75
(lp1113
S':'
asbag68
(g89
g70
NtRp1114
(dp1115
g73
(dp1116
sg82
g1102
sg75
(lp1117
g68
(g69
g70
NtRp1118
(dp1119
g73
(dp1120
g81
I3
ssg82
g1114
sg75
(lp1121
S''
asbasbasbag68
(g84
g70
NtRp1122
(dp1123
g73
(dp1124
sg82
g1018
sg75
(lp1125
g68
(g89
g70
NtRp1126
(dp1127
g73
(dp1128
g93
g94
ssg82
g1122
sg75
(lp1129
g387
asbag68
(g89
g70
NtRp1130
(dp1131
g73
(dp1132
g100
g101
ssg82
g1122
sg75
(lp1133
S':'
asbag68
(g89
g70
NtRp1134
(dp1135
g73
(dp1136
sg82
g1122
sg75
(lp1137
g68
(g69
g70
NtRp1138
(dp1139
g73
(dp1140
g81
I3
ssg82
g1134
sg75
(lp1141
S''
asbasbasbag68
(g84
g70
NtRp1142
(dp1143
g73
(dp1144
sg82
g1018
sg75
(lp1145
g68
(g89
g70
NtRp1146
(dp1147
g73
(dp1148
g93
g94
ssg82
g1142
sg75
(lp1149
g408
asbag68
(g89
g70
NtRp1150
(dp1151
g73
(dp1152
g100
g101
ssg82
g1142
sg75
(lp1153
S':'
asbag68
(g89
g70
NtRp1154
(dp1155
g73
(dp1156
sg82
g1142
sg75
(lp1157
g68
(g69
g70
NtRp1158
(dp1159
g73
(dp1160
g81
I3
ssg82
g1154
sg75
(lp1161
S''
asbasbasbag68
(g84
g70
NtRp1162
(dp1163
g73
(dp1164
sg82
g1018
sg75
(lp1165
g68
(g89
g70
NtRp1166
(dp1167
g73
(dp1168
g93
g94
ssg82
g1162
sg75
(lp1169
g429
asbag68
(g89
g70
NtRp1170
(dp1171
g73
(dp1172
g100
g101
ssg82
g1162
sg75
(lp1173
S':'
asbag68
(g89
g70
NtRp1174
(dp1175
g73
(dp1176
sg82
g1162
sg75
(lp1177
g68
(g69
g70
NtRp1178
(dp1179
g73
(dp1180
g81
I3
ssg82
g1174
sg75
(lp1181
S''
asbasbasbasbasbasbasbasbasbasbasbag68
(g84
g70
NtRp1182
(dp1183
g73
(dp1184
sg82
g78
sg75
(lp1185
g68
(g89
g70
NtRp1186
(dp1187
g73
(dp1188
g93
g94
ssg82
g1182
sg75
(lp1189
S'env'
p1190
asbag68
(g89
g70
NtRp1191
(dp1192
g73
(dp1193
g100
g101
ssg82
g1182
sg75
(lp1194
S':'
asbag68
(g89
g70
NtRp1195
(dp1196
g73
(dp1197
sg82
g1182
sg75
(lp1198
g68
(g69
g70
NtRp1199
(dp1200
g73
(dp1201
g81
I5
ssg82
g1195
sg75
(lp1202
g68
(g77
g70
NtRp1203
(dp1204
g73
(dp1205
g81
I4
ssg82
Nsg75
(lp1206
g68
(g84
g70
NtRp1207
(dp1208
g73
(dp1209
sg82
g1203
sg75
(lp1210
g68
(g89
g70
NtRp1211
(dp1212
g73
(dp1213
g93
g94
ssg82
g1207
sg75
(lp1214
S'app_folders'
p1215
asbag68
(g89
g70
NtRp1216
(dp1217
g73
(dp1218
g100
g101
ssg82
g1207
sg75
(lp1219
S':'
asbag68
(g89
g70
NtRp1220
(dp1221
g73
(dp1222
sg82
g1207
sg75
(lp1223
g68
(g69
g70
NtRp1224
(dp1225
g73
(dp1226
g81
I4
ssg82
g1220
sg75
(lp1227
S"set(['/home/brencam/web2py/applications/admin/', '/home/brencam/web2py/applications/gallery/'])"
p1228
asbasbasbag68
(g84
g70
NtRp1229
(dp1230
g73
(dp1231
sg82
g1203
sg75
(lp1232
g68
(g89
g70
NtRp1233
(dp1234
g73
(dp1235
g93
g94
ssg82
g1229
sg75
(lp1236
S'applications_parent'
p1237
asbag68
(g89
g70
NtRp1238
(dp1239
g73
(dp1240
g100
g101
ssg82
g1229
sg75
(lp1241
S':'
asbag68
(g89
g70
NtRp1242
(dp1243
g73
(dp1244
sg82
g1229
sg75
(lp1245
g68
(g69
g70
NtRp1246
(dp1247
g73
(dp1248
g81
I4
ssg82
g1242
sg75
(lp1249
S'/home/brencam/web2py'
p1250
asbasbasbag68
(g84
g70
NtRp1251
(dp1252
g73
(dp1253
sg82
g1203
sg75
(lp1254
g68
(g89
g70
NtRp1255
(dp1256
g73
(dp1257
g93
g94
ssg82
g1251
sg75
(lp1258
S'cmd_args'
p1259
asbag68
(g89
g70
NtRp1260
(dp1261
g73
(dp1262
g100
g101
ssg82
g1251
sg75
(lp1263
S':'
asbag68
(g89
g70
NtRp1264
(dp1265
g73
(dp1266
sg82
g1251
sg75
(lp1267
g68
(g69
g70
NtRp1268
(dp1269
g73
(dp1270
g81
I4
ssg82
g1264
sg75
(lp1271
g68
(g77
g70
NtRp1272
(dp1273
g73
(dp1274
g81
I3
ssg82
Nsg75
(lp1275
sbasbasbasbag68
(g84
g70
NtRp1276
(dp1277
g73
(dp1278
sg82
g1203
sg75
(lp1279
g68
(g89
g70
NtRp1280
(dp1281
g73
(dp1282
g93
g94
ssg82
g1276
sg75
(lp1283
S'cmd_options'
p1284
asbag68
(g89
g70
NtRp1285
(dp1286
g73
(dp1287
g100
g101
ssg82
g1276
sg75
(lp1288
S':'
asbag68
(g89
g70
NtRp1289
(dp1290
g73
(dp1291
sg82
g1276
sg75
(lp1292
g68
(g69
g70
NtRp1293
(dp1294
g73
(dp1295
g81
I4
ssg82
g1289
sg75
(lp1296
S"<Values at 0xa97628c: {'verbose': False, 'ip': '127.0.0.1', 'shutdown_timeout': 5, 'taskbar': False, 'nocron': False, 'pid_filename': 'httpserver.pid', 'maxthreads': None, 'softcron': False, 'server_name': 'localhost.localdomain', 'bpython': False, 'nogui': True, 'port': 8000, 'extcron': False, 'debuglevel': 30, 'test': None, 'folder': '/home/brencam/web2py', 'config': '', 'import_models': False, 'winservice': '', 'shell': None, 'run': '', 'log_filename': 'httpserver.log', 'args': [''], 'ssl_ca_certificate': None, 'scheduler': None, 'profiler_filename': None, 'ssl_private_key': '', 'password': 'admin', 'request_queue_size': 5, 'ssl_certificate': '', 'cronjob': False, 'plain': False, 'quiet': False, 'interfaces': None, 'minthreads': None, 'timeout': 10, 'numthreads': None, 'nobanner': False}>"
p1297
asbasbasbag68
(g84
g70
NtRp1298
(dp1299
g73
(dp1300
sg82
g1203
sg75
(lp1301
g68
(g89
g70
NtRp1302
(dp1303
g73
(dp1304
g93
g94
ssg82
g1298
sg75
(lp1305
S'db_sessions'
p1306
asbag68
(g89
g70
NtRp1307
(dp1308
g73
(dp1309
g100
g101
ssg82
g1298
sg75
(lp1310
S':'
asbag68
(g89
g70
NtRp1311
(dp1312
g73
(dp1313
sg82
g1298
sg75
(lp1314
g68
(g69
g70
NtRp1315
(dp1316
g73
(dp1317
g81
I4
ssg82
g1311
sg75
(lp1318
S'set([])'
p1319
asbasbasbag68
(g84
g70
NtRp1320
(dp1321
g73
(dp1322
sg82
g1203
sg75
(lp1323
g68
(g89
g70
NtRp1324
(dp1325
g73
(dp1326
g93
g94
ssg82
g1320
sg75
(lp1327
S'debugging'
p1328
asbag68
(g89
g70
NtRp1329
(dp1330
g73
(dp1331
g100
g101
ssg82
g1320
sg75
(lp1332
S':'
asbag68
(g89
g70
NtRp1333
(dp1334
g73
(dp1335
sg82
g1320
sg75
(lp1336
g68
(g69
g70
NtRp1337
(dp1338
g73
(dp1339
g81
I4
ssg82
g1333
sg75
(lp1340
g111
asbasbasbag68
(g84
g70
NtRp1341
(dp1342
g73
(dp1343
sg82
g1203
sg75
(lp1344
g68
(g89
g70
NtRp1345
(dp1346
g73
(dp1347
g93
g94
ssg82
g1341
sg75
(lp1348
S'gluon_parent'
p1349
asbag68
(g89
g70
NtRp1350
(dp1351
g73
(dp1352
g100
g101
ssg82
g1341
sg75
(lp1353
S':'
asbag68
(g89
g70
NtRp1354
(dp1355
g73
(dp1356
sg82
g1341
sg75
(lp1357
g68
(g69
g70
NtRp1358
(dp1359
g73
(dp1360
g81
I4
ssg82
g1354
sg75
(lp1361
S'/home/brencam/web2py'
p1362
asbasbasbag68
(g84
g70
NtRp1363
(dp1364
g73
(dp1365
sg82
g1203
sg75
(lp1366
g68
(g89
g70
NtRp1367
(dp1368
g73
(dp1369
g93
g94
ssg82
g1363
sg75
(lp1370
S'http_accept'
p1371
asbag68
(g89
g70
NtRp1372
(dp1373
g73
(dp1374
g100
g101
ssg82
g1363
sg75
(lp1375
S':'
asbag68
(g89
g70
NtRp1376
(dp1377
g73
(dp1378
sg82
g1363
sg75
(lp1379
g68
(g69
g70
NtRp1380
(dp1381
g73
(dp1382
g81
I4
ssg82
g1376
sg75
(lp1383
S'text/html,application/xhtml+xml,application/xml;q=0.9,*/*;q=0.8'
p1384
asbasbasbag68
(g84
g70
NtRp1385
(dp1386
g73
(dp1387
sg82
g1203
sg75
(lp1388
g68
(g89
g70
NtRp1389
(dp1390
g73
(dp1391
g93
g94
ssg82
g1385
sg75
(lp1392
S'http_accept_charset'
p1393
asbag68
(g89
g70
NtRp1394
(dp1395
g73
(dp1396
g100
g101
ssg82
g1385
sg75
(lp1397
S':'
asbag68
(g89
g70
NtRp1398
(dp1399
g73
(dp1400
sg82
g1385
sg75
(lp1401
g68
(g69
g70
NtRp1402
(dp1403
g73
(dp1404
g81
I4
ssg82
g1398
sg75
(lp1405
S'ISO-8859-1,utf-8;q=0.7,*;q=0.3'
p1406
asbasbasbag68
(g84
g70
NtRp1407
(dp1408
g73
(dp1409
sg82
g1203
sg75
(lp1410
g68
(g89
g70
NtRp1411
(dp1412
g73
(dp1413
g93
g94
ssg82
g1407
sg75
(lp1414
S'http_accept_encoding'
p1415
asbag68
(g89
g70
NtRp1416
(dp1417
g73
(dp1418
g100
g101
ssg82
g1407
sg75
(lp1419
S':'
asbag68
(g89
g70
NtRp1420
(dp1421
g73
(dp1422
sg82
g1407
sg75
(lp1423
g68
(g69
g70
NtRp1424
(dp1425
g73
(dp1426
g81
I4
ssg82
g1420
sg75
(lp1427
S'gzip,deflate,sdch'
p1428
asbasbasbag68
(g84
g70
NtRp1429
(dp1430
g73
(dp1431
sg82
g1203
sg75
(lp1432
g68
(g89
g70
NtRp1433
(dp1434
g73
(dp1435
g93
g94
ssg82
g1429
sg75
(lp1436
S'http_accept_language'
p1437
asbag68
(g89
g70
NtRp1438
(dp1439
g73
(dp1440
g100
g101
ssg82
g1429
sg75
(lp1441
S':'
asbag68
(g89
g70
NtRp1442
(dp1443
g73
(dp1444
sg82
g1429
sg75
(lp1445
g68
(g69
g70
NtRp1446
(dp1447
g73
(dp1448
g81
I4
ssg82
g1442
sg75
(lp1449
S'en-US,en;q=0.8'
p1450
asbasbasbag68
(g84
g70
NtRp1451
(dp1452
g73
(dp1453
sg82
g1203
sg75
(lp1454
g68
(g89
g70
NtRp1455
(dp1456
g73
(dp1457
g93
g94
ssg82
g1451
sg75
(lp1458
S'http_cache_control'
p1459
asbag68
(g89
g70
NtRp1460
(dp1461
g73
(dp1462
g100
g101
ssg82
g1451
sg75
(lp1463
S':'
asbag68
(g89
g70
NtRp1464
(dp1465
g73
(dp1466
sg82
g1451
sg75
(lp1467
g68
(g69
g70
NtRp1468
(dp1469
g73
(dp1470
g81
I4
ssg82
g1464
sg75
(lp1471
S'no-cache'
p1472
asbasbasbag68
(g84
g70
NtRp1473
(dp1474
g73
(dp1475
sg82
g1203
sg75
(lp1476
g68
(g89
g70
NtRp1477
(dp1478
g73
(dp1479
g93
g94
ssg82
g1473
sg75
(lp1480
S'http_connection'
p1481
asbag68
(g89
g70
NtRp1482
(dp1483
g73
(dp1484
g100
g101
ssg82
g1473
sg75
(lp1485
S':'
asbag68
(g89
g70
NtRp1486
(dp1487
g73
(dp1488
sg82
g1473
sg75
(lp1489
g68
(g69
g70
NtRp1490
(dp1491
g73
(dp1492
g81
I4
ssg82
g1486
sg75
(lp1493
S'keep-alive'
p1494
asbasbasbag68
(g84
g70
NtRp1495
(dp1496
g73
(dp1497
sg82
g1203
sg75
(lp1498
g68
(g89
g70
NtRp1499
(dp1500
g73
(dp1501
g93
g94
ssg82
g1495
sg75
(lp1502
S'http_cookie'
p1503
asbag68
(g89
g70
NtRp1504
(dp1505
g73
(dp1506
g100
g101
ssg82
g1495
sg75
(lp1507
S':'
asbag68
(g89
g70
NtRp1508
(dp1509
g73
(dp1510
sg82
g1495
sg75
(lp1511
g68
(g69
g70
NtRp1512
(dp1513
g73
(dp1514
g81
I4
ssg82
g1508
sg75
(lp1515
S'__utma=96992031.552746526.1281494094.1291180555.1291186411.9; csrftoken=7b3621df70ed8d65c15785486fff8908; __utma_a2a=7438973308.1350086890.1318529964.1318645324.1318645410.28; session_id_welcome=127.0.0.1-e89cf04d-0b50-4bf6-92b3-026e707eb338; session_id_carstore=127.0.0.1-040400bf-f5a5-433f-a985-acb0a46fadd7; session_id_gallery=127.0.0.1-dc8c13ed-0f92-4ade-ab82-5940ed42a3a5; session_id_admin=127.0.0.1-d14f835c-118c-445e-8941-6ad99bd8ed54'
p1516
asbasbasbag68
(g84
g70
NtRp1517
(dp1518
g73
(dp1519
sg82
g1203
sg75
(lp1520
g68
(g89
g70
NtRp1521
(dp1522
g73
(dp1523
g93
g94
ssg82
g1517
sg75
(lp1524
S'http_host'
p1525
asbag68
(g89
g70
NtRp1526
(dp1527
g73
(dp1528
g100
g101
ssg82
g1517
sg75
(lp1529
S':'
asbag68
(g89
g70
NtRp1530
(dp1531
g73
(dp1532
sg82
g1517
sg75
(lp1533
g68
(g69
g70
NtRp1534
(dp1535
g73
(dp1536
g81
I4
ssg82
g1530
sg75
(lp1537
S'127.0.0.1:8000'
p1538
asbasbasbag68
(g84
g70
NtRp1539
(dp1540
g73
(dp1541
sg82
g1203
sg75
(lp1542
g68
(g89
g70
NtRp1543
(dp1544
g73
(dp1545
g93
g94
ssg82
g1539
sg75
(lp1546
S'http_pragma'
p1547
asbag68
(g89
g70
NtRp1548
(dp1549
g73
(dp1550
g100
g101
ssg82
g1539
sg75
(lp1551
S':'
asbag68
(g89
g70
NtRp1552
(dp1553
g73
(dp1554
sg82
g1539
sg75
(lp1555
g68
(g69
g70
NtRp1556
(dp1557
g73
(dp1558
g81
I4
ssg82
g1552
sg75
(lp1559
S'no-cache'
p1560
asbasbasbag68
(g84
g70
NtRp1561
(dp1562
g73
(dp1563
sg82
g1203
sg75
(lp1564
g68
(g89
g70
NtRp1565
(dp1566
g73
(dp1567
g93
g94
ssg82
g1561
sg75
(lp1568
S'http_referer'
p1569
asbag68
(g89
g70
NtRp1570
(dp1571
g73
(dp1572
g100
g101
ssg82
g1561
sg75
(lp1573
S':'
asbag68
(g89
g70
NtRp1574
(dp1575
g73
(dp1576
sg82
g1561
sg75
(lp1577
g68
(g69
g70
NtRp1578
(dp1579
g73
(dp1580
g81
I4
ssg82
g1574
sg75
(lp1581
S'http://127.0.0.1:8000/gallery/search/gettags'
p1582
asbasbasbag68
(g84
g70
NtRp1583
(dp1584
g73
(dp1585
sg82
g1203
sg75
(lp1586
g68
(g89
g70
NtRp1587
(dp1588
g73
(dp1589
g93
g94
ssg82
g1583
sg75
(lp1590
S'http_user_agent'
p1591
asbag68
(g89
g70
NtRp1592
(dp1593
g73
(dp1594
g100
g101
ssg82
g1583
sg75
(lp1595
S':'
asbag68
(g89
g70
NtRp1596
(dp1597
g73
(dp1598
sg82
g1583
sg75
(lp1599
g68
(g69
g70
NtRp1600
(dp1601
g73
(dp1602
g81
I4
ssg82
g1596
sg75
(lp1603
S'Mozilla/5.0 (X11; Linux i686) AppleWebKit/535.1 (KHTML, like Gecko) Chrome/14.0.835.204 Safari/535.1'
p1604
asbasbasbag68
(g84
g70
NtRp1605
(dp1606
g73
(dp1607
sg82
g1203
sg75
(lp1608
g68
(g89
g70
NtRp1609
(dp1610
g73
(dp1611
g93
g94
ssg82
g1605
sg75
(lp1612
S'is_jython'
p1613
asbag68
(g89
g70
NtRp1614
(dp1615
g73
(dp1616
g100
g101
ssg82
g1605
sg75
(lp1617
S':'
asbag68
(g89
g70
NtRp1618
(dp1619
g73
(dp1620
sg82
g1605
sg75
(lp1621
g68
(g69
g70
NtRp1622
(dp1623
g73
(dp1624
g81
I4
ssg82
g1618
sg75
(lp1625
g111
asbasbasbag68
(g84
g70
NtRp1626
(dp1627
g73
(dp1628
sg82
g1203
sg75
(lp1629
g68
(g89
g70
NtRp1630
(dp1631
g73
(dp1632
g93
g94
ssg82
g1626
sg75
(lp1633
S'path_info'
p1634
asbag68
(g89
g70
NtRp1635
(dp1636
g73
(dp1637
g100
g101
ssg82
g1626
sg75
(lp1638
S':'
asbag68
(g89
g70
NtRp1639
(dp1640
g73
(dp1641
sg82
g1626
sg75
(lp1642
g68
(g69
g70
NtRp1643
(dp1644
g73
(dp1645
g81
I4
ssg82
g1639
sg75
(lp1646
S'/gallery/search/gettags'
p1647
asbasbasbag68
(g84
g70
NtRp1648
(dp1649
g73
(dp1650
sg82
g1203
sg75
(lp1651
g68
(g89
g70
NtRp1652
(dp1653
g73
(dp1654
g93
g94
ssg82
g1648
sg75
(lp1655
S'query_string'
p1656
asbag68
(g89
g70
NtRp1657
(dp1658
g73
(dp1659
g100
g101
ssg82
g1648
sg75
(lp1660
S':'
asbag68
(g89
g70
NtRp1661
(dp1662
g73
(dp1663
sg82
g1648
sg75
(lp1664
g68
(g69
g70
NtRp1665
(dp1666
g73
(dp1667
g81
I4
ssg82
g1661
sg75
(lp1668
S''
asbasbasbag68
(g84
g70
NtRp1669
(dp1670
g73
(dp1671
sg82
g1203
sg75
(lp1672
g68
(g89
g70
NtRp1673
(dp1674
g73
(dp1675
g93
g94
ssg82
g1669
sg75
(lp1676
S'remote_addr'
p1677
asbag68
(g89
g70
NtRp1678
(dp1679
g73
(dp1680
g100
g101
ssg82
g1669
sg75
(lp1681
S':'
asbag68
(g89
g70
NtRp1682
(dp1683
g73
(dp1684
sg82
g1669
sg75
(lp1685
g68
(g69
g70
NtRp1686
(dp1687
g73
(dp1688
g81
I4
ssg82
g1682
sg75
(lp1689
g201
asbasbasbag68
(g84
g70
NtRp1690
(dp1691
g73
(dp1692
sg82
g1203
sg75
(lp1693
g68
(g89
g70
NtRp1694
(dp1695
g73
(dp1696
g93
g94
ssg82
g1690
sg75
(lp1697
S'remote_port'
p1698
asbag68
(g89
g70
NtRp1699
(dp1700
g73
(dp1701
g100
g101
ssg82
g1690
sg75
(lp1702
S':'
asbag68
(g89
g70
NtRp1703
(dp1704
g73
(dp1705
sg82
g1690
sg75
(lp1706
g68
(g69
g70
NtRp1707
(dp1708
g73
(dp1709
g81
I4
ssg82
g1703
sg75
(lp1710
S'47448'
p1711
asbasbasbag68
(g84
g70
NtRp1712
(dp1713
g73
(dp1714
sg82
g1203
sg75
(lp1715
g68
(g89
g70
NtRp1716
(dp1717
g73
(dp1718
g93
g94
ssg82
g1712
sg75
(lp1719
S'request_method'
p1720
asbag68
(g89
g70
NtRp1721
(dp1722
g73
(dp1723
g100
g101
ssg82
g1712
sg75
(lp1724
S':'
asbag68
(g89
g70
NtRp1725
(dp1726
g73
(dp1727
sg82
g1712
sg75
(lp1728
g68
(g69
g70
NtRp1729
(dp1730
g73
(dp1731
g81
I4
ssg82
g1725
sg75
(lp1732
S'GET'
p1733
asbasbasbag68
(g84
g70
NtRp1734
(dp1735
g73
(dp1736
sg82
g1203
sg75
(lp1737
g68
(g89
g70
NtRp1738
(dp1739
g73
(dp1740
g93
g94
ssg82
g1734
sg75
(lp1741
S'script_name'
p1742
asbag68
(g89
g70
NtRp1743
(dp1744
g73
(dp1745
g100
g101
ssg82
g1734
sg75
(lp1746
S':'
asbag68
(g89
g70
NtRp1747
(dp1748
g73
(dp1749
sg82
g1734
sg75
(lp1750
g68
(g69
g70
NtRp1751
(dp1752
g73
(dp1753
g81
I4
ssg82
g1747
sg75
(lp1754
S''
asbasbasbag68
(g84
g70
NtRp1755
(dp1756
g73
(dp1757
sg82
g1203
sg75
(lp1758
g68
(g89
g70
NtRp1759
(dp1760
g73
(dp1761
g93
g94
ssg82
g1755
sg75
(lp1762
S'server_name'
p1763
asbag68
(g89
g70
NtRp1764
(dp1765
g73
(dp1766
g100
g101
ssg82
g1755
sg75
(lp1767
S':'
asbag68
(g89
g70
NtRp1768
(dp1769
g73
(dp1770
sg82
g1755
sg75
(lp1771
g68
(g69
g70
NtRp1772
(dp1773
g73
(dp1774
g81
I4
ssg82
g1768
sg75
(lp1775
S'localhost.localdomain'
p1776
asbasbasbag68
(g84
g70
NtRp1777
(dp1778
g73
(dp1779
sg82
g1203
sg75
(lp1780
g68
(g89
g70
NtRp1781
(dp1782
g73
(dp1783
g93
g94
ssg82
g1777
sg75
(lp1784
S'server_port'
p1785
asbag68
(g89
g70
NtRp1786
(dp1787
g73
(dp1788
g100
g101
ssg82
g1777
sg75
(lp1789
S':'
asbag68
(g89
g70
NtRp1790
(dp1791
g73
(dp1792
sg82
g1777
sg75
(lp1793
g68
(g69
g70
NtRp1794
(dp1795
g73
(dp1796
g81
I4
ssg82
g1790
sg75
(lp1797
S'8000'
p1798
asbasbasbag68
(g84
g70
NtRp1799
(dp1800
g73
(dp1801
sg82
g1203
sg75
(lp1802
g68
(g89
g70
NtRp1803
(dp1804
g73
(dp1805
g93
g94
ssg82
g1799
sg75
(lp1806
S'server_protocol'
p1807
asbag68
(g89
g70
NtRp1808
(dp1809
g73
(dp1810
g100
g101
ssg82
g1799
sg75
(lp1811
S':'
asbag68
(g89
g70
NtRp1812
(dp1813
g73
(dp1814
sg82
g1799
sg75
(lp1815
g68
(g69
g70
NtRp1816
(dp1817
g73
(dp1818
g81
I4
ssg82
g1812
sg75
(lp1819
S'HTTP/1.1'
p1820
asbasbasbag68
(g84
g70
NtRp1821
(dp1822
g73
(dp1823
sg82
g1203
sg75
(lp1824
g68
(g89
g70
NtRp1825
(dp1826
g73
(dp1827
g93
g94
ssg82
g1821
sg75
(lp1828
S'server_software'
p1829
asbag68
(g89
g70
NtRp1830
(dp1831
g73
(dp1832
g100
g101
ssg82
g1821
sg75
(lp1833
S':'
asbag68
(g89
g70
NtRp1834
(dp1835
g73
(dp1836
sg82
g1821
sg75
(lp1837
g68
(g69
g70
NtRp1838
(dp1839
g73
(dp1840
g81
I4
ssg82
g1834
sg75
(lp1841
S'Rocket 1.2.4'
p1842
asbasbasbag68
(g84
g70
NtRp1843
(dp1844
g73
(dp1845
sg82
g1203
sg75
(lp1846
g68
(g89
g70
NtRp1847
(dp1848
g73
(dp1849
g93
g94
ssg82
g1843
sg75
(lp1850
S'web2py_crontype'
p1851
asbag68
(g89
g70
NtRp1852
(dp1853
g73
(dp1854
g100
g101
ssg82
g1843
sg75
(lp1855
S':'
asbag68
(g89
g70
NtRp1856
(dp1857
g73
(dp1858
sg82
g1843
sg75
(lp1859
g68
(g69
g70
NtRp1860
(dp1861
g73
(dp1862
g81
I4
ssg82
g1856
sg75
(lp1863
S'hard'
p1864
asbasbasbag68
(g84
g70
NtRp1865
(dp1866
g73
(dp1867
sg82
g1203
sg75
(lp1868
g68
(g89
g70
NtRp1869
(dp1870
g73
(dp1871
g93
g94
ssg82
g1865
sg75
(lp1872
S'web2py_path'
p1873
asbag68
(g89
g70
NtRp1874
(dp1875
g73
(dp1876
g100
g101
ssg82
g1865
sg75
(lp1877
S':'
asbag68
(g89
g70
NtRp1878
(dp1879
g73
(dp1880
sg82
g1865
sg75
(lp1881
g68
(g69
g70
NtRp1882
(dp1883
g73
(dp1884
g81
I4
ssg82
g1878
sg75
(lp1885
g1250
asbasbasbag68
(g84
g70
NtRp1886
(dp1887
g73
(dp1888
sg82
g1203
sg75
(lp1889
g68
(g89
g70
NtRp1890
(dp1891
g73
(dp1892
g93
g94
ssg82
g1886
sg75
(lp1893
S'web2py_version'
p1894
asbag68
(g89
g70
NtRp1895
(dp1896
g73
(dp1897
g100
g101
ssg82
g1886
sg75
(lp1898
S':'
asbag68
(g89
g70
NtRp1899
(dp1900
g73
(dp1901
sg82
g1886
sg75
(lp1902
g68
(g69
g70
NtRp1903
(dp1904
g73
(dp1905
g81
I4
ssg82
g1899
sg75
(lp1906
g68
(g77
g70
NtRp1907
(dp1908
g73
(dp1909
g81
I3
ssg82
Nsg75
(lp1910
g68
(g84
g70
NtRp1911
(dp1912
g73
(dp1913
sg82
g1907
sg75
(lp1914
g68
(g89
g70
NtRp1915
(dp1916
g73
(dp1917
sg82
g1911
sg75
(lp1918
g68
(g69
g70
NtRp1919
(dp1920
g73
(dp1921
g81
I3
ssg82
g1915
sg75
(lp1922
S'1'
asbasbasbag68
(g84
g70
NtRp1923
(dp1924
g73
(dp1925
sg82
g1907
sg75
(lp1926
g68
(g89
g70
NtRp1927
(dp1928
g73
(dp1929
sg82
g1923
sg75
(lp1930
g68
(g69
g70
NtRp1931
(dp1932
g73
(dp1933
g81
I3
ssg82
g1927
sg75
(lp1934
S'99'
p1935
asbasbasbag68
(g84
g70
NtRp1936
(dp1937
g73
(dp1938
sg82
g1907
sg75
(lp1939
g68
(g89
g70
NtRp1940
(dp1941
g73
(dp1942
sg82
g1936
sg75
(lp1943
g68
(g69
g70
NtRp1944
(dp1945
g73
(dp1946
g81
I3
ssg82
g1940
sg75
(lp1947
S'2'
asbasbasbag68
(g84
g70
NtRp1948
(dp1949
g73
(dp1950
sg82
g1907
sg75
(lp1951
g68
(g89
g70
NtRp1952
(dp1953
g73
(dp1954
sg82
g1948
sg75
(lp1955
g68
(g69
g70
NtRp1956
(dp1957
g73
(dp1958
g81
I3
ssg82
g1952
sg75
(lp1959
S'datetime.datetime(2011, 9, 26, 6, 55, 33)'
p1960
asbasbasbag68
(g84
g70
NtRp1961
(dp1962
g73
(dp1963
sg82
g1907
sg75
(lp1964
g68
(g89
g70
NtRp1965
(dp1966
g73
(dp1967
sg82
g1961
sg75
(lp1968
g68
(g69
g70
NtRp1969
(dp1970
g73
(dp1971
g81
I3
ssg82
g1965
sg75
(lp1972
S'stable'
p1973
asbasbasbasbasbasbasbag68
(g84
g70
NtRp1974
(dp1975
g73
(dp1976
sg82
g1203
sg75
(lp1977
g68
(g89
g70
NtRp1978
(dp1979
g73
(dp1980
g93
g94
ssg82
g1974
sg75
(lp1981
S'wsgi_errors'
p1982
asbag68
(g89
g70
NtRp1983
(dp1984
g73
(dp1985
g100
g101
ssg82
g1974
sg75
(lp1986
S':'
asbag68
(g89
g70
NtRp1987
(dp1988
g73
(dp1989
sg82
g1974
sg75
(lp1990
g68
(g69
g70
NtRp1991
(dp1992
g73
(dp1993
g81
I4
ssg82
g1987
sg75
(lp1994
S"<open file '<stderr>', mode 'w' at 0xb74340d0>"
p1995
asbasbasbag68
(g84
g70
NtRp1996
(dp1997
g73
(dp1998
sg82
g1203
sg75
(lp1999
g68
(g89
g70
NtRp2000
(dp2001
g73
(dp2002
g93
g94
ssg82
g1996
sg75
(lp2003
S'wsgi_file_wrapper'
p2004
asbag68
(g89
g70
NtRp2005
(dp2006
g73
(dp2007
g100
g101
ssg82
g1996
sg75
(lp2008
S':'
asbag68
(g89
g70
NtRp2009
(dp2010
g73
(dp2011
sg82
g1996
sg75
(lp2012
g68
(g69
g70
NtRp2013
(dp2014
g73
(dp2015
g81
I4
ssg82
g2009
sg75
(lp2016
S'<class wsgiref.util.FileWrapper at 0xa57350c>'
p2017
asbasbasbag68
(g84
g70
NtRp2018
(dp2019
g73
(dp2020
sg82
g1203
sg75
(lp2021
g68
(g89
g70
NtRp2022
(dp2023
g73
(dp2024
g93
g94
ssg82
g2018
sg75
(lp2025
S'wsgi_input'
p2026
asbag68
(g89
g70
NtRp2027
(dp2028
g73
(dp2029
g100
g101
ssg82
g2018
sg75
(lp2030
S':'
asbag68
(g89
g70
NtRp2031
(dp2032
g73
(dp2033
sg82
g2018
sg75
(lp2034
g68
(g69
g70
NtRp2035
(dp2036
g73
(dp2037
g81
I4
ssg82
g2031
sg75
(lp2038
S'<socket._fileobject object at 0xaf61502c>'
p2039
asbasbasbag68
(g84
g70
NtRp2040
(dp2041
g73
(dp2042
sg82
g1203
sg75
(lp2043
g68
(g89
g70
NtRp2044
(dp2045
g73
(dp2046
g93
g94
ssg82
g2040
sg75
(lp2047
S'wsgi_multiprocess'
p2048
asbag68
(g89
g70
NtRp2049
(dp2050
g73
(dp2051
g100
g101
ssg82
g2040
sg75
(lp2052
S':'
asbag68
(g89
g70
NtRp2053
(dp2054
g73
(dp2055
sg82
g2040
sg75
(lp2056
g68
(g69
g70
NtRp2057
(dp2058
g73
(dp2059
g81
I4
ssg82
g2053
sg75
(lp2060
g111
asbasbasbag68
(g84
g70
NtRp2061
(dp2062
g73
(dp2063
sg82
g1203
sg75
(lp2064
g68
(g89
g70
NtRp2065
(dp2066
g73
(dp2067
g93
g94
ssg82
g2061
sg75
(lp2068
S'wsgi_multithread'
p2069
asbag68
(g89
g70
NtRp2070
(dp2071
g73
(dp2072
g100
g101
ssg82
g2061
sg75
(lp2073
S':'
asbag68
(g89
g70
NtRp2074
(dp2075
g73
(dp2076
sg82
g2061
sg75
(lp2077
g68
(g69
g70
NtRp2078
(dp2079
g73
(dp2080
g81
I4
ssg82
g2074
sg75
(lp2081
S'True'
p2082
asbasbasbag68
(g84
g70
NtRp2083
(dp2084
g73
(dp2085
sg82
g1203
sg75
(lp2086
g68
(g89
g70
NtRp2087
(dp2088
g73
(dp2089
g93
g94
ssg82
g2083
sg75
(lp2090
S'wsgi_run_once'
p2091
asbag68
(g89
g70
NtRp2092
(dp2093
g73
(dp2094
g100
g101
ssg82
g2083
sg75
(lp2095
S':'
asbag68
(g89
g70
NtRp2096
(dp2097
g73
(dp2098
sg82
g2083
sg75
(lp2099
g68
(g69
g70
NtRp2100
(dp2101
g73
(dp2102
g81
I4
ssg82
g2096
sg75
(lp2103
g111
asbasbasbag68
(g84
g70
NtRp2104
(dp2105
g73
(dp2106
sg82
g1203
sg75
(lp2107
g68
(g89
g70
NtRp2108
(dp2109
g73
(dp2110
g93
g94
ssg82
g2104
sg75
(lp2111
S'wsgi_url_scheme'
p2112
asbag68
(g89
g70
NtRp2113
(dp2114
g73
(dp2115
g100
g101
ssg82
g2104
sg75
(lp2116
S':'
asbag68
(g89
g70
NtRp2117
(dp2118
g73
(dp2119
sg82
g2104
sg75
(lp2120
g68
(g69
g70
NtRp2121
(dp2122
g73
(dp2123
g81
I4
ssg82
g2117
sg75
(lp2124
S'http'
p2125
asbasbasbag68
(g84
g70
NtRp2126
(dp2127
g73
(dp2128
sg82
g1203
sg75
(lp2129
g68
(g89
g70
NtRp2130
(dp2131
g73
(dp2132
g93
g94
ssg82
g2126
sg75
(lp2133
S'wsgi_version'
p2134
asbag68
(g89
g70
NtRp2135
(dp2136
g73
(dp2137
g100
g101
ssg82
g2126
sg75
(lp2138
S':'
asbag68
(g89
g70
NtRp2139
(dp2140
g73
(dp2141
sg82
g2126
sg75
(lp2142
g68
(g69
g70
NtRp2143
(dp2144
g73
(dp2145
g81
I4
ssg82
g2139
sg75
(lp2146
g68
(g77
g70
NtRp2147
(dp2148
g73
(dp2149
g81
I3
ssg82
Nsg75
(lp2150
g68
(g84
g70
NtRp2151
(dp2152
g73
(dp2153
sg82
g2147
sg75
(lp2154
g68
(g89
g70
NtRp2155
(dp2156
g73
(dp2157
sg82
g2151
sg75
(lp2158
g68
(g69
g70
NtRp2159
(dp2160
g73
(dp2161
g81
I3
ssg82
g2155
sg75
(lp2162
S'1'
asbasbasbag68
(g84
g70
NtRp2163
(dp2164
g73
(dp2165
sg82
g2147
sg75
(lp2166
g68
(g89
g70
NtRp2167
(dp2168
g73
(dp2169
sg82
g2163
sg75
(lp2170
g68
(g69
g70
NtRp2171
(dp2172
g73
(dp2173
g81
I3
ssg82
g2167
sg75
(lp2174
S'0'
asbasbasbasbasbasbasbasbasbasbasbag68
(g84
g70
NtRp2175
(dp2176
g73
(dp2177
sg82
g78
sg75
(lp2178
g68
(g89
g70
NtRp2179
(dp2180
g73
(dp2181
g93
g94
ssg82
g2175
sg75
(lp2182
S'extension'
p2183
asbag68
(g89
g70
NtRp2184
(dp2185
g73
(dp2186
g100
g101
ssg82
g2175
sg75
(lp2187
S':'
asbag68
(g89
g70
NtRp2188
(dp2189
g73
(dp2190
sg82
g2175
sg75
(lp2191
g68
(g69
g70
NtRp2192
(dp2193
g73
(dp2194
g81
I5
ssg82
g2188
sg75
(lp2195
S'html'
p2196
asbasbasbag68
(g84
g70
NtRp2197
(dp2198
g73
(dp2199
sg82
g78
sg75
(lp2200
g68
(g89
g70
NtRp2201
(dp2202
g73
(dp2203
g93
g94
ssg82
g2197
sg75
(lp2204
S'folder'
p2205
asbag68
(g89
g70
NtRp2206
(dp2207
g73
(dp2208
g100
g101
ssg82
g2197
sg75
(lp2209
S':'
asbag68
(g89
g70
NtRp2210
(dp2211
g73
(dp2212
sg82
g2197
sg75
(lp2213
g68
(g69
g70
NtRp2214
(dp2215
g73
(dp2216
g81
I5
ssg82
g2210
sg75
(lp2217
S'/home/brencam/web2py/applications/gallery/'
p2218
asbasbasbag68
(g84
g70
NtRp2219
(dp2220
g73
(dp2221
sg82
g78
sg75
(lp2222
g68
(g89
g70
NtRp2223
(dp2224
g73
(dp2225
g93
g94
ssg82
g2219
sg75
(lp2226
S'function'
p2227
asbag68
(g89
g70
NtRp2228
(dp2229
g73
(dp2230
g100
g101
ssg82
g2219
sg75
(lp2231
S':'
asbag68
(g89
g70
NtRp2232
(dp2233
g73
(dp2234
sg82
g2219
sg75
(lp2235
g68
(g69
g70
NtRp2236
(dp2237
g73
(dp2238
g81
I5
ssg82
g2232
sg75
(lp2239
S'gettags'
p2240
asbasbasbag68
(g84
g70
NtRp2241
(dp2242
g73
(dp2243
sg82
g78
sg75
(lp2244
g68
(g89
g70
NtRp2245
(dp2246
g73
(dp2247
g93
g94
ssg82
g2241
sg75
(lp2248
S'get_vars'
p2249
asbag68
(g89
g70
NtRp2250
(dp2251
g73
(dp2252
g100
g101
ssg82
g2241
sg75
(lp2253
S':'
asbag68
(g89
g70
NtRp2254
(dp2255
g73
(dp2256
sg82
g2241
sg75
(lp2257
g68
(g69
g70
NtRp2258
(dp2259
g73
(dp2260
g81
I5
ssg82
g2254
sg75
(lp2261
g68
(g77
g70
NtRp2262
(dp2263
g73
(dp2264
g81
I4
ssg82
Nsg75
(lp2265
sbasbasbasbag68
(g84
g70
NtRp2266
(dp2267
g73
(dp2268
sg82
g78
sg75
(lp2269
g68
(g89
g70
NtRp2270
(dp2271
g73
(dp2272
g93
g94
ssg82
g2266
sg75
(lp2273
S'global_settings'
p2274
asbag68
(g89
g70
NtRp2275
(dp2276
g73
(dp2277
g100
g101
ssg82
g2266
sg75
(lp2278
S':'
asbag68
(g89
g70
NtRp2279
(dp2280
g73
(dp2281
sg82
g2266
sg75
(lp2282
g68
(g69
g70
NtRp2283
(dp2284
g73
(dp2285
g81
I5
ssg82
g2279
sg75
(lp2286
g68
(g77
g70
NtRp2287
(dp2288
g73
(dp2289
g81
I4
ssg82
Nsg75
(lp2290
g68
(g84
g70
NtRp2291
(dp2292
g73
(dp2293
sg82
g2287
sg75
(lp2294
g68
(g89
g70
NtRp2295
(dp2296
g73
(dp2297
g93
g94
ssg82
g2291
sg75
(lp2298
g1215
asbag68
(g89
g70
NtRp2299
(dp2300
g73
(dp2301
g100
g101
ssg82
g2291
sg75
(lp2302
S':'
asbag68
(g89
g70
NtRp2303
(dp2304
g73
(dp2305
sg82
g2291
sg75
(lp2306
g68
(g69
g70
NtRp2307
(dp2308
g73
(dp2309
g81
I4
ssg82
g2303
sg75
(lp2310
S"set(['/home/brencam/web2py/applications/admin/', '/home/brencam/web2py/applications/gallery/'])"
p2311
asbasbasbag68
(g84
g70
NtRp2312
(dp2313
g73
(dp2314
sg82
g2287
sg75
(lp2315
g68
(g89
g70
NtRp2316
(dp2317
g73
(dp2318
g93
g94
ssg82
g2312
sg75
(lp2319
g1237
asbag68
(g89
g70
NtRp2320
(dp2321
g73
(dp2322
g100
g101
ssg82
g2312
sg75
(lp2323
S':'
asbag68
(g89
g70
NtRp2324
(dp2325
g73
(dp2326
sg82
g2312
sg75
(lp2327
g68
(g69
g70
NtRp2328
(dp2329
g73
(dp2330
g81
I4
ssg82
g2324
sg75
(lp2331
g1250
asbasbasbag68
(g84
g70
NtRp2332
(dp2333
g73
(dp2334
sg82
g2287
sg75
(lp2335
g68
(g89
g70
NtRp2336
(dp2337
g73
(dp2338
g93
g94
ssg82
g2332
sg75
(lp2339
g1259
asbag68
(g89
g70
NtRp2340
(dp2341
g73
(dp2342
g100
g101
ssg82
g2332
sg75
(lp2343
S':'
asbag68
(g89
g70
NtRp2344
(dp2345
g73
(dp2346
sg82
g2332
sg75
(lp2347
g68
(g69
g70
NtRp2348
(dp2349
g73
(dp2350
g81
I4
ssg82
g2344
sg75
(lp2351
g68
(g77
g70
NtRp2352
(dp2353
g73
(dp2354
g81
I3
ssg82
Nsg75
(lp2355
sbasbasbasbag68
(g84
g70
NtRp2356
(dp2357
g73
(dp2358
sg82
g2287
sg75
(lp2359
g68
(g89
g70
NtRp2360
(dp2361
g73
(dp2362
g93
g94
ssg82
g2356
sg75
(lp2363
g1284
asbag68
(g89
g70
NtRp2364
(dp2365
g73
(dp2366
g100
g101
ssg82
g2356
sg75
(lp2367
S':'
asbag68
(g89
g70
NtRp2368
(dp2369
g73
(dp2370
sg82
g2356
sg75
(lp2371
g68
(g69
g70
NtRp2372
(dp2373
g73
(dp2374
g81
I4
ssg82
g2368
sg75
(lp2375
S"<Values at 0xa97628c: {'verbose': False, 'ip': '127.0.0.1', 'shutdown_timeout': 5, 'taskbar': False, 'nocron': False, 'pid_filename': 'httpserver.pid', 'maxthreads': None, 'softcron': False, 'server_name': 'localhost.localdomain', 'bpython': False, 'nogui': True, 'port': 8000, 'extcron': False, 'debuglevel': 30, 'test': None, 'folder': '/home/brencam/web2py', 'config': '', 'import_models': False, 'winservice': '', 'shell': None, 'run': '', 'log_filename': 'httpserver.log', 'args': [''], 'ssl_ca_certificate': None, 'scheduler': None, 'profiler_filename': None, 'ssl_private_key': '', 'password': 'admin', 'request_queue_size': 5, 'ssl_certificate': '', 'cronjob': False, 'plain': False, 'quiet': False, 'interfaces': None, 'minthreads': None, 'timeout': 10, 'numthreads': None, 'nobanner': False}>"
p2376
asbasbasbag68
(g84
g70
NtRp2377
(dp2378
g73
(dp2379
sg82
g2287
sg75
(lp2380
g68
(g89
g70
NtRp2381
(dp2382
g73
(dp2383
g93
g94
ssg82
g2377
sg75
(lp2384
g1306
asbag68
(g89
g70
NtRp2385
(dp2386
g73
(dp2387
g100
g101
ssg82
g2377
sg75
(lp2388
S':'
asbag68
(g89
g70
NtRp2389
(dp2390
g73
(dp2391
sg82
g2377
sg75
(lp2392
g68
(g69
g70
NtRp2393
(dp2394
g73
(dp2395
g81
I4
ssg82
g2389
sg75
(lp2396
S'set([])'
p2397
asbasbasbag68
(g84
g70
NtRp2398
(dp2399
g73
(dp2400
sg82
g2287
sg75
(lp2401
g68
(g89
g70
NtRp2402
(dp2403
g73
(dp2404
g93
g94
ssg82
g2398
sg75
(lp2405
g1328
asbag68
(g89
g70
NtRp2406
(dp2407
g73
(dp2408
g100
g101
ssg82
g2398
sg75
(lp2409
S':'
asbag68
(g89
g70
NtRp2410
(dp2411
g73
(dp2412
sg82
g2398
sg75
(lp2413
g68
(g69
g70
NtRp2414
(dp2415
g73
(dp2416
g81
I4
ssg82
g2410
sg75
(lp2417
g111
asbasbasbag68
(g84
g70
NtRp2418
(dp2419
g73
(dp2420
sg82
g2287
sg75
(lp2421
g68
(g89
g70
NtRp2422
(dp2423
g73
(dp2424
g93
g94
ssg82
g2418
sg75
(lp2425
g1349
asbag68
(g89
g70
NtRp2426
(dp2427
g73
(dp2428
g100
g101
ssg82
g2418
sg75
(lp2429
S':'
asbag68
(g89
g70
NtRp2430
(dp2431
g73
(dp2432
sg82
g2418
sg75
(lp2433
g68
(g69
g70
NtRp2434
(dp2435
g73
(dp2436
g81
I4
ssg82
g2430
sg75
(lp2437
g1362
asbasbasbag68
(g84
g70
NtRp2438
(dp2439
g73
(dp2440
sg82
g2287
sg75
(lp2441
g68
(g89
g70
NtRp2442
(dp2443
g73
(dp2444
g93
g94
ssg82
g2438
sg75
(lp2445
g1613
asbag68
(g89
g70
NtRp2446
(dp2447
g73
(dp2448
g100
g101
ssg82
g2438
sg75
(lp2449
S':'
asbag68
(g89
g70
NtRp2450
(dp2451
g73
(dp2452
sg82
g2438
sg75
(lp2453
g68
(g69
g70
NtRp2454
(dp2455
g73
(dp2456
g81
I4
ssg82
g2450
sg75
(lp2457
g111
asbasbasbag68
(g84
g70
NtRp2458
(dp2459
g73
(dp2460
sg82
g2287
sg75
(lp2461
g68
(g89
g70
NtRp2462
(dp2463
g73
(dp2464
g93
g94
ssg82
g2458
sg75
(lp2465
g1851
asbag68
(g89
g70
NtRp2466
(dp2467
g73
(dp2468
g100
g101
ssg82
g2458
sg75
(lp2469
S':'
asbag68
(g89
g70
NtRp2470
(dp2471
g73
(dp2472
sg82
g2458
sg75
(lp2473
g68
(g69
g70
NtRp2474
(dp2475
g73
(dp2476
g81
I4
ssg82
g2470
sg75
(lp2477
g1864
asbasbasbag68
(g84
g70
NtRp2478
(dp2479
g73
(dp2480
sg82
g2287
sg75
(lp2481
g68
(g89
g70
NtRp2482
(dp2483
g73
(dp2484
g93
g94
ssg82
g2478
sg75
(lp2485
g1894
asbag68
(g89
g70
NtRp2486
(dp2487
g73
(dp2488
g100
g101
ssg82
g2478
sg75
(lp2489
S':'
asbag68
(g89
g70
NtRp2490
(dp2491
g73
(dp2492
sg82
g2478
sg75
(lp2493
g68
(g69
g70
NtRp2494
(dp2495
g73
(dp2496
g81
I4
ssg82
g2490
sg75
(lp2497
g68
(g77
g70
NtRp2498
(dp2499
g73
(dp2500
g81
I3
ssg82
Nsg75
(lp2501
g68
(g84
g70
NtRp2502
(dp2503
g73
(dp2504
sg82
g2498
sg75
(lp2505
g68
(g89
g70
NtRp2506
(dp2507
g73
(dp2508
sg82
g2502
sg75
(lp2509
g68
(g69
g70
NtRp2510
(dp2511
g73
(dp2512
g81
I3
ssg82
g2506
sg75
(lp2513
S'1'
asbasbasbag68
(g84
g70
NtRp2514
(dp2515
g73
(dp2516
sg82
g2498
sg75
(lp2517
g68
(g89
g70
NtRp2518
(dp2519
g73
(dp2520
sg82
g2514
sg75
(lp2521
g68
(g69
g70
NtRp2522
(dp2523
g73
(dp2524
g81
I3
ssg82
g2518
sg75
(lp2525
S'99'
p2526
asbasbasbag68
(g84
g70
NtRp2527
(dp2528
g73
(dp2529
sg82
g2498
sg75
(lp2530
g68
(g89
g70
NtRp2531
(dp2532
g73
(dp2533
sg82
g2527
sg75
(lp2534
g68
(g69
g70
NtRp2535
(dp2536
g73
(dp2537
g81
I3
ssg82
g2531
sg75
(lp2538
S'2'
asbasbasbag68
(g84
g70
NtRp2539
(dp2540
g73
(dp2541
sg82
g2498
sg75
(lp2542
g68
(g89
g70
NtRp2543
(dp2544
g73
(dp2545
sg82
g2539
sg75
(lp2546
g68
(g69
g70
NtRp2547
(dp2548
g73
(dp2549
g81
I3
ssg82
g2543
sg75
(lp2550
S'datetime.datetime(2011, 9, 26, 6, 55, 33)'
p2551
asbasbasbag68
(g84
g70
NtRp2552
(dp2553
g73
(dp2554
sg82
g2498
sg75
(lp2555
g68
(g89
g70
NtRp2556
(dp2557
g73
(dp2558
sg82
g2552
sg75
(lp2559
g68
(g69
g70
NtRp2560
(dp2561
g73
(dp2562
g81
I3
ssg82
g2556
sg75
(lp2563
g1973
asbasbasbasbasbasbasbasbasbasbasbag68
(g84
g70
NtRp2564
(dp2565
g73
(dp2566
sg82
g78
sg75
(lp2567
g68
(g89
g70
NtRp2568
(dp2569
g73
(dp2570
g93
g94
ssg82
g2564
sg75
(lp2571
S'is_https'
p2572
asbag68
(g89
g70
NtRp2573
(dp2574
g73
(dp2575
g100
g101
ssg82
g2564
sg75
(lp2576
S':'
asbag68
(g89
g70
NtRp2577
(dp2578
g73
(dp2579
sg82
g2564
sg75
(lp2580
g68
(g69
g70
NtRp2581
(dp2582
g73
(dp2583
g81
I5
ssg82
g2577
sg75
(lp2584
g111
asbasbasbag68
(g84
g70
NtRp2585
(dp2586
g73
(dp2587
sg82
g78
sg75
(lp2588
g68
(g89
g70
NtRp2589
(dp2590
g73
(dp2591
g93
g94
ssg82
g2585
sg75
(lp2592
S'is_local'
p2593
asbag68
(g89
g70
NtRp2594
(dp2595
g73
(dp2596
g100
g101
ssg82
g2585
sg75
(lp2597
S':'
asbag68
(g89
g70
NtRp2598
(dp2599
g73
(dp2600
sg82
g2585
sg75
(lp2601
g68
(g69
g70
NtRp2602
(dp2603
g73
(dp2604
g81
I5
ssg82
g2598
sg75
(lp2605
g2082
asbasbasbag68
(g84
g70
NtRp2606
(dp2607
g73
(dp2608
sg82
g78
sg75
(lp2609
g68
(g89
g70
NtRp2610
(dp2611
g73
(dp2612
g93
g94
ssg82
g2606
sg75
(lp2613
S'is_restful'
p2614
asbag68
(g89
g70
NtRp2615
(dp2616
g73
(dp2617
g100
g101
ssg82
g2606
sg75
(lp2618
S':'
asbag68
(g89
g70
NtRp2619
(dp2620
g73
(dp2621
sg82
g2606
sg75
(lp2622
g68
(g69
g70
NtRp2623
(dp2624
g73
(dp2625
g81
I5
ssg82
g2619
sg75
(lp2626
g111
asbasbasbag68
(g84
g70
NtRp2627
(dp2628
g73
(dp2629
sg82
g78
sg75
(lp2630
g68
(g89
g70
NtRp2631
(dp2632
g73
(dp2633
g93
g94
ssg82
g2627
sg75
(lp2634
S'now'
p2635
asbag68
(g89
g70
NtRp2636
(dp2637
g73
(dp2638
g100
g101
ssg82
g2627
sg75
(lp2639
S':'
asbag68
(g89
g70
NtRp2640
(dp2641
g73
(dp2642
sg82
g2627
sg75
(lp2643
g68
(g69
g70
NtRp2644
(dp2645
g73
(dp2646
g81
I5
ssg82
g2640
sg75
(lp2647
S'datetime.datetime(2011, 11, 5, 12, 53, 7, 847654)'
p2648
asbasbasbag68
(g84
g70
NtRp2649
(dp2650
g73
(dp2651
sg82
g78
sg75
(lp2652
g68
(g89
g70
NtRp2653
(dp2654
g73
(dp2655
g93
g94
ssg82
g2649
sg75
(lp2656
S'post_vars'
p2657
asbag68
(g89
g70
NtRp2658
(dp2659
g73
(dp2660
g100
g101
ssg82
g2649
sg75
(lp2661
S':'
asbag68
(g89
g70
NtRp2662
(dp2663
g73
(dp2664
sg82
g2649
sg75
(lp2665
g68
(g69
g70
NtRp2666
(dp2667
g73
(dp2668
g81
I5
ssg82
g2662
sg75
(lp2669
g68
(g77
g70
NtRp2670
(dp2671
g73
(dp2672
g81
I4
ssg82
Nsg75
(lp2673
sbasbasbasbag68
(g84
g70
NtRp2674
(dp2675
g73
(dp2676
sg82
g78
sg75
(lp2677
g68
(g89
g70
NtRp2678
(dp2679
g73
(dp2680
g93
g94
ssg82
g2674
sg75
(lp2681
S'url'
p2682
asbag68
(g89
g70
NtRp2683
(dp2684
g73
(dp2685
g100
g101
ssg82
g2674
sg75
(lp2686
S':'
asbag68
(g89
g70
NtRp2687
(dp2688
g73
(dp2689
sg82
g2674
sg75
(lp2690
g68
(g69
g70
NtRp2691
(dp2692
g73
(dp2693
g81
I5
ssg82
g2687
sg75
(lp2694
S'/gallery/search/gettags'
p2695
asbasbasbag68
(g84
g70
NtRp2696
(dp2697
g73
(dp2698
sg82
g78
sg75
(lp2699
g68
(g89
g70
NtRp2700
(dp2701
g73
(dp2702
g93
g94
ssg82
g2696
sg75
(lp2703
S'utcnow'
p2704
asbag68
(g89
g70
NtRp2705
(dp2706
g73
(dp2707
g100
g101
ssg82
g2696
sg75
(lp2708
S':'
asbag68
(g89
g70
NtRp2709
(dp2710
g73
(dp2711
sg82
g2696
sg75
(lp2712
g68
(g69
g70
NtRp2713
(dp2714
g73
(dp2715
g81
I5
ssg82
g2709
sg75
(lp2716
S'datetime.datetime(2011, 11, 5, 19, 53, 7, 847683)'
p2717
asbasbasbag68
(g84
g70
NtRp2718
(dp2719
g73
(dp2720
sg82
g78
sg75
(lp2721
g68
(g89
g70
NtRp2722
(dp2723
g73
(dp2724
g93
g94
ssg82
g2718
sg75
(lp2725
S'uuid'
p2726
asbag68
(g89
g70
NtRp2727
(dp2728
g73
(dp2729
g100
g101
ssg82
g2718
sg75
(lp2730
S':'
asbag68
(g89
g70
NtRp2731
(dp2732
g73
(dp2733
sg82
g2718
sg75
(lp2734
g68
(g69
g70
NtRp2735
(dp2736
g73
(dp2737
g81
I5
ssg82
g2731
sg75
(lp2738
S'gallery/127.0.0.1.2011-11-05.12-53-07.c6409ccd-2b2b-48ba-acce-a9506db6acfa'
p2739
asbasbasbag68
(g84
g70
NtRp2740
(dp2741
g73
(dp2742
sg82
g78
sg75
(lp2743
g68
(g89
g70
NtRp2744
(dp2745
g73
(dp2746
g93
g94
ssg82
g2740
sg75
(lp2747
S'vars'
p2748
asbag68
(g89
g70
NtRp2749
(dp2750
g73
(dp2751
g100
g101
ssg82
g2740
sg75
(lp2752
S':'
asbag68
(g89
g70
NtRp2753
(dp2754
g73
(dp2755
sg82
g2740
sg75
(lp2756
g68
(g69
g70
NtRp2757
(dp2758
g73
(dp2759
g81
I5
ssg82
g2753
sg75
(lp2760
g68
(g77
g70
NtRp2761
(dp2762
g73
(dp2763
g81
I4
ssg82
Nsg75
(lp2764
sbasbasbasbag68
(g84
g70
NtRp2765
(dp2766
g73
(dp2767
sg82
g78
sg75
(lp2768
g68
(g89
g70
NtRp2769
(dp2770
g73
(dp2771
g93
g94
ssg82
g2765
sg75
(lp2772
S'wsgi'
p2773
asbag68
(g89
g70
NtRp2774
(dp2775
g73
(dp2776
g100
g101
ssg82
g2765
sg75
(lp2777
S':'
asbag68
(g89
g70
NtRp2778
(dp2779
g73
(dp2780
sg82
g2765
sg75
(lp2781
g68
(g69
g70
NtRp2782
(dp2783
g73
(dp2784
g81
I5
ssg82
g2778
sg75
(lp2785
g68
(g77
g70
NtRp2786
(dp2787
g73
(dp2788
g81
I4
ssg82
Nsg75
(lp2789
g68
(g84
g70
NtRp2790
(dp2791
g73
(dp2792
sg82
g2786
sg75
(lp2793
g68
(g89
g70
NtRp2794
(dp2795
g73
(dp2796
g93
g94
ssg82
g2790
sg75
(lp2797
S'environ'
p2798
asbag68
(g89
g70
NtRp2799
(dp2800
g73
(dp2801
g100
g101
ssg82
g2790
sg75
(lp2802
S':'
asbag68
(g89
g70
NtRp2803
(dp2804
g73
(dp2805
sg82
g2790
sg75
(lp2806
g68
(g69
g70
NtRp2807
(dp2808
g73
(dp2809
g81
I4
ssg82
g2803
sg75
(lp2810
g68
(g77
g70
NtRp2811
(dp2812
g73
(dp2813
g81
I3
ssg82
Nsg75
(lp2814
g68
(g84
g70
NtRp2815
(dp2816
g73
(dp2817
sg82
g2811
sg75
(lp2818
g68
(g89
g70
NtRp2819
(dp2820
g73
(dp2821
g93
g94
ssg82
g2815
sg75
(lp2822
S'HTTP_ACCEPT'
p2823
asbag68
(g89
g70
NtRp2824
(dp2825
g73
(dp2826
g100
g101
ssg82
g2815
sg75
(lp2827
S':'
asbag68
(g89
g70
NtRp2828
(dp2829
g73
(dp2830
sg82
g2815
sg75
(lp2831
g68
(g69
g70
NtRp2832
(dp2833
g73
(dp2834
g81
I3
ssg82
g2828
sg75
(lp2835
g1384
asbasbasbag68
(g84
g70
NtRp2836
(dp2837
g73
(dp2838
sg82
g2811
sg75
(lp2839
g68
(g89
g70
NtRp2840
(dp2841
g73
(dp2842
g93
g94
ssg82
g2836
sg75
(lp2843
S'HTTP_ACCEPT_CHARSET'
p2844
asbag68
(g89
g70
NtRp2845
(dp2846
g73
(dp2847
g100
g101
ssg82
g2836
sg75
(lp2848
S':'
asbag68
(g89
g70
NtRp2849
(dp2850
g73
(dp2851
sg82
g2836
sg75
(lp2852
g68
(g69
g70
NtRp2853
(dp2854
g73
(dp2855
g81
I3
ssg82
g2849
sg75
(lp2856
g1406
asbasbasbag68
(g84
g70
NtRp2857
(dp2858
g73
(dp2859
sg82
g2811
sg75
(lp2860
g68
(g89
g70
NtRp2861
(dp2862
g73
(dp2863
g93
g94
ssg82
g2857
sg75
(lp2864
S'HTTP_ACCEPT_ENCODING'
p2865
asbag68
(g89
g70
NtRp2866
(dp2867
g73
(dp2868
g100
g101
ssg82
g2857
sg75
(lp2869
S':'
asbag68
(g89
g70
NtRp2870
(dp2871
g73
(dp2872
sg82
g2857
sg75
(lp2873
g68
(g69
g70
NtRp2874
(dp2875
g73
(dp2876
g81
I3
ssg82
g2870
sg75
(lp2877
g1428
asbasbasbag68
(g84
g70
NtRp2878
(dp2879
g73
(dp2880
sg82
g2811
sg75
(lp2881
g68
(g89
g70
NtRp2882
(dp2883
g73
(dp2884
g93
g94
ssg82
g2878
sg75
(lp2885
S'HTTP_ACCEPT_LANGUAGE'
p2886
asbag68
(g89
g70
NtRp2887
(dp2888
g73
(dp2889
g100
g101
ssg82
g2878
sg75
(lp2890
S':'
asbag68
(g89
g70
NtRp2891
(dp2892
g73
(dp2893
sg82
g2878
sg75
(lp2894
g68
(g69
g70
NtRp2895
(dp2896
g73
(dp2897
g81
I3
ssg82
g2891
sg75
(lp2898
g1450
asbasbasbag68
(g84
g70
NtRp2899
(dp2900
g73
(dp2901
sg82
g2811
sg75
(lp2902
g68
(g89
g70
NtRp2903
(dp2904
g73
(dp2905
g93
g94
ssg82
g2899
sg75
(lp2906
S'HTTP_CACHE_CONTROL'
p2907
asbag68
(g89
g70
NtRp2908
(dp2909
g73
(dp2910
g100
g101
ssg82
g2899
sg75
(lp2911
S':'
asbag68
(g89
g70
NtRp2912
(dp2913
g73
(dp2914
sg82
g2899
sg75
(lp2915
g68
(g69
g70
NtRp2916
(dp2917
g73
(dp2918
g81
I3
ssg82
g2912
sg75
(lp2919
g1472
asbasbasbag68
(g84
g70
NtRp2920
(dp2921
g73
(dp2922
sg82
g2811
sg75
(lp2923
g68
(g89
g70
NtRp2924
(dp2925
g73
(dp2926
g93
g94
ssg82
g2920
sg75
(lp2927
S'HTTP_CONNECTION'
p2928
asbag68
(g89
g70
NtRp2929
(dp2930
g73
(dp2931
g100
g101
ssg82
g2920
sg75
(lp2932
S':'
asbag68
(g89
g70
NtRp2933
(dp2934
g73
(dp2935
sg82
g2920
sg75
(lp2936
g68
(g69
g70
NtRp2937
(dp2938
g73
(dp2939
g81
I3
ssg82
g2933
sg75
(lp2940
g1494
asbasbasbag68
(g84
g70
NtRp2941
(dp2942
g73
(dp2943
sg82
g2811
sg75
(lp2944
g68
(g89
g70
NtRp2945
(dp2946
g73
(dp2947
g93
g94
ssg82
g2941
sg75
(lp2948
S'HTTP_COOKIE'
p2949
asbag68
(g89
g70
NtRp2950
(dp2951
g73
(dp2952
g100
g101
ssg82
g2941
sg75
(lp2953
S':'
asbag68
(g89
g70
NtRp2954
(dp2955
g73
(dp2956
sg82
g2941
sg75
(lp2957
g68
(g69
g70
NtRp2958
(dp2959
g73
(dp2960
g81
I3
ssg82
g2954
sg75
(lp2961
g1516
asbasbasbag68
(g84
g70
NtRp2962
(dp2963
g73
(dp2964
sg82
g2811
sg75
(lp2965
g68
(g89
g70
NtRp2966
(dp2967
g73
(dp2968
g93
g94
ssg82
g2962
sg75
(lp2969
S'HTTP_HOST'
p2970
asbag68
(g89
g70
NtRp2971
(dp2972
g73
(dp2973
g100
g101
ssg82
g2962
sg75
(lp2974
S':'
asbag68
(g89
g70
NtRp2975
(dp2976
g73
(dp2977
sg82
g2962
sg75
(lp2978
g68
(g69
g70
NtRp2979
(dp2980
g73
(dp2981
g81
I3
ssg82
g2975
sg75
(lp2982
g1538
asbasbasbag68
(g84
g70
NtRp2983
(dp2984
g73
(dp2985
sg82
g2811
sg75
(lp2986
g68
(g89
g70
NtRp2987
(dp2988
g73
(dp2989
g93
g94
ssg82
g2983
sg75
(lp2990
S'HTTP_PRAGMA'
p2991
asbag68
(g89
g70
NtRp2992
(dp2993
g73
(dp2994
g100
g101
ssg82
g2983
sg75
(lp2995
S':'
asbag68
(g89
g70
NtRp2996
(dp2997
g73
(dp2998
sg82
g2983
sg75
(lp2999
g68
(g69
g70
NtRp3000
(dp3001
g73
(dp3002
g81
I3
ssg82
g2996
sg75
(lp3003
g1560
asbasbasbag68
(g84
g70
NtRp3004
(dp3005
g73
(dp3006
sg82
g2811
sg75
(lp3007
g68
(g89
g70
NtRp3008
(dp3009
g73
(dp3010
g93
g94
ssg82
g3004
sg75
(lp3011
S'HTTP_REFERER'
p3012
asbag68
(g89
g70
NtRp3013
(dp3014
g73
(dp3015
g100
g101
ssg82
g3004
sg75
(lp3016
S':'
asbag68
(g89
g70
NtRp3017
(dp3018
g73
(dp3019
sg82
g3004
sg75
(lp3020
g68
(g69
g70
NtRp3021
(dp3022
g73
(dp3023
g81
I3
ssg82
g3017
sg75
(lp3024
g1582
asbasbasbag68
(g84
g70
NtRp3025
(dp3026
g73
(dp3027
sg82
g2811
sg75
(lp3028
g68
(g89
g70
NtRp3029
(dp3030
g73
(dp3031
g93
g94
ssg82
g3025
sg75
(lp3032
S'HTTP_USER_AGENT'
p3033
asbag68
(g89
g70
NtRp3034
(dp3035
g73
(dp3036
g100
g101
ssg82
g3025
sg75
(lp3037
S':'
asbag68
(g89
g70
NtRp3038
(dp3039
g73
(dp3040
sg82
g3025
sg75
(lp3041
g68
(g69
g70
NtRp3042
(dp3043
g73
(dp3044
g81
I3
ssg82
g3038
sg75
(lp3045
g1604
asbasbasbag68
(g84
g70
NtRp3046
(dp3047
g73
(dp3048
sg82
g2811
sg75
(lp3049
g68
(g89
g70
NtRp3050
(dp3051
g73
(dp3052
g93
g94
ssg82
g3046
sg75
(lp3053
S'PATH_INFO'
p3054
asbag68
(g89
g70
NtRp3055
(dp3056
g73
(dp3057
g100
g101
ssg82
g3046
sg75
(lp3058
S':'
asbag68
(g89
g70
NtRp3059
(dp3060
g73
(dp3061
sg82
g3046
sg75
(lp3062
g68
(g69
g70
NtRp3063
(dp3064
g73
(dp3065
g81
I3
ssg82
g3059
sg75
(lp3066
g1647
asbasbasbag68
(g84
g70
NtRp3067
(dp3068
g73
(dp3069
sg82
g2811
sg75
(lp3070
g68
(g89
g70
NtRp3071
(dp3072
g73
(dp3073
g93
g94
ssg82
g3067
sg75
(lp3074
S'QUERY_STRING'
p3075
asbag68
(g89
g70
NtRp3076
(dp3077
g73
(dp3078
g100
g101
ssg82
g3067
sg75
(lp3079
S':'
asbag68
(g89
g70
NtRp3080
(dp3081
g73
(dp3082
sg82
g3067
sg75
(lp3083
g68
(g69
g70
NtRp3084
(dp3085
g73
(dp3086
g81
I3
ssg82
g3080
sg75
(lp3087
S''
asbasbasbag68
(g84
g70
NtRp3088
(dp3089
g73
(dp3090
sg82
g2811
sg75
(lp3091
g68
(g89
g70
NtRp3092
(dp3093
g73
(dp3094
g93
g94
ssg82
g3088
sg75
(lp3095
S'REMOTE_ADDR'
p3096
asbag68
(g89
g70
NtRp3097
(dp3098
g73
(dp3099
g100
g101
ssg82
g3088
sg75
(lp3100
S':'
asbag68
(g89
g70
NtRp3101
(dp3102
g73
(dp3103
sg82
g3088
sg75
(lp3104
g68
(g69
g70
NtRp3105
(dp3106
g73
(dp3107
g81
I3
ssg82
g3101
sg75
(lp3108
g201
asbasbasbag68
(g84
g70
NtRp3109
(dp3110
g73
(dp3111
sg82
g2811
sg75
(lp3112
g68
(g89
g70
NtRp3113
(dp3114
g73
(dp3115
g93
g94
ssg82
g3109
sg75
(lp3116
S'REMOTE_PORT'
p3117
asbag68
(g89
g70
NtRp3118
(dp3119
g73
(dp3120
g100
g101
ssg82
g3109
sg75
(lp3121
S':'
asbag68
(g89
g70
NtRp3122
(dp3123
g73
(dp3124
sg82
g3109
sg75
(lp3125
g68
(g69
g70
NtRp3126
(dp3127
g73
(dp3128
g81
I3
ssg82
g3122
sg75
(lp3129
g1711
asbasbasbag68
(g84
g70
NtRp3130
(dp3131
g73
(dp3132
sg82
g2811
sg75
(lp3133
g68
(g89
g70
NtRp3134
(dp3135
g73
(dp3136
g93
g94
ssg82
g3130
sg75
(lp3137
S'REQUEST_METHOD'
p3138
asbag68
(g89
g70
NtRp3139
(dp3140
g73
(dp3141
g100
g101
ssg82
g3130
sg75
(lp3142
S':'
asbag68
(g89
g70
NtRp3143
(dp3144
g73
(dp3145
sg82
g3130
sg75
(lp3146
g68
(g69
g70
NtRp3147
(dp3148
g73
(dp3149
g81
I3
ssg82
g3143
sg75
(lp3150
g1733
asbasbasbag68
(g84
g70
NtRp3151
(dp3152
g73
(dp3153
sg82
g2811
sg75
(lp3154
g68
(g89
g70
NtRp3155
(dp3156
g73
(dp3157
g93
g94
ssg82
g3151
sg75
(lp3158
S'SCRIPT_NAME'
p3159
asbag68
(g89
g70
NtRp3160
(dp3161
g73
(dp3162
g100
g101
ssg82
g3151
sg75
(lp3163
S':'
asbag68
(g89
g70
NtRp3164
(dp3165
g73
(dp3166
sg82
g3151
sg75
(lp3167
g68
(g69
g70
NtRp3168
(dp3169
g73
(dp3170
g81
I3
ssg82
g3164
sg75
(lp3171
S''
asbasbasbag68
(g84
g70
NtRp3172
(dp3173
g73
(dp3174
sg82
g2811
sg75
(lp3175
g68
(g89
g70
NtRp3176
(dp3177
g73
(dp3178
g93
g94
ssg82
g3172
sg75
(lp3179
S'SERVER_NAME'
p3180
asbag68
(g89
g70
NtRp3181
(dp3182
g73
(dp3183
g100
g101
ssg82
g3172
sg75
(lp3184
S':'
asbag68
(g89
g70
NtRp3185
(dp3186
g73
(dp3187
sg82
g3172
sg75
(lp3188
g68
(g69
g70
NtRp3189
(dp3190
g73
(dp3191
g81
I3
ssg82
g3185
sg75
(lp3192
g1776
asbasbasbag68
(g84
g70
NtRp3193
(dp3194
g73
(dp3195
sg82
g2811
sg75
(lp3196
g68
(g89
g70
NtRp3197
(dp3198
g73
(dp3199
g93
g94
ssg82
g3193
sg75
(lp3200
S'SERVER_PORT'
p3201
asbag68
(g89
g70
NtRp3202
(dp3203
g73
(dp3204
g100
g101
ssg82
g3193
sg75
(lp3205
S':'
asbag68
(g89
g70
NtRp3206
(dp3207
g73
(dp3208
sg82
g3193
sg75
(lp3209
g68
(g69
g70
NtRp3210
(dp3211
g73
(dp3212
g81
I3
ssg82
g3206
sg75
(lp3213
g1798
asbasbasbag68
(g84
g70
NtRp3214
(dp3215
g73
(dp3216
sg82
g2811
sg75
(lp3217
g68
(g89
g70
NtRp3218
(dp3219
g73
(dp3220
g93
g94
ssg82
g3214
sg75
(lp3221
S'SERVER_PROTOCOL'
p3222
asbag68
(g89
g70
NtRp3223
(dp3224
g73
(dp3225
g100
g101
ssg82
g3214
sg75
(lp3226
S':'
asbag68
(g89
g70
NtRp3227
(dp3228
g73
(dp3229
sg82
g3214
sg75
(lp3230
g68
(g69
g70
NtRp3231
(dp3232
g73
(dp3233
g81
I3
ssg82
g3227
sg75
(lp3234
g1820
asbasbasbag68
(g84
g70
NtRp3235
(dp3236
g73
(dp3237
sg82
g2811
sg75
(lp3238
g68
(g89
g70
NtRp3239
(dp3240
g73
(dp3241
g93
g94
ssg82
g3235
sg75
(lp3242
S'SERVER_SOFTWARE'
p3243
asbag68
(g89
g70
NtRp3244
(dp3245
g73
(dp3246
g100
g101
ssg82
g3235
sg75
(lp3247
S':'
asbag68
(g89
g70
NtRp3248
(dp3249
g73
(dp3250
sg82
g3235
sg75
(lp3251
g68
(g69
g70
NtRp3252
(dp3253
g73
(dp3254
g81
I3
ssg82
g3248
sg75
(lp3255
g1842
asbasbasbag68
(g84
g70
NtRp3256
(dp3257
g73
(dp3258
sg82
g2811
sg75
(lp3259
g68
(g89
g70
NtRp3260
(dp3261
g73
(dp3262
g93
g94
ssg82
g3256
sg75
(lp3263
S'wsgi.errors'
p3264
asbag68
(g89
g70
NtRp3265
(dp3266
g73
(dp3267
g100
g101
ssg82
g3256
sg75
(lp3268
S':'
asbag68
(g89
g70
NtRp3269
(dp3270
g73
(dp3271
sg82
g3256
sg75
(lp3272
g68
(g69
g70
NtRp3273
(dp3274
g73
(dp3275
g81
I3
ssg82
g3269
sg75
(lp3276
S"<open file '<stderr>', mode 'w' at 0xb74340d0>"
p3277
asbasbasbag68
(g84
g70
NtRp3278
(dp3279
g73
(dp3280
sg82
g2811
sg75
(lp3281
g68
(g89
g70
NtRp3282
(dp3283
g73
(dp3284
g93
g94
ssg82
g3278
sg75
(lp3285
S'wsgi.file_wrapper'
p3286
asbag68
(g89
g70
NtRp3287
(dp3288
g73
(dp3289
g100
g101
ssg82
g3278
sg75
(lp3290
S':'
asbag68
(g89
g70
NtRp3291
(dp3292
g73
(dp3293
sg82
g3278
sg75
(lp3294
g68
(g69
g70
NtRp3295
(dp3296
g73
(dp3297
g81
I3
ssg82
g3291
sg75
(lp3298
S'<class wsgiref.util.FileWrapper at 0xa57350c>'
p3299
asbasbasbag68
(g84
g70
NtRp3300
(dp3301
g73
(dp3302
sg82
g2811
sg75
(lp3303
g68
(g89
g70
NtRp3304
(dp3305
g73
(dp3306
g93
g94
ssg82
g3300
sg75
(lp3307
S'wsgi.input'
p3308
asbag68
(g89
g70
NtRp3309
(dp3310
g73
(dp3311
g100
g101
ssg82
g3300
sg75
(lp3312
S':'
asbag68
(g89
g70
NtRp3313
(dp3314
g73
(dp3315
sg82
g3300
sg75
(lp3316
g68
(g69
g70
NtRp3317
(dp3318
g73
(dp3319
g81
I3
ssg82
g3313
sg75
(lp3320
S'<cStringIO.StringO object at 0xae9b76e0>'
p3321
asbasbasbag68
(g84
g70
NtRp3322
(dp3323
g73
(dp3324
sg82
g2811
sg75
(lp3325
g68
(g89
g70
NtRp3326
(dp3327
g73
(dp3328
g93
g94
ssg82
g3322
sg75
(lp3329
S'wsgi.multiprocess'
p3330
asbag68
(g89
g70
NtRp3331
(dp3332
g73
(dp3333
g100
g101
ssg82
g3322
sg75
(lp3334
S':'
asbag68
(g89
g70
NtRp3335
(dp3336
g73
(dp3337
sg82
g3322
sg75
(lp3338
g68
(g69
g70
NtRp3339
(dp3340
g73
(dp3341
g81
I3
ssg82
g3335
sg75
(lp3342
g111
asbasbasbag68
(g84
g70
NtRp3343
(dp3344
g73
(dp3345
sg82
g2811
sg75
(lp3346
g68
(g89
g70
NtRp3347
(dp3348
g73
(dp3349
g93
g94
ssg82
g3343
sg75
(lp3350
S'wsgi.multithread'
p3351
asbag68
(g89
g70
NtRp3352
(dp3353
g73
(dp3354
g100
g101
ssg82
g3343
sg75
(lp3355
S':'
asbag68
(g89
g70
NtRp3356
(dp3357
g73
(dp3358
sg82
g3343
sg75
(lp3359
g68
(g69
g70
NtRp3360
(dp3361
g73
(dp3362
g81
I3
ssg82
g3356
sg75
(lp3363
g2082
asbasbasbag68
(g84
g70
NtRp3364
(dp3365
g73
(dp3366
sg82
g2811
sg75
(lp3367
g68
(g89
g70
NtRp3368
(dp3369
g73
(dp3370
g93
g94
ssg82
g3364
sg75
(lp3371
S'wsgi.run_once'
p3372
asbag68
(g89
g70
NtRp3373
(dp3374
g73
(dp3375
g100
g101
ssg82
g3364
sg75
(lp3376
S':'
asbag68
(g89
g70
NtRp3377
(dp3378
g73
(dp3379
sg82
g3364
sg75
(lp3380
g68
(g69
g70
NtRp3381
(dp3382
g73
(dp3383
g81
I3
ssg82
g3377
sg75
(lp3384
g111
asbasbasbag68
(g84
g70
NtRp3385
(dp3386
g73
(dp3387
sg82
g2811
sg75
(lp3388
g68
(g89
g70
NtRp3389
(dp3390
g73
(dp3391
g93
g94
ssg82
g3385
sg75
(lp3392
S'wsgi.url_scheme'
p3393
asbag68
(g89
g70
NtRp3394
(dp3395
g73
(dp3396
g100
g101
ssg82
g3385
sg75
(lp3397
S':'
asbag68
(g89
g70
NtRp3398
(dp3399
g73
(dp3400
sg82
g3385
sg75
(lp3401
g68
(g69
g70
NtRp3402
(dp3403
g73
(dp3404
g81
I3
ssg82
g3398
sg75
(lp3405
g2125
asbasbasbag68
(g84
g70
NtRp3406
(dp3407
g73
(dp3408
sg82
g2811
sg75
(lp3409
g68
(g89
g70
NtRp3410
(dp3411
g73
(dp3412
g93
g94
ssg82
g3406
sg75
(lp3413
S'wsgi.version'
p3414
asbag68
(g89
g70
NtRp3415
(dp3416
g73
(dp3417
g100
g101
ssg82
g3406
sg75
(lp3418
S':'
asbag68
(g89
g70
NtRp3419
(dp3420
g73
(dp3421
sg82
g3406
sg75
(lp3422
g68
(g69
g70
NtRp3423
(dp3424
g73
(dp3425
g81
I3
ssg82
g3419
sg75
(lp3426
S'1'
asbasbasbasbasbasbasbasbasbasbasbasbasbsS'frames'
p3427
(lp3428
(dp3429
S'file'
p3430
S'/home/brencam/web2py/gluon/restricted.py'
p3431
sS'dump'
p3432
(dp3433
S'code'
p3434
S"'# Search Controller\\nimport datetime\\n\\ndef getname...s]))\\n\\n\\n\\nresponse._vars=response._caller(gettags)\\n'"
p3435
sS'layer'
p3436
S"'/home/brencam/web2py/applications/gallery/controllers/search.py'"
p3437
sS'global compile2'
p3438
S'<function compile2>'
p3439
sS'ccode'
p3440
S'undefined'
p3441
ssS'lnum'
p3442
I193
sS'lines'
p3443
(dp3444
I192
S'        else:'
p3445
sI193
S'            ccode = compile2(code,layer)'
p3446
sI194
S'        exec ccode in environment'
p3447
sI195
S'    except HTTP:'
p3448
sI196
S'        raise'
p3449
sI197
S'    except Exception, error:'
p3450
sI188
S"    environment['__file__'] = layer"
p3451
sI189
S'    try:'
p3452
sI190
S'        if type(code) == types.CodeType:'
p3453
sI191
S'            ccode = code'
p3454
ssS'call'
p3455
S"(code='# Search Controller\\nimport datetime\\n\\ndef getname...s]))\\n\\n\\n\\nresponse._vars=response._caller(gettags)\\n', environment={'A': <class 'gluon.html.A'>, 'Auth': <class 'gluon.tools.Auth'>, 'B': <class 'gluon.html.B'>, 'BEAUTIFY': <class 'gluon.html.BEAUTIFY'>, 'BODY': <class 'gluon.html.BODY'>, 'BR': <class 'gluon.html.BR'>, 'BUTTON': <class 'gluon.html.BUTTON'>, 'CAT': <class 'gluon.html.CAT'>, 'CENTER': <class 'gluon.html.CENTER'>, 'CLEANUP': <class 'gluon.validators.CLEANUP'>, ...}, layer='/home/brencam/web2py/applications/gallery/controllers/search.py')"
p3456
sS'func'
p3457
S'restricted'
p3458
sa(dp3459
g3430
S'/home/brencam/web2py/gluon/restricted.py'
p3460
sg3432
(dp3461
S'builtincompile'
p3462
S'<built-in function compile>'
p3463
sS'code'
p3464
S"'# Search Controller\\nimport datetime\\n\\ndef getname...s]))\\n\\n\\n\\nresponse._vars=response._caller(gettags)\\n'"
p3465
sS'code.rstrip'
p3466
S'<built-in method rstrip of str object>'
p3467
sS').replace'
p3468
g3441
sS'layer'
p3469
S"'/home/brencam/web2py/applications/gallery/controllers/search.py'"
p3470
ssg3442
I179
sg3443
(dp3471
I174
S''
sI175
S'def compile2(code,layer):'
p3472
sI176
S'    """'
p3473
sI177
S"    The +'\\n' is necessary else compile fails when code ends in a comment."
p3474
sI178
S'    """'
p3475
sI179
S"    return compile(code.rstrip().replace('\\r\\n','\\n')+'\\n', layer, 'exec')"
p3476
sI180
S''
sI181
S"def restricted(code, environment=None, layer='Unknown'):"
p3477
sI182
S'    """'
p3478
sI183
S'    runs code in environment and returns the output. if an exception occurs'
p3479
ssg3455
S"(code='# Search Controller\\nimport datetime\\n\\ndef getname...s]))\\n\\n\\n\\nresponse._vars=response._caller(gettags)\\n', layer='/home/brencam/web2py/applications/gallery/controllers/search.py')"
p3480
sg3457
S'compile2'
p3481
sasS'pyver'
p3482
S'Python 2.6.6: /usr/bin/python'
p3483
sS'session'
p3484
g68
(g69
g70
NtRp3485
(dp3486
g73
(dp3487
sg75
(lp3488
g68
(g77
g70
NtRp3489
(dp3490
g73
(dp3491
g81
I5
ssg82
Nsg75
(lp3492
g68
(g84
g70
NtRp3493
(dp3494
g73
(dp3495
sg82
g3489
sg75
(lp3496
g68
(g89
g70
NtRp3497
(dp3498
g73
(dp3499
g93
g94
ssg82
g3493
sg75
(lp3500
S'counter'
p3501
asbag68
(g89
g70
NtRp3502
(dp3503
g73
(dp3504
g100
g101
ssg82
g3493
sg75
(lp3505
S':'
asbag68
(g89
g70
NtRp3506
(dp3507
g73
(dp3508
sg82
g3493
sg75
(lp3509
g68
(g69
g70
NtRp3510
(dp3511
g73
(dp3512
g81
I5
ssg82
g3506
sg75
(lp3513
S'8'
asbasbasbasbasbsS'etype'
p3514
S"<type 'exceptions.SyntaxError'>"
p3515
sS'date'
p3516
S'Sat Nov  5 12:53:07 2011'
p3517
sS'response'
p3518
g68
(g69
g70
NtRp3519
(dp3520
g73
(dp3521
sg75
(lp3522
g68
(g77
g70
NtRp3523
(dp3524
g73
(dp3525
g81
I5
ssg82
Nsg75
(lp3526
g68
(g84
g70
NtRp3527
(dp3528
g73
(dp3529
sg82
g3523
sg75
(lp3530
g68
(g89
g70
NtRp3531
(dp3532
g73
(dp3533
g93
g94
ssg82
g3527
sg75
(lp3534
g166
asbag68
(g89
g70
NtRp3535
(dp3536
g73
(dp3537
g100
g101
ssg82
g3527
sg75
(lp3538
S':'
asbag68
(g89
g70
NtRp3539
(dp3540
g73
(dp3541
sg82
g3527
sg75
(lp3542
g68
(g69
g70
NtRp3543
(dp3544
g73
(dp3545
g81
I5
ssg82
g3539
sg75
(lp3546
S'<cStringIO.StringO object at 0xb537cf60>'
p3547
asbasbasbag68
(g84
g70
NtRp3548
(dp3549
g73
(dp3550
sg82
g3523
sg75
(lp3551
g68
(g89
g70
NtRp3552
(dp3553
g73
(dp3554
g93
g94
ssg82
g3548
sg75
(lp3555
g232
asbag68
(g89
g70
NtRp3556
(dp3557
g73
(dp3558
g100
g101
ssg82
g3548
sg75
(lp3559
S':'
asbag68
(g89
g70
NtRp3560
(dp3561
g73
(dp3562
sg82
g3548
sg75
(lp3563
g68
(g69
g70
NtRp3564
(dp3565
g73
(dp3566
g81
I5
ssg82
g3560
sg75
(lp3567
g68
(g77
g70
NtRp3568
(dp3569
g73
(dp3570
g81
I4
ssg82
Nsg75
(lp3571
g68
(g84
g70
NtRp3572
(dp3573
g73
(dp3574
sg82
g3568
sg75
(lp3575
g68
(g89
g70
NtRp3576
(dp3577
g73
(dp3578
g93
g94
ssg82
g3572
sg75
(lp3579
S'session_id_gallery'
p3580
asbag68
(g89
g70
NtRp3581
(dp3582
g73
(dp3583
g100
g101
ssg82
g3572
sg75
(lp3584
S':'
asbag68
(g89
g70
NtRp3585
(dp3586
g73
(dp3587
sg82
g3572
sg75
(lp3588
g68
(g69
g70
NtRp3589
(dp3590
g73
(dp3591
g81
I4
ssg82
g3585
sg75
(lp3592
g68
(g77
g70
NtRp3593
(dp3594
g73
(dp3595
g81
I3
ssg82
Nsg75
(lp3596
g68
(g84
g70
NtRp3597
(dp3598
g73
(dp3599
sg82
g3593
sg75
(lp3600
g68
(g89
g70
NtRp3601
(dp3602
g73
(dp3603
g93
g94
ssg82
g3597
sg75
(lp3604
g282
asbag68
(g89
g70
NtRp3605
(dp3606
g73
(dp3607
g100
g101
ssg82
g3597
sg75
(lp3608
S':'
asbag68
(g89
g70
NtRp3609
(dp3610
g73
(dp3611
sg82
g3597
sg75
(lp3612
g68
(g69
g70
NtRp3613
(dp3614
g73
(dp3615
g81
I3
ssg82
g3609
sg75
(lp3616
S''
asbasbasbag68
(g84
g70
NtRp3617
(dp3618
g73
(dp3619
sg82
g3593
sg75
(lp3620
g68
(g89
g70
NtRp3621
(dp3622
g73
(dp3623
g93
g94
ssg82
g3617
sg75
(lp3624
g303
asbag68
(g89
g70
NtRp3625
(dp3626
g73
(dp3627
g100
g101
ssg82
g3617
sg75
(lp3628
S':'
asbag68
(g89
g70
NtRp3629
(dp3630
g73
(dp3631
sg82
g3617
sg75
(lp3632
g68
(g69
g70
NtRp3633
(dp3634
g73
(dp3635
g81
I3
ssg82
g3629
sg75
(lp3636
S''
asbasbasbag68
(g84
g70
NtRp3637
(dp3638
g73
(dp3639
sg82
g3593
sg75
(lp3640
g68
(g89
g70
NtRp3641
(dp3642
g73
(dp3643
g93
g94
ssg82
g3637
sg75
(lp3644
g324
asbag68
(g89
g70
NtRp3645
(dp3646
g73
(dp3647
g100
g101
ssg82
g3637
sg75
(lp3648
S':'
asbag68
(g89
g70
NtRp3649
(dp3650
g73
(dp3651
sg82
g3637
sg75
(lp3652
g68
(g69
g70
NtRp3653
(dp3654
g73
(dp3655
g81
I3
ssg82
g3649
sg75
(lp3656
S''
asbasbasbag68
(g84
g70
NtRp3657
(dp3658
g73
(dp3659
sg82
g3593
sg75
(lp3660
g68
(g89
g70
NtRp3661
(dp3662
g73
(dp3663
g93
g94
ssg82
g3657
sg75
(lp3664
g345
asbag68
(g89
g70
NtRp3665
(dp3666
g73
(dp3667
g100
g101
ssg82
g3657
sg75
(lp3668
S':'
asbag68
(g89
g70
NtRp3669
(dp3670
g73
(dp3671
sg82
g3657
sg75
(lp3672
g68
(g69
g70
NtRp3673
(dp3674
g73
(dp3675
g81
I3
ssg82
g3669
sg75
(lp3676
S''
asbasbasbag68
(g84
g70
NtRp3677
(dp3678
g73
(dp3679
sg82
g3593
sg75
(lp3680
g68
(g89
g70
NtRp3681
(dp3682
g73
(dp3683
g93
g94
ssg82
g3677
sg75
(lp3684
g366
asbag68
(g89
g70
NtRp3685
(dp3686
g73
(dp3687
g100
g101
ssg82
g3677
sg75
(lp3688
S':'
asbag68
(g89
g70
NtRp3689
(dp3690
g73
(dp3691
sg82
g3677
sg75
(lp3692
g68
(g69
g70
NtRp3693
(dp3694
g73
(dp3695
g81
I3
ssg82
g3689
sg75
(lp3696
S''
asbasbasbag68
(g84
g70
NtRp3697
(dp3698
g73
(dp3699
sg82
g3593
sg75
(lp3700
g68
(g89
g70
NtRp3701
(dp3702
g73
(dp3703
g93
g94
ssg82
g3697
sg75
(lp3704
g387
asbag68
(g89
g70
NtRp3705
(dp3706
g73
(dp3707
g100
g101
ssg82
g3697
sg75
(lp3708
S':'
asbag68
(g89
g70
NtRp3709
(dp3710
g73
(dp3711
sg82
g3697
sg75
(lp3712
g68
(g69
g70
NtRp3713
(dp3714
g73
(dp3715
g81
I3
ssg82
g3709
sg75
(lp3716
S'/'
asbasbasbag68
(g84
g70
NtRp3717
(dp3718
g73
(dp3719
sg82
g3593
sg75
(lp3720
g68
(g89
g70
NtRp3721
(dp3722
g73
(dp3723
g93
g94
ssg82
g3717
sg75
(lp3724
g408
asbag68
(g89
g70
NtRp3725
(dp3726
g73
(dp3727
g100
g101
ssg82
g3717
sg75
(lp3728
S':'
asbag68
(g89
g70
NtRp3729
(dp3730
g73
(dp3731
sg82
g3717
sg75
(lp3732
g68
(g69
g70
NtRp3733
(dp3734
g73
(dp3735
g81
I3
ssg82
g3729
sg75
(lp3736
S''
asbasbasbag68
(g84
g70
NtRp3737
(dp3738
g73
(dp3739
sg82
g3593
sg75
(lp3740
g68
(g89
g70
NtRp3741
(dp3742
g73
(dp3743
g93
g94
ssg82
g3737
sg75
(lp3744
g429
asbag68
(g89
g70
NtRp3745
(dp3746
g73
(dp3747
g100
g101
ssg82
g3737
sg75
(lp3748
S':'
asbag68
(g89
g70
NtRp3749
(dp3750
g73
(dp3751
sg82
g3737
sg75
(lp3752
g68
(g69
g70
NtRp3753
(dp3754
g73
(dp3755
g81
I3
ssg82
g3749
sg75
(lp3756
S''
asbasbasbasbasbasbasbasbasbasbasbag68
(g84
g70
NtRp3757
(dp3758
g73
(dp3759
sg82
g3523
sg75
(lp3760
g68
(g89
g70
NtRp3761
(dp3762
g73
(dp3763
g93
g94
ssg82
g3757
sg75
(lp3764
S'files'
p3765
asbag68
(g89
g70
NtRp3766
(dp3767
g73
(dp3768
g100
g101
ssg82
g3757
sg75
(lp3769
S':'
asbag68
(g89
g70
NtRp3770
(dp3771
g73
(dp3772
sg82
g3757
sg75
(lp3773
g68
(g69
g70
NtRp3774
(dp3775
g73
(dp3776
g81
I5
ssg82
g3770
sg75
(lp3777
g68
(g77
g70
NtRp3778
(dp3779
g73
(dp3780
g81
I4
ssg82
Nsg75
(lp3781
sbasbasbasbag68
(g84
g70
NtRp3782
(dp3783
g73
(dp3784
sg82
g3523
sg75
(lp3785
g68
(g89
g70
NtRp3786
(dp3787
g73
(dp3788
g93
g94
ssg82
g3782
sg75
(lp3789
S'flash'
p3790
asbag68
(g89
g70
NtRp3791
(dp3792
g73
(dp3793
g100
g101
ssg82
g3782
sg75
(lp3794
S':'
asbag68
(g89
g70
NtRp3795
(dp3796
g73
(dp3797
sg82
g3782
sg75
(lp3798
g68
(g69
g70
NtRp3799
(dp3800
g73
(dp3801
g81
I5
ssg82
g3795
sg75
(lp3802
S''
asbasbasbag68
(g84
g70
NtRp3803
(dp3804
g73
(dp3805
sg82
g3523
sg75
(lp3806
g68
(g89
g70
NtRp3807
(dp3808
g73
(dp3809
g93
g94
ssg82
g3803
sg75
(lp3810
S'generic_patterns'
p3811
asbag68
(g89
g70
NtRp3812
(dp3813
g73
(dp3814
g100
g101
ssg82
g3803
sg75
(lp3815
S':'
asbag68
(g89
g70
NtRp3816
(dp3817
g73
(dp3818
sg82
g3803
sg75
(lp3819
g68
(g69
g70
NtRp3820
(dp3821
g73
(dp3822
g81
I5
ssg82
g3816
sg75
(lp3823
g68
(g77
g70
NtRp3824
(dp3825
g73
(dp3826
g81
I4
ssg82
Nsg75
(lp3827
g68
(g84
g70
NtRp3828
(dp3829
g73
(dp3830
sg82
g3824
sg75
(lp3831
g68
(g89
g70
NtRp3832
(dp3833
g73
(dp3834
sg82
g3828
sg75
(lp3835
g68
(g69
g70
NtRp3836
(dp3837
g73
(dp3838
g81
I4
ssg82
g3832
sg75
(lp3839
S'*'
asbasbasbasbasbasbasbag68
(g84
g70
NtRp3840
(dp3841
g73
(dp3842
sg82
g3523
sg75
(lp3843
g68
(g89
g70
NtRp3844
(dp3845
g73
(dp3846
g93
g94
ssg82
g3840
sg75
(lp3847
S'headers'
p3848
asbag68
(g89
g70
NtRp3849
(dp3850
g73
(dp3851
g100
g101
ssg82
g3840
sg75
(lp3852
S':'
asbag68
(g89
g70
NtRp3853
(dp3854
g73
(dp3855
sg82
g3840
sg75
(lp3856
g68
(g69
g70
NtRp3857
(dp3858
g73
(dp3859
g81
I5
ssg82
g3853
sg75
(lp3860
g68
(g77
g70
NtRp3861
(dp3862
g73
(dp3863
g81
I4
ssg82
Nsg75
(lp3864
g68
(g84
g70
NtRp3865
(dp3866
g73
(dp3867
sg82
g3861
sg75
(lp3868
g68
(g89
g70
NtRp3869
(dp3870
g73
(dp3871
g93
g94
ssg82
g3865
sg75
(lp3872
S'Cache-Control'
p3873
asbag68
(g89
g70
NtRp3874
(dp3875
g73
(dp3876
g100
g101
ssg82
g3865
sg75
(lp3877
S':'
asbag68
(g89
g70
NtRp3878
(dp3879
g73
(dp3880
sg82
g3865
sg75
(lp3881
g68
(g69
g70
NtRp3882
(dp3883
g73
(dp3884
g81
I4
ssg82
g3878
sg75
(lp3885
S'no-store, no-cache, must-revalidate, post-check=0, pre-check=0'
p3886
asbasbasbag68
(g84
g70
NtRp3887
(dp3888
g73
(dp3889
sg82
g3861
sg75
(lp3890
g68
(g89
g70
NtRp3891
(dp3892
g73
(dp3893
g93
g94
ssg82
g3887
sg75
(lp3894
S'Content-Type'
p3895
asbag68
(g89
g70
NtRp3896
(dp3897
g73
(dp3898
g100
g101
ssg82
g3887
sg75
(lp3899
S':'
asbag68
(g89
g70
NtRp3900
(dp3901
g73
(dp3902
sg82
g3887
sg75
(lp3903
g68
(g69
g70
NtRp3904
(dp3905
g73
(dp3906
g81
I4
ssg82
g3900
sg75
(lp3907
S'text/html; charset=utf-8'
p3908
asbasbasbag68
(g84
g70
NtRp3909
(dp3910
g73
(dp3911
sg82
g3861
sg75
(lp3912
g68
(g89
g70
NtRp3913
(dp3914
g73
(dp3915
g93
g94
ssg82
g3909
sg75
(lp3916
S'Expires'
p3917
asbag68
(g89
g70
NtRp3918
(dp3919
g73
(dp3920
g100
g101
ssg82
g3909
sg75
(lp3921
S':'
asbag68
(g89
g70
NtRp3922
(dp3923
g73
(dp3924
sg82
g3909
sg75
(lp3925
g68
(g69
g70
NtRp3926
(dp3927
g73
(dp3928
g81
I4
ssg82
g3922
sg75
(lp3929
S'Sat, 05 Nov 2011 19:53:07 GMT'
p3930
asbasbasbag68
(g84
g70
NtRp3931
(dp3932
g73
(dp3933
sg82
g3861
sg75
(lp3934
g68
(g89
g70
NtRp3935
(dp3936
g73
(dp3937
g93
g94
ssg82
g3931
sg75
(lp3938
S'Pragma'
p3939
asbag68
(g89
g70
NtRp3940
(dp3941
g73
(dp3942
g100
g101
ssg82
g3931
sg75
(lp3943
S':'
asbag68
(g89
g70
NtRp3944
(dp3945
g73
(dp3946
sg82
g3931
sg75
(lp3947
g68
(g69
g70
NtRp3948
(dp3949
g73
(dp3950
g81
I4
ssg82
g3944
sg75
(lp3951
S'no-cache'
p3952
asbasbasbag68
(g84
g70
NtRp3953
(dp3954
g73
(dp3955
sg82
g3861
sg75
(lp3956
g68
(g89
g70
NtRp3957
(dp3958
g73
(dp3959
g93
g94
ssg82
g3953
sg75
(lp3960
S'X-Powered-By'
p3961
asbag68
(g89
g70
NtRp3962
(dp3963
g73
(dp3964
g100
g101
ssg82
g3953
sg75
(lp3965
S':'
asbag68
(g89
g70
NtRp3966
(dp3967
g73
(dp3968
sg82
g3953
sg75
(lp3969
g68
(g69
g70
NtRp3970
(dp3971
g73
(dp3972
g81
I4
ssg82
g3966
sg75
(lp3973
S'web2py'
p3974
asbasbasbasbasbasbasbag68
(g84
g70
NtRp3975
(dp3976
g73
(dp3977
sg82
g3523
sg75
(lp3978
g68
(g89
g70
NtRp3979
(dp3980
g73
(dp3981
g93
g94
ssg82
g3975
sg75
(lp3982
S'menu'
p3983
asbag68
(g89
g70
NtRp3984
(dp3985
g73
(dp3986
g100
g101
ssg82
g3975
sg75
(lp3987
S':'
asbag68
(g89
g70
NtRp3988
(dp3989
g73
(dp3990
sg82
g3975
sg75
(lp3991
g68
(g69
g70
NtRp3992
(dp3993
g73
(dp3994
g81
I5
ssg82
g3988
sg75
(lp3995
g68
(g77
g70
NtRp3996
(dp3997
g73
(dp3998
g81
I4
ssg82
Nsg75
(lp3999
g68
(g84
g70
NtRp4000
(dp4001
g73
(dp4002
sg82
g3996
sg75
(lp4003
g68
(g89
g70
NtRp4004
(dp4005
g73
(dp4006
sg82
g4000
sg75
(lp4007
g68
(g69
g70
NtRp4008
(dp4009
g73
(dp4010
g81
I4
ssg82
g4004
sg75
(lp4011
g68
(g77
g70
NtRp4012
(dp4013
g73
(dp4014
g81
I3
ssg82
Nsg75
(lp4015
g68
(g84
g70
NtRp4016
(dp4017
g73
(dp4018
sg82
g4012
sg75
(lp4019
g68
(g89
g70
NtRp4020
(dp4021
g73
(dp4022
sg82
g4016
sg75
(lp4023
g68
(g69
g70
NtRp4024
(dp4025
g73
(dp4026
g81
I3
ssg82
g4020
sg75
(lp4027
cgluon.languages
lazyT_unpickle
p4028
(S's\x04\x00\x00\x00Home'
tRp4029
asbasbasbag68
(g84
g70
NtRp4030
(dp4031
g73
(dp4032
sg82
g4012
sg75
(lp4033
g68
(g89
g70
NtRp4034
(dp4035
g73
(dp4036
sg82
g4030
sg75
(lp4037
g68
(g69
g70
NtRp4038
(dp4039
g73
(dp4040
g81
I3
ssg82
g4034
sg75
(lp4041
g111
asbasbasbag68
(g84
g70
NtRp4042
(dp4043
g73
(dp4044
sg82
g4012
sg75
(lp4045
g68
(g89
g70
NtRp4046
(dp4047
g73
(dp4048
sg82
g4042
sg75
(lp4049
g68
(g69
g70
NtRp4050
(dp4051
g73
(dp4052
g81
I3
ssg82
g4046
sg75
(lp4053
S'/gallery/default/index'
p4054
asbasbasbag68
(g84
g70
NtRp4055
(dp4056
g73
(dp4057
sg82
g4012
sg75
(lp4058
g68
(g89
g70
NtRp4059
(dp4060
g73
(dp4061
sg82
g4055
sg75
(lp4062
g68
(g69
g70
NtRp4063
(dp4064
g73
(dp4065
g81
I3
ssg82
g4059
sg75
(lp4066
g68
(g77
g70
NtRp4067
(dp4068
g73
(dp4069
g81
I2
ssg82
Nsg75
(lp4070
sbasbasbasbasbasbasbasbag68
(g84
g70
NtRp4071
(dp4072
g73
(dp4073
sg82
g3996
sg75
(lp4074
g68
(g89
g70
NtRp4075
(dp4076
g73
(dp4077
sg82
g4071
sg75
(lp4078
g68
(g69
g70
NtRp4079
(dp4080
g73
(dp4081
g81
I4
ssg82
g4075
sg75
(lp4082
g68
(g77
g70
NtRp4083
(dp4084
g73
(dp4085
g81
I3
ssg82
Nsg75
(lp4086
g68
(g84
g70
NtRp4087
(dp4088
g73
(dp4089
sg82
g4083
sg75
(lp4090
g68
(g89
g70
NtRp4091
(dp4092
g73
(dp4093
sg82
g4087
sg75
(lp4094
g68
(g69
g70
NtRp4095
(dp4096
g73
(dp4097
g81
I3
ssg82
g4091
sg75
(lp4098
g4028
(S's\r\x00\x00\x00Gallery - CSS'
tRp4099
asbasbasbag68
(g84
g70
NtRp4100
(dp4101
g73
(dp4102
sg82
g4083
sg75
(lp4103
g68
(g89
g70
NtRp4104
(dp4105
g73
(dp4106
sg82
g4100
sg75
(lp4107
g68
(g69
g70
NtRp4108
(dp4109
g73
(dp4110
g81
I3
ssg82
g4104
sg75
(lp4111
g111
asbasbasbag68
(g84
g70
NtRp4112
(dp4113
g73
(dp4114
sg82
g4083
sg75
(lp4115
g68
(g89
g70
NtRp4116
(dp4117
g73
(dp4118
sg82
g4112
sg75
(lp4119
g68
(g69
g70
NtRp4120
(dp4121
g73
(dp4122
g81
I3
ssg82
g4116
sg75
(lp4123
S'/gallery/default/showcss'
p4124
asbasbasbag68
(g84
g70
NtRp4125
(dp4126
g73
(dp4127
sg82
g4083
sg75
(lp4128
g68
(g89
g70
NtRp4129
(dp4130
g73
(dp4131
sg82
g4125
sg75
(lp4132
g68
(g69
g70
NtRp4133
(dp4134
g73
(dp4135
g81
I3
ssg82
g4129
sg75
(lp4136
g68
(g77
g70
NtRp4137
(dp4138
g73
(dp4139
g81
I2
ssg82
Nsg75
(lp4140
sbasbasbasbasbasbasbasbag68
(g84
g70
NtRp4141
(dp4142
g73
(dp4143
sg82
g3996
sg75
(lp4144
g68
(g89
g70
NtRp4145
(dp4146
g73
(dp4147
sg82
g4141
sg75
(lp4148
g68
(g69
g70
NtRp4149
(dp4150
g73
(dp4151
g81
I4
ssg82
g4145
sg75
(lp4152
g68
(g77
g70
NtRp4153
(dp4154
g73
(dp4155
g81
I3
ssg82
Nsg75
(lp4156
g68
(g84
g70
NtRp4157
(dp4158
g73
(dp4159
sg82
g4153
sg75
(lp4160
g68
(g89
g70
NtRp4161
(dp4162
g73
(dp4163
sg82
g4157
sg75
(lp4164
g68
(g69
g70
NtRp4165
(dp4166
g73
(dp4167
g81
I3
ssg82
g4161
sg75
(lp4168
g4028
(S's\x10\x00\x00\x00Gallery - JQuery'
tRp4169
asbasbasbag68
(g84
g70
NtRp4170
(dp4171
g73
(dp4172
sg82
g4153
sg75
(lp4173
g68
(g89
g70
NtRp4174
(dp4175
g73
(dp4176
sg82
g4170
sg75
(lp4177
g68
(g69
g70
NtRp4178
(dp4179
g73
(dp4180
g81
I3
ssg82
g4174
sg75
(lp4181
g111
asbasbasbag68
(g84
g70
NtRp4182
(dp4183
g73
(dp4184
sg82
g4153
sg75
(lp4185
g68
(g89
g70
NtRp4186
(dp4187
g73
(dp4188
sg82
g4182
sg75
(lp4189
g68
(g69
g70
NtRp4190
(dp4191
g73
(dp4192
g81
I3
ssg82
g4186
sg75
(lp4193
S'/gallery/default/showjq'
p4194
asbasbasbag68
(g84
g70
NtRp4195
(dp4196
g73
(dp4197
sg82
g4153
sg75
(lp4198
g68
(g89
g70
NtRp4199
(dp4200
g73
(dp4201
sg82
g4195
sg75
(lp4202
g68
(g69
g70
NtRp4203
(dp4204
g73
(dp4205
g81
I3
ssg82
g4199
sg75
(lp4206
g68
(g77
g70
NtRp4207
(dp4208
g73
(dp4209
g81
I2
ssg82
Nsg75
(lp4210
sbasbasbasbasbasbasbasbag68
(g84
g70
NtRp4211
(dp4212
g73
(dp4213
sg82
g3996
sg75
(lp4214
g68
(g89
g70
NtRp4215
(dp4216
g73
(dp4217
sg82
g4211
sg75
(lp4218
g68
(g69
g70
NtRp4219
(dp4220
g73
(dp4221
g81
I4
ssg82
g4215
sg75
(lp4222
g68
(g77
g70
NtRp4223
(dp4224
g73
(dp4225
g81
I3
ssg82
Nsg75
(lp4226
g68
(g84
g70
NtRp4227
(dp4228
g73
(dp4229
sg82
g4223
sg75
(lp4230
g68
(g89
g70
NtRp4231
(dp4232
g73
(dp4233
sg82
g4227
sg75
(lp4234
g68
(g69
g70
NtRp4235
(dp4236
g73
(dp4237
g81
I3
ssg82
g4231
sg75
(lp4238
g4028
(S's\x0e\x00\x00\x00Gallery - Dojo'
tRp4239
asbasbasbag68
(g84
g70
NtRp4240
(dp4241
g73
(dp4242
sg82
g4223
sg75
(lp4243
g68
(g89
g70
NtRp4244
(dp4245
g73
(dp4246
sg82
g4240
sg75
(lp4247
g68
(g69
g70
NtRp4248
(dp4249
g73
(dp4250
g81
I3
ssg82
g4244
sg75
(lp4251
g111
asbasbasbag68
(g84
g70
NtRp4252
(dp4253
g73
(dp4254
sg82
g4223
sg75
(lp4255
g68
(g89
g70
NtRp4256
(dp4257
g73
(dp4258
sg82
g4252
sg75
(lp4259
g68
(g69
g70
NtRp4260
(dp4261
g73
(dp4262
g81
I3
ssg82
g4256
sg75
(lp4263
S'/gallery/default/index'
p4264
asbasbasbag68
(g84
g70
NtRp4265
(dp4266
g73
(dp4267
sg82
g4223
sg75
(lp4268
g68
(g89
g70
NtRp4269
(dp4270
g73
(dp4271
sg82
g4265
sg75
(lp4272
g68
(g69
g70
NtRp4273
(dp4274
g73
(dp4275
g81
I3
ssg82
g4269
sg75
(lp4276
g68
(g77
g70
NtRp4277
(dp4278
g73
(dp4279
g81
I2
ssg82
Nsg75
(lp4280
sbasbasbasbasbasbasbasbag68
(g84
g70
NtRp4281
(dp4282
g73
(dp4283
sg82
g3996
sg75
(lp4284
g68
(g89
g70
NtRp4285
(dp4286
g73
(dp4287
sg82
g4281
sg75
(lp4288
g68
(g69
g70
NtRp4289
(dp4290
g73
(dp4291
g81
I4
ssg82
g4285
sg75
(lp4292
g68
(g77
g70
NtRp4293
(dp4294
g73
(dp4295
g81
I3
ssg82
Nsg75
(lp4296
g68
(g84
g70
NtRp4297
(dp4298
g73
(dp4299
sg82
g4293
sg75
(lp4300
g68
(g89
g70
NtRp4301
(dp4302
g73
(dp4303
sg82
g4297
sg75
(lp4304
g68
(g69
g70
NtRp4305
(dp4306
g73
(dp4307
g81
I3
ssg82
g4301
sg75
(lp4308
g4028
(S's\x11\x00\x00\x00AjaxSearch - Dojo'
tRp4309
asbasbasbag68
(g84
g70
NtRp4310
(dp4311
g73
(dp4312
sg82
g4293
sg75
(lp4313
g68
(g89
g70
NtRp4314
(dp4315
g73
(dp4316
sg82
g4310
sg75
(lp4317
g68
(g69
g70
NtRp4318
(dp4319
g73
(dp4320
g81
I3
ssg82
g4314
sg75
(lp4321
g111
asbasbasbag68
(g84
g70
NtRp4322
(dp4323
g73
(dp4324
sg82
g4293
sg75
(lp4325
g68
(g89
g70
NtRp4326
(dp4327
g73
(dp4328
sg82
g4322
sg75
(lp4329
g68
(g69
g70
NtRp4330
(dp4331
g73
(dp4332
g81
I3
ssg82
g4326
sg75
(lp4333
S'/gallery/default/sendform'
p4334
asbasbasbag68
(g84
g70
NtRp4335
(dp4336
g73
(dp4337
sg82
g4293
sg75
(lp4338
g68
(g89
g70
NtRp4339
(dp4340
g73
(dp4341
sg82
g4335
sg75
(lp4342
g68
(g69
g70
NtRp4343
(dp4344
g73
(dp4345
g81
I3
ssg82
g4339
sg75
(lp4346
g68
(g77
g70
NtRp4347
(dp4348
g73
(dp4349
g81
I2
ssg82
Nsg75
(lp4350
sbasbasbasbasbasbasbasbag68
(g84
g70
NtRp4351
(dp4352
g73
(dp4353
sg82
g3996
sg75
(lp4354
g68
(g89
g70
NtRp4355
(dp4356
g73
(dp4357
sg82
g4351
sg75
(lp4358
g68
(g69
g70
NtRp4359
(dp4360
g73
(dp4361
g81
I4
ssg82
g4355
sg75
(lp4362
g68
(g77
g70
NtRp4363
(dp4364
g73
(dp4365
g81
I3
ssg82
Nsg75
(lp4366
g68
(g84
g70
NtRp4367
(dp4368
g73
(dp4369
sg82
g4363
sg75
(lp4370
g68
(g89
g70
NtRp4371
(dp4372
g73
(dp4373
sg82
g4367
sg75
(lp4374
g68
(g69
g70
NtRp4375
(dp4376
g73
(dp4377
g81
I3
ssg82
g4371
sg75
(lp4378
g4028
(S's\x07\x00\x00\x00TagList'
tRp4379
asbasbasbag68
(g84
g70
NtRp4380
(dp4381
g73
(dp4382
sg82
g4363
sg75
(lp4383
g68
(g89
g70
NtRp4384
(dp4385
g73
(dp4386
sg82
g4380
sg75
(lp4387
g68
(g69
g70
NtRp4388
(dp4389
g73
(dp4390
g81
I3
ssg82
g4384
sg75
(lp4391
g111
asbasbasbag68
(g84
g70
NtRp4392
(dp4393
g73
(dp4394
sg82
g4363
sg75
(lp4395
g68
(g89
g70
NtRp4396
(dp4397
g73
(dp4398
sg82
g4392
sg75
(lp4399
g68
(g69
g70
NtRp4400
(dp4401
g73
(dp4402
g81
I3
ssg82
g4396
sg75
(lp4403
S'/gallery/search/gettags'
p4404
asbasbasbag68
(g84
g70
NtRp4405
(dp4406
g73
(dp4407
sg82
g4363
sg75
(lp4408
g68
(g89
g70
NtRp4409
(dp4410
g73
(dp4411
sg82
g4405
sg75
(lp4412
g68
(g69
g70
NtRp4413
(dp4414
g73
(dp4415
g81
I3
ssg82
g4409
sg75
(lp4416
g68
(g77
g70
NtRp4417
(dp4418
g73
(dp4419
g81
I2
ssg82
Nsg75
(lp4420
sbasbasbasbasbasbasbasbag68
(g84
g70
NtRp4421
(dp4422
g73
(dp4423
sg82
g3996
sg75
(lp4424
g68
(g89
g70
NtRp4425
(dp4426
g73
(dp4427
sg82
g4421
sg75
(lp4428
g68
(g69
g70
NtRp4429
(dp4430
g73
(dp4431
g81
I4
ssg82
g4425
sg75
(lp4432
g68
(g77
g70
NtRp4433
(dp4434
g73
(dp4435
g81
I3
ssg82
Nsg75
(lp4436
g68
(g84
g70
NtRp4437
(dp4438
g73
(dp4439
sg82
g4433
sg75
(lp4440
g68
(g89
g70
NtRp4441
(dp4442
g73
(dp4443
sg82
g4437
sg75
(lp4444
g68
(g69
g70
NtRp4445
(dp4446
g73
(dp4447
g81
I3
ssg82
g4441
sg75
(lp4448
g4028
(S's\x05\x00\x00\x00Admin'
tRp4449
asbasbasbag68
(g84
g70
NtRp4450
(dp4451
g73
(dp4452
sg82
g4433
sg75
(lp4453
g68
(g89
g70
NtRp4454
(dp4455
g73
(dp4456
sg82
g4450
sg75
(lp4457
g68
(g69
g70
NtRp4458
(dp4459
g73
(dp4460
g81
I3
ssg82
g4454
sg75
(lp4461
g111
asbasbasbag68
(g84
g70
NtRp4462
(dp4463
g73
(dp4464
sg82
g4433
sg75
(lp4465
g68
(g89
g70
NtRp4466
(dp4467
g73
(dp4468
sg82
g4462
sg75
(lp4469
g68
(g69
g70
NtRp4470
(dp4471
g73
(dp4472
g81
I3
ssg82
g4466
sg75
(lp4473
S'/admin/default/index'
p4474
asbasbasbag68
(g84
g70
NtRp4475
(dp4476
g73
(dp4477
sg82
g4433
sg75
(lp4478
g68
(g89
g70
NtRp4479
(dp4480
g73
(dp4481
sg82
g4475
sg75
(lp4482
g68
(g69
g70
NtRp4483
(dp4484
g73
(dp4485
g81
I3
ssg82
g4479
sg75
(lp4486
g68
(g77
g70
NtRp4487
(dp4488
g73
(dp4489
g81
I2
ssg82
Nsg75
(lp4490
sbasbasbasbasbasbasbasbasbasbasbasbag68
(g84
g70
NtRp4491
(dp4492
g73
(dp4493
sg82
g3523
sg75
(lp4494
g68
(g89
g70
NtRp4495
(dp4496
g73
(dp4497
g93
g94
ssg82
g4491
sg75
(lp4498
S'meta'
p4499
asbag68
(g89
g70
NtRp4500
(dp4501
g73
(dp4502
g100
g101
ssg82
g4491
sg75
(lp4503
S':'
asbag68
(g89
g70
NtRp4504
(dp4505
g73
(dp4506
sg82
g4491
sg75
(lp4507
g68
(g69
g70
NtRp4508
(dp4509
g73
(dp4510
g81
I5
ssg82
g4504
sg75
(lp4511
g68
(g77
g70
NtRp4512
(dp4513
g73
(dp4514
g81
I4
ssg82
Nsg75
(lp4515
g68
(g84
g70
NtRp4516
(dp4517
g73
(dp4518
sg82
g4512
sg75
(lp4519
g68
(g89
g70
NtRp4520
(dp4521
g73
(dp4522
g93
g94
ssg82
g4516
sg75
(lp4523
S'author'
p4524
asbag68
(g89
g70
NtRp4525
(dp4526
g73
(dp4527
g100
g101
ssg82
g4516
sg75
(lp4528
S':'
asbag68
(g89
g70
NtRp4529
(dp4530
g73
(dp4531
sg82
g4516
sg75
(lp4532
g68
(g69
g70
NtRp4533
(dp4534
g73
(dp4535
g81
I4
ssg82
g4529
sg75
(lp4536
S'Your Name <you@example.com>'
p4537
asbasbasbag68
(g84
g70
NtRp4538
(dp4539
g73
(dp4540
sg82
g4512
sg75
(lp4541
g68
(g89
g70
NtRp4542
(dp4543
g73
(dp4544
g93
g94
ssg82
g4538
sg75
(lp4545
S'copyright'
p4546
asbag68
(g89
g70
NtRp4547
(dp4548
g73
(dp4549
g100
g101
ssg82
g4538
sg75
(lp4550
S':'
asbag68
(g89
g70
NtRp4551
(dp4552
g73
(dp4553
sg82
g4538
sg75
(lp4554
g68
(g69
g70
NtRp4555
(dp4556
g73
(dp4557
g81
I4
ssg82
g4551
sg75
(lp4558
S'Copyright 2011'
p4559
asbasbasbag68
(g84
g70
NtRp4560
(dp4561
g73
(dp4562
sg82
g4512
sg75
(lp4563
g68
(g89
g70
NtRp4564
(dp4565
g73
(dp4566
g93
g94
ssg82
g4560
sg75
(lp4567
S'description'
p4568
asbag68
(g89
g70
NtRp4569
(dp4570
g73
(dp4571
g100
g101
ssg82
g4560
sg75
(lp4572
S':'
asbag68
(g89
g70
NtRp4573
(dp4574
g73
(dp4575
sg82
g4560
sg75
(lp4576
g68
(g69
g70
NtRp4577
(dp4578
g73
(dp4579
g81
I4
ssg82
g4573
sg75
(lp4580
S'a cool new app'
p4581
asbasbasbag68
(g84
g70
NtRp4582
(dp4583
g73
(dp4584
sg82
g4512
sg75
(lp4585
g68
(g89
g70
NtRp4586
(dp4587
g73
(dp4588
g93
g94
ssg82
g4582
sg75
(lp4589
S'generator'
p4590
asbag68
(g89
g70
NtRp4591
(dp4592
g73
(dp4593
g100
g101
ssg82
g4582
sg75
(lp4594
S':'
asbag68
(g89
g70
NtRp4595
(dp4596
g73
(dp4597
sg82
g4582
sg75
(lp4598
g68
(g69
g70
NtRp4599
(dp4600
g73
(dp4601
g81
I4
ssg82
g4595
sg75
(lp4602
S'Web2py Web Framework'
p4603
asbasbasbag68
(g84
g70
NtRp4604
(dp4605
g73
(dp4606
sg82
g4512
sg75
(lp4607
g68
(g89
g70
NtRp4608
(dp4609
g73
(dp4610
g93
g94
ssg82
g4604
sg75
(lp4611
S'keywords'
p4612
asbag68
(g89
g70
NtRp4613
(dp4614
g73
(dp4615
g100
g101
ssg82
g4604
sg75
(lp4616
S':'
asbag68
(g89
g70
NtRp4617
(dp4618
g73
(dp4619
sg82
g4604
sg75
(lp4620
g68
(g69
g70
NtRp4621
(dp4622
g73
(dp4623
g81
I4
ssg82
g4617
sg75
(lp4624
S'web2py, python, framework'
p4625
asbasbasbasbasbasbasbag68
(g84
g70
NtRp4626
(dp4627
g73
(dp4628
sg82
g3523
sg75
(lp4629
g68
(g89
g70
NtRp4630
(dp4631
g73
(dp4632
g93
g94
ssg82
g4626
sg75
(lp4633
S'postprocessing'
p4634
asbag68
(g89
g70
NtRp4635
(dp4636
g73
(dp4637
g100
g101
ssg82
g4626
sg75
(lp4638
S':'
asbag68
(g89
g70
NtRp4639
(dp4640
g73
(dp4641
sg82
g4626
sg75
(lp4642
g68
(g69
g70
NtRp4643
(dp4644
g73
(dp4645
g81
I5
ssg82
g4639
sg75
(lp4646
g68
(g77
g70
NtRp4647
(dp4648
g73
(dp4649
g81
I4
ssg82
Nsg75
(lp4650
sbasbasbasbag68
(g84
g70
NtRp4651
(dp4652
g73
(dp4653
sg82
g3523
sg75
(lp4654
g68
(g89
g70
NtRp4655
(dp4656
g73
(dp4657
g93
g94
ssg82
g4651
sg75
(lp4658
S'session_file'
p4659
asbag68
(g89
g70
NtRp4660
(dp4661
g73
(dp4662
g100
g101
ssg82
g4651
sg75
(lp4663
S':'
asbag68
(g89
g70
NtRp4664
(dp4665
g73
(dp4666
sg82
g4651
sg75
(lp4667
g68
(g69
g70
NtRp4668
(dp4669
g73
(dp4670
g81
I5
ssg82
g4664
sg75
(lp4671
S"<open file '/home/brencam/web2py/applications/gallery/sessions/127.0.0.1-dc8c13ed-0f92-4ade-ab82-5940ed42a3a5', mode 'rb+' at 0xae295b78>"
p4672
asbasbasbag68
(g84
g70
NtRp4673
(dp4674
g73
(dp4675
sg82
g3523
sg75
(lp4676
g68
(g89
g70
NtRp4677
(dp4678
g73
(dp4679
g93
g94
ssg82
g4673
sg75
(lp4680
S'session_filename'
p4681
asbag68
(g89
g70
NtRp4682
(dp4683
g73
(dp4684
g100
g101
ssg82
g4673
sg75
(lp4685
S':'
asbag68
(g89
g70
NtRp4686
(dp4687
g73
(dp4688
sg82
g4673
sg75
(lp4689
g68
(g69
g70
NtRp4690
(dp4691
g73
(dp4692
g81
I5
ssg82
g4686
sg75
(lp4693
S'/home/brencam/web2py/applications/gallery/sessions/127.0.0.1-dc8c13ed-0f92-4ade-ab82-5940ed42a3a5'
p4694
asbasbasbag68
(g84
g70
NtRp4695
(dp4696
g73
(dp4697
sg82
g3523
sg75
(lp4698
g68
(g89
g70
NtRp4699
(dp4700
g73
(dp4701
g93
g94
ssg82
g4695
sg75
(lp4702
S'session_id'
p4703
asbag68
(g89
g70
NtRp4704
(dp4705
g73
(dp4706
g100
g101
ssg82
g4695
sg75
(lp4707
S':'
asbag68
(g89
g70
NtRp4708
(dp4709
g73
(dp4710
sg82
g4695
sg75
(lp4711
g68
(g69
g70
NtRp4712
(dp4713
g73
(dp4714
g81
I5
ssg82
g4708
sg75
(lp4715
S'127.0.0.1-dc8c13ed-0f92-4ade-ab82-5940ed42a3a5'
p4716
asbasbasbag68
(g84
g70
NtRp4717
(dp4718
g73
(dp4719
sg82
g3523
sg75
(lp4720
g68
(g89
g70
NtRp4721
(dp4722
g73
(dp4723
g93
g94
ssg82
g4717
sg75
(lp4724
S'session_id_name'
p4725
asbag68
(g89
g70
NtRp4726
(dp4727
g73
(dp4728
g100
g101
ssg82
g4717
sg75
(lp4729
S':'
asbag68
(g89
g70
NtRp4730
(dp4731
g73
(dp4732
sg82
g4717
sg75
(lp4733
g68
(g69
g70
NtRp4734
(dp4735
g73
(dp4736
g81
I5
ssg82
g4730
sg75
(lp4737
g3580
asbasbasbag68
(g84
g70
NtRp4738
(dp4739
g73
(dp4740
sg82
g3523
sg75
(lp4741
g68
(g89
g70
NtRp4742
(dp4743
g73
(dp4744
g93
g94
ssg82
g4738
sg75
(lp4745
S'session_locked'
p4746
asbag68
(g89
g70
NtRp4747
(dp4748
g73
(dp4749
g100
g101
ssg82
g4738
sg75
(lp4750
S':'
asbag68
(g89
g70
NtRp4751
(dp4752
g73
(dp4753
sg82
g4738
sg75
(lp4754
g68
(g69
g70
NtRp4755
(dp4756
g73
(dp4757
g81
I5
ssg82
g4751
sg75
(lp4758
g2082
asbasbasbag68
(g84
g70
NtRp4759
(dp4760
g73
(dp4761
sg82
g3523
sg75
(lp4762
g68
(g89
g70
NtRp4763
(dp4764
g73
(dp4765
g93
g94
ssg82
g4759
sg75
(lp4766
S'session_new'
p4767
asbag68
(g89
g70
NtRp4768
(dp4769
g73
(dp4770
g100
g101
ssg82
g4759
sg75
(lp4771
S':'
asbag68
(g89
g70
NtRp4772
(dp4773
g73
(dp4774
sg82
g4759
sg75
(lp4775
g68
(g69
g70
NtRp4776
(dp4777
g73
(dp4778
g81
I5
ssg82
g4772
sg75
(lp4779
g111
asbasbasbag68
(g84
g70
NtRp4780
(dp4781
g73
(dp4782
sg82
g3523
sg75
(lp4783
g68
(g89
g70
NtRp4784
(dp4785
g73
(dp4786
g93
g94
ssg82
g4780
sg75
(lp4787
S'status'
p4788
asbag68
(g89
g70
NtRp4789
(dp4790
g73
(dp4791
g100
g101
ssg82
g4780
sg75
(lp4792
S':'
asbag68
(g89
g70
NtRp4793
(dp4794
g73
(dp4795
sg82
g4780
sg75
(lp4796
g68
(g69
g70
NtRp4797
(dp4798
g73
(dp4799
g81
I5
ssg82
g4793
sg75
(lp4800
S'200'
p4801
asbasbasbag68
(g84
g70
NtRp4802
(dp4803
g73
(dp4804
sg82
g3523
sg75
(lp4805
g68
(g89
g70
NtRp4806
(dp4807
g73
(dp4808
g93
g94
ssg82
g4802
sg75
(lp4809
S'subtitle'
p4810
asbag68
(g89
g70
NtRp4811
(dp4812
g73
(dp4813
g100
g101
ssg82
g4802
sg75
(lp4814
S':'
asbag68
(g89
g70
NtRp4815
(dp4816
g73
(dp4817
sg82
g4802
sg75
(lp4818
g68
(g69
g70
NtRp4819
(dp4820
g73
(dp4821
g81
I5
ssg82
g4815
sg75
(lp4822
g4028
(S's1\x00\x00\x00Web2py and CSS, JQuery vs Dojo Image Gallery Demo'
tRp4823
asbasbasbag68
(g84
g70
NtRp4824
(dp4825
g73
(dp4826
sg82
g3523
sg75
(lp4827
g68
(g89
g70
NtRp4828
(dp4829
g73
(dp4830
g93
g94
ssg82
g4824
sg75
(lp4831
S'title'
p4832
asbag68
(g89
g70
NtRp4833
(dp4834
g73
(dp4835
g100
g101
ssg82
g4824
sg75
(lp4836
S':'
asbag68
(g89
g70
NtRp4837
(dp4838
g73
(dp4839
sg82
g4824
sg75
(lp4840
g68
(g69
g70
NtRp4841
(dp4842
g73
(dp4843
g81
I5
ssg82
g4837
sg75
(lp4844
S'My Photo Gallery Demo'
p4845
asbasbasbag68
(g84
g70
NtRp4846
(dp4847
g73
(dp4848
sg82
g3523
sg75
(lp4849
g68
(g89
g70
NtRp4850
(dp4851
g73
(dp4852
g93
g94
ssg82
g4846
sg75
(lp4853
g2726
asbag68
(g89
g70
NtRp4854
(dp4855
g73
(dp4856
g100
g101
ssg82
g4846
sg75
(lp4857
S':'
asbag68
(g89
g70
NtRp4858
(dp4859
g73
(dp4860
sg82
g4846
sg75
(lp4861
g68
(g69
g70
NtRp4862
(dp4863
g73
(dp4864
g81
I5
ssg82
g4858
sg75
(lp4865
g2739
asbasbasbag68
(g84
g70
NtRp4866
(dp4867
g73
(dp4868
sg82
g3523
sg75
(lp4869
g68
(g89
g70
NtRp4870
(dp4871
g73
(dp4872
g93
g94
ssg82
g4866
sg75
(lp4873
S'view'
p4874
asbag68
(g89
g70
NtRp4875
(dp4876
g73
(dp4877
g100
g101
ssg82
g4866
sg75
(lp4878
S':'
asbag68
(g89
g70
NtRp4879
(dp4880
g73
(dp4881
sg82
g4866
sg75
(lp4882
g68
(g69
g70
NtRp4883
(dp4884
g73
(dp4885
g81
I5
ssg82
g4879
sg75
(lp4886
S'search/gettags.html'
p4887
asbasbasbasbasbsS'locals'
p4888
(dp4889
g3
S"'/home/brencam/web2py/applications/gallery/controllers/search.py'"
p4890
sg5
S"'# Search Controller\\nimport datetime\\n\\ndef getname...s]))\\n\\n\\n\\nresponse._vars=response._caller(gettags)\\n'"
p4891
sssS'traceback'
p4892
S'Traceback (most recent call last):\n  File "/home/brencam/web2py/gluon/restricted.py", line 193, in restricted\n    ccode = compile2(code,layer)\n  File "/home/brencam/web2py/gluon/restricted.py", line 179, in compile2\n    return compile(code.rstrip().replace(\'\\r\\n\',\'\\n\')+\'\\n\', layer, \'exec\')\n  File "/home/brencam/web2py/applications/gallery/controllers/search.py", line 45\n    return (item=tags)\n                ^\nSyntaxError: invalid syntax\n'
p4893
s.