(dp1
S'output'
p2
S''
sS'layer'
p3
S'/home/brencam/web2py/applications/gallery/controllers/search.py'
p4
sS'code'
p5
S'# Search Controller\nimport datetime\n\ndef getnames():\n    sval =\'\'\n    if  request.vars[\'q\']:\n        sval = request.vars[\'q\']\n\n        #queries with %LIKE% ****HERE BE THE DRAGONS!!!!******\n\n        images = db(db.image.title.like(sval+\'%\')).select()\n    else:\n        #images = db(db.image.ALL).select()\n        images = db().select(db.image.ALL)\n\n\n    # finally - got a working syntax - watch out for (mis) matching parens \n    # combine IMG and A tags in generated XML that is passed to the view\n    # tricky syntax\n    # the LI [] structure below creates a list from the generator created by the inner for \n    # !!GOTCHA!! - Assignment of params is position dependent - ???forum qn???\n    # Note the assignment of \'_id\' below needs to be at the end, not at the beginning\n    # ??Web2py documentation issue??\n\n    return XML( UL(*LI ([ (IMG (_src=URL(\'default\',\'download\', args= img.file), _width="120", _height="100"  ), A(img.title,_href=URL(\'default\',\'show\', args=img.id))) for img in images]) , _id=\'albumlist\'))\n\n    # the LI [] structure below creates a list from the generator created by the inner for \n    #return XML( UL(*LI ([ (IMG (_src=URL(\'default\',\'download\', args= img.file), _width="120", _height="100"  ), A(img.title,_href=URL(\'default\',\'show\', args=img.file))) for img in images])))\n    \n    \ndef gettags():\n    # get list of tagnames from tag table\n    tags  = db().select(db.tag.id, db.tag.name)\n    #return XML(tags)\n    return dict(tags=tags)        \n \ndef xmlgettags():\n    import gluon.contrib.simplejson as sj\n    # get list of tagnames from tag table\n    # return in json format\n    tags  = db().select(db.tag.id, db.tag.name)\n    #return XML(tags)\n    return sj.dumps(tags)\n    \n\n\ndef getnames_v2():\n    sval =\'\'\n    if  request.vars[\'q\']:\n        sval = request.vars[\'q\']\n\n        #queries with %LIKE% ****HERE BE THE DRAGONS!!!!******\n\n        images = db(db.image.title.like(sval+\'%\')).select()\n    else:\n        images = db(db.image.ALL).select()\n    # finally - got a working syntax - watch out for (mis) matching parens \n    # combine IMG and A tags in generated XML that is passed to the view\n    # tricky syntax\n    # the LI [] structure below creates a list from the generator created by the inner for \n    s = "<ul id=\'albumlist\'>"\n    for r in images:\n        print  s\n        s += LI(IMG(_src=URL(\'default\',\'download\', args= r.file), _width="120", _height="100"  ), A(r.title, _href=URL(\'default\',\'show\',args=r.id))).xml()\n        #s +=  \', \'\n        #s += A(r.title, _href=URL(\'default\',\'show\',args=r.id)).xml()\n    s += "</UL>"\n    #print s\n    return XML(s)\n\n\n\ndef zz_getnames():\n    # for ajax search -  find list of images - match on search string\n    # (need to return list in json format ??)\n    print \'*************  processing ajax request *********** at %s\' %datetime.datetime.now().ctime()\n\n    sval =\'\'\n    if  request.vars[\'q\']:\n        sval = request.vars[\'q\']\n\n        #queries with %LIKE% ****HERE BE THE DRAGONS!!!!******\n\n        images = db(db.image.title.like(sval+\'%\')).select()\n    else:\n        images = db(db.image.ALL).select()\n\n#    html =  XML( <img src="{{=URL(\'download\', args=image.file)}}" width="120"  height="100"  for image in images)\n\n#    print \'***************   html **********\' html\n  \n    r = images[0]\n\n    # return image and title for all matches\n    #return XML(DIV(LI(*[IMG(_src=URL(\'default\',\'download\', args= r.file), _width="120", _height="100" ) for r in images])))\n\n    #s = "<div class=\'myclass\'>"\n    #s =""\n    s = "<ul id=\'albumlist\'>"\n    for r in images:\n        print  s\n        s += LI(IMG(_src=URL(\'default\',\'download\', args= r.file), _width="120", _height="100"  ), A(r.title, _href=URL(\'default\',\'show\',args=r.id))).xml()\n        #s +=  \', \'\n        #s += A(r.title, _href=URL(\'default\',\'show\',args=r.id)).xml()\n    s += "</UL>"\n    #print s\n\n    # finally - got a working syntax - watch out for (mis) matching parens \n    # combine IMG and A tags in generated XML that is passed to the view\n    # tricky syntax\n    # the LI [] structure below creates a list from the generator created by the inner for \n    return XML( UL(*LI ([ (IMG (_src=URL(\'default\',\'download\', args= img.file), _width="120", _height="100"  ), A(img.title,_href=URL(\'default\',\'show\', args=img.file))) for img in images])))\n    \n\n\n    #str = LI(IMG(_src=URL(\'default\',\'download\', args= r.file), _width="120", _height="100"  ), A(r.title, _href=URL(\'default\',\'show\',args=r.id)))\n    #print str.xml()\n\n#    return XML(LI(IMG(_src=URL(\'default\',\'download\', args= img.file), _width="120", _height="100"  ), A(r.title, _href=URL(\'default\',\'show\',args=img.id))) for img in images)\n    #return x\n\n    #return XML(s)\n\n#    return XML(UL(LI([IMG(_src=URL(\'default\',\'download\', args= r.file), _width="120", _height="100" ) \\\n#    for r in images])))\n\n    # working \n    #return XML(DIV(LI(*[IMG(_src=URL(\'default\',\'download\', args= r.file), _width="120", _height="100" ) \\\n    #for r in images])))\n\n\n\n# A(r.title, _href=URL(\'default\',\'show\',args=r.id)))))\n\n\n    # return image and title as link  - one image\n    #return XML(DIV(LI(IMG(_src=URL(\'default\',\'download\', args= r.file), _alt="", _width="120",  _height="100"), A(r.title, _href=URL(\'default\',\'show\',args=r.id)))))\n\n\n#    return XML( A(IMG(_src=URL(\'default\',\'download\', args= r.file), _alt="", _width="120",  _height="100"), _href=URL(\'default\',\'index\')))\n\n    \n\n#<li><img  src="{{=URL(\'download\', args=image.file)}}" width="120"  height="100" />{{=A(image.title, _href=URL("show", args=image.id))}}\n#</li>\n\n\n    # Can I do a redirect from ajax request with the search results ??\n    #redirect (URL(\'default\', \'showcss\'))\n\n    # Note the URL Syntax here to create a link to a different controller (the default)\n    # How to show thumbnails for selected images here as well ??\n#    return XML(UL(*[LI(A(\'%s \' % (img.title),_href=URL(\'default\',\'show\',args=img.id)))\\\n#                    for img in images]))\n\n\n\nresponse._vars=response._caller(xmlgettags)\n'
p6
sS'snapshot'
p7
(dp8
S'exception'
p9
(dp10
S'__hash__'
p11
S"<method-wrapper '__hash__' of exceptions.TypeError object>"
p12
sS'__setattr__'
p13
S"<method-wrapper '__setattr__' of exceptions.TypeError object>"
p14
sS'__reduce_ex__'
p15
S'<built-in method __reduce_ex__ of exceptions.TypeError object>'
p16
sS'__getslice__'
p17
S"<method-wrapper '__getslice__' of exceptions.TypeError object>"
p18
sS'__getitem__'
p19
S"<method-wrapper '__getitem__' of exceptions.TypeError object>"
p20
sS'__setstate__'
p21
S'<built-in method __setstate__ of exceptions.TypeError object>'
p22
sS'__reduce__'
p23
S'<built-in method __reduce__ of exceptions.TypeError object>'
p24
sS'__str__'
p25
S"<method-wrapper '__str__' of exceptions.TypeError object>"
p26
sS'__format__'
p27
S'<built-in method __format__ of exceptions.TypeError object>'
p28
sS'__getattribute__'
p29
S"<method-wrapper '__getattribute__' of exceptions.TypeError object>"
p30
sS'__class__'
p31
S"<type 'exceptions.TypeError'>"
p32
sS'__unicode__'
p33
S'<built-in method __unicode__ of exceptions.TypeError object>'
p34
sS'__delattr__'
p35
S"<method-wrapper '__delattr__' of exceptions.TypeError object>"
p36
sS'__subclasshook__'
p37
S'<built-in method __subclasshook__ of type object>'
p38
sS'__repr__'
p39
S"<method-wrapper '__repr__' of exceptions.TypeError object>"
p40
sS'args'
p41
S"('<gluon.dal.Rows object at 0xb536df4c> is not JSON serializable',)"
p42
sS'__dict__'
p43
S'{}'
p44
sS'__sizeof__'
p45
S'<built-in method __sizeof__ of exceptions.TypeError object>'
p46
sS'__doc__'
p47
S"'Inappropriate argument type.'"
p48
sS'__init__'
p49
S"<method-wrapper '__init__' of exceptions.TypeError object>"
p50
sS'__new__'
p51
S'<built-in method __new__ of type object>'
p52
ssS'evalue'
p53
S'<gluon.dal.Rows object at 0xb536df4c> is not JSON serializable'
p54
sS'request'
p55
ccopy_reg
_reconstructor
p56
(cgluon.html
BEAUTIFY
p57
c__builtin__
object
p58
NtRp59
(dp60
S'attributes'
p61
(dp62
sS'components'
p63
(lp64
g56
(cgluon.html
TABLE
p65
g58
NtRp66
(dp67
g61
(dp68
S'level'
p69
I5
ssS'parent'
p70
Nsg63
(lp71
g56
(cgluon.html
TR
p72
g58
NtRp73
(dp74
g61
(dp75
sg70
g66
sg63
(lp76
g56
(cgluon.html
TD
p77
g58
NtRp78
(dp79
g61
(dp80
S'_style'
p81
S'font-weight:bold;'
p82
ssg70
g73
sg63
(lp83
S'ajax'
p84
asbag56
(g77
g58
NtRp85
(dp86
g61
(dp87
S'_valign'
p88
S'top'
p89
ssg70
g73
sg63
(lp90
S':'
asbag56
(g77
g58
NtRp91
(dp92
g61
(dp93
sg70
g73
sg63
(lp94
g56
(g57
g58
NtRp95
(dp96
g61
(dp97
g69
I5
ssg70
g91
sg63
(lp98
S'True'
p99
asbasbasbag56
(g72
g58
NtRp100
(dp101
g61
(dp102
sg70
g66
sg63
(lp103
g56
(g77
g58
NtRp104
(dp105
g61
(dp106
g81
g82
ssg70
g100
sg63
(lp107
S'application'
p108
asbag56
(g77
g58
NtRp109
(dp110
g61
(dp111
g88
g89
ssg70
g100
sg63
(lp112
S':'
asbag56
(g77
g58
NtRp113
(dp114
g61
(dp115
sg70
g100
sg63
(lp116
g56
(g57
g58
NtRp117
(dp118
g61
(dp119
g69
I5
ssg70
g113
sg63
(lp120
S'gallery'
p121
asbasbasbag56
(g72
g58
NtRp122
(dp123
g61
(dp124
sg70
g66
sg63
(lp125
g56
(g77
g58
NtRp126
(dp127
g61
(dp128
g81
g82
ssg70
g122
sg63
(lp129
g41
asbag56
(g77
g58
NtRp130
(dp131
g61
(dp132
g88
g89
ssg70
g122
sg63
(lp133
S':'
asbag56
(g77
g58
NtRp134
(dp135
g61
(dp136
sg70
g122
sg63
(lp137
g56
(g57
g58
NtRp138
(dp139
g61
(dp140
g69
I5
ssg70
g134
sg63
(lp141
g56
(g65
g58
NtRp142
(dp143
g61
(dp144
g69
I4
ssg70
Nsg63
(lp145
sbasbasbasbag56
(g72
g58
NtRp146
(dp147
g61
(dp148
sg70
g66
sg63
(lp149
g56
(g77
g58
NtRp150
(dp151
g61
(dp152
g81
g82
ssg70
g146
sg63
(lp153
S'body'
p154
asbag56
(g77
g58
NtRp155
(dp156
g61
(dp157
g88
g89
ssg70
g146
sg63
(lp158
S':'
asbag56
(g77
g58
NtRp159
(dp160
g61
(dp161
sg70
g146
sg63
(lp162
g56
(g57
g58
NtRp163
(dp164
g61
(dp165
g69
I5
ssg70
g159
sg63
(lp166
S'<cStringIO.StringO object at 0xae2bf9a0>'
p167
asbasbasbag56
(g72
g58
NtRp168
(dp169
g61
(dp170
sg70
g66
sg63
(lp171
g56
(g77
g58
NtRp172
(dp173
g61
(dp174
g81
g82
ssg70
g168
sg63
(lp175
S'client'
p176
asbag56
(g77
g58
NtRp177
(dp178
g61
(dp179
g88
g89
ssg70
g168
sg63
(lp180
S':'
asbag56
(g77
g58
NtRp181
(dp182
g61
(dp183
sg70
g168
sg63
(lp184
g56
(g57
g58
NtRp185
(dp186
g61
(dp187
g69
I5
ssg70
g181
sg63
(lp188
S'127.0.0.1'
p189
asbasbasbag56
(g72
g58
NtRp190
(dp191
g61
(dp192
sg70
g66
sg63
(lp193
g56
(g77
g58
NtRp194
(dp195
g61
(dp196
g81
g82
ssg70
g190
sg63
(lp197
S'controller'
p198
asbag56
(g77
g58
NtRp199
(dp200
g61
(dp201
g88
g89
ssg70
g190
sg63
(lp202
S':'
asbag56
(g77
g58
NtRp203
(dp204
g61
(dp205
sg70
g190
sg63
(lp206
g56
(g57
g58
NtRp207
(dp208
g61
(dp209
g69
I5
ssg70
g203
sg63
(lp210
S'search'
p211
asbasbasbag56
(g72
g58
NtRp212
(dp213
g61
(dp214
sg70
g66
sg63
(lp215
g56
(g77
g58
NtRp216
(dp217
g61
(dp218
g81
g82
ssg70
g212
sg63
(lp219
S'cookies'
p220
asbag56
(g77
g58
NtRp221
(dp222
g61
(dp223
g88
g89
ssg70
g212
sg63
(lp224
S':'
asbag56
(g77
g58
NtRp225
(dp226
g61
(dp227
sg70
g212
sg63
(lp228
g56
(g57
g58
NtRp229
(dp230
g61
(dp231
g69
I5
ssg70
g225
sg63
(lp232
g56
(g65
g58
NtRp233
(dp234
g61
(dp235
g69
I4
ssg70
Nsg63
(lp236
g56
(g72
g58
NtRp237
(dp238
g61
(dp239
sg70
g233
sg63
(lp240
g56
(g77
g58
NtRp241
(dp242
g61
(dp243
g81
g82
ssg70
g237
sg63
(lp244
S'csrftoken'
p245
asbag56
(g77
g58
NtRp246
(dp247
g61
(dp248
g88
g89
ssg70
g237
sg63
(lp249
S':'
asbag56
(g77
g58
NtRp250
(dp251
g61
(dp252
sg70
g237
sg63
(lp253
g56
(g57
g58
NtRp254
(dp255
g61
(dp256
g69
I4
ssg70
g250
sg63
(lp257
g56
(g65
g58
NtRp258
(dp259
g61
(dp260
g69
I3
ssg70
Nsg63
(lp261
g56
(g72
g58
NtRp262
(dp263
g61
(dp264
sg70
g258
sg63
(lp265
g56
(g77
g58
NtRp266
(dp267
g61
(dp268
g81
g82
ssg70
g262
sg63
(lp269
S'comment'
p270
asbag56
(g77
g58
NtRp271
(dp272
g61
(dp273
g88
g89
ssg70
g262
sg63
(lp274
S':'
asbag56
(g77
g58
NtRp275
(dp276
g61
(dp277
sg70
g262
sg63
(lp278
g56
(g57
g58
NtRp279
(dp280
g61
(dp281
g69
I3
ssg70
g275
sg63
(lp282
S''
asbasbasbag56
(g72
g58
NtRp283
(dp284
g61
(dp285
sg70
g258
sg63
(lp286
g56
(g77
g58
NtRp287
(dp288
g61
(dp289
g81
g82
ssg70
g283
sg63
(lp290
S'domain'
p291
asbag56
(g77
g58
NtRp292
(dp293
g61
(dp294
g88
g89
ssg70
g283
sg63
(lp295
S':'
asbag56
(g77
g58
NtRp296
(dp297
g61
(dp298
sg70
g283
sg63
(lp299
g56
(g57
g58
NtRp300
(dp301
g61
(dp302
g69
I3
ssg70
g296
sg63
(lp303
S''
asbasbasbag56
(g72
g58
NtRp304
(dp305
g61
(dp306
sg70
g258
sg63
(lp307
g56
(g77
g58
NtRp308
(dp309
g61
(dp310
g81
g82
ssg70
g304
sg63
(lp311
S'expires'
p312
asbag56
(g77
g58
NtRp313
(dp314
g61
(dp315
g88
g89
ssg70
g304
sg63
(lp316
S':'
asbag56
(g77
g58
NtRp317
(dp318
g61
(dp319
sg70
g304
sg63
(lp320
g56
(g57
g58
NtRp321
(dp322
g61
(dp323
g69
I3
ssg70
g317
sg63
(lp324
S''
asbasbasbag56
(g72
g58
NtRp325
(dp326
g61
(dp327
sg70
g258
sg63
(lp328
g56
(g77
g58
NtRp329
(dp330
g61
(dp331
g81
g82
ssg70
g325
sg63
(lp332
S'httponly'
p333
asbag56
(g77
g58
NtRp334
(dp335
g61
(dp336
g88
g89
ssg70
g325
sg63
(lp337
S':'
asbag56
(g77
g58
NtRp338
(dp339
g61
(dp340
sg70
g325
sg63
(lp341
g56
(g57
g58
NtRp342
(dp343
g61
(dp344
g69
I3
ssg70
g338
sg63
(lp345
S''
asbasbasbag56
(g72
g58
NtRp346
(dp347
g61
(dp348
sg70
g258
sg63
(lp349
g56
(g77
g58
NtRp350
(dp351
g61
(dp352
g81
g82
ssg70
g346
sg63
(lp353
S'max-age'
p354
asbag56
(g77
g58
NtRp355
(dp356
g61
(dp357
g88
g89
ssg70
g346
sg63
(lp358
S':'
asbag56
(g77
g58
NtRp359
(dp360
g61
(dp361
sg70
g346
sg63
(lp362
g56
(g57
g58
NtRp363
(dp364
g61
(dp365
g69
I3
ssg70
g359
sg63
(lp366
S''
asbasbasbag56
(g72
g58
NtRp367
(dp368
g61
(dp369
sg70
g258
sg63
(lp370
g56
(g77
g58
NtRp371
(dp372
g61
(dp373
g81
g82
ssg70
g367
sg63
(lp374
S'path'
p375
asbag56
(g77
g58
NtRp376
(dp377
g61
(dp378
g88
g89
ssg70
g367
sg63
(lp379
S':'
asbag56
(g77
g58
NtRp380
(dp381
g61
(dp382
sg70
g367
sg63
(lp383
g56
(g57
g58
NtRp384
(dp385
g61
(dp386
g69
I3
ssg70
g380
sg63
(lp387
S''
asbasbasbag56
(g72
g58
NtRp388
(dp389
g61
(dp390
sg70
g258
sg63
(lp391
g56
(g77
g58
NtRp392
(dp393
g61
(dp394
g81
g82
ssg70
g388
sg63
(lp395
S'secure'
p396
asbag56
(g77
g58
NtRp397
(dp398
g61
(dp399
g88
g89
ssg70
g388
sg63
(lp400
S':'
asbag56
(g77
g58
NtRp401
(dp402
g61
(dp403
sg70
g388
sg63
(lp404
g56
(g57
g58
NtRp405
(dp406
g61
(dp407
g69
I3
ssg70
g401
sg63
(lp408
S''
asbasbasbag56
(g72
g58
NtRp409
(dp410
g61
(dp411
sg70
g258
sg63
(lp412
g56
(g77
g58
NtRp413
(dp414
g61
(dp415
g81
g82
ssg70
g409
sg63
(lp416
S'version'
p417
asbag56
(g77
g58
NtRp418
(dp419
g61
(dp420
g88
g89
ssg70
g409
sg63
(lp421
S':'
asbag56
(g77
g58
NtRp422
(dp423
g61
(dp424
sg70
g409
sg63
(lp425
g56
(g57
g58
NtRp426
(dp427
g61
(dp428
g69
I3
ssg70
g422
sg63
(lp429
S''
asbasbasbasbasbasbasbag56
(g72
g58
NtRp430
(dp431
g61
(dp432
sg70
g233
sg63
(lp433
g56
(g77
g58
NtRp434
(dp435
g61
(dp436
g81
g82
ssg70
g430
sg63
(lp437
S'session_id_admin'
p438
asbag56
(g77
g58
NtRp439
(dp440
g61
(dp441
g88
g89
ssg70
g430
sg63
(lp442
S':'
asbag56
(g77
g58
NtRp443
(dp444
g61
(dp445
sg70
g430
sg63
(lp446
g56
(g57
g58
NtRp447
(dp448
g61
(dp449
g69
I4
ssg70
g443
sg63
(lp450
g56
(g65
g58
NtRp451
(dp452
g61
(dp453
g69
I3
ssg70
Nsg63
(lp454
g56
(g72
g58
NtRp455
(dp456
g61
(dp457
sg70
g451
sg63
(lp458
g56
(g77
g58
NtRp459
(dp460
g61
(dp461
g81
g82
ssg70
g455
sg63
(lp462
g270
asbag56
(g77
g58
NtRp463
(dp464
g61
(dp465
g88
g89
ssg70
g455
sg63
(lp466
S':'
asbag56
(g77
g58
NtRp467
(dp468
g61
(dp469
sg70
g455
sg63
(lp470
g56
(g57
g58
NtRp471
(dp472
g61
(dp473
g69
I3
ssg70
g467
sg63
(lp474
S''
asbasbasbag56
(g72
g58
NtRp475
(dp476
g61
(dp477
sg70
g451
sg63
(lp478
g56
(g77
g58
NtRp479
(dp480
g61
(dp481
g81
g82
ssg70
g475
sg63
(lp482
g291
asbag56
(g77
g58
NtRp483
(dp484
g61
(dp485
g88
g89
ssg70
g475
sg63
(lp486
S':'
asbag56
(g77
g58
NtRp487
(dp488
g61
(dp489
sg70
g475
sg63
(lp490
g56
(g57
g58
NtRp491
(dp492
g61
(dp493
g69
I3
ssg70
g487
sg63
(lp494
S''
asbasbasbag56
(g72
g58
NtRp495
(dp496
g61
(dp497
sg70
g451
sg63
(lp498
g56
(g77
g58
NtRp499
(dp500
g61
(dp501
g81
g82
ssg70
g495
sg63
(lp502
g312
asbag56
(g77
g58
NtRp503
(dp504
g61
(dp505
g88
g89
ssg70
g495
sg63
(lp506
S':'
asbag56
(g77
g58
NtRp507
(dp508
g61
(dp509
sg70
g495
sg63
(lp510
g56
(g57
g58
NtRp511
(dp512
g61
(dp513
g69
I3
ssg70
g507
sg63
(lp514
S''
asbasbasbag56
(g72
g58
NtRp515
(dp516
g61
(dp517
sg70
g451
sg63
(lp518
g56
(g77
g58
NtRp519
(dp520
g61
(dp521
g81
g82
ssg70
g515
sg63
(lp522
g333
asbag56
(g77
g58
NtRp523
(dp524
g61
(dp525
g88
g89
ssg70
g515
sg63
(lp526
S':'
asbag56
(g77
g58
NtRp527
(dp528
g61
(dp529
sg70
g515
sg63
(lp530
g56
(g57
g58
NtRp531
(dp532
g61
(dp533
g69
I3
ssg70
g527
sg63
(lp534
S''
asbasbasbag56
(g72
g58
NtRp535
(dp536
g61
(dp537
sg70
g451
sg63
(lp538
g56
(g77
g58
NtRp539
(dp540
g61
(dp541
g81
g82
ssg70
g535
sg63
(lp542
g354
asbag56
(g77
g58
NtRp543
(dp544
g61
(dp545
g88
g89
ssg70
g535
sg63
(lp546
S':'
asbag56
(g77
g58
NtRp547
(dp548
g61
(dp549
sg70
g535
sg63
(lp550
g56
(g57
g58
NtRp551
(dp552
g61
(dp553
g69
I3
ssg70
g547
sg63
(lp554
S''
asbasbasbag56
(g72
g58
NtRp555
(dp556
g61
(dp557
sg70
g451
sg63
(lp558
g56
(g77
g58
NtRp559
(dp560
g61
(dp561
g81
g82
ssg70
g555
sg63
(lp562
g375
asbag56
(g77
g58
NtRp563
(dp564
g61
(dp565
g88
g89
ssg70
g555
sg63
(lp566
S':'
asbag56
(g77
g58
NtRp567
(dp568
g61
(dp569
sg70
g555
sg63
(lp570
g56
(g57
g58
NtRp571
(dp572
g61
(dp573
g69
I3
ssg70
g567
sg63
(lp574
S''
asbasbasbag56
(g72
g58
NtRp575
(dp576
g61
(dp577
sg70
g451
sg63
(lp578
g56
(g77
g58
NtRp579
(dp580
g61
(dp581
g81
g82
ssg70
g575
sg63
(lp582
g396
asbag56
(g77
g58
NtRp583
(dp584
g61
(dp585
g88
g89
ssg70
g575
sg63
(lp586
S':'
asbag56
(g77
g58
NtRp587
(dp588
g61
(dp589
sg70
g575
sg63
(lp590
g56
(g57
g58
NtRp591
(dp592
g61
(dp593
g69
I3
ssg70
g587
sg63
(lp594
S''
asbasbasbag56
(g72
g58
NtRp595
(dp596
g61
(dp597
sg70
g451
sg63
(lp598
g56
(g77
g58
NtRp599
(dp600
g61
(dp601
g81
g82
ssg70
g595
sg63
(lp602
g417
asbag56
(g77
g58
NtRp603
(dp604
g61
(dp605
g88
g89
ssg70
g595
sg63
(lp606
S':'
asbag56
(g77
g58
NtRp607
(dp608
g61
(dp609
sg70
g595
sg63
(lp610
g56
(g57
g58
NtRp611
(dp612
g61
(dp613
g69
I3
ssg70
g607
sg63
(lp614
S''
asbasbasbasbasbasbasbag56
(g72
g58
NtRp615
(dp616
g61
(dp617
sg70
g233
sg63
(lp618
g56
(g77
g58
NtRp619
(dp620
g61
(dp621
g81
g82
ssg70
g615
sg63
(lp622
S'session_id_carstore'
p623
asbag56
(g77
g58
NtRp624
(dp625
g61
(dp626
g88
g89
ssg70
g615
sg63
(lp627
S':'
asbag56
(g77
g58
NtRp628
(dp629
g61
(dp630
sg70
g615
sg63
(lp631
g56
(g57
g58
NtRp632
(dp633
g61
(dp634
g69
I4
ssg70
g628
sg63
(lp635
g56
(g65
g58
NtRp636
(dp637
g61
(dp638
g69
I3
ssg70
Nsg63
(lp639
g56
(g72
g58
NtRp640
(dp641
g61
(dp642
sg70
g636
sg63
(lp643
g56
(g77
g58
NtRp644
(dp645
g61
(dp646
g81
g82
ssg70
g640
sg63
(lp647
g270
asbag56
(g77
g58
NtRp648
(dp649
g61
(dp650
g88
g89
ssg70
g640
sg63
(lp651
S':'
asbag56
(g77
g58
NtRp652
(dp653
g61
(dp654
sg70
g640
sg63
(lp655
g56
(g57
g58
NtRp656
(dp657
g61
(dp658
g69
I3
ssg70
g652
sg63
(lp659
S''
asbasbasbag56
(g72
g58
NtRp660
(dp661
g61
(dp662
sg70
g636
sg63
(lp663
g56
(g77
g58
NtRp664
(dp665
g61
(dp666
g81
g82
ssg70
g660
sg63
(lp667
g291
asbag56
(g77
g58
NtRp668
(dp669
g61
(dp670
g88
g89
ssg70
g660
sg63
(lp671
S':'
asbag56
(g77
g58
NtRp672
(dp673
g61
(dp674
sg70
g660
sg63
(lp675
g56
(g57
g58
NtRp676
(dp677
g61
(dp678
g69
I3
ssg70
g672
sg63
(lp679
S''
asbasbasbag56
(g72
g58
NtRp680
(dp681
g61
(dp682
sg70
g636
sg63
(lp683
g56
(g77
g58
NtRp684
(dp685
g61
(dp686
g81
g82
ssg70
g680
sg63
(lp687
g312
asbag56
(g77
g58
NtRp688
(dp689
g61
(dp690
g88
g89
ssg70
g680
sg63
(lp691
S':'
asbag56
(g77
g58
NtRp692
(dp693
g61
(dp694
sg70
g680
sg63
(lp695
g56
(g57
g58
NtRp696
(dp697
g61
(dp698
g69
I3
ssg70
g692
sg63
(lp699
S''
asbasbasbag56
(g72
g58
NtRp700
(dp701
g61
(dp702
sg70
g636
sg63
(lp703
g56
(g77
g58
NtRp704
(dp705
g61
(dp706
g81
g82
ssg70
g700
sg63
(lp707
g333
asbag56
(g77
g58
NtRp708
(dp709
g61
(dp710
g88
g89
ssg70
g700
sg63
(lp711
S':'
asbag56
(g77
g58
NtRp712
(dp713
g61
(dp714
sg70
g700
sg63
(lp715
g56
(g57
g58
NtRp716
(dp717
g61
(dp718
g69
I3
ssg70
g712
sg63
(lp719
S''
asbasbasbag56
(g72
g58
NtRp720
(dp721
g61
(dp722
sg70
g636
sg63
(lp723
g56
(g77
g58
NtRp724
(dp725
g61
(dp726
g81
g82
ssg70
g720
sg63
(lp727
g354
asbag56
(g77
g58
NtRp728
(dp729
g61
(dp730
g88
g89
ssg70
g720
sg63
(lp731
S':'
asbag56
(g77
g58
NtRp732
(dp733
g61
(dp734
sg70
g720
sg63
(lp735
g56
(g57
g58
NtRp736
(dp737
g61
(dp738
g69
I3
ssg70
g732
sg63
(lp739
S''
asbasbasbag56
(g72
g58
NtRp740
(dp741
g61
(dp742
sg70
g636
sg63
(lp743
g56
(g77
g58
NtRp744
(dp745
g61
(dp746
g81
g82
ssg70
g740
sg63
(lp747
g375
asbag56
(g77
g58
NtRp748
(dp749
g61
(dp750
g88
g89
ssg70
g740
sg63
(lp751
S':'
asbag56
(g77
g58
NtRp752
(dp753
g61
(dp754
sg70
g740
sg63
(lp755
g56
(g57
g58
NtRp756
(dp757
g61
(dp758
g69
I3
ssg70
g752
sg63
(lp759
S''
asbasbasbag56
(g72
g58
NtRp760
(dp761
g61
(dp762
sg70
g636
sg63
(lp763
g56
(g77
g58
NtRp764
(dp765
g61
(dp766
g81
g82
ssg70
g760
sg63
(lp767
g396
asbag56
(g77
g58
NtRp768
(dp769
g61
(dp770
g88
g89
ssg70
g760
sg63
(lp771
S':'
asbag56
(g77
g58
NtRp772
(dp773
g61
(dp774
sg70
g760
sg63
(lp775
g56
(g57
g58
NtRp776
(dp777
g61
(dp778
g69
I3
ssg70
g772
sg63
(lp779
S''
asbasbasbag56
(g72
g58
NtRp780
(dp781
g61
(dp782
sg70
g636
sg63
(lp783
g56
(g77
g58
NtRp784
(dp785
g61
(dp786
g81
g82
ssg70
g780
sg63
(lp787
g417
asbag56
(g77
g58
NtRp788
(dp789
g61
(dp790
g88
g89
ssg70
g780
sg63
(lp791
S':'
asbag56
(g77
g58
NtRp792
(dp793
g61
(dp794
sg70
g780
sg63
(lp795
g56
(g57
g58
NtRp796
(dp797
g61
(dp798
g69
I3
ssg70
g792
sg63
(lp799
S''
asbasbasbasbasbasbasbag56
(g72
g58
NtRp800
(dp801
g61
(dp802
sg70
g233
sg63
(lp803
g56
(g77
g58
NtRp804
(dp805
g61
(dp806
g81
g82
ssg70
g800
sg63
(lp807
S'session_id_gallery'
p808
asbag56
(g77
g58
NtRp809
(dp810
g61
(dp811
g88
g89
ssg70
g800
sg63
(lp812
S':'
asbag56
(g77
g58
NtRp813
(dp814
g61
(dp815
sg70
g800
sg63
(lp816
g56
(g57
g58
NtRp817
(dp818
g61
(dp819
g69
I4
ssg70
g813
sg63
(lp820
g56
(g65
g58
NtRp821
(dp822
g61
(dp823
g69
I3
ssg70
Nsg63
(lp824
g56
(g72
g58
NtRp825
(dp826
g61
(dp827
sg70
g821
sg63
(lp828
g56
(g77
g58
NtRp829
(dp830
g61
(dp831
g81
g82
ssg70
g825
sg63
(lp832
g270
asbag56
(g77
g58
NtRp833
(dp834
g61
(dp835
g88
g89
ssg70
g825
sg63
(lp836
S':'
asbag56
(g77
g58
NtRp837
(dp838
g61
(dp839
sg70
g825
sg63
(lp840
g56
(g57
g58
NtRp841
(dp842
g61
(dp843
g69
I3
ssg70
g837
sg63
(lp844
S''
asbasbasbag56
(g72
g58
NtRp845
(dp846
g61
(dp847
sg70
g821
sg63
(lp848
g56
(g77
g58
NtRp849
(dp850
g61
(dp851
g81
g82
ssg70
g845
sg63
(lp852
g291
asbag56
(g77
g58
NtRp853
(dp854
g61
(dp855
g88
g89
ssg70
g845
sg63
(lp856
S':'
asbag56
(g77
g58
NtRp857
(dp858
g61
(dp859
sg70
g845
sg63
(lp860
g56
(g57
g58
NtRp861
(dp862
g61
(dp863
g69
I3
ssg70
g857
sg63
(lp864
S''
asbasbasbag56
(g72
g58
NtRp865
(dp866
g61
(dp867
sg70
g821
sg63
(lp868
g56
(g77
g58
NtRp869
(dp870
g61
(dp871
g81
g82
ssg70
g865
sg63
(lp872
g312
asbag56
(g77
g58
NtRp873
(dp874
g61
(dp875
g88
g89
ssg70
g865
sg63
(lp876
S':'
asbag56
(g77
g58
NtRp877
(dp878
g61
(dp879
sg70
g865
sg63
(lp880
g56
(g57
g58
NtRp881
(dp882
g61
(dp883
g69
I3
ssg70
g877
sg63
(lp884
S''
asbasbasbag56
(g72
g58
NtRp885
(dp886
g61
(dp887
sg70
g821
sg63
(lp888
g56
(g77
g58
NtRp889
(dp890
g61
(dp891
g81
g82
ssg70
g885
sg63
(lp892
g333
asbag56
(g77
g58
NtRp893
(dp894
g61
(dp895
g88
g89
ssg70
g885
sg63
(lp896
S':'
asbag56
(g77
g58
NtRp897
(dp898
g61
(dp899
sg70
g885
sg63
(lp900
g56
(g57
g58
NtRp901
(dp902
g61
(dp903
g69
I3
ssg70
g897
sg63
(lp904
S''
asbasbasbag56
(g72
g58
NtRp905
(dp906
g61
(dp907
sg70
g821
sg63
(lp908
g56
(g77
g58
NtRp909
(dp910
g61
(dp911
g81
g82
ssg70
g905
sg63
(lp912
g354
asbag56
(g77
g58
NtRp913
(dp914
g61
(dp915
g88
g89
ssg70
g905
sg63
(lp916
S':'
asbag56
(g77
g58
NtRp917
(dp918
g61
(dp919
sg70
g905
sg63
(lp920
g56
(g57
g58
NtRp921
(dp922
g61
(dp923
g69
I3
ssg70
g917
sg63
(lp924
S''
asbasbasbag56
(g72
g58
NtRp925
(dp926
g61
(dp927
sg70
g821
sg63
(lp928
g56
(g77
g58
NtRp929
(dp930
g61
(dp931
g81
g82
ssg70
g925
sg63
(lp932
g375
asbag56
(g77
g58
NtRp933
(dp934
g61
(dp935
g88
g89
ssg70
g925
sg63
(lp936
S':'
asbag56
(g77
g58
NtRp937
(dp938
g61
(dp939
sg70
g925
sg63
(lp940
g56
(g57
g58
NtRp941
(dp942
g61
(dp943
g69
I3
ssg70
g937
sg63
(lp944
S''
asbasbasbag56
(g72
g58
NtRp945
(dp946
g61
(dp947
sg70
g821
sg63
(lp948
g56
(g77
g58
NtRp949
(dp950
g61
(dp951
g81
g82
ssg70
g945
sg63
(lp952
g396
asbag56
(g77
g58
NtRp953
(dp954
g61
(dp955
g88
g89
ssg70
g945
sg63
(lp956
S':'
asbag56
(g77
g58
NtRp957
(dp958
g61
(dp959
sg70
g945
sg63
(lp960
g56
(g57
g58
NtRp961
(dp962
g61
(dp963
g69
I3
ssg70
g957
sg63
(lp964
S''
asbasbasbag56
(g72
g58
NtRp965
(dp966
g61
(dp967
sg70
g821
sg63
(lp968
g56
(g77
g58
NtRp969
(dp970
g61
(dp971
g81
g82
ssg70
g965
sg63
(lp972
g417
asbag56
(g77
g58
NtRp973
(dp974
g61
(dp975
g88
g89
ssg70
g965
sg63
(lp976
S':'
asbag56
(g77
g58
NtRp977
(dp978
g61
(dp979
sg70
g965
sg63
(lp980
g56
(g57
g58
NtRp981
(dp982
g61
(dp983
g69
I3
ssg70
g977
sg63
(lp984
S''
asbasbasbasbasbasbasbag56
(g72
g58
NtRp985
(dp986
g61
(dp987
sg70
g233
sg63
(lp988
g56
(g77
g58
NtRp989
(dp990
g61
(dp991
g81
g82
ssg70
g985
sg63
(lp992
S'session_id_welcome'
p993
asbag56
(g77
g58
NtRp994
(dp995
g61
(dp996
g88
g89
ssg70
g985
sg63
(lp997
S':'
asbag56
(g77
g58
NtRp998
(dp999
g61
(dp1000
sg70
g985
sg63
(lp1001
g56
(g57
g58
NtRp1002
(dp1003
g61
(dp1004
g69
I4
ssg70
g998
sg63
(lp1005
g56
(g65
g58
NtRp1006
(dp1007
g61
(dp1008
g69
I3
ssg70
Nsg63
(lp1009
g56
(g72
g58
NtRp1010
(dp1011
g61
(dp1012
sg70
g1006
sg63
(lp1013
g56
(g77
g58
NtRp1014
(dp1015
g61
(dp1016
g81
g82
ssg70
g1010
sg63
(lp1017
g270
asbag56
(g77
g58
NtRp1018
(dp1019
g61
(dp1020
g88
g89
ssg70
g1010
sg63
(lp1021
S':'
asbag56
(g77
g58
NtRp1022
(dp1023
g61
(dp1024
sg70
g1010
sg63
(lp1025
g56
(g57
g58
NtRp1026
(dp1027
g61
(dp1028
g69
I3
ssg70
g1022
sg63
(lp1029
S''
asbasbasbag56
(g72
g58
NtRp1030
(dp1031
g61
(dp1032
sg70
g1006
sg63
(lp1033
g56
(g77
g58
NtRp1034
(dp1035
g61
(dp1036
g81
g82
ssg70
g1030
sg63
(lp1037
g291
asbag56
(g77
g58
NtRp1038
(dp1039
g61
(dp1040
g88
g89
ssg70
g1030
sg63
(lp1041
S':'
asbag56
(g77
g58
NtRp1042
(dp1043
g61
(dp1044
sg70
g1030
sg63
(lp1045
g56
(g57
g58
NtRp1046
(dp1047
g61
(dp1048
g69
I3
ssg70
g1042
sg63
(lp1049
S''
asbasbasbag56
(g72
g58
NtRp1050
(dp1051
g61
(dp1052
sg70
g1006
sg63
(lp1053
g56
(g77
g58
NtRp1054
(dp1055
g61
(dp1056
g81
g82
ssg70
g1050
sg63
(lp1057
g312
asbag56
(g77
g58
NtRp1058
(dp1059
g61
(dp1060
g88
g89
ssg70
g1050
sg63
(lp1061
S':'
asbag56
(g77
g58
NtRp1062
(dp1063
g61
(dp1064
sg70
g1050
sg63
(lp1065
g56
(g57
g58
NtRp1066
(dp1067
g61
(dp1068
g69
I3
ssg70
g1062
sg63
(lp1069
S''
asbasbasbag56
(g72
g58
NtRp1070
(dp1071
g61
(dp1072
sg70
g1006
sg63
(lp1073
g56
(g77
g58
NtRp1074
(dp1075
g61
(dp1076
g81
g82
ssg70
g1070
sg63
(lp1077
g333
asbag56
(g77
g58
NtRp1078
(dp1079
g61
(dp1080
g88
g89
ssg70
g1070
sg63
(lp1081
S':'
asbag56
(g77
g58
NtRp1082
(dp1083
g61
(dp1084
sg70
g1070
sg63
(lp1085
g56
(g57
g58
NtRp1086
(dp1087
g61
(dp1088
g69
I3
ssg70
g1082
sg63
(lp1089
S''
asbasbasbag56
(g72
g58
NtRp1090
(dp1091
g61
(dp1092
sg70
g1006
sg63
(lp1093
g56
(g77
g58
NtRp1094
(dp1095
g61
(dp1096
g81
g82
ssg70
g1090
sg63
(lp1097
g354
asbag56
(g77
g58
NtRp1098
(dp1099
g61
(dp1100
g88
g89
ssg70
g1090
sg63
(lp1101
S':'
asbag56
(g77
g58
NtRp1102
(dp1103
g61
(dp1104
sg70
g1090
sg63
(lp1105
g56
(g57
g58
NtRp1106
(dp1107
g61
(dp1108
g69
I3
ssg70
g1102
sg63
(lp1109
S''
asbasbasbag56
(g72
g58
NtRp1110
(dp1111
g61
(dp1112
sg70
g1006
sg63
(lp1113
g56
(g77
g58
NtRp1114
(dp1115
g61
(dp1116
g81
g82
ssg70
g1110
sg63
(lp1117
g375
asbag56
(g77
g58
NtRp1118
(dp1119
g61
(dp1120
g88
g89
ssg70
g1110
sg63
(lp1121
S':'
asbag56
(g77
g58
NtRp1122
(dp1123
g61
(dp1124
sg70
g1110
sg63
(lp1125
g56
(g57
g58
NtRp1126
(dp1127
g61
(dp1128
g69
I3
ssg70
g1122
sg63
(lp1129
S''
asbasbasbag56
(g72
g58
NtRp1130
(dp1131
g61
(dp1132
sg70
g1006
sg63
(lp1133
g56
(g77
g58
NtRp1134
(dp1135
g61
(dp1136
g81
g82
ssg70
g1130
sg63
(lp1137
g396
asbag56
(g77
g58
NtRp1138
(dp1139
g61
(dp1140
g88
g89
ssg70
g1130
sg63
(lp1141
S':'
asbag56
(g77
g58
NtRp1142
(dp1143
g61
(dp1144
sg70
g1130
sg63
(lp1145
g56
(g57
g58
NtRp1146
(dp1147
g61
(dp1148
g69
I3
ssg70
g1142
sg63
(lp1149
S''
asbasbasbag56
(g72
g58
NtRp1150
(dp1151
g61
(dp1152
sg70
g1006
sg63
(lp1153
g56
(g77
g58
NtRp1154
(dp1155
g61
(dp1156
g81
g82
ssg70
g1150
sg63
(lp1157
g417
asbag56
(g77
g58
NtRp1158
(dp1159
g61
(dp1160
g88
g89
ssg70
g1150
sg63
(lp1161
S':'
asbag56
(g77
g58
NtRp1162
(dp1163
g61
(dp1164
sg70
g1150
sg63
(lp1165
g56
(g57
g58
NtRp1166
(dp1167
g61
(dp1168
g69
I3
ssg70
g1162
sg63
(lp1169
S''
asbasbasbasbasbasbasbasbasbasbasbag56
(g72
g58
NtRp1170
(dp1171
g61
(dp1172
sg70
g66
sg63
(lp1173
g56
(g77
g58
NtRp1174
(dp1175
g61
(dp1176
g81
g82
ssg70
g1170
sg63
(lp1177
S'env'
p1178
asbag56
(g77
g58
NtRp1179
(dp1180
g61
(dp1181
g88
g89
ssg70
g1170
sg63
(lp1182
S':'
asbag56
(g77
g58
NtRp1183
(dp1184
g61
(dp1185
sg70
g1170
sg63
(lp1186
g56
(g57
g58
NtRp1187
(dp1188
g61
(dp1189
g69
I5
ssg70
g1183
sg63
(lp1190
g56
(g65
g58
NtRp1191
(dp1192
g61
(dp1193
g69
I4
ssg70
Nsg63
(lp1194
g56
(g72
g58
NtRp1195
(dp1196
g61
(dp1197
sg70
g1191
sg63
(lp1198
g56
(g77
g58
NtRp1199
(dp1200
g61
(dp1201
g81
g82
ssg70
g1195
sg63
(lp1202
S'app_folders'
p1203
asbag56
(g77
g58
NtRp1204
(dp1205
g61
(dp1206
g88
g89
ssg70
g1195
sg63
(lp1207
S':'
asbag56
(g77
g58
NtRp1208
(dp1209
g61
(dp1210
sg70
g1195
sg63
(lp1211
g56
(g57
g58
NtRp1212
(dp1213
g61
(dp1214
g69
I4
ssg70
g1208
sg63
(lp1215
S"set(['/home/brencam/web2py/applications/admin/', '/home/brencam/web2py/applications/gallery/'])"
p1216
asbasbasbag56
(g72
g58
NtRp1217
(dp1218
g61
(dp1219
sg70
g1191
sg63
(lp1220
g56
(g77
g58
NtRp1221
(dp1222
g61
(dp1223
g81
g82
ssg70
g1217
sg63
(lp1224
S'applications_parent'
p1225
asbag56
(g77
g58
NtRp1226
(dp1227
g61
(dp1228
g88
g89
ssg70
g1217
sg63
(lp1229
S':'
asbag56
(g77
g58
NtRp1230
(dp1231
g61
(dp1232
sg70
g1217
sg63
(lp1233
g56
(g57
g58
NtRp1234
(dp1235
g61
(dp1236
g69
I4
ssg70
g1230
sg63
(lp1237
S'/home/brencam/web2py'
p1238
asbasbasbag56
(g72
g58
NtRp1239
(dp1240
g61
(dp1241
sg70
g1191
sg63
(lp1242
g56
(g77
g58
NtRp1243
(dp1244
g61
(dp1245
g81
g82
ssg70
g1239
sg63
(lp1246
S'cmd_args'
p1247
asbag56
(g77
g58
NtRp1248
(dp1249
g61
(dp1250
g88
g89
ssg70
g1239
sg63
(lp1251
S':'
asbag56
(g77
g58
NtRp1252
(dp1253
g61
(dp1254
sg70
g1239
sg63
(lp1255
g56
(g57
g58
NtRp1256
(dp1257
g61
(dp1258
g69
I4
ssg70
g1252
sg63
(lp1259
g56
(g65
g58
NtRp1260
(dp1261
g61
(dp1262
g69
I3
ssg70
Nsg63
(lp1263
sbasbasbasbag56
(g72
g58
NtRp1264
(dp1265
g61
(dp1266
sg70
g1191
sg63
(lp1267
g56
(g77
g58
NtRp1268
(dp1269
g61
(dp1270
g81
g82
ssg70
g1264
sg63
(lp1271
S'cmd_options'
p1272
asbag56
(g77
g58
NtRp1273
(dp1274
g61
(dp1275
g88
g89
ssg70
g1264
sg63
(lp1276
S':'
asbag56
(g77
g58
NtRp1277
(dp1278
g61
(dp1279
sg70
g1264
sg63
(lp1280
g56
(g57
g58
NtRp1281
(dp1282
g61
(dp1283
g69
I4
ssg70
g1277
sg63
(lp1284
S"<Values at 0xa97628c: {'verbose': False, 'ip': '127.0.0.1', 'shutdown_timeout': 5, 'taskbar': False, 'nocron': False, 'pid_filename': 'httpserver.pid', 'maxthreads': None, 'softcron': False, 'server_name': 'localhost.localdomain', 'bpython': False, 'nogui': True, 'port': 8000, 'extcron': False, 'debuglevel': 30, 'test': None, 'folder': '/home/brencam/web2py', 'config': '', 'import_models': False, 'winservice': '', 'shell': None, 'run': '', 'log_filename': 'httpserver.log', 'args': [''], 'ssl_ca_certificate': None, 'scheduler': None, 'profiler_filename': None, 'ssl_private_key': '', 'password': 'admin', 'request_queue_size': 5, 'ssl_certificate': '', 'cronjob': False, 'plain': False, 'quiet': False, 'interfaces': None, 'minthreads': None, 'timeout': 10, 'numthreads': None, 'nobanner': False}>"
p1285
asbasbasbag56
(g72
g58
NtRp1286
(dp1287
g61
(dp1288
sg70
g1191
sg63
(lp1289
g56
(g77
g58
NtRp1290
(dp1291
g61
(dp1292
g81
g82
ssg70
g1286
sg63
(lp1293
S'content_type'
p1294
asbag56
(g77
g58
NtRp1295
(dp1296
g61
(dp1297
g88
g89
ssg70
g1286
sg63
(lp1298
S':'
asbag56
(g77
g58
NtRp1299
(dp1300
g61
(dp1301
sg70
g1286
sg63
(lp1302
g56
(g57
g58
NtRp1303
(dp1304
g61
(dp1305
g69
I4
ssg70
g1299
sg63
(lp1306
S'application/x-www-form-urlencoded'
p1307
asbasbasbag56
(g72
g58
NtRp1308
(dp1309
g61
(dp1310
sg70
g1191
sg63
(lp1311
g56
(g77
g58
NtRp1312
(dp1313
g61
(dp1314
g81
g82
ssg70
g1308
sg63
(lp1315
S'db_sessions'
p1316
asbag56
(g77
g58
NtRp1317
(dp1318
g61
(dp1319
g88
g89
ssg70
g1308
sg63
(lp1320
S':'
asbag56
(g77
g58
NtRp1321
(dp1322
g61
(dp1323
sg70
g1308
sg63
(lp1324
g56
(g57
g58
NtRp1325
(dp1326
g61
(dp1327
g69
I4
ssg70
g1321
sg63
(lp1328
S'set([])'
p1329
asbasbasbag56
(g72
g58
NtRp1330
(dp1331
g61
(dp1332
sg70
g1191
sg63
(lp1333
g56
(g77
g58
NtRp1334
(dp1335
g61
(dp1336
g81
g82
ssg70
g1330
sg63
(lp1337
S'debugging'
p1338
asbag56
(g77
g58
NtRp1339
(dp1340
g61
(dp1341
g88
g89
ssg70
g1330
sg63
(lp1342
S':'
asbag56
(g77
g58
NtRp1343
(dp1344
g61
(dp1345
sg70
g1330
sg63
(lp1346
g56
(g57
g58
NtRp1347
(dp1348
g61
(dp1349
g69
I4
ssg70
g1343
sg63
(lp1350
S'False'
p1351
asbasbasbag56
(g72
g58
NtRp1352
(dp1353
g61
(dp1354
sg70
g1191
sg63
(lp1355
g56
(g77
g58
NtRp1356
(dp1357
g61
(dp1358
g81
g82
ssg70
g1352
sg63
(lp1359
S'gluon_parent'
p1360
asbag56
(g77
g58
NtRp1361
(dp1362
g61
(dp1363
g88
g89
ssg70
g1352
sg63
(lp1364
S':'
asbag56
(g77
g58
NtRp1365
(dp1366
g61
(dp1367
sg70
g1352
sg63
(lp1368
g56
(g57
g58
NtRp1369
(dp1370
g61
(dp1371
g69
I4
ssg70
g1365
sg63
(lp1372
S'/home/brencam/web2py'
p1373
asbasbasbag56
(g72
g58
NtRp1374
(dp1375
g61
(dp1376
sg70
g1191
sg63
(lp1377
g56
(g77
g58
NtRp1378
(dp1379
g61
(dp1380
g81
g82
ssg70
g1374
sg63
(lp1381
S'http_accept'
p1382
asbag56
(g77
g58
NtRp1383
(dp1384
g61
(dp1385
g88
g89
ssg70
g1374
sg63
(lp1386
S':'
asbag56
(g77
g58
NtRp1387
(dp1388
g61
(dp1389
sg70
g1374
sg63
(lp1390
g56
(g57
g58
NtRp1391
(dp1392
g61
(dp1393
g69
I4
ssg70
g1387
sg63
(lp1394
S'*/*'
p1395
asbasbasbag56
(g72
g58
NtRp1396
(dp1397
g61
(dp1398
sg70
g1191
sg63
(lp1399
g56
(g77
g58
NtRp1400
(dp1401
g61
(dp1402
g81
g82
ssg70
g1396
sg63
(lp1403
S'http_accept_charset'
p1404
asbag56
(g77
g58
NtRp1405
(dp1406
g61
(dp1407
g88
g89
ssg70
g1396
sg63
(lp1408
S':'
asbag56
(g77
g58
NtRp1409
(dp1410
g61
(dp1411
sg70
g1396
sg63
(lp1412
g56
(g57
g58
NtRp1413
(dp1414
g61
(dp1415
g69
I4
ssg70
g1409
sg63
(lp1416
S'ISO-8859-1,utf-8;q=0.7,*;q=0.3'
p1417
asbasbasbag56
(g72
g58
NtRp1418
(dp1419
g61
(dp1420
sg70
g1191
sg63
(lp1421
g56
(g77
g58
NtRp1422
(dp1423
g61
(dp1424
g81
g82
ssg70
g1418
sg63
(lp1425
S'http_accept_encoding'
p1426
asbag56
(g77
g58
NtRp1427
(dp1428
g61
(dp1429
g88
g89
ssg70
g1418
sg63
(lp1430
S':'
asbag56
(g77
g58
NtRp1431
(dp1432
g61
(dp1433
sg70
g1418
sg63
(lp1434
g56
(g57
g58
NtRp1435
(dp1436
g61
(dp1437
g69
I4
ssg70
g1431
sg63
(lp1438
S'gzip,deflate,sdch'
p1439
asbasbasbag56
(g72
g58
NtRp1440
(dp1441
g61
(dp1442
sg70
g1191
sg63
(lp1443
g56
(g77
g58
NtRp1444
(dp1445
g61
(dp1446
g81
g82
ssg70
g1440
sg63
(lp1447
S'http_accept_language'
p1448
asbag56
(g77
g58
NtRp1449
(dp1450
g61
(dp1451
g88
g89
ssg70
g1440
sg63
(lp1452
S':'
asbag56
(g77
g58
NtRp1453
(dp1454
g61
(dp1455
sg70
g1440
sg63
(lp1456
g56
(g57
g58
NtRp1457
(dp1458
g61
(dp1459
g69
I4
ssg70
g1453
sg63
(lp1460
S'en-US,en;q=0.8'
p1461
asbasbasbag56
(g72
g58
NtRp1462
(dp1463
g61
(dp1464
sg70
g1191
sg63
(lp1465
g56
(g77
g58
NtRp1466
(dp1467
g61
(dp1468
g81
g82
ssg70
g1462
sg63
(lp1469
S'http_cache_control'
p1470
asbag56
(g77
g58
NtRp1471
(dp1472
g61
(dp1473
g88
g89
ssg70
g1462
sg63
(lp1474
S':'
asbag56
(g77
g58
NtRp1475
(dp1476
g61
(dp1477
sg70
g1462
sg63
(lp1478
g56
(g57
g58
NtRp1479
(dp1480
g61
(dp1481
g69
I4
ssg70
g1475
sg63
(lp1482
S'no-cache'
p1483
asbasbasbag56
(g72
g58
NtRp1484
(dp1485
g61
(dp1486
sg70
g1191
sg63
(lp1487
g56
(g77
g58
NtRp1488
(dp1489
g61
(dp1490
g81
g82
ssg70
g1484
sg63
(lp1491
S'http_connection'
p1492
asbag56
(g77
g58
NtRp1493
(dp1494
g61
(dp1495
g88
g89
ssg70
g1484
sg63
(lp1496
S':'
asbag56
(g77
g58
NtRp1497
(dp1498
g61
(dp1499
sg70
g1484
sg63
(lp1500
g56
(g57
g58
NtRp1501
(dp1502
g61
(dp1503
g69
I4
ssg70
g1497
sg63
(lp1504
S'keep-alive'
p1505
asbasbasbag56
(g72
g58
NtRp1506
(dp1507
g61
(dp1508
sg70
g1191
sg63
(lp1509
g56
(g77
g58
NtRp1510
(dp1511
g61
(dp1512
g81
g82
ssg70
g1506
sg63
(lp1513
S'http_content_type'
p1514
asbag56
(g77
g58
NtRp1515
(dp1516
g61
(dp1517
g88
g89
ssg70
g1506
sg63
(lp1518
S':'
asbag56
(g77
g58
NtRp1519
(dp1520
g61
(dp1521
sg70
g1506
sg63
(lp1522
g56
(g57
g58
NtRp1523
(dp1524
g61
(dp1525
g69
I4
ssg70
g1519
sg63
(lp1526
g1307
asbasbasbag56
(g72
g58
NtRp1527
(dp1528
g61
(dp1529
sg70
g1191
sg63
(lp1530
g56
(g77
g58
NtRp1531
(dp1532
g61
(dp1533
g81
g82
ssg70
g1527
sg63
(lp1534
S'http_cookie'
p1535
asbag56
(g77
g58
NtRp1536
(dp1537
g61
(dp1538
g88
g89
ssg70
g1527
sg63
(lp1539
S':'
asbag56
(g77
g58
NtRp1540
(dp1541
g61
(dp1542
sg70
g1527
sg63
(lp1543
g56
(g57
g58
NtRp1544
(dp1545
g61
(dp1546
g69
I4
ssg70
g1540
sg63
(lp1547
S'__utma=96992031.552746526.1281494094.1291180555.1291186411.9; csrftoken=7b3621df70ed8d65c15785486fff8908; __utma_a2a=7438973308.1350086890.1318529964.1318645324.1318645410.28; session_id_welcome=127.0.0.1-e89cf04d-0b50-4bf6-92b3-026e707eb338; session_id_carstore=127.0.0.1-040400bf-f5a5-433f-a985-acb0a46fadd7; session_id_admin=127.0.0.1-d14f835c-118c-445e-8941-6ad99bd8ed54; session_id_gallery=127.0.0.1-bc9865c0-0882-4100-b28d-30a368d56c13'
p1548
asbasbasbag56
(g72
g58
NtRp1549
(dp1550
g61
(dp1551
sg70
g1191
sg63
(lp1552
g56
(g77
g58
NtRp1553
(dp1554
g61
(dp1555
g81
g82
ssg70
g1549
sg63
(lp1556
S'http_host'
p1557
asbag56
(g77
g58
NtRp1558
(dp1559
g61
(dp1560
g88
g89
ssg70
g1549
sg63
(lp1561
S':'
asbag56
(g77
g58
NtRp1562
(dp1563
g61
(dp1564
sg70
g1549
sg63
(lp1565
g56
(g57
g58
NtRp1566
(dp1567
g61
(dp1568
g69
I4
ssg70
g1562
sg63
(lp1569
S'127.0.0.1:8000'
p1570
asbasbasbag56
(g72
g58
NtRp1571
(dp1572
g61
(dp1573
sg70
g1191
sg63
(lp1574
g56
(g77
g58
NtRp1575
(dp1576
g61
(dp1577
g81
g82
ssg70
g1571
sg63
(lp1578
S'http_pragma'
p1579
asbag56
(g77
g58
NtRp1580
(dp1581
g61
(dp1582
g88
g89
ssg70
g1571
sg63
(lp1583
S':'
asbag56
(g77
g58
NtRp1584
(dp1585
g61
(dp1586
sg70
g1571
sg63
(lp1587
g56
(g57
g58
NtRp1588
(dp1589
g61
(dp1590
g69
I4
ssg70
g1584
sg63
(lp1591
S'no-cache'
p1592
asbasbasbag56
(g72
g58
NtRp1593
(dp1594
g61
(dp1595
sg70
g1191
sg63
(lp1596
g56
(g77
g58
NtRp1597
(dp1598
g61
(dp1599
g81
g82
ssg70
g1593
sg63
(lp1600
S'http_referer'
p1601
asbag56
(g77
g58
NtRp1602
(dp1603
g61
(dp1604
g88
g89
ssg70
g1593
sg63
(lp1605
S':'
asbag56
(g77
g58
NtRp1606
(dp1607
g61
(dp1608
sg70
g1593
sg63
(lp1609
g56
(g57
g58
NtRp1610
(dp1611
g61
(dp1612
g69
I4
ssg70
g1606
sg63
(lp1613
S'http://127.0.0.1:8000/gallery/search/gettags'
p1614
asbasbasbag56
(g72
g58
NtRp1615
(dp1616
g61
(dp1617
sg70
g1191
sg63
(lp1618
g56
(g77
g58
NtRp1619
(dp1620
g61
(dp1621
g81
g82
ssg70
g1615
sg63
(lp1622
S'http_user_agent'
p1623
asbag56
(g77
g58
NtRp1624
(dp1625
g61
(dp1626
g88
g89
ssg70
g1615
sg63
(lp1627
S':'
asbag56
(g77
g58
NtRp1628
(dp1629
g61
(dp1630
sg70
g1615
sg63
(lp1631
g56
(g57
g58
NtRp1632
(dp1633
g61
(dp1634
g69
I4
ssg70
g1628
sg63
(lp1635
S'Mozilla/5.0 (X11; Linux i686) AppleWebKit/535.1 (KHTML, like Gecko) Chrome/14.0.835.204 Safari/535.1'
p1636
asbasbasbag56
(g72
g58
NtRp1637
(dp1638
g61
(dp1639
sg70
g1191
sg63
(lp1640
g56
(g77
g58
NtRp1641
(dp1642
g61
(dp1643
g81
g82
ssg70
g1637
sg63
(lp1644
S'http_x_requested_with'
p1645
asbag56
(g77
g58
NtRp1646
(dp1647
g61
(dp1648
g88
g89
ssg70
g1637
sg63
(lp1649
S':'
asbag56
(g77
g58
NtRp1650
(dp1651
g61
(dp1652
sg70
g1637
sg63
(lp1653
g56
(g57
g58
NtRp1654
(dp1655
g61
(dp1656
g69
I4
ssg70
g1650
sg63
(lp1657
S'XMLHttpRequest'
p1658
asbasbasbag56
(g72
g58
NtRp1659
(dp1660
g61
(dp1661
sg70
g1191
sg63
(lp1662
g56
(g77
g58
NtRp1663
(dp1664
g61
(dp1665
g81
g82
ssg70
g1659
sg63
(lp1666
S'is_jython'
p1667
asbag56
(g77
g58
NtRp1668
(dp1669
g61
(dp1670
g88
g89
ssg70
g1659
sg63
(lp1671
S':'
asbag56
(g77
g58
NtRp1672
(dp1673
g61
(dp1674
sg70
g1659
sg63
(lp1675
g56
(g57
g58
NtRp1676
(dp1677
g61
(dp1678
g69
I4
ssg70
g1672
sg63
(lp1679
g1351
asbasbasbag56
(g72
g58
NtRp1680
(dp1681
g61
(dp1682
sg70
g1191
sg63
(lp1683
g56
(g77
g58
NtRp1684
(dp1685
g61
(dp1686
g81
g82
ssg70
g1680
sg63
(lp1687
S'path_info'
p1688
asbag56
(g77
g58
NtRp1689
(dp1690
g61
(dp1691
g88
g89
ssg70
g1680
sg63
(lp1692
S':'
asbag56
(g77
g58
NtRp1693
(dp1694
g61
(dp1695
sg70
g1680
sg63
(lp1696
g56
(g57
g58
NtRp1697
(dp1698
g61
(dp1699
g69
I4
ssg70
g1693
sg63
(lp1700
S'/gallery/search/xmlgettags'
p1701
asbasbasbag56
(g72
g58
NtRp1702
(dp1703
g61
(dp1704
sg70
g1191
sg63
(lp1705
g56
(g77
g58
NtRp1706
(dp1707
g61
(dp1708
g81
g82
ssg70
g1702
sg63
(lp1709
S'query_string'
p1710
asbag56
(g77
g58
NtRp1711
(dp1712
g61
(dp1713
g88
g89
ssg70
g1702
sg63
(lp1714
S':'
asbag56
(g77
g58
NtRp1715
(dp1716
g61
(dp1717
sg70
g1702
sg63
(lp1718
g56
(g57
g58
NtRp1719
(dp1720
g61
(dp1721
g69
I4
ssg70
g1715
sg63
(lp1722
S''
asbasbasbag56
(g72
g58
NtRp1723
(dp1724
g61
(dp1725
sg70
g1191
sg63
(lp1726
g56
(g77
g58
NtRp1727
(dp1728
g61
(dp1729
g81
g82
ssg70
g1723
sg63
(lp1730
S'remote_addr'
p1731
asbag56
(g77
g58
NtRp1732
(dp1733
g61
(dp1734
g88
g89
ssg70
g1723
sg63
(lp1735
S':'
asbag56
(g77
g58
NtRp1736
(dp1737
g61
(dp1738
sg70
g1723
sg63
(lp1739
g56
(g57
g58
NtRp1740
(dp1741
g61
(dp1742
g69
I4
ssg70
g1736
sg63
(lp1743
g189
asbasbasbag56
(g72
g58
NtRp1744
(dp1745
g61
(dp1746
sg70
g1191
sg63
(lp1747
g56
(g77
g58
NtRp1748
(dp1749
g61
(dp1750
g81
g82
ssg70
g1744
sg63
(lp1751
S'remote_port'
p1752
asbag56
(g77
g58
NtRp1753
(dp1754
g61
(dp1755
g88
g89
ssg70
g1744
sg63
(lp1756
S':'
asbag56
(g77
g58
NtRp1757
(dp1758
g61
(dp1759
sg70
g1744
sg63
(lp1760
g56
(g57
g58
NtRp1761
(dp1762
g61
(dp1763
g69
I4
ssg70
g1757
sg63
(lp1764
S'47657'
p1765
asbasbasbag56
(g72
g58
NtRp1766
(dp1767
g61
(dp1768
sg70
g1191
sg63
(lp1769
g56
(g77
g58
NtRp1770
(dp1771
g61
(dp1772
g81
g82
ssg70
g1766
sg63
(lp1773
S'request_method'
p1774
asbag56
(g77
g58
NtRp1775
(dp1776
g61
(dp1777
g88
g89
ssg70
g1766
sg63
(lp1778
S':'
asbag56
(g77
g58
NtRp1779
(dp1780
g61
(dp1781
sg70
g1766
sg63
(lp1782
g56
(g57
g58
NtRp1783
(dp1784
g61
(dp1785
g69
I4
ssg70
g1779
sg63
(lp1786
S'GET'
p1787
asbasbasbag56
(g72
g58
NtRp1788
(dp1789
g61
(dp1790
sg70
g1191
sg63
(lp1791
g56
(g77
g58
NtRp1792
(dp1793
g61
(dp1794
g81
g82
ssg70
g1788
sg63
(lp1795
S'script_name'
p1796
asbag56
(g77
g58
NtRp1797
(dp1798
g61
(dp1799
g88
g89
ssg70
g1788
sg63
(lp1800
S':'
asbag56
(g77
g58
NtRp1801
(dp1802
g61
(dp1803
sg70
g1788
sg63
(lp1804
g56
(g57
g58
NtRp1805
(dp1806
g61
(dp1807
g69
I4
ssg70
g1801
sg63
(lp1808
S''
asbasbasbag56
(g72
g58
NtRp1809
(dp1810
g61
(dp1811
sg70
g1191
sg63
(lp1812
g56
(g77
g58
NtRp1813
(dp1814
g61
(dp1815
g81
g82
ssg70
g1809
sg63
(lp1816
S'server_name'
p1817
asbag56
(g77
g58
NtRp1818
(dp1819
g61
(dp1820
g88
g89
ssg70
g1809
sg63
(lp1821
S':'
asbag56
(g77
g58
NtRp1822
(dp1823
g61
(dp1824
sg70
g1809
sg63
(lp1825
g56
(g57
g58
NtRp1826
(dp1827
g61
(dp1828
g69
I4
ssg70
g1822
sg63
(lp1829
S'localhost.localdomain'
p1830
asbasbasbag56
(g72
g58
NtRp1831
(dp1832
g61
(dp1833
sg70
g1191
sg63
(lp1834
g56
(g77
g58
NtRp1835
(dp1836
g61
(dp1837
g81
g82
ssg70
g1831
sg63
(lp1838
S'server_port'
p1839
asbag56
(g77
g58
NtRp1840
(dp1841
g61
(dp1842
g88
g89
ssg70
g1831
sg63
(lp1843
S':'
asbag56
(g77
g58
NtRp1844
(dp1845
g61
(dp1846
sg70
g1831
sg63
(lp1847
g56
(g57
g58
NtRp1848
(dp1849
g61
(dp1850
g69
I4
ssg70
g1844
sg63
(lp1851
S'8000'
p1852
asbasbasbag56
(g72
g58
NtRp1853
(dp1854
g61
(dp1855
sg70
g1191
sg63
(lp1856
g56
(g77
g58
NtRp1857
(dp1858
g61
(dp1859
g81
g82
ssg70
g1853
sg63
(lp1860
S'server_protocol'
p1861
asbag56
(g77
g58
NtRp1862
(dp1863
g61
(dp1864
g88
g89
ssg70
g1853
sg63
(lp1865
S':'
asbag56
(g77
g58
NtRp1866
(dp1867
g61
(dp1868
sg70
g1853
sg63
(lp1869
g56
(g57
g58
NtRp1870
(dp1871
g61
(dp1872
g69
I4
ssg70
g1866
sg63
(lp1873
S'HTTP/1.1'
p1874
asbasbasbag56
(g72
g58
NtRp1875
(dp1876
g61
(dp1877
sg70
g1191
sg63
(lp1878
g56
(g77
g58
NtRp1879
(dp1880
g61
(dp1881
g81
g82
ssg70
g1875
sg63
(lp1882
S'server_software'
p1883
asbag56
(g77
g58
NtRp1884
(dp1885
g61
(dp1886
g88
g89
ssg70
g1875
sg63
(lp1887
S':'
asbag56
(g77
g58
NtRp1888
(dp1889
g61
(dp1890
sg70
g1875
sg63
(lp1891
g56
(g57
g58
NtRp1892
(dp1893
g61
(dp1894
g69
I4
ssg70
g1888
sg63
(lp1895
S'Rocket 1.2.4'
p1896
asbasbasbag56
(g72
g58
NtRp1897
(dp1898
g61
(dp1899
sg70
g1191
sg63
(lp1900
g56
(g77
g58
NtRp1901
(dp1902
g61
(dp1903
g81
g82
ssg70
g1897
sg63
(lp1904
S'web2py_crontype'
p1905
asbag56
(g77
g58
NtRp1906
(dp1907
g61
(dp1908
g88
g89
ssg70
g1897
sg63
(lp1909
S':'
asbag56
(g77
g58
NtRp1910
(dp1911
g61
(dp1912
sg70
g1897
sg63
(lp1913
g56
(g57
g58
NtRp1914
(dp1915
g61
(dp1916
g69
I4
ssg70
g1910
sg63
(lp1917
S'hard'
p1918
asbasbasbag56
(g72
g58
NtRp1919
(dp1920
g61
(dp1921
sg70
g1191
sg63
(lp1922
g56
(g77
g58
NtRp1923
(dp1924
g61
(dp1925
g81
g82
ssg70
g1919
sg63
(lp1926
S'web2py_path'
p1927
asbag56
(g77
g58
NtRp1928
(dp1929
g61
(dp1930
g88
g89
ssg70
g1919
sg63
(lp1931
S':'
asbag56
(g77
g58
NtRp1932
(dp1933
g61
(dp1934
sg70
g1919
sg63
(lp1935
g56
(g57
g58
NtRp1936
(dp1937
g61
(dp1938
g69
I4
ssg70
g1932
sg63
(lp1939
g1238
asbasbasbag56
(g72
g58
NtRp1940
(dp1941
g61
(dp1942
sg70
g1191
sg63
(lp1943
g56
(g77
g58
NtRp1944
(dp1945
g61
(dp1946
g81
g82
ssg70
g1940
sg63
(lp1947
S'web2py_version'
p1948
asbag56
(g77
g58
NtRp1949
(dp1950
g61
(dp1951
g88
g89
ssg70
g1940
sg63
(lp1952
S':'
asbag56
(g77
g58
NtRp1953
(dp1954
g61
(dp1955
sg70
g1940
sg63
(lp1956
g56
(g57
g58
NtRp1957
(dp1958
g61
(dp1959
g69
I4
ssg70
g1953
sg63
(lp1960
g56
(g65
g58
NtRp1961
(dp1962
g61
(dp1963
g69
I3
ssg70
Nsg63
(lp1964
g56
(g72
g58
NtRp1965
(dp1966
g61
(dp1967
sg70
g1961
sg63
(lp1968
g56
(g77
g58
NtRp1969
(dp1970
g61
(dp1971
sg70
g1965
sg63
(lp1972
g56
(g57
g58
NtRp1973
(dp1974
g61
(dp1975
g69
I3
ssg70
g1969
sg63
(lp1976
S'1'
asbasbasbag56
(g72
g58
NtRp1977
(dp1978
g61
(dp1979
sg70
g1961
sg63
(lp1980
g56
(g77
g58
NtRp1981
(dp1982
g61
(dp1983
sg70
g1977
sg63
(lp1984
g56
(g57
g58
NtRp1985
(dp1986
g61
(dp1987
g69
I3
ssg70
g1981
sg63
(lp1988
S'99'
p1989
asbasbasbag56
(g72
g58
NtRp1990
(dp1991
g61
(dp1992
sg70
g1961
sg63
(lp1993
g56
(g77
g58
NtRp1994
(dp1995
g61
(dp1996
sg70
g1990
sg63
(lp1997
g56
(g57
g58
NtRp1998
(dp1999
g61
(dp2000
g69
I3
ssg70
g1994
sg63
(lp2001
S'2'
asbasbasbag56
(g72
g58
NtRp2002
(dp2003
g61
(dp2004
sg70
g1961
sg63
(lp2005
g56
(g77
g58
NtRp2006
(dp2007
g61
(dp2008
sg70
g2002
sg63
(lp2009
g56
(g57
g58
NtRp2010
(dp2011
g61
(dp2012
g69
I3
ssg70
g2006
sg63
(lp2013
S'datetime.datetime(2011, 9, 26, 6, 55, 33)'
p2014
asbasbasbag56
(g72
g58
NtRp2015
(dp2016
g61
(dp2017
sg70
g1961
sg63
(lp2018
g56
(g77
g58
NtRp2019
(dp2020
g61
(dp2021
sg70
g2015
sg63
(lp2022
g56
(g57
g58
NtRp2023
(dp2024
g61
(dp2025
g69
I3
ssg70
g2019
sg63
(lp2026
S'stable'
p2027
asbasbasbasbasbasbasbag56
(g72
g58
NtRp2028
(dp2029
g61
(dp2030
sg70
g1191
sg63
(lp2031
g56
(g77
g58
NtRp2032
(dp2033
g61
(dp2034
g81
g82
ssg70
g2028
sg63
(lp2035
S'wsgi_errors'
p2036
asbag56
(g77
g58
NtRp2037
(dp2038
g61
(dp2039
g88
g89
ssg70
g2028
sg63
(lp2040
S':'
asbag56
(g77
g58
NtRp2041
(dp2042
g61
(dp2043
sg70
g2028
sg63
(lp2044
g56
(g57
g58
NtRp2045
(dp2046
g61
(dp2047
g69
I4
ssg70
g2041
sg63
(lp2048
S"<open file '<stderr>', mode 'w' at 0xb74340d0>"
p2049
asbasbasbag56
(g72
g58
NtRp2050
(dp2051
g61
(dp2052
sg70
g1191
sg63
(lp2053
g56
(g77
g58
NtRp2054
(dp2055
g61
(dp2056
g81
g82
ssg70
g2050
sg63
(lp2057
S'wsgi_file_wrapper'
p2058
asbag56
(g77
g58
NtRp2059
(dp2060
g61
(dp2061
g88
g89
ssg70
g2050
sg63
(lp2062
S':'
asbag56
(g77
g58
NtRp2063
(dp2064
g61
(dp2065
sg70
g2050
sg63
(lp2066
g56
(g57
g58
NtRp2067
(dp2068
g61
(dp2069
g69
I4
ssg70
g2063
sg63
(lp2070
S'<class wsgiref.util.FileWrapper at 0xa57350c>'
p2071
asbasbasbag56
(g72
g58
NtRp2072
(dp2073
g61
(dp2074
sg70
g1191
sg63
(lp2075
g56
(g77
g58
NtRp2076
(dp2077
g61
(dp2078
g81
g82
ssg70
g2072
sg63
(lp2079
S'wsgi_input'
p2080
asbag56
(g77
g58
NtRp2081
(dp2082
g61
(dp2083
g88
g89
ssg70
g2072
sg63
(lp2084
S':'
asbag56
(g77
g58
NtRp2085
(dp2086
g61
(dp2087
sg70
g2072
sg63
(lp2088
g56
(g57
g58
NtRp2089
(dp2090
g61
(dp2091
g69
I4
ssg70
g2085
sg63
(lp2092
S'<socket._fileobject object at 0xb497e92c>'
p2093
asbasbasbag56
(g72
g58
NtRp2094
(dp2095
g61
(dp2096
sg70
g1191
sg63
(lp2097
g56
(g77
g58
NtRp2098
(dp2099
g61
(dp2100
g81
g82
ssg70
g2094
sg63
(lp2101
S'wsgi_multiprocess'
p2102
asbag56
(g77
g58
NtRp2103
(dp2104
g61
(dp2105
g88
g89
ssg70
g2094
sg63
(lp2106
S':'
asbag56
(g77
g58
NtRp2107
(dp2108
g61
(dp2109
sg70
g2094
sg63
(lp2110
g56
(g57
g58
NtRp2111
(dp2112
g61
(dp2113
g69
I4
ssg70
g2107
sg63
(lp2114
g1351
asbasbasbag56
(g72
g58
NtRp2115
(dp2116
g61
(dp2117
sg70
g1191
sg63
(lp2118
g56
(g77
g58
NtRp2119
(dp2120
g61
(dp2121
g81
g82
ssg70
g2115
sg63
(lp2122
S'wsgi_multithread'
p2123
asbag56
(g77
g58
NtRp2124
(dp2125
g61
(dp2126
g88
g89
ssg70
g2115
sg63
(lp2127
S':'
asbag56
(g77
g58
NtRp2128
(dp2129
g61
(dp2130
sg70
g2115
sg63
(lp2131
g56
(g57
g58
NtRp2132
(dp2133
g61
(dp2134
g69
I4
ssg70
g2128
sg63
(lp2135
g99
asbasbasbag56
(g72
g58
NtRp2136
(dp2137
g61
(dp2138
sg70
g1191
sg63
(lp2139
g56
(g77
g58
NtRp2140
(dp2141
g61
(dp2142
g81
g82
ssg70
g2136
sg63
(lp2143
S'wsgi_run_once'
p2144
asbag56
(g77
g58
NtRp2145
(dp2146
g61
(dp2147
g88
g89
ssg70
g2136
sg63
(lp2148
S':'
asbag56
(g77
g58
NtRp2149
(dp2150
g61
(dp2151
sg70
g2136
sg63
(lp2152
g56
(g57
g58
NtRp2153
(dp2154
g61
(dp2155
g69
I4
ssg70
g2149
sg63
(lp2156
g1351
asbasbasbag56
(g72
g58
NtRp2157
(dp2158
g61
(dp2159
sg70
g1191
sg63
(lp2160
g56
(g77
g58
NtRp2161
(dp2162
g61
(dp2163
g81
g82
ssg70
g2157
sg63
(lp2164
S'wsgi_url_scheme'
p2165
asbag56
(g77
g58
NtRp2166
(dp2167
g61
(dp2168
g88
g89
ssg70
g2157
sg63
(lp2169
S':'
asbag56
(g77
g58
NtRp2170
(dp2171
g61
(dp2172
sg70
g2157
sg63
(lp2173
g56
(g57
g58
NtRp2174
(dp2175
g61
(dp2176
g69
I4
ssg70
g2170
sg63
(lp2177
S'http'
p2178
asbasbasbag56
(g72
g58
NtRp2179
(dp2180
g61
(dp2181
sg70
g1191
sg63
(lp2182
g56
(g77
g58
NtRp2183
(dp2184
g61
(dp2185
g81
g82
ssg70
g2179
sg63
(lp2186
S'wsgi_version'
p2187
asbag56
(g77
g58
NtRp2188
(dp2189
g61
(dp2190
g88
g89
ssg70
g2179
sg63
(lp2191
S':'
asbag56
(g77
g58
NtRp2192
(dp2193
g61
(dp2194
sg70
g2179
sg63
(lp2195
g56
(g57
g58
NtRp2196
(dp2197
g61
(dp2198
g69
I4
ssg70
g2192
sg63
(lp2199
g56
(g65
g58
NtRp2200
(dp2201
g61
(dp2202
g69
I3
ssg70
Nsg63
(lp2203
g56
(g72
g58
NtRp2204
(dp2205
g61
(dp2206
sg70
g2200
sg63
(lp2207
g56
(g77
g58
NtRp2208
(dp2209
g61
(dp2210
sg70
g2204
sg63
(lp2211
g56
(g57
g58
NtRp2212
(dp2213
g61
(dp2214
g69
I3
ssg70
g2208
sg63
(lp2215
S'1'
asbasbasbag56
(g72
g58
NtRp2216
(dp2217
g61
(dp2218
sg70
g2200
sg63
(lp2219
g56
(g77
g58
NtRp2220
(dp2221
g61
(dp2222
sg70
g2216
sg63
(lp2223
g56
(g57
g58
NtRp2224
(dp2225
g61
(dp2226
g69
I3
ssg70
g2220
sg63
(lp2227
S'0'
asbasbasbasbasbasbasbasbasbasbasbag56
(g72
g58
NtRp2228
(dp2229
g61
(dp2230
sg70
g66
sg63
(lp2231
g56
(g77
g58
NtRp2232
(dp2233
g61
(dp2234
g81
g82
ssg70
g2228
sg63
(lp2235
S'extension'
p2236
asbag56
(g77
g58
NtRp2237
(dp2238
g61
(dp2239
g88
g89
ssg70
g2228
sg63
(lp2240
S':'
asbag56
(g77
g58
NtRp2241
(dp2242
g61
(dp2243
sg70
g2228
sg63
(lp2244
g56
(g57
g58
NtRp2245
(dp2246
g61
(dp2247
g69
I5
ssg70
g2241
sg63
(lp2248
S'html'
p2249
asbasbasbag56
(g72
g58
NtRp2250
(dp2251
g61
(dp2252
sg70
g66
sg63
(lp2253
g56
(g77
g58
NtRp2254
(dp2255
g61
(dp2256
g81
g82
ssg70
g2250
sg63
(lp2257
S'folder'
p2258
asbag56
(g77
g58
NtRp2259
(dp2260
g61
(dp2261
g88
g89
ssg70
g2250
sg63
(lp2262
S':'
asbag56
(g77
g58
NtRp2263
(dp2264
g61
(dp2265
sg70
g2250
sg63
(lp2266
g56
(g57
g58
NtRp2267
(dp2268
g61
(dp2269
g69
I5
ssg70
g2263
sg63
(lp2270
S'/home/brencam/web2py/applications/gallery/'
p2271
asbasbasbag56
(g72
g58
NtRp2272
(dp2273
g61
(dp2274
sg70
g66
sg63
(lp2275
g56
(g77
g58
NtRp2276
(dp2277
g61
(dp2278
g81
g82
ssg70
g2272
sg63
(lp2279
S'function'
p2280
asbag56
(g77
g58
NtRp2281
(dp2282
g61
(dp2283
g88
g89
ssg70
g2272
sg63
(lp2284
S':'
asbag56
(g77
g58
NtRp2285
(dp2286
g61
(dp2287
sg70
g2272
sg63
(lp2288
g56
(g57
g58
NtRp2289
(dp2290
g61
(dp2291
g69
I5
ssg70
g2285
sg63
(lp2292
S'xmlgettags'
p2293
asbasbasbag56
(g72
g58
NtRp2294
(dp2295
g61
(dp2296
sg70
g66
sg63
(lp2297
g56
(g77
g58
NtRp2298
(dp2299
g61
(dp2300
g81
g82
ssg70
g2294
sg63
(lp2301
S'get_vars'
p2302
asbag56
(g77
g58
NtRp2303
(dp2304
g61
(dp2305
g88
g89
ssg70
g2294
sg63
(lp2306
S':'
asbag56
(g77
g58
NtRp2307
(dp2308
g61
(dp2309
sg70
g2294
sg63
(lp2310
g56
(g57
g58
NtRp2311
(dp2312
g61
(dp2313
g69
I5
ssg70
g2307
sg63
(lp2314
g56
(g65
g58
NtRp2315
(dp2316
g61
(dp2317
g69
I4
ssg70
Nsg63
(lp2318
sbasbasbasbag56
(g72
g58
NtRp2319
(dp2320
g61
(dp2321
sg70
g66
sg63
(lp2322
g56
(g77
g58
NtRp2323
(dp2324
g61
(dp2325
g81
g82
ssg70
g2319
sg63
(lp2326
S'global_settings'
p2327
asbag56
(g77
g58
NtRp2328
(dp2329
g61
(dp2330
g88
g89
ssg70
g2319
sg63
(lp2331
S':'
asbag56
(g77
g58
NtRp2332
(dp2333
g61
(dp2334
sg70
g2319
sg63
(lp2335
g56
(g57
g58
NtRp2336
(dp2337
g61
(dp2338
g69
I5
ssg70
g2332
sg63
(lp2339
g56
(g65
g58
NtRp2340
(dp2341
g61
(dp2342
g69
I4
ssg70
Nsg63
(lp2343
g56
(g72
g58
NtRp2344
(dp2345
g61
(dp2346
sg70
g2340
sg63
(lp2347
g56
(g77
g58
NtRp2348
(dp2349
g61
(dp2350
g81
g82
ssg70
g2344
sg63
(lp2351
g1203
asbag56
(g77
g58
NtRp2352
(dp2353
g61
(dp2354
g88
g89
ssg70
g2344
sg63
(lp2355
S':'
asbag56
(g77
g58
NtRp2356
(dp2357
g61
(dp2358
sg70
g2344
sg63
(lp2359
g56
(g57
g58
NtRp2360
(dp2361
g61
(dp2362
g69
I4
ssg70
g2356
sg63
(lp2363
S"set(['/home/brencam/web2py/applications/admin/', '/home/brencam/web2py/applications/gallery/'])"
p2364
asbasbasbag56
(g72
g58
NtRp2365
(dp2366
g61
(dp2367
sg70
g2340
sg63
(lp2368
g56
(g77
g58
NtRp2369
(dp2370
g61
(dp2371
g81
g82
ssg70
g2365
sg63
(lp2372
g1225
asbag56
(g77
g58
NtRp2373
(dp2374
g61
(dp2375
g88
g89
ssg70
g2365
sg63
(lp2376
S':'
asbag56
(g77
g58
NtRp2377
(dp2378
g61
(dp2379
sg70
g2365
sg63
(lp2380
g56
(g57
g58
NtRp2381
(dp2382
g61
(dp2383
g69
I4
ssg70
g2377
sg63
(lp2384
g1238
asbasbasbag56
(g72
g58
NtRp2385
(dp2386
g61
(dp2387
sg70
g2340
sg63
(lp2388
g56
(g77
g58
NtRp2389
(dp2390
g61
(dp2391
g81
g82
ssg70
g2385
sg63
(lp2392
g1247
asbag56
(g77
g58
NtRp2393
(dp2394
g61
(dp2395
g88
g89
ssg70
g2385
sg63
(lp2396
S':'
asbag56
(g77
g58
NtRp2397
(dp2398
g61
(dp2399
sg70
g2385
sg63
(lp2400
g56
(g57
g58
NtRp2401
(dp2402
g61
(dp2403
g69
I4
ssg70
g2397
sg63
(lp2404
g56
(g65
g58
NtRp2405
(dp2406
g61
(dp2407
g69
I3
ssg70
Nsg63
(lp2408
sbasbasbasbag56
(g72
g58
NtRp2409
(dp2410
g61
(dp2411
sg70
g2340
sg63
(lp2412
g56
(g77
g58
NtRp2413
(dp2414
g61
(dp2415
g81
g82
ssg70
g2409
sg63
(lp2416
g1272
asbag56
(g77
g58
NtRp2417
(dp2418
g61
(dp2419
g88
g89
ssg70
g2409
sg63
(lp2420
S':'
asbag56
(g77
g58
NtRp2421
(dp2422
g61
(dp2423
sg70
g2409
sg63
(lp2424
g56
(g57
g58
NtRp2425
(dp2426
g61
(dp2427
g69
I4
ssg70
g2421
sg63
(lp2428
S"<Values at 0xa97628c: {'verbose': False, 'ip': '127.0.0.1', 'shutdown_timeout': 5, 'taskbar': False, 'nocron': False, 'pid_filename': 'httpserver.pid', 'maxthreads': None, 'softcron': False, 'server_name': 'localhost.localdomain', 'bpython': False, 'nogui': True, 'port': 8000, 'extcron': False, 'debuglevel': 30, 'test': None, 'folder': '/home/brencam/web2py', 'config': '', 'import_models': False, 'winservice': '', 'shell': None, 'run': '', 'log_filename': 'httpserver.log', 'args': [''], 'ssl_ca_certificate': None, 'scheduler': None, 'profiler_filename': None, 'ssl_private_key': '', 'password': 'admin', 'request_queue_size': 5, 'ssl_certificate': '', 'cronjob': False, 'plain': False, 'quiet': False, 'interfaces': None, 'minthreads': None, 'timeout': 10, 'numthreads': None, 'nobanner': False}>"
p2429
asbasbasbag56
(g72
g58
NtRp2430
(dp2431
g61
(dp2432
sg70
g2340
sg63
(lp2433
g56
(g77
g58
NtRp2434
(dp2435
g61
(dp2436
g81
g82
ssg70
g2430
sg63
(lp2437
g1316
asbag56
(g77
g58
NtRp2438
(dp2439
g61
(dp2440
g88
g89
ssg70
g2430
sg63
(lp2441
S':'
asbag56
(g77
g58
NtRp2442
(dp2443
g61
(dp2444
sg70
g2430
sg63
(lp2445
g56
(g57
g58
NtRp2446
(dp2447
g61
(dp2448
g69
I4
ssg70
g2442
sg63
(lp2449
S'set([])'
p2450
asbasbasbag56
(g72
g58
NtRp2451
(dp2452
g61
(dp2453
sg70
g2340
sg63
(lp2454
g56
(g77
g58
NtRp2455
(dp2456
g61
(dp2457
g81
g82
ssg70
g2451
sg63
(lp2458
g1338
asbag56
(g77
g58
NtRp2459
(dp2460
g61
(dp2461
g88
g89
ssg70
g2451
sg63
(lp2462
S':'
asbag56
(g77
g58
NtRp2463
(dp2464
g61
(dp2465
sg70
g2451
sg63
(lp2466
g56
(g57
g58
NtRp2467
(dp2468
g61
(dp2469
g69
I4
ssg70
g2463
sg63
(lp2470
g1351
asbasbasbag56
(g72
g58
NtRp2471
(dp2472
g61
(dp2473
sg70
g2340
sg63
(lp2474
g56
(g77
g58
NtRp2475
(dp2476
g61
(dp2477
g81
g82
ssg70
g2471
sg63
(lp2478
g1360
asbag56
(g77
g58
NtRp2479
(dp2480
g61
(dp2481
g88
g89
ssg70
g2471
sg63
(lp2482
S':'
asbag56
(g77
g58
NtRp2483
(dp2484
g61
(dp2485
sg70
g2471
sg63
(lp2486
g56
(g57
g58
NtRp2487
(dp2488
g61
(dp2489
g69
I4
ssg70
g2483
sg63
(lp2490
g1373
asbasbasbag56
(g72
g58
NtRp2491
(dp2492
g61
(dp2493
sg70
g2340
sg63
(lp2494
g56
(g77
g58
NtRp2495
(dp2496
g61
(dp2497
g81
g82
ssg70
g2491
sg63
(lp2498
g1667
asbag56
(g77
g58
NtRp2499
(dp2500
g61
(dp2501
g88
g89
ssg70
g2491
sg63
(lp2502
S':'
asbag56
(g77
g58
NtRp2503
(dp2504
g61
(dp2505
sg70
g2491
sg63
(lp2506
g56
(g57
g58
NtRp2507
(dp2508
g61
(dp2509
g69
I4
ssg70
g2503
sg63
(lp2510
g1351
asbasbasbag56
(g72
g58
NtRp2511
(dp2512
g61
(dp2513
sg70
g2340
sg63
(lp2514
g56
(g77
g58
NtRp2515
(dp2516
g61
(dp2517
g81
g82
ssg70
g2511
sg63
(lp2518
g1905
asbag56
(g77
g58
NtRp2519
(dp2520
g61
(dp2521
g88
g89
ssg70
g2511
sg63
(lp2522
S':'
asbag56
(g77
g58
NtRp2523
(dp2524
g61
(dp2525
sg70
g2511
sg63
(lp2526
g56
(g57
g58
NtRp2527
(dp2528
g61
(dp2529
g69
I4
ssg70
g2523
sg63
(lp2530
g1918
asbasbasbag56
(g72
g58
NtRp2531
(dp2532
g61
(dp2533
sg70
g2340
sg63
(lp2534
g56
(g77
g58
NtRp2535
(dp2536
g61
(dp2537
g81
g82
ssg70
g2531
sg63
(lp2538
g1948
asbag56
(g77
g58
NtRp2539
(dp2540
g61
(dp2541
g88
g89
ssg70
g2531
sg63
(lp2542
S':'
asbag56
(g77
g58
NtRp2543
(dp2544
g61
(dp2545
sg70
g2531
sg63
(lp2546
g56
(g57
g58
NtRp2547
(dp2548
g61
(dp2549
g69
I4
ssg70
g2543
sg63
(lp2550
g56
(g65
g58
NtRp2551
(dp2552
g61
(dp2553
g69
I3
ssg70
Nsg63
(lp2554
g56
(g72
g58
NtRp2555
(dp2556
g61
(dp2557
sg70
g2551
sg63
(lp2558
g56
(g77
g58
NtRp2559
(dp2560
g61
(dp2561
sg70
g2555
sg63
(lp2562
g56
(g57
g58
NtRp2563
(dp2564
g61
(dp2565
g69
I3
ssg70
g2559
sg63
(lp2566
S'1'
asbasbasbag56
(g72
g58
NtRp2567
(dp2568
g61
(dp2569
sg70
g2551
sg63
(lp2570
g56
(g77
g58
NtRp2571
(dp2572
g61
(dp2573
sg70
g2567
sg63
(lp2574
g56
(g57
g58
NtRp2575
(dp2576
g61
(dp2577
g69
I3
ssg70
g2571
sg63
(lp2578
S'99'
p2579
asbasbasbag56
(g72
g58
NtRp2580
(dp2581
g61
(dp2582
sg70
g2551
sg63
(lp2583
g56
(g77
g58
NtRp2584
(dp2585
g61
(dp2586
sg70
g2580
sg63
(lp2587
g56
(g57
g58
NtRp2588
(dp2589
g61
(dp2590
g69
I3
ssg70
g2584
sg63
(lp2591
S'2'
asbasbasbag56
(g72
g58
NtRp2592
(dp2593
g61
(dp2594
sg70
g2551
sg63
(lp2595
g56
(g77
g58
NtRp2596
(dp2597
g61
(dp2598
sg70
g2592
sg63
(lp2599
g56
(g57
g58
NtRp2600
(dp2601
g61
(dp2602
g69
I3
ssg70
g2596
sg63
(lp2603
S'datetime.datetime(2011, 9, 26, 6, 55, 33)'
p2604
asbasbasbag56
(g72
g58
NtRp2605
(dp2606
g61
(dp2607
sg70
g2551
sg63
(lp2608
g56
(g77
g58
NtRp2609
(dp2610
g61
(dp2611
sg70
g2605
sg63
(lp2612
g56
(g57
g58
NtRp2613
(dp2614
g61
(dp2615
g69
I3
ssg70
g2609
sg63
(lp2616
g2027
asbasbasbasbasbasbasbasbasbasbasbag56
(g72
g58
NtRp2617
(dp2618
g61
(dp2619
sg70
g66
sg63
(lp2620
g56
(g77
g58
NtRp2621
(dp2622
g61
(dp2623
g81
g82
ssg70
g2617
sg63
(lp2624
S'is_https'
p2625
asbag56
(g77
g58
NtRp2626
(dp2627
g61
(dp2628
g88
g89
ssg70
g2617
sg63
(lp2629
S':'
asbag56
(g77
g58
NtRp2630
(dp2631
g61
(dp2632
sg70
g2617
sg63
(lp2633
g56
(g57
g58
NtRp2634
(dp2635
g61
(dp2636
g69
I5
ssg70
g2630
sg63
(lp2637
g1351
asbasbasbag56
(g72
g58
NtRp2638
(dp2639
g61
(dp2640
sg70
g66
sg63
(lp2641
g56
(g77
g58
NtRp2642
(dp2643
g61
(dp2644
g81
g82
ssg70
g2638
sg63
(lp2645
S'is_local'
p2646
asbag56
(g77
g58
NtRp2647
(dp2648
g61
(dp2649
g88
g89
ssg70
g2638
sg63
(lp2650
S':'
asbag56
(g77
g58
NtRp2651
(dp2652
g61
(dp2653
sg70
g2638
sg63
(lp2654
g56
(g57
g58
NtRp2655
(dp2656
g61
(dp2657
g69
I5
ssg70
g2651
sg63
(lp2658
g99
asbasbasbag56
(g72
g58
NtRp2659
(dp2660
g61
(dp2661
sg70
g66
sg63
(lp2662
g56
(g77
g58
NtRp2663
(dp2664
g61
(dp2665
g81
g82
ssg70
g2659
sg63
(lp2666
S'is_restful'
p2667
asbag56
(g77
g58
NtRp2668
(dp2669
g61
(dp2670
g88
g89
ssg70
g2659
sg63
(lp2671
S':'
asbag56
(g77
g58
NtRp2672
(dp2673
g61
(dp2674
sg70
g2659
sg63
(lp2675
g56
(g57
g58
NtRp2676
(dp2677
g61
(dp2678
g69
I5
ssg70
g2672
sg63
(lp2679
g1351
asbasbasbag56
(g72
g58
NtRp2680
(dp2681
g61
(dp2682
sg70
g66
sg63
(lp2683
g56
(g77
g58
NtRp2684
(dp2685
g61
(dp2686
g81
g82
ssg70
g2680
sg63
(lp2687
S'now'
p2688
asbag56
(g77
g58
NtRp2689
(dp2690
g61
(dp2691
g88
g89
ssg70
g2680
sg63
(lp2692
S':'
asbag56
(g77
g58
NtRp2693
(dp2694
g61
(dp2695
sg70
g2680
sg63
(lp2696
g56
(g57
g58
NtRp2697
(dp2698
g61
(dp2699
g69
I5
ssg70
g2693
sg63
(lp2700
S'datetime.datetime(2011, 11, 5, 11, 53, 20, 636056)'
p2701
asbasbasbag56
(g72
g58
NtRp2702
(dp2703
g61
(dp2704
sg70
g66
sg63
(lp2705
g56
(g77
g58
NtRp2706
(dp2707
g61
(dp2708
g81
g82
ssg70
g2702
sg63
(lp2709
S'post_vars'
p2710
asbag56
(g77
g58
NtRp2711
(dp2712
g61
(dp2713
g88
g89
ssg70
g2702
sg63
(lp2714
S':'
asbag56
(g77
g58
NtRp2715
(dp2716
g61
(dp2717
sg70
g2702
sg63
(lp2718
g56
(g57
g58
NtRp2719
(dp2720
g61
(dp2721
g69
I5
ssg70
g2715
sg63
(lp2722
g56
(g65
g58
NtRp2723
(dp2724
g61
(dp2725
g69
I4
ssg70
Nsg63
(lp2726
sbasbasbasbag56
(g72
g58
NtRp2727
(dp2728
g61
(dp2729
sg70
g66
sg63
(lp2730
g56
(g77
g58
NtRp2731
(dp2732
g61
(dp2733
g81
g82
ssg70
g2727
sg63
(lp2734
S'url'
p2735
asbag56
(g77
g58
NtRp2736
(dp2737
g61
(dp2738
g88
g89
ssg70
g2727
sg63
(lp2739
S':'
asbag56
(g77
g58
NtRp2740
(dp2741
g61
(dp2742
sg70
g2727
sg63
(lp2743
g56
(g57
g58
NtRp2744
(dp2745
g61
(dp2746
g69
I5
ssg70
g2740
sg63
(lp2747
S'/gallery/search/xmlgettags'
p2748
asbasbasbag56
(g72
g58
NtRp2749
(dp2750
g61
(dp2751
sg70
g66
sg63
(lp2752
g56
(g77
g58
NtRp2753
(dp2754
g61
(dp2755
g81
g82
ssg70
g2749
sg63
(lp2756
S'utcnow'
p2757
asbag56
(g77
g58
NtRp2758
(dp2759
g61
(dp2760
g88
g89
ssg70
g2749
sg63
(lp2761
S':'
asbag56
(g77
g58
NtRp2762
(dp2763
g61
(dp2764
sg70
g2749
sg63
(lp2765
g56
(g57
g58
NtRp2766
(dp2767
g61
(dp2768
g69
I5
ssg70
g2762
sg63
(lp2769
S'datetime.datetime(2011, 11, 5, 18, 53, 20, 636087)'
p2770
asbasbasbag56
(g72
g58
NtRp2771
(dp2772
g61
(dp2773
sg70
g66
sg63
(lp2774
g56
(g77
g58
NtRp2775
(dp2776
g61
(dp2777
g81
g82
ssg70
g2771
sg63
(lp2778
S'uuid'
p2779
asbag56
(g77
g58
NtRp2780
(dp2781
g61
(dp2782
g88
g89
ssg70
g2771
sg63
(lp2783
S':'
asbag56
(g77
g58
NtRp2784
(dp2785
g61
(dp2786
sg70
g2771
sg63
(lp2787
g56
(g57
g58
NtRp2788
(dp2789
g61
(dp2790
g69
I5
ssg70
g2784
sg63
(lp2791
S'gallery/127.0.0.1.2011-11-05.11-53-20.c1bdcbd4-7f53-4665-995f-20ae0b973969'
p2792
asbasbasbag56
(g72
g58
NtRp2793
(dp2794
g61
(dp2795
sg70
g66
sg63
(lp2796
g56
(g77
g58
NtRp2797
(dp2798
g61
(dp2799
g81
g82
ssg70
g2793
sg63
(lp2800
S'vars'
p2801
asbag56
(g77
g58
NtRp2802
(dp2803
g61
(dp2804
g88
g89
ssg70
g2793
sg63
(lp2805
S':'
asbag56
(g77
g58
NtRp2806
(dp2807
g61
(dp2808
sg70
g2793
sg63
(lp2809
g56
(g57
g58
NtRp2810
(dp2811
g61
(dp2812
g69
I5
ssg70
g2806
sg63
(lp2813
g56
(g65
g58
NtRp2814
(dp2815
g61
(dp2816
g69
I4
ssg70
Nsg63
(lp2817
sbasbasbasbag56
(g72
g58
NtRp2818
(dp2819
g61
(dp2820
sg70
g66
sg63
(lp2821
g56
(g77
g58
NtRp2822
(dp2823
g61
(dp2824
g81
g82
ssg70
g2818
sg63
(lp2825
S'wsgi'
p2826
asbag56
(g77
g58
NtRp2827
(dp2828
g61
(dp2829
g88
g89
ssg70
g2818
sg63
(lp2830
S':'
asbag56
(g77
g58
NtRp2831
(dp2832
g61
(dp2833
sg70
g2818
sg63
(lp2834
g56
(g57
g58
NtRp2835
(dp2836
g61
(dp2837
g69
I5
ssg70
g2831
sg63
(lp2838
g56
(g65
g58
NtRp2839
(dp2840
g61
(dp2841
g69
I4
ssg70
Nsg63
(lp2842
g56
(g72
g58
NtRp2843
(dp2844
g61
(dp2845
sg70
g2839
sg63
(lp2846
g56
(g77
g58
NtRp2847
(dp2848
g61
(dp2849
g81
g82
ssg70
g2843
sg63
(lp2850
S'environ'
p2851
asbag56
(g77
g58
NtRp2852
(dp2853
g61
(dp2854
g88
g89
ssg70
g2843
sg63
(lp2855
S':'
asbag56
(g77
g58
NtRp2856
(dp2857
g61
(dp2858
sg70
g2843
sg63
(lp2859
g56
(g57
g58
NtRp2860
(dp2861
g61
(dp2862
g69
I4
ssg70
g2856
sg63
(lp2863
g56
(g65
g58
NtRp2864
(dp2865
g61
(dp2866
g69
I3
ssg70
Nsg63
(lp2867
g56
(g72
g58
NtRp2868
(dp2869
g61
(dp2870
sg70
g2864
sg63
(lp2871
g56
(g77
g58
NtRp2872
(dp2873
g61
(dp2874
g81
g82
ssg70
g2868
sg63
(lp2875
S'CONTENT_TYPE'
p2876
asbag56
(g77
g58
NtRp2877
(dp2878
g61
(dp2879
g88
g89
ssg70
g2868
sg63
(lp2880
S':'
asbag56
(g77
g58
NtRp2881
(dp2882
g61
(dp2883
sg70
g2868
sg63
(lp2884
g56
(g57
g58
NtRp2885
(dp2886
g61
(dp2887
g69
I3
ssg70
g2881
sg63
(lp2888
g1307
asbasbasbag56
(g72
g58
NtRp2889
(dp2890
g61
(dp2891
sg70
g2864
sg63
(lp2892
g56
(g77
g58
NtRp2893
(dp2894
g61
(dp2895
g81
g82
ssg70
g2889
sg63
(lp2896
S'HTTP_ACCEPT'
p2897
asbag56
(g77
g58
NtRp2898
(dp2899
g61
(dp2900
g88
g89
ssg70
g2889
sg63
(lp2901
S':'
asbag56
(g77
g58
NtRp2902
(dp2903
g61
(dp2904
sg70
g2889
sg63
(lp2905
g56
(g57
g58
NtRp2906
(dp2907
g61
(dp2908
g69
I3
ssg70
g2902
sg63
(lp2909
g1395
asbasbasbag56
(g72
g58
NtRp2910
(dp2911
g61
(dp2912
sg70
g2864
sg63
(lp2913
g56
(g77
g58
NtRp2914
(dp2915
g61
(dp2916
g81
g82
ssg70
g2910
sg63
(lp2917
S'HTTP_ACCEPT_CHARSET'
p2918
asbag56
(g77
g58
NtRp2919
(dp2920
g61
(dp2921
g88
g89
ssg70
g2910
sg63
(lp2922
S':'
asbag56
(g77
g58
NtRp2923
(dp2924
g61
(dp2925
sg70
g2910
sg63
(lp2926
g56
(g57
g58
NtRp2927
(dp2928
g61
(dp2929
g69
I3
ssg70
g2923
sg63
(lp2930
g1417
asbasbasbag56
(g72
g58
NtRp2931
(dp2932
g61
(dp2933
sg70
g2864
sg63
(lp2934
g56
(g77
g58
NtRp2935
(dp2936
g61
(dp2937
g81
g82
ssg70
g2931
sg63
(lp2938
S'HTTP_ACCEPT_ENCODING'
p2939
asbag56
(g77
g58
NtRp2940
(dp2941
g61
(dp2942
g88
g89
ssg70
g2931
sg63
(lp2943
S':'
asbag56
(g77
g58
NtRp2944
(dp2945
g61
(dp2946
sg70
g2931
sg63
(lp2947
g56
(g57
g58
NtRp2948
(dp2949
g61
(dp2950
g69
I3
ssg70
g2944
sg63
(lp2951
g1439
asbasbasbag56
(g72
g58
NtRp2952
(dp2953
g61
(dp2954
sg70
g2864
sg63
(lp2955
g56
(g77
g58
NtRp2956
(dp2957
g61
(dp2958
g81
g82
ssg70
g2952
sg63
(lp2959
S'HTTP_ACCEPT_LANGUAGE'
p2960
asbag56
(g77
g58
NtRp2961
(dp2962
g61
(dp2963
g88
g89
ssg70
g2952
sg63
(lp2964
S':'
asbag56
(g77
g58
NtRp2965
(dp2966
g61
(dp2967
sg70
g2952
sg63
(lp2968
g56
(g57
g58
NtRp2969
(dp2970
g61
(dp2971
g69
I3
ssg70
g2965
sg63
(lp2972
g1461
asbasbasbag56
(g72
g58
NtRp2973
(dp2974
g61
(dp2975
sg70
g2864
sg63
(lp2976
g56
(g77
g58
NtRp2977
(dp2978
g61
(dp2979
g81
g82
ssg70
g2973
sg63
(lp2980
S'HTTP_CACHE_CONTROL'
p2981
asbag56
(g77
g58
NtRp2982
(dp2983
g61
(dp2984
g88
g89
ssg70
g2973
sg63
(lp2985
S':'
asbag56
(g77
g58
NtRp2986
(dp2987
g61
(dp2988
sg70
g2973
sg63
(lp2989
g56
(g57
g58
NtRp2990
(dp2991
g61
(dp2992
g69
I3
ssg70
g2986
sg63
(lp2993
g1483
asbasbasbag56
(g72
g58
NtRp2994
(dp2995
g61
(dp2996
sg70
g2864
sg63
(lp2997
g56
(g77
g58
NtRp2998
(dp2999
g61
(dp3000
g81
g82
ssg70
g2994
sg63
(lp3001
S'HTTP_CONNECTION'
p3002
asbag56
(g77
g58
NtRp3003
(dp3004
g61
(dp3005
g88
g89
ssg70
g2994
sg63
(lp3006
S':'
asbag56
(g77
g58
NtRp3007
(dp3008
g61
(dp3009
sg70
g2994
sg63
(lp3010
g56
(g57
g58
NtRp3011
(dp3012
g61
(dp3013
g69
I3
ssg70
g3007
sg63
(lp3014
g1505
asbasbasbag56
(g72
g58
NtRp3015
(dp3016
g61
(dp3017
sg70
g2864
sg63
(lp3018
g56
(g77
g58
NtRp3019
(dp3020
g61
(dp3021
g81
g82
ssg70
g3015
sg63
(lp3022
S'HTTP_CONTENT_TYPE'
p3023
asbag56
(g77
g58
NtRp3024
(dp3025
g61
(dp3026
g88
g89
ssg70
g3015
sg63
(lp3027
S':'
asbag56
(g77
g58
NtRp3028
(dp3029
g61
(dp3030
sg70
g3015
sg63
(lp3031
g56
(g57
g58
NtRp3032
(dp3033
g61
(dp3034
g69
I3
ssg70
g3028
sg63
(lp3035
g1307
asbasbasbag56
(g72
g58
NtRp3036
(dp3037
g61
(dp3038
sg70
g2864
sg63
(lp3039
g56
(g77
g58
NtRp3040
(dp3041
g61
(dp3042
g81
g82
ssg70
g3036
sg63
(lp3043
S'HTTP_COOKIE'
p3044
asbag56
(g77
g58
NtRp3045
(dp3046
g61
(dp3047
g88
g89
ssg70
g3036
sg63
(lp3048
S':'
asbag56
(g77
g58
NtRp3049
(dp3050
g61
(dp3051
sg70
g3036
sg63
(lp3052
g56
(g57
g58
NtRp3053
(dp3054
g61
(dp3055
g69
I3
ssg70
g3049
sg63
(lp3056
g1548
asbasbasbag56
(g72
g58
NtRp3057
(dp3058
g61
(dp3059
sg70
g2864
sg63
(lp3060
g56
(g77
g58
NtRp3061
(dp3062
g61
(dp3063
g81
g82
ssg70
g3057
sg63
(lp3064
S'HTTP_HOST'
p3065
asbag56
(g77
g58
NtRp3066
(dp3067
g61
(dp3068
g88
g89
ssg70
g3057
sg63
(lp3069
S':'
asbag56
(g77
g58
NtRp3070
(dp3071
g61
(dp3072
sg70
g3057
sg63
(lp3073
g56
(g57
g58
NtRp3074
(dp3075
g61
(dp3076
g69
I3
ssg70
g3070
sg63
(lp3077
g1570
asbasbasbag56
(g72
g58
NtRp3078
(dp3079
g61
(dp3080
sg70
g2864
sg63
(lp3081
g56
(g77
g58
NtRp3082
(dp3083
g61
(dp3084
g81
g82
ssg70
g3078
sg63
(lp3085
S'HTTP_PRAGMA'
p3086
asbag56
(g77
g58
NtRp3087
(dp3088
g61
(dp3089
g88
g89
ssg70
g3078
sg63
(lp3090
S':'
asbag56
(g77
g58
NtRp3091
(dp3092
g61
(dp3093
sg70
g3078
sg63
(lp3094
g56
(g57
g58
NtRp3095
(dp3096
g61
(dp3097
g69
I3
ssg70
g3091
sg63
(lp3098
g1592
asbasbasbag56
(g72
g58
NtRp3099
(dp3100
g61
(dp3101
sg70
g2864
sg63
(lp3102
g56
(g77
g58
NtRp3103
(dp3104
g61
(dp3105
g81
g82
ssg70
g3099
sg63
(lp3106
S'HTTP_REFERER'
p3107
asbag56
(g77
g58
NtRp3108
(dp3109
g61
(dp3110
g88
g89
ssg70
g3099
sg63
(lp3111
S':'
asbag56
(g77
g58
NtRp3112
(dp3113
g61
(dp3114
sg70
g3099
sg63
(lp3115
g56
(g57
g58
NtRp3116
(dp3117
g61
(dp3118
g69
I3
ssg70
g3112
sg63
(lp3119
g1614
asbasbasbag56
(g72
g58
NtRp3120
(dp3121
g61
(dp3122
sg70
g2864
sg63
(lp3123
g56
(g77
g58
NtRp3124
(dp3125
g61
(dp3126
g81
g82
ssg70
g3120
sg63
(lp3127
S'HTTP_USER_AGENT'
p3128
asbag56
(g77
g58
NtRp3129
(dp3130
g61
(dp3131
g88
g89
ssg70
g3120
sg63
(lp3132
S':'
asbag56
(g77
g58
NtRp3133
(dp3134
g61
(dp3135
sg70
g3120
sg63
(lp3136
g56
(g57
g58
NtRp3137
(dp3138
g61
(dp3139
g69
I3
ssg70
g3133
sg63
(lp3140
g1636
asbasbasbag56
(g72
g58
NtRp3141
(dp3142
g61
(dp3143
sg70
g2864
sg63
(lp3144
g56
(g77
g58
NtRp3145
(dp3146
g61
(dp3147
g81
g82
ssg70
g3141
sg63
(lp3148
S'HTTP_X_REQUESTED_WITH'
p3149
asbag56
(g77
g58
NtRp3150
(dp3151
g61
(dp3152
g88
g89
ssg70
g3141
sg63
(lp3153
S':'
asbag56
(g77
g58
NtRp3154
(dp3155
g61
(dp3156
sg70
g3141
sg63
(lp3157
g56
(g57
g58
NtRp3158
(dp3159
g61
(dp3160
g69
I3
ssg70
g3154
sg63
(lp3161
g1658
asbasbasbag56
(g72
g58
NtRp3162
(dp3163
g61
(dp3164
sg70
g2864
sg63
(lp3165
g56
(g77
g58
NtRp3166
(dp3167
g61
(dp3168
g81
g82
ssg70
g3162
sg63
(lp3169
S'PATH_INFO'
p3170
asbag56
(g77
g58
NtRp3171
(dp3172
g61
(dp3173
g88
g89
ssg70
g3162
sg63
(lp3174
S':'
asbag56
(g77
g58
NtRp3175
(dp3176
g61
(dp3177
sg70
g3162
sg63
(lp3178
g56
(g57
g58
NtRp3179
(dp3180
g61
(dp3181
g69
I3
ssg70
g3175
sg63
(lp3182
g1701
asbasbasbag56
(g72
g58
NtRp3183
(dp3184
g61
(dp3185
sg70
g2864
sg63
(lp3186
g56
(g77
g58
NtRp3187
(dp3188
g61
(dp3189
g81
g82
ssg70
g3183
sg63
(lp3190
S'QUERY_STRING'
p3191
asbag56
(g77
g58
NtRp3192
(dp3193
g61
(dp3194
g88
g89
ssg70
g3183
sg63
(lp3195
S':'
asbag56
(g77
g58
NtRp3196
(dp3197
g61
(dp3198
sg70
g3183
sg63
(lp3199
g56
(g57
g58
NtRp3200
(dp3201
g61
(dp3202
g69
I3
ssg70
g3196
sg63
(lp3203
S''
asbasbasbag56
(g72
g58
NtRp3204
(dp3205
g61
(dp3206
sg70
g2864
sg63
(lp3207
g56
(g77
g58
NtRp3208
(dp3209
g61
(dp3210
g81
g82
ssg70
g3204
sg63
(lp3211
S'REMOTE_ADDR'
p3212
asbag56
(g77
g58
NtRp3213
(dp3214
g61
(dp3215
g88
g89
ssg70
g3204
sg63
(lp3216
S':'
asbag56
(g77
g58
NtRp3217
(dp3218
g61
(dp3219
sg70
g3204
sg63
(lp3220
g56
(g57
g58
NtRp3221
(dp3222
g61
(dp3223
g69
I3
ssg70
g3217
sg63
(lp3224
g189
asbasbasbag56
(g72
g58
NtRp3225
(dp3226
g61
(dp3227
sg70
g2864
sg63
(lp3228
g56
(g77
g58
NtRp3229
(dp3230
g61
(dp3231
g81
g82
ssg70
g3225
sg63
(lp3232
S'REMOTE_PORT'
p3233
asbag56
(g77
g58
NtRp3234
(dp3235
g61
(dp3236
g88
g89
ssg70
g3225
sg63
(lp3237
S':'
asbag56
(g77
g58
NtRp3238
(dp3239
g61
(dp3240
sg70
g3225
sg63
(lp3241
g56
(g57
g58
NtRp3242
(dp3243
g61
(dp3244
g69
I3
ssg70
g3238
sg63
(lp3245
g1765
asbasbasbag56
(g72
g58
NtRp3246
(dp3247
g61
(dp3248
sg70
g2864
sg63
(lp3249
g56
(g77
g58
NtRp3250
(dp3251
g61
(dp3252
g81
g82
ssg70
g3246
sg63
(lp3253
S'REQUEST_METHOD'
p3254
asbag56
(g77
g58
NtRp3255
(dp3256
g61
(dp3257
g88
g89
ssg70
g3246
sg63
(lp3258
S':'
asbag56
(g77
g58
NtRp3259
(dp3260
g61
(dp3261
sg70
g3246
sg63
(lp3262
g56
(g57
g58
NtRp3263
(dp3264
g61
(dp3265
g69
I3
ssg70
g3259
sg63
(lp3266
g1787
asbasbasbag56
(g72
g58
NtRp3267
(dp3268
g61
(dp3269
sg70
g2864
sg63
(lp3270
g56
(g77
g58
NtRp3271
(dp3272
g61
(dp3273
g81
g82
ssg70
g3267
sg63
(lp3274
S'SCRIPT_NAME'
p3275
asbag56
(g77
g58
NtRp3276
(dp3277
g61
(dp3278
g88
g89
ssg70
g3267
sg63
(lp3279
S':'
asbag56
(g77
g58
NtRp3280
(dp3281
g61
(dp3282
sg70
g3267
sg63
(lp3283
g56
(g57
g58
NtRp3284
(dp3285
g61
(dp3286
g69
I3
ssg70
g3280
sg63
(lp3287
S''
asbasbasbag56
(g72
g58
NtRp3288
(dp3289
g61
(dp3290
sg70
g2864
sg63
(lp3291
g56
(g77
g58
NtRp3292
(dp3293
g61
(dp3294
g81
g82
ssg70
g3288
sg63
(lp3295
S'SERVER_NAME'
p3296
asbag56
(g77
g58
NtRp3297
(dp3298
g61
(dp3299
g88
g89
ssg70
g3288
sg63
(lp3300
S':'
asbag56
(g77
g58
NtRp3301
(dp3302
g61
(dp3303
sg70
g3288
sg63
(lp3304
g56
(g57
g58
NtRp3305
(dp3306
g61
(dp3307
g69
I3
ssg70
g3301
sg63
(lp3308
g1830
asbasbasbag56
(g72
g58
NtRp3309
(dp3310
g61
(dp3311
sg70
g2864
sg63
(lp3312
g56
(g77
g58
NtRp3313
(dp3314
g61
(dp3315
g81
g82
ssg70
g3309
sg63
(lp3316
S'SERVER_PORT'
p3317
asbag56
(g77
g58
NtRp3318
(dp3319
g61
(dp3320
g88
g89
ssg70
g3309
sg63
(lp3321
S':'
asbag56
(g77
g58
NtRp3322
(dp3323
g61
(dp3324
sg70
g3309
sg63
(lp3325
g56
(g57
g58
NtRp3326
(dp3327
g61
(dp3328
g69
I3
ssg70
g3322
sg63
(lp3329
g1852
asbasbasbag56
(g72
g58
NtRp3330
(dp3331
g61
(dp3332
sg70
g2864
sg63
(lp3333
g56
(g77
g58
NtRp3334
(dp3335
g61
(dp3336
g81
g82
ssg70
g3330
sg63
(lp3337
S'SERVER_PROTOCOL'
p3338
asbag56
(g77
g58
NtRp3339
(dp3340
g61
(dp3341
g88
g89
ssg70
g3330
sg63
(lp3342
S':'
asbag56
(g77
g58
NtRp3343
(dp3344
g61
(dp3345
sg70
g3330
sg63
(lp3346
g56
(g57
g58
NtRp3347
(dp3348
g61
(dp3349
g69
I3
ssg70
g3343
sg63
(lp3350
g1874
asbasbasbag56
(g72
g58
NtRp3351
(dp3352
g61
(dp3353
sg70
g2864
sg63
(lp3354
g56
(g77
g58
NtRp3355
(dp3356
g61
(dp3357
g81
g82
ssg70
g3351
sg63
(lp3358
S'SERVER_SOFTWARE'
p3359
asbag56
(g77
g58
NtRp3360
(dp3361
g61
(dp3362
g88
g89
ssg70
g3351
sg63
(lp3363
S':'
asbag56
(g77
g58
NtRp3364
(dp3365
g61
(dp3366
sg70
g3351
sg63
(lp3367
g56
(g57
g58
NtRp3368
(dp3369
g61
(dp3370
g69
I3
ssg70
g3364
sg63
(lp3371
g1896
asbasbasbag56
(g72
g58
NtRp3372
(dp3373
g61
(dp3374
sg70
g2864
sg63
(lp3375
g56
(g77
g58
NtRp3376
(dp3377
g61
(dp3378
g81
g82
ssg70
g3372
sg63
(lp3379
S'wsgi.errors'
p3380
asbag56
(g77
g58
NtRp3381
(dp3382
g61
(dp3383
g88
g89
ssg70
g3372
sg63
(lp3384
S':'
asbag56
(g77
g58
NtRp3385
(dp3386
g61
(dp3387
sg70
g3372
sg63
(lp3388
g56
(g57
g58
NtRp3389
(dp3390
g61
(dp3391
g69
I3
ssg70
g3385
sg63
(lp3392
S"<open file '<stderr>', mode 'w' at 0xb74340d0>"
p3393
asbasbasbag56
(g72
g58
NtRp3394
(dp3395
g61
(dp3396
sg70
g2864
sg63
(lp3397
g56
(g77
g58
NtRp3398
(dp3399
g61
(dp3400
g81
g82
ssg70
g3394
sg63
(lp3401
S'wsgi.file_wrapper'
p3402
asbag56
(g77
g58
NtRp3403
(dp3404
g61
(dp3405
g88
g89
ssg70
g3394
sg63
(lp3406
S':'
asbag56
(g77
g58
NtRp3407
(dp3408
g61
(dp3409
sg70
g3394
sg63
(lp3410
g56
(g57
g58
NtRp3411
(dp3412
g61
(dp3413
g69
I3
ssg70
g3407
sg63
(lp3414
S'<class wsgiref.util.FileWrapper at 0xa57350c>'
p3415
asbasbasbag56
(g72
g58
NtRp3416
(dp3417
g61
(dp3418
sg70
g2864
sg63
(lp3419
g56
(g77
g58
NtRp3420
(dp3421
g61
(dp3422
g81
g82
ssg70
g3416
sg63
(lp3423
S'wsgi.input'
p3424
asbag56
(g77
g58
NtRp3425
(dp3426
g61
(dp3427
g88
g89
ssg70
g3416
sg63
(lp3428
S':'
asbag56
(g77
g58
NtRp3429
(dp3430
g61
(dp3431
sg70
g3416
sg63
(lp3432
g56
(g57
g58
NtRp3433
(dp3434
g61
(dp3435
g69
I3
ssg70
g3429
sg63
(lp3436
S'<cStringIO.StringO object at 0xae2bf9a0>'
p3437
asbasbasbag56
(g72
g58
NtRp3438
(dp3439
g61
(dp3440
sg70
g2864
sg63
(lp3441
g56
(g77
g58
NtRp3442
(dp3443
g61
(dp3444
g81
g82
ssg70
g3438
sg63
(lp3445
S'wsgi.multiprocess'
p3446
asbag56
(g77
g58
NtRp3447
(dp3448
g61
(dp3449
g88
g89
ssg70
g3438
sg63
(lp3450
S':'
asbag56
(g77
g58
NtRp3451
(dp3452
g61
(dp3453
sg70
g3438
sg63
(lp3454
g56
(g57
g58
NtRp3455
(dp3456
g61
(dp3457
g69
I3
ssg70
g3451
sg63
(lp3458
g1351
asbasbasbag56
(g72
g58
NtRp3459
(dp3460
g61
(dp3461
sg70
g2864
sg63
(lp3462
g56
(g77
g58
NtRp3463
(dp3464
g61
(dp3465
g81
g82
ssg70
g3459
sg63
(lp3466
S'wsgi.multithread'
p3467
asbag56
(g77
g58
NtRp3468
(dp3469
g61
(dp3470
g88
g89
ssg70
g3459
sg63
(lp3471
S':'
asbag56
(g77
g58
NtRp3472
(dp3473
g61
(dp3474
sg70
g3459
sg63
(lp3475
g56
(g57
g58
NtRp3476
(dp3477
g61
(dp3478
g69
I3
ssg70
g3472
sg63
(lp3479
g99
asbasbasbag56
(g72
g58
NtRp3480
(dp3481
g61
(dp3482
sg70
g2864
sg63
(lp3483
g56
(g77
g58
NtRp3484
(dp3485
g61
(dp3486
g81
g82
ssg70
g3480
sg63
(lp3487
S'wsgi.run_once'
p3488
asbag56
(g77
g58
NtRp3489
(dp3490
g61
(dp3491
g88
g89
ssg70
g3480
sg63
(lp3492
S':'
asbag56
(g77
g58
NtRp3493
(dp3494
g61
(dp3495
sg70
g3480
sg63
(lp3496
g56
(g57
g58
NtRp3497
(dp3498
g61
(dp3499
g69
I3
ssg70
g3493
sg63
(lp3500
g1351
asbasbasbag56
(g72
g58
NtRp3501
(dp3502
g61
(dp3503
sg70
g2864
sg63
(lp3504
g56
(g77
g58
NtRp3505
(dp3506
g61
(dp3507
g81
g82
ssg70
g3501
sg63
(lp3508
S'wsgi.url_scheme'
p3509
asbag56
(g77
g58
NtRp3510
(dp3511
g61
(dp3512
g88
g89
ssg70
g3501
sg63
(lp3513
S':'
asbag56
(g77
g58
NtRp3514
(dp3515
g61
(dp3516
sg70
g3501
sg63
(lp3517
g56
(g57
g58
NtRp3518
(dp3519
g61
(dp3520
g69
I3
ssg70
g3514
sg63
(lp3521
g2178
asbasbasbag56
(g72
g58
NtRp3522
(dp3523
g61
(dp3524
sg70
g2864
sg63
(lp3525
g56
(g77
g58
NtRp3526
(dp3527
g61
(dp3528
g81
g82
ssg70
g3522
sg63
(lp3529
S'wsgi.version'
p3530
asbag56
(g77
g58
NtRp3531
(dp3532
g61
(dp3533
g88
g89
ssg70
g3522
sg63
(lp3534
S':'
asbag56
(g77
g58
NtRp3535
(dp3536
g61
(dp3537
sg70
g3522
sg63
(lp3538
g56
(g57
g58
NtRp3539
(dp3540
g61
(dp3541
g69
I3
ssg70
g3535
sg63
(lp3542
S'1'
asbasbasbasbasbasbasbasbasbasbasbasbasbsS'frames'
p3543
(lp3544
(dp3545
S'file'
p3546
S'/home/brencam/web2py/gluon/restricted.py'
p3547
sS'dump'
p3548
(dp3549
S'environment'
p3550
S"{'A': <class 'gluon.html.A'>, 'Auth': <class 'gluon.tools.Auth'>, 'B': <class 'gluon.html.B'>, 'BEAUTIFY': <class 'gluon.html.BEAUTIFY'>, 'BODY': <class 'gluon.html.BODY'>, 'BR': <class 'gluon.html.BR'>, 'BUTTON': <class 'gluon.html.BUTTON'>, 'CAT': <class 'gluon.html.CAT'>, 'CENTER': <class 'gluon.html.CENTER'>, 'CLEANUP': <class 'gluon.validators.CLEANUP'>, ...}"
p3551
sS'ccode'
p3552
S'<code object <module> at 0xb4999d58, file "/home...lications/gallery/controllers/search.py", line 2>'
p3553
ssS'lnum'
p3554
I194
sS'lines'
p3555
(dp3556
I192
S'        else:'
p3557
sI193
S'            ccode = compile2(code,layer)'
p3558
sI194
S'        exec ccode in environment'
p3559
sI195
S'    except HTTP:'
p3560
sI196
S'        raise'
p3561
sI197
S'    except Exception, error:'
p3562
sI198
S'        # XXX Show exception in Wing IDE if running in debugger'
p3563
sI189
S'    try:'
p3564
sI190
S'        if type(code) == types.CodeType:'
p3565
sI191
S'            ccode = code'
p3566
ssS'call'
p3567
S"(code='# Search Controller\\nimport datetime\\n\\ndef getname...)\\n\\n\\n\\nresponse._vars=response._caller(xmlgettags)\\n', environment={'A': <class 'gluon.html.A'>, 'Auth': <class 'gluon.tools.Auth'>, 'B': <class 'gluon.html.B'>, 'BEAUTIFY': <class 'gluon.html.BEAUTIFY'>, 'BODY': <class 'gluon.html.BODY'>, 'BR': <class 'gluon.html.BR'>, 'BUTTON': <class 'gluon.html.BUTTON'>, 'CAT': <class 'gluon.html.CAT'>, 'CENTER': <class 'gluon.html.CENTER'>, 'CLEANUP': <class 'gluon.validators.CLEANUP'>, ...}, layer='/home/brencam/web2py/applications/gallery/controllers/search.py')"
p3568
sS'func'
p3569
S'restricted'
p3570
sa(dp3571
g3546
S'/home/brencam/web2py/applications/gallery/controllers/search.py'
p3572
sg3548
(dp3573
sg3554
I158
sg3555
(dp3574
I147
S''
sI148
S'    # Can I do a redirect from ajax request with the search results ??'
p3575
sI149
S"    #redirect (URL('default', 'showcss'))"
p3576
sI150
S''
sI151
S'    # Note the URL Syntax here to create a link to a different controller (the default)'
p3577
sI152
S'    # How to show thumbnails for selected images here as well ??'
p3578
sI153
S"#    return XML(UL(*[LI(A('%s ' % (img.title),_href=URL('default','show',args=img.id)))\\"
p3579
sI154
S'#                    for img in images]))'
p3580
sI155
S''
sI156
S''
ssg3567
S'()'
p3581
sg3569
S'<module>'
p3582
sa(dp3583
g3546
S'/home/brencam/web2py/gluon/globals.py'
p3584
sg3548
(dp3585
S'self'
p3586
S'undefined'
p3587
sS'f'
S'<function xmlgettags>'
p3588
ssg3554
I149
sg3555
(dp3589
I144
S'        self.meta = Storage()      # used by web2py_ajax.html'
p3590
sI145
S'        self.menu = []             # used by the default view layout'
p3591
sI146
S'        self.files = []            # used by web2py_ajax.html'
p3592
sI147
S'        self.generic_patterns = [] # patterns to allow generic views'
p3593
sI148
S'        self._vars = None'
p3594
sI149
S'        self._caller = lambda f: f()'
p3595
sI150
S'        self._view_environment = None'
p3596
sI151
S'        self._custom_commit = None'
p3597
sI152
S'        self._custom_rollback = None'
p3598
sI153
S''
ssg3567
S'(f=<function xmlgettags>)'
p3599
sg3569
S'<lambda>'
p3600
sa(dp3601
g3546
S'/home/brencam/web2py/applications/gallery/controllers/search.py'
p3602
sg3548
(dp3603
S'sj'
p3604
S"<module 'gluon.contrib.simplejson' from '/home/brencam/web2py/gluon/contrib/simplejson/__init__.py'>"
p3605
sS'sj.dumps'
p3606
S'<function dumps>'
p3607
sS'tags'
p3608
S'<gluon.dal.Rows object>'
p3609
ssg3554
I43
sg3555
(dp3610
I38
S'    import gluon.contrib.simplejson as sj'
p3611
sI39
S'    # get list of tagnames from tag table'
p3612
sI40
S'    # return in json format'
p3613
sI41
S'    tags  = db().select(db.tag.id, db.tag.name)'
p3614
sI42
S'    #return XML(tags)'
p3615
sI43
S'    return sj.dumps(tags)'
p3616
sI44
S''
sI45
S''
sI46
S''
sI47
S'def getnames_v2():'
p3617
ssg3567
S'()'
p3618
sg3569
S'xmlgettags'
p3619
sa(dp3620
g3546
S'/home/brencam/web2py/gluon/contrib/simplejson/__init__.py'
p3621
sg3548
(dp3622
S'_default_encoder.encode'
p3623
S'<bound method JSONEncoder.encode of <gluon.contrib.simplejson.encoder.JSONEncoder object>>'
p3624
sS'global _default_encoder'
p3625
S'<gluon.contrib.simplejson.encoder.JSONEncoder object>'
p3626
sS'obj'
p3627
S'<gluon.dal.Rows object>'
p3628
ssg3554
I263
sg3555
(dp3629
I258
S'    if (not skipkeys and ensure_ascii and'
p3630
sI259
S'        check_circular and allow_nan and'
p3631
sI260
S'        cls is None and indent is None and separators is None and'
p3632
sI261
S"        encoding == 'utf-8' and default is None and not use_decimal"
p3633
sI262
S'        and not kw):'
p3634
sI263
S'        return _default_encoder.encode(obj)'
p3635
sI264
S'    if cls is None:'
p3636
sI265
S'        cls = JSONEncoder'
p3637
sI266
S'    return cls('
p3638
sI267
S'        skipkeys=skipkeys, ensure_ascii=ensure_ascii,'
p3639
ssg3567
S"(obj=<gluon.dal.Rows object>, skipkeys=False, ensure_ascii=True, check_circular=True, allow_nan=True, cls=None, indent=None, separators=None, encoding='utf-8', default=None, use_decimal=False, **kw={})"
p3640
sg3569
S'dumps'
p3641
sa(dp3642
g3546
S'/home/brencam/web2py/gluon/contrib/simplejson/encoder.py'
p3643
sg3548
(dp3644
S'chunks'
p3645
S'<generator object _iterencode>'
p3646
sS'builtinlist'
p3647
S"<type 'list'>"
p3648
ssg3554
I217
sg3555
(dp3649
I212
S"        # This doesn't pass the iterator directly to ''.join() because the"
p3650
sI213
S"        # exceptions aren't as detailed.  The list call should be roughly"
p3651
sI214
S"        # equivalent to the PySequence_Fast that ''.join() would do."
p3652
sI215
S'        chunks = self.iterencode(o, _one_shot=True)'
p3653
sI216
S'        if not isinstance(chunks, (list, tuple)):'
p3654
sI217
S'            chunks = list(chunks)'
p3655
sI218
S'        if self.ensure_ascii:'
p3656
sI219
S"            return ''.join(chunks)"
p3657
sI220
S'        else:'
p3658
sI221
S"            return u''.join(chunks)"
p3659
ssg3567
S'(self=<gluon.contrib.simplejson.encoder.JSONEncoder object>, o=<gluon.dal.Rows object>)'
p3660
sg3569
S'encode'
p3661
sa(dp3662
g3546
S'/home/brencam/web2py/gluon/contrib/simplejson/encoder.py'
p3663
sg3548
(dp3664
S'_default'
p3665
S'<bound method JSONEncoder.default of <gluon.contrib.simplejson.encoder.JSONEncoder object>>'
p3666
sS'o'
S'<gluon.dal.Rows object>'
p3667
ssg3554
I496
sg3555
(dp3668
I491
S'            if markers is not None:'
p3669
sI492
S'                markerid = id(o)'
p3670
sI493
S'                if markerid in markers:'
p3671
sI494
S'                    raise ValueError("Circular reference detected")'
p3672
sI495
S'                markers[markerid] = o'
p3673
sI496
S'            o = _default(o)'
p3674
sI497
S'            for chunk in _iterencode(o, _current_indent_level):'
p3675
sI498
S'                yield chunk'
p3676
sI499
S'            if markers is not None:'
p3677
sI500
S'                del markers[markerid]'
p3678
ssg3567
S'(o=<gluon.dal.Rows object>, _current_indent_level=0)'
p3679
sg3569
S'_iterencode'
p3680
sa(dp3681
g3546
S'/home/brencam/web2py/gluon/contrib/simplejson/encoder.py'
p3682
sg3548
(dp3683
S'builtinrepr'
p3684
S'<built-in function repr>'
p3685
sS'builtinTypeError'
p3686
S"<type 'exceptions.TypeError'>"
p3687
sS'o'
S'<gluon.dal.Rows object>'
p3688
ssg3554
I191
sg3555
(dp3689
I192
S''
sI193
S'    def encode(self, o):'
p3690
sI194
S'        """Return a JSON string representation of a Python data structure.'
p3691
sI195
S''
sI186
S'                else:'
p3692
sI187
S'                    return list(iterable)'
p3693
sI188
S'                return JSONEncoder.default(self, o)'
p3694
sI189
S''
sI190
S'        """'
p3695
sI191
S'        raise TypeError(repr(o) + " is not JSON serializable")'
p3696
ssg3567
S'(self=<gluon.contrib.simplejson.encoder.JSONEncoder object>, o=<gluon.dal.Rows object>)'
p3697
sg3569
S'default'
p3698
sasS'pyver'
p3699
S'Python 2.6.6: /usr/bin/python'
p3700
sS'session'
p3701
g56
(g57
g58
NtRp3702
(dp3703
g61
(dp3704
sg63
(lp3705
g56
(g65
g58
NtRp3706
(dp3707
g61
(dp3708
g69
I5
ssg70
Nsg63
(lp3709
sbasbsS'etype'
p3710
S"<type 'exceptions.TypeError'>"
p3711
sS'date'
p3712
S'Sat Nov  5 11:53:20 2011'
p3713
sS'response'
p3714
g56
(g57
g58
NtRp3715
(dp3716
g61
(dp3717
sg63
(lp3718
g56
(g65
g58
NtRp3719
(dp3720
g61
(dp3721
g69
I5
ssg70
Nsg63
(lp3722
g56
(g72
g58
NtRp3723
(dp3724
g61
(dp3725
sg70
g3719
sg63
(lp3726
g56
(g77
g58
NtRp3727
(dp3728
g61
(dp3729
g81
g82
ssg70
g3723
sg63
(lp3730
g154
asbag56
(g77
g58
NtRp3731
(dp3732
g61
(dp3733
g88
g89
ssg70
g3723
sg63
(lp3734
S':'
asbag56
(g77
g58
NtRp3735
(dp3736
g61
(dp3737
sg70
g3723
sg63
(lp3738
g56
(g57
g58
NtRp3739
(dp3740
g61
(dp3741
g69
I5
ssg70
g3735
sg63
(lp3742
S'<cStringIO.StringO object at 0xae237880>'
p3743
asbasbasbag56
(g72
g58
NtRp3744
(dp3745
g61
(dp3746
sg70
g3719
sg63
(lp3747
g56
(g77
g58
NtRp3748
(dp3749
g61
(dp3750
g81
g82
ssg70
g3744
sg63
(lp3751
g220
asbag56
(g77
g58
NtRp3752
(dp3753
g61
(dp3754
g88
g89
ssg70
g3744
sg63
(lp3755
S':'
asbag56
(g77
g58
NtRp3756
(dp3757
g61
(dp3758
sg70
g3744
sg63
(lp3759
g56
(g57
g58
NtRp3760
(dp3761
g61
(dp3762
g69
I5
ssg70
g3756
sg63
(lp3763
g56
(g65
g58
NtRp3764
(dp3765
g61
(dp3766
g69
I4
ssg70
Nsg63
(lp3767
g56
(g72
g58
NtRp3768
(dp3769
g61
(dp3770
sg70
g3764
sg63
(lp3771
g56
(g77
g58
NtRp3772
(dp3773
g61
(dp3774
g81
g82
ssg70
g3768
sg63
(lp3775
S'session_id_gallery'
p3776
asbag56
(g77
g58
NtRp3777
(dp3778
g61
(dp3779
g88
g89
ssg70
g3768
sg63
(lp3780
S':'
asbag56
(g77
g58
NtRp3781
(dp3782
g61
(dp3783
sg70
g3768
sg63
(lp3784
g56
(g57
g58
NtRp3785
(dp3786
g61
(dp3787
g69
I4
ssg70
g3781
sg63
(lp3788
g56
(g65
g58
NtRp3789
(dp3790
g61
(dp3791
g69
I3
ssg70
Nsg63
(lp3792
g56
(g72
g58
NtRp3793
(dp3794
g61
(dp3795
sg70
g3789
sg63
(lp3796
g56
(g77
g58
NtRp3797
(dp3798
g61
(dp3799
g81
g82
ssg70
g3793
sg63
(lp3800
g270
asbag56
(g77
g58
NtRp3801
(dp3802
g61
(dp3803
g88
g89
ssg70
g3793
sg63
(lp3804
S':'
asbag56
(g77
g58
NtRp3805
(dp3806
g61
(dp3807
sg70
g3793
sg63
(lp3808
g56
(g57
g58
NtRp3809
(dp3810
g61
(dp3811
g69
I3
ssg70
g3805
sg63
(lp3812
S''
asbasbasbag56
(g72
g58
NtRp3813
(dp3814
g61
(dp3815
sg70
g3789
sg63
(lp3816
g56
(g77
g58
NtRp3817
(dp3818
g61
(dp3819
g81
g82
ssg70
g3813
sg63
(lp3820
g291
asbag56
(g77
g58
NtRp3821
(dp3822
g61
(dp3823
g88
g89
ssg70
g3813
sg63
(lp3824
S':'
asbag56
(g77
g58
NtRp3825
(dp3826
g61
(dp3827
sg70
g3813
sg63
(lp3828
g56
(g57
g58
NtRp3829
(dp3830
g61
(dp3831
g69
I3
ssg70
g3825
sg63
(lp3832
S''
asbasbasbag56
(g72
g58
NtRp3833
(dp3834
g61
(dp3835
sg70
g3789
sg63
(lp3836
g56
(g77
g58
NtRp3837
(dp3838
g61
(dp3839
g81
g82
ssg70
g3833
sg63
(lp3840
g312
asbag56
(g77
g58
NtRp3841
(dp3842
g61
(dp3843
g88
g89
ssg70
g3833
sg63
(lp3844
S':'
asbag56
(g77
g58
NtRp3845
(dp3846
g61
(dp3847
sg70
g3833
sg63
(lp3848
g56
(g57
g58
NtRp3849
(dp3850
g61
(dp3851
g69
I3
ssg70
g3845
sg63
(lp3852
S''
asbasbasbag56
(g72
g58
NtRp3853
(dp3854
g61
(dp3855
sg70
g3789
sg63
(lp3856
g56
(g77
g58
NtRp3857
(dp3858
g61
(dp3859
g81
g82
ssg70
g3853
sg63
(lp3860
g333
asbag56
(g77
g58
NtRp3861
(dp3862
g61
(dp3863
g88
g89
ssg70
g3853
sg63
(lp3864
S':'
asbag56
(g77
g58
NtRp3865
(dp3866
g61
(dp3867
sg70
g3853
sg63
(lp3868
g56
(g57
g58
NtRp3869
(dp3870
g61
(dp3871
g69
I3
ssg70
g3865
sg63
(lp3872
S''
asbasbasbag56
(g72
g58
NtRp3873
(dp3874
g61
(dp3875
sg70
g3789
sg63
(lp3876
g56
(g77
g58
NtRp3877
(dp3878
g61
(dp3879
g81
g82
ssg70
g3873
sg63
(lp3880
g354
asbag56
(g77
g58
NtRp3881
(dp3882
g61
(dp3883
g88
g89
ssg70
g3873
sg63
(lp3884
S':'
asbag56
(g77
g58
NtRp3885
(dp3886
g61
(dp3887
sg70
g3873
sg63
(lp3888
g56
(g57
g58
NtRp3889
(dp3890
g61
(dp3891
g69
I3
ssg70
g3885
sg63
(lp3892
S''
asbasbasbag56
(g72
g58
NtRp3893
(dp3894
g61
(dp3895
sg70
g3789
sg63
(lp3896
g56
(g77
g58
NtRp3897
(dp3898
g61
(dp3899
g81
g82
ssg70
g3893
sg63
(lp3900
g375
asbag56
(g77
g58
NtRp3901
(dp3902
g61
(dp3903
g88
g89
ssg70
g3893
sg63
(lp3904
S':'
asbag56
(g77
g58
NtRp3905
(dp3906
g61
(dp3907
sg70
g3893
sg63
(lp3908
g56
(g57
g58
NtRp3909
(dp3910
g61
(dp3911
g69
I3
ssg70
g3905
sg63
(lp3912
S'/'
asbasbasbag56
(g72
g58
NtRp3913
(dp3914
g61
(dp3915
sg70
g3789
sg63
(lp3916
g56
(g77
g58
NtRp3917
(dp3918
g61
(dp3919
g81
g82
ssg70
g3913
sg63
(lp3920
g396
asbag56
(g77
g58
NtRp3921
(dp3922
g61
(dp3923
g88
g89
ssg70
g3913
sg63
(lp3924
S':'
asbag56
(g77
g58
NtRp3925
(dp3926
g61
(dp3927
sg70
g3913
sg63
(lp3928
g56
(g57
g58
NtRp3929
(dp3930
g61
(dp3931
g69
I3
ssg70
g3925
sg63
(lp3932
S''
asbasbasbag56
(g72
g58
NtRp3933
(dp3934
g61
(dp3935
sg70
g3789
sg63
(lp3936
g56
(g77
g58
NtRp3937
(dp3938
g61
(dp3939
g81
g82
ssg70
g3933
sg63
(lp3940
g417
asbag56
(g77
g58
NtRp3941
(dp3942
g61
(dp3943
g88
g89
ssg70
g3933
sg63
(lp3944
S':'
asbag56
(g77
g58
NtRp3945
(dp3946
g61
(dp3947
sg70
g3933
sg63
(lp3948
g56
(g57
g58
NtRp3949
(dp3950
g61
(dp3951
g69
I3
ssg70
g3945
sg63
(lp3952
S''
asbasbasbasbasbasbasbasbasbasbasbag56
(g72
g58
NtRp3953
(dp3954
g61
(dp3955
sg70
g3719
sg63
(lp3956
g56
(g77
g58
NtRp3957
(dp3958
g61
(dp3959
g81
g82
ssg70
g3953
sg63
(lp3960
S'files'
p3961
asbag56
(g77
g58
NtRp3962
(dp3963
g61
(dp3964
g88
g89
ssg70
g3953
sg63
(lp3965
S':'
asbag56
(g77
g58
NtRp3966
(dp3967
g61
(dp3968
sg70
g3953
sg63
(lp3969
g56
(g57
g58
NtRp3970
(dp3971
g61
(dp3972
g69
I5
ssg70
g3966
sg63
(lp3973
g56
(g65
g58
NtRp3974
(dp3975
g61
(dp3976
g69
I4
ssg70
Nsg63
(lp3977
sbasbasbasbag56
(g72
g58
NtRp3978
(dp3979
g61
(dp3980
sg70
g3719
sg63
(lp3981
g56
(g77
g58
NtRp3982
(dp3983
g61
(dp3984
g81
g82
ssg70
g3978
sg63
(lp3985
S'flash'
p3986
asbag56
(g77
g58
NtRp3987
(dp3988
g61
(dp3989
g88
g89
ssg70
g3978
sg63
(lp3990
S':'
asbag56
(g77
g58
NtRp3991
(dp3992
g61
(dp3993
sg70
g3978
sg63
(lp3994
g56
(g57
g58
NtRp3995
(dp3996
g61
(dp3997
g69
I5
ssg70
g3991
sg63
(lp3998
S''
asbasbasbag56
(g72
g58
NtRp3999
(dp4000
g61
(dp4001
sg70
g3719
sg63
(lp4002
g56
(g77
g58
NtRp4003
(dp4004
g61
(dp4005
g81
g82
ssg70
g3999
sg63
(lp4006
S'generic_patterns'
p4007
asbag56
(g77
g58
NtRp4008
(dp4009
g61
(dp4010
g88
g89
ssg70
g3999
sg63
(lp4011
S':'
asbag56
(g77
g58
NtRp4012
(dp4013
g61
(dp4014
sg70
g3999
sg63
(lp4015
g56
(g57
g58
NtRp4016
(dp4017
g61
(dp4018
g69
I5
ssg70
g4012
sg63
(lp4019
g56
(g65
g58
NtRp4020
(dp4021
g61
(dp4022
g69
I4
ssg70
Nsg63
(lp4023
g56
(g72
g58
NtRp4024
(dp4025
g61
(dp4026
sg70
g4020
sg63
(lp4027
g56
(g77
g58
NtRp4028
(dp4029
g61
(dp4030
sg70
g4024
sg63
(lp4031
g56
(g57
g58
NtRp4032
(dp4033
g61
(dp4034
g69
I4
ssg70
g4028
sg63
(lp4035
S'*'
asbasbasbasbasbasbasbag56
(g72
g58
NtRp4036
(dp4037
g61
(dp4038
sg70
g3719
sg63
(lp4039
g56
(g77
g58
NtRp4040
(dp4041
g61
(dp4042
g81
g82
ssg70
g4036
sg63
(lp4043
S'headers'
p4044
asbag56
(g77
g58
NtRp4045
(dp4046
g61
(dp4047
g88
g89
ssg70
g4036
sg63
(lp4048
S':'
asbag56
(g77
g58
NtRp4049
(dp4050
g61
(dp4051
sg70
g4036
sg63
(lp4052
g56
(g57
g58
NtRp4053
(dp4054
g61
(dp4055
g69
I5
ssg70
g4049
sg63
(lp4056
g56
(g65
g58
NtRp4057
(dp4058
g61
(dp4059
g69
I4
ssg70
Nsg63
(lp4060
g56
(g72
g58
NtRp4061
(dp4062
g61
(dp4063
sg70
g4057
sg63
(lp4064
g56
(g77
g58
NtRp4065
(dp4066
g61
(dp4067
g81
g82
ssg70
g4061
sg63
(lp4068
S'Cache-Control'
p4069
asbag56
(g77
g58
NtRp4070
(dp4071
g61
(dp4072
g88
g89
ssg70
g4061
sg63
(lp4073
S':'
asbag56
(g77
g58
NtRp4074
(dp4075
g61
(dp4076
sg70
g4061
sg63
(lp4077
g56
(g57
g58
NtRp4078
(dp4079
g61
(dp4080
g69
I4
ssg70
g4074
sg63
(lp4081
S'no-store, no-cache, must-revalidate, post-check=0, pre-check=0'
p4082
asbasbasbag56
(g72
g58
NtRp4083
(dp4084
g61
(dp4085
sg70
g4057
sg63
(lp4086
g56
(g77
g58
NtRp4087
(dp4088
g61
(dp4089
g81
g82
ssg70
g4083
sg63
(lp4090
S'Content-Type'
p4091
asbag56
(g77
g58
NtRp4092
(dp4093
g61
(dp4094
g88
g89
ssg70
g4083
sg63
(lp4095
S':'
asbag56
(g77
g58
NtRp4096
(dp4097
g61
(dp4098
sg70
g4083
sg63
(lp4099
g56
(g57
g58
NtRp4100
(dp4101
g61
(dp4102
g69
I4
ssg70
g4096
sg63
(lp4103
S'text/html; charset=utf-8'
p4104
asbasbasbag56
(g72
g58
NtRp4105
(dp4106
g61
(dp4107
sg70
g4057
sg63
(lp4108
g56
(g77
g58
NtRp4109
(dp4110
g61
(dp4111
g81
g82
ssg70
g4105
sg63
(lp4112
S'Expires'
p4113
asbag56
(g77
g58
NtRp4114
(dp4115
g61
(dp4116
g88
g89
ssg70
g4105
sg63
(lp4117
S':'
asbag56
(g77
g58
NtRp4118
(dp4119
g61
(dp4120
sg70
g4105
sg63
(lp4121
g56
(g57
g58
NtRp4122
(dp4123
g61
(dp4124
g69
I4
ssg70
g4118
sg63
(lp4125
S'Sat, 05 Nov 2011 18:53:20 GMT'
p4126
asbasbasbag56
(g72
g58
NtRp4127
(dp4128
g61
(dp4129
sg70
g4057
sg63
(lp4130
g56
(g77
g58
NtRp4131
(dp4132
g61
(dp4133
g81
g82
ssg70
g4127
sg63
(lp4134
S'Pragma'
p4135
asbag56
(g77
g58
NtRp4136
(dp4137
g61
(dp4138
g88
g89
ssg70
g4127
sg63
(lp4139
S':'
asbag56
(g77
g58
NtRp4140
(dp4141
g61
(dp4142
sg70
g4127
sg63
(lp4143
g56
(g57
g58
NtRp4144
(dp4145
g61
(dp4146
g69
I4
ssg70
g4140
sg63
(lp4147
S'no-cache'
p4148
asbasbasbag56
(g72
g58
NtRp4149
(dp4150
g61
(dp4151
sg70
g4057
sg63
(lp4152
g56
(g77
g58
NtRp4153
(dp4154
g61
(dp4155
g81
g82
ssg70
g4149
sg63
(lp4156
S'X-Powered-By'
p4157
asbag56
(g77
g58
NtRp4158
(dp4159
g61
(dp4160
g88
g89
ssg70
g4149
sg63
(lp4161
S':'
asbag56
(g77
g58
NtRp4162
(dp4163
g61
(dp4164
sg70
g4149
sg63
(lp4165
g56
(g57
g58
NtRp4166
(dp4167
g61
(dp4168
g69
I4
ssg70
g4162
sg63
(lp4169
S'web2py'
p4170
asbasbasbasbasbasbasbag56
(g72
g58
NtRp4171
(dp4172
g61
(dp4173
sg70
g3719
sg63
(lp4174
g56
(g77
g58
NtRp4175
(dp4176
g61
(dp4177
g81
g82
ssg70
g4171
sg63
(lp4178
S'menu'
p4179
asbag56
(g77
g58
NtRp4180
(dp4181
g61
(dp4182
g88
g89
ssg70
g4171
sg63
(lp4183
S':'
asbag56
(g77
g58
NtRp4184
(dp4185
g61
(dp4186
sg70
g4171
sg63
(lp4187
g56
(g57
g58
NtRp4188
(dp4189
g61
(dp4190
g69
I5
ssg70
g4184
sg63
(lp4191
g56
(g65
g58
NtRp4192
(dp4193
g61
(dp4194
g69
I4
ssg70
Nsg63
(lp4195
g56
(g72
g58
NtRp4196
(dp4197
g61
(dp4198
sg70
g4192
sg63
(lp4199
g56
(g77
g58
NtRp4200
(dp4201
g61
(dp4202
sg70
g4196
sg63
(lp4203
g56
(g57
g58
NtRp4204
(dp4205
g61
(dp4206
g69
I4
ssg70
g4200
sg63
(lp4207
g56
(g65
g58
NtRp4208
(dp4209
g61
(dp4210
g69
I3
ssg70
Nsg63
(lp4211
g56
(g72
g58
NtRp4212
(dp4213
g61
(dp4214
sg70
g4208
sg63
(lp4215
g56
(g77
g58
NtRp4216
(dp4217
g61
(dp4218
sg70
g4212
sg63
(lp4219
g56
(g57
g58
NtRp4220
(dp4221
g61
(dp4222
g69
I3
ssg70
g4216
sg63
(lp4223
cgluon.languages
lazyT_unpickle
p4224
(S's\x04\x00\x00\x00Home'
tRp4225
asbasbasbag56
(g72
g58
NtRp4226
(dp4227
g61
(dp4228
sg70
g4208
sg63
(lp4229
g56
(g77
g58
NtRp4230
(dp4231
g61
(dp4232
sg70
g4226
sg63
(lp4233
g56
(g57
g58
NtRp4234
(dp4235
g61
(dp4236
g69
I3
ssg70
g4230
sg63
(lp4237
g1351
asbasbasbag56
(g72
g58
NtRp4238
(dp4239
g61
(dp4240
sg70
g4208
sg63
(lp4241
g56
(g77
g58
NtRp4242
(dp4243
g61
(dp4244
sg70
g4238
sg63
(lp4245
g56
(g57
g58
NtRp4246
(dp4247
g61
(dp4248
g69
I3
ssg70
g4242
sg63
(lp4249
S'/gallery/default/index'
p4250
asbasbasbag56
(g72
g58
NtRp4251
(dp4252
g61
(dp4253
sg70
g4208
sg63
(lp4254
g56
(g77
g58
NtRp4255
(dp4256
g61
(dp4257
sg70
g4251
sg63
(lp4258
g56
(g57
g58
NtRp4259
(dp4260
g61
(dp4261
g69
I3
ssg70
g4255
sg63
(lp4262
g56
(g65
g58
NtRp4263
(dp4264
g61
(dp4265
g69
I2
ssg70
Nsg63
(lp4266
sbasbasbasbasbasbasbasbag56
(g72
g58
NtRp4267
(dp4268
g61
(dp4269
sg70
g4192
sg63
(lp4270
g56
(g77
g58
NtRp4271
(dp4272
g61
(dp4273
sg70
g4267
sg63
(lp4274
g56
(g57
g58
NtRp4275
(dp4276
g61
(dp4277
g69
I4
ssg70
g4271
sg63
(lp4278
g56
(g65
g58
NtRp4279
(dp4280
g61
(dp4281
g69
I3
ssg70
Nsg63
(lp4282
g56
(g72
g58
NtRp4283
(dp4284
g61
(dp4285
sg70
g4279
sg63
(lp4286
g56
(g77
g58
NtRp4287
(dp4288
g61
(dp4289
sg70
g4283
sg63
(lp4290
g56
(g57
g58
NtRp4291
(dp4292
g61
(dp4293
g69
I3
ssg70
g4287
sg63
(lp4294
g4224
(S's\r\x00\x00\x00Gallery - CSS'
tRp4295
asbasbasbag56
(g72
g58
NtRp4296
(dp4297
g61
(dp4298
sg70
g4279
sg63
(lp4299
g56
(g77
g58
NtRp4300
(dp4301
g61
(dp4302
sg70
g4296
sg63
(lp4303
g56
(g57
g58
NtRp4304
(dp4305
g61
(dp4306
g69
I3
ssg70
g4300
sg63
(lp4307
g1351
asbasbasbag56
(g72
g58
NtRp4308
(dp4309
g61
(dp4310
sg70
g4279
sg63
(lp4311
g56
(g77
g58
NtRp4312
(dp4313
g61
(dp4314
sg70
g4308
sg63
(lp4315
g56
(g57
g58
NtRp4316
(dp4317
g61
(dp4318
g69
I3
ssg70
g4312
sg63
(lp4319
S'/gallery/default/showcss'
p4320
asbasbasbag56
(g72
g58
NtRp4321
(dp4322
g61
(dp4323
sg70
g4279
sg63
(lp4324
g56
(g77
g58
NtRp4325
(dp4326
g61
(dp4327
sg70
g4321
sg63
(lp4328
g56
(g57
g58
NtRp4329
(dp4330
g61
(dp4331
g69
I3
ssg70
g4325
sg63
(lp4332
g56
(g65
g58
NtRp4333
(dp4334
g61
(dp4335
g69
I2
ssg70
Nsg63
(lp4336
sbasbasbasbasbasbasbasbag56
(g72
g58
NtRp4337
(dp4338
g61
(dp4339
sg70
g4192
sg63
(lp4340
g56
(g77
g58
NtRp4341
(dp4342
g61
(dp4343
sg70
g4337
sg63
(lp4344
g56
(g57
g58
NtRp4345
(dp4346
g61
(dp4347
g69
I4
ssg70
g4341
sg63
(lp4348
g56
(g65
g58
NtRp4349
(dp4350
g61
(dp4351
g69
I3
ssg70
Nsg63
(lp4352
g56
(g72
g58
NtRp4353
(dp4354
g61
(dp4355
sg70
g4349
sg63
(lp4356
g56
(g77
g58
NtRp4357
(dp4358
g61
(dp4359
sg70
g4353
sg63
(lp4360
g56
(g57
g58
NtRp4361
(dp4362
g61
(dp4363
g69
I3
ssg70
g4357
sg63
(lp4364
g4224
(S's\x10\x00\x00\x00Gallery - JQuery'
tRp4365
asbasbasbag56
(g72
g58
NtRp4366
(dp4367
g61
(dp4368
sg70
g4349
sg63
(lp4369
g56
(g77
g58
NtRp4370
(dp4371
g61
(dp4372
sg70
g4366
sg63
(lp4373
g56
(g57
g58
NtRp4374
(dp4375
g61
(dp4376
g69
I3
ssg70
g4370
sg63
(lp4377
g1351
asbasbasbag56
(g72
g58
NtRp4378
(dp4379
g61
(dp4380
sg70
g4349
sg63
(lp4381
g56
(g77
g58
NtRp4382
(dp4383
g61
(dp4384
sg70
g4378
sg63
(lp4385
g56
(g57
g58
NtRp4386
(dp4387
g61
(dp4388
g69
I3
ssg70
g4382
sg63
(lp4389
S'/gallery/default/showjq'
p4390
asbasbasbag56
(g72
g58
NtRp4391
(dp4392
g61
(dp4393
sg70
g4349
sg63
(lp4394
g56
(g77
g58
NtRp4395
(dp4396
g61
(dp4397
sg70
g4391
sg63
(lp4398
g56
(g57
g58
NtRp4399
(dp4400
g61
(dp4401
g69
I3
ssg70
g4395
sg63
(lp4402
g56
(g65
g58
NtRp4403
(dp4404
g61
(dp4405
g69
I2
ssg70
Nsg63
(lp4406
sbasbasbasbasbasbasbasbag56
(g72
g58
NtRp4407
(dp4408
g61
(dp4409
sg70
g4192
sg63
(lp4410
g56
(g77
g58
NtRp4411
(dp4412
g61
(dp4413
sg70
g4407
sg63
(lp4414
g56
(g57
g58
NtRp4415
(dp4416
g61
(dp4417
g69
I4
ssg70
g4411
sg63
(lp4418
g56
(g65
g58
NtRp4419
(dp4420
g61
(dp4421
g69
I3
ssg70
Nsg63
(lp4422
g56
(g72
g58
NtRp4423
(dp4424
g61
(dp4425
sg70
g4419
sg63
(lp4426
g56
(g77
g58
NtRp4427
(dp4428
g61
(dp4429
sg70
g4423
sg63
(lp4430
g56
(g57
g58
NtRp4431
(dp4432
g61
(dp4433
g69
I3
ssg70
g4427
sg63
(lp4434
g4224
(S's\x0e\x00\x00\x00Gallery - Dojo'
tRp4435
asbasbasbag56
(g72
g58
NtRp4436
(dp4437
g61
(dp4438
sg70
g4419
sg63
(lp4439
g56
(g77
g58
NtRp4440
(dp4441
g61
(dp4442
sg70
g4436
sg63
(lp4443
g56
(g57
g58
NtRp4444
(dp4445
g61
(dp4446
g69
I3
ssg70
g4440
sg63
(lp4447
g1351
asbasbasbag56
(g72
g58
NtRp4448
(dp4449
g61
(dp4450
sg70
g4419
sg63
(lp4451
g56
(g77
g58
NtRp4452
(dp4453
g61
(dp4454
sg70
g4448
sg63
(lp4455
g56
(g57
g58
NtRp4456
(dp4457
g61
(dp4458
g69
I3
ssg70
g4452
sg63
(lp4459
S'/gallery/default/index'
p4460
asbasbasbag56
(g72
g58
NtRp4461
(dp4462
g61
(dp4463
sg70
g4419
sg63
(lp4464
g56
(g77
g58
NtRp4465
(dp4466
g61
(dp4467
sg70
g4461
sg63
(lp4468
g56
(g57
g58
NtRp4469
(dp4470
g61
(dp4471
g69
I3
ssg70
g4465
sg63
(lp4472
g56
(g65
g58
NtRp4473
(dp4474
g61
(dp4475
g69
I2
ssg70
Nsg63
(lp4476
sbasbasbasbasbasbasbasbag56
(g72
g58
NtRp4477
(dp4478
g61
(dp4479
sg70
g4192
sg63
(lp4480
g56
(g77
g58
NtRp4481
(dp4482
g61
(dp4483
sg70
g4477
sg63
(lp4484
g56
(g57
g58
NtRp4485
(dp4486
g61
(dp4487
g69
I4
ssg70
g4481
sg63
(lp4488
g56
(g65
g58
NtRp4489
(dp4490
g61
(dp4491
g69
I3
ssg70
Nsg63
(lp4492
g56
(g72
g58
NtRp4493
(dp4494
g61
(dp4495
sg70
g4489
sg63
(lp4496
g56
(g77
g58
NtRp4497
(dp4498
g61
(dp4499
sg70
g4493
sg63
(lp4500
g56
(g57
g58
NtRp4501
(dp4502
g61
(dp4503
g69
I3
ssg70
g4497
sg63
(lp4504
g4224
(S's\x11\x00\x00\x00AjaxSearch - Dojo'
tRp4505
asbasbasbag56
(g72
g58
NtRp4506
(dp4507
g61
(dp4508
sg70
g4489
sg63
(lp4509
g56
(g77
g58
NtRp4510
(dp4511
g61
(dp4512
sg70
g4506
sg63
(lp4513
g56
(g57
g58
NtRp4514
(dp4515
g61
(dp4516
g69
I3
ssg70
g4510
sg63
(lp4517
g1351
asbasbasbag56
(g72
g58
NtRp4518
(dp4519
g61
(dp4520
sg70
g4489
sg63
(lp4521
g56
(g77
g58
NtRp4522
(dp4523
g61
(dp4524
sg70
g4518
sg63
(lp4525
g56
(g57
g58
NtRp4526
(dp4527
g61
(dp4528
g69
I3
ssg70
g4522
sg63
(lp4529
S'/gallery/default/sendform'
p4530
asbasbasbag56
(g72
g58
NtRp4531
(dp4532
g61
(dp4533
sg70
g4489
sg63
(lp4534
g56
(g77
g58
NtRp4535
(dp4536
g61
(dp4537
sg70
g4531
sg63
(lp4538
g56
(g57
g58
NtRp4539
(dp4540
g61
(dp4541
g69
I3
ssg70
g4535
sg63
(lp4542
g56
(g65
g58
NtRp4543
(dp4544
g61
(dp4545
g69
I2
ssg70
Nsg63
(lp4546
sbasbasbasbasbasbasbasbag56
(g72
g58
NtRp4547
(dp4548
g61
(dp4549
sg70
g4192
sg63
(lp4550
g56
(g77
g58
NtRp4551
(dp4552
g61
(dp4553
sg70
g4547
sg63
(lp4554
g56
(g57
g58
NtRp4555
(dp4556
g61
(dp4557
g69
I4
ssg70
g4551
sg63
(lp4558
g56
(g65
g58
NtRp4559
(dp4560
g61
(dp4561
g69
I3
ssg70
Nsg63
(lp4562
g56
(g72
g58
NtRp4563
(dp4564
g61
(dp4565
sg70
g4559
sg63
(lp4566
g56
(g77
g58
NtRp4567
(dp4568
g61
(dp4569
sg70
g4563
sg63
(lp4570
g56
(g57
g58
NtRp4571
(dp4572
g61
(dp4573
g69
I3
ssg70
g4567
sg63
(lp4574
g4224
(S's\x07\x00\x00\x00TagList'
tRp4575
asbasbasbag56
(g72
g58
NtRp4576
(dp4577
g61
(dp4578
sg70
g4559
sg63
(lp4579
g56
(g77
g58
NtRp4580
(dp4581
g61
(dp4582
sg70
g4576
sg63
(lp4583
g56
(g57
g58
NtRp4584
(dp4585
g61
(dp4586
g69
I3
ssg70
g4580
sg63
(lp4587
g1351
asbasbasbag56
(g72
g58
NtRp4588
(dp4589
g61
(dp4590
sg70
g4559
sg63
(lp4591
g56
(g77
g58
NtRp4592
(dp4593
g61
(dp4594
sg70
g4588
sg63
(lp4595
g56
(g57
g58
NtRp4596
(dp4597
g61
(dp4598
g69
I3
ssg70
g4592
sg63
(lp4599
S'/gallery/search/gettags'
p4600
asbasbasbag56
(g72
g58
NtRp4601
(dp4602
g61
(dp4603
sg70
g4559
sg63
(lp4604
g56
(g77
g58
NtRp4605
(dp4606
g61
(dp4607
sg70
g4601
sg63
(lp4608
g56
(g57
g58
NtRp4609
(dp4610
g61
(dp4611
g69
I3
ssg70
g4605
sg63
(lp4612
g56
(g65
g58
NtRp4613
(dp4614
g61
(dp4615
g69
I2
ssg70
Nsg63
(lp4616
sbasbasbasbasbasbasbasbag56
(g72
g58
NtRp4617
(dp4618
g61
(dp4619
sg70
g4192
sg63
(lp4620
g56
(g77
g58
NtRp4621
(dp4622
g61
(dp4623
sg70
g4617
sg63
(lp4624
g56
(g57
g58
NtRp4625
(dp4626
g61
(dp4627
g69
I4
ssg70
g4621
sg63
(lp4628
g56
(g65
g58
NtRp4629
(dp4630
g61
(dp4631
g69
I3
ssg70
Nsg63
(lp4632
g56
(g72
g58
NtRp4633
(dp4634
g61
(dp4635
sg70
g4629
sg63
(lp4636
g56
(g77
g58
NtRp4637
(dp4638
g61
(dp4639
sg70
g4633
sg63
(lp4640
g56
(g57
g58
NtRp4641
(dp4642
g61
(dp4643
g69
I3
ssg70
g4637
sg63
(lp4644
g4224
(S's\x05\x00\x00\x00Admin'
tRp4645
asbasbasbag56
(g72
g58
NtRp4646
(dp4647
g61
(dp4648
sg70
g4629
sg63
(lp4649
g56
(g77
g58
NtRp4650
(dp4651
g61
(dp4652
sg70
g4646
sg63
(lp4653
g56
(g57
g58
NtRp4654
(dp4655
g61
(dp4656
g69
I3
ssg70
g4650
sg63
(lp4657
g1351
asbasbasbag56
(g72
g58
NtRp4658
(dp4659
g61
(dp4660
sg70
g4629
sg63
(lp4661
g56
(g77
g58
NtRp4662
(dp4663
g61
(dp4664
sg70
g4658
sg63
(lp4665
g56
(g57
g58
NtRp4666
(dp4667
g61
(dp4668
g69
I3
ssg70
g4662
sg63
(lp4669
S'/admin/default/index'
p4670
asbasbasbag56
(g72
g58
NtRp4671
(dp4672
g61
(dp4673
sg70
g4629
sg63
(lp4674
g56
(g77
g58
NtRp4675
(dp4676
g61
(dp4677
sg70
g4671
sg63
(lp4678
g56
(g57
g58
NtRp4679
(dp4680
g61
(dp4681
g69
I3
ssg70
g4675
sg63
(lp4682
g56
(g65
g58
NtRp4683
(dp4684
g61
(dp4685
g69
I2
ssg70
Nsg63
(lp4686
sbasbasbasbasbasbasbasbasbasbasbasbag56
(g72
g58
NtRp4687
(dp4688
g61
(dp4689
sg70
g3719
sg63
(lp4690
g56
(g77
g58
NtRp4691
(dp4692
g61
(dp4693
g81
g82
ssg70
g4687
sg63
(lp4694
S'meta'
p4695
asbag56
(g77
g58
NtRp4696
(dp4697
g61
(dp4698
g88
g89
ssg70
g4687
sg63
(lp4699
S':'
asbag56
(g77
g58
NtRp4700
(dp4701
g61
(dp4702
sg70
g4687
sg63
(lp4703
g56
(g57
g58
NtRp4704
(dp4705
g61
(dp4706
g69
I5
ssg70
g4700
sg63
(lp4707
g56
(g65
g58
NtRp4708
(dp4709
g61
(dp4710
g69
I4
ssg70
Nsg63
(lp4711
g56
(g72
g58
NtRp4712
(dp4713
g61
(dp4714
sg70
g4708
sg63
(lp4715
g56
(g77
g58
NtRp4716
(dp4717
g61
(dp4718
g81
g82
ssg70
g4712
sg63
(lp4719
S'author'
p4720
asbag56
(g77
g58
NtRp4721
(dp4722
g61
(dp4723
g88
g89
ssg70
g4712
sg63
(lp4724
S':'
asbag56
(g77
g58
NtRp4725
(dp4726
g61
(dp4727
sg70
g4712
sg63
(lp4728
g56
(g57
g58
NtRp4729
(dp4730
g61
(dp4731
g69
I4
ssg70
g4725
sg63
(lp4732
S'Your Name <you@example.com>'
p4733
asbasbasbag56
(g72
g58
NtRp4734
(dp4735
g61
(dp4736
sg70
g4708
sg63
(lp4737
g56
(g77
g58
NtRp4738
(dp4739
g61
(dp4740
g81
g82
ssg70
g4734
sg63
(lp4741
S'copyright'
p4742
asbag56
(g77
g58
NtRp4743
(dp4744
g61
(dp4745
g88
g89
ssg70
g4734
sg63
(lp4746
S':'
asbag56
(g77
g58
NtRp4747
(dp4748
g61
(dp4749
sg70
g4734
sg63
(lp4750
g56
(g57
g58
NtRp4751
(dp4752
g61
(dp4753
g69
I4
ssg70
g4747
sg63
(lp4754
S'Copyright 2011'
p4755
asbasbasbag56
(g72
g58
NtRp4756
(dp4757
g61
(dp4758
sg70
g4708
sg63
(lp4759
g56
(g77
g58
NtRp4760
(dp4761
g61
(dp4762
g81
g82
ssg70
g4756
sg63
(lp4763
S'description'
p4764
asbag56
(g77
g58
NtRp4765
(dp4766
g61
(dp4767
g88
g89
ssg70
g4756
sg63
(lp4768
S':'
asbag56
(g77
g58
NtRp4769
(dp4770
g61
(dp4771
sg70
g4756
sg63
(lp4772
g56
(g57
g58
NtRp4773
(dp4774
g61
(dp4775
g69
I4
ssg70
g4769
sg63
(lp4776
S'a cool new app'
p4777
asbasbasbag56
(g72
g58
NtRp4778
(dp4779
g61
(dp4780
sg70
g4708
sg63
(lp4781
g56
(g77
g58
NtRp4782
(dp4783
g61
(dp4784
g81
g82
ssg70
g4778
sg63
(lp4785
S'generator'
p4786
asbag56
(g77
g58
NtRp4787
(dp4788
g61
(dp4789
g88
g89
ssg70
g4778
sg63
(lp4790
S':'
asbag56
(g77
g58
NtRp4791
(dp4792
g61
(dp4793
sg70
g4778
sg63
(lp4794
g56
(g57
g58
NtRp4795
(dp4796
g61
(dp4797
g69
I4
ssg70
g4791
sg63
(lp4798
S'Web2py Web Framework'
p4799
asbasbasbag56
(g72
g58
NtRp4800
(dp4801
g61
(dp4802
sg70
g4708
sg63
(lp4803
g56
(g77
g58
NtRp4804
(dp4805
g61
(dp4806
g81
g82
ssg70
g4800
sg63
(lp4807
S'keywords'
p4808
asbag56
(g77
g58
NtRp4809
(dp4810
g61
(dp4811
g88
g89
ssg70
g4800
sg63
(lp4812
S':'
asbag56
(g77
g58
NtRp4813
(dp4814
g61
(dp4815
sg70
g4800
sg63
(lp4816
g56
(g57
g58
NtRp4817
(dp4818
g61
(dp4819
g69
I4
ssg70
g4813
sg63
(lp4820
S'web2py, python, framework'
p4821
asbasbasbasbasbasbasbag56
(g72
g58
NtRp4822
(dp4823
g61
(dp4824
sg70
g3719
sg63
(lp4825
g56
(g77
g58
NtRp4826
(dp4827
g61
(dp4828
g81
g82
ssg70
g4822
sg63
(lp4829
S'postprocessing'
p4830
asbag56
(g77
g58
NtRp4831
(dp4832
g61
(dp4833
g88
g89
ssg70
g4822
sg63
(lp4834
S':'
asbag56
(g77
g58
NtRp4835
(dp4836
g61
(dp4837
sg70
g4822
sg63
(lp4838
g56
(g57
g58
NtRp4839
(dp4840
g61
(dp4841
g69
I5
ssg70
g4835
sg63
(lp4842
g56
(g65
g58
NtRp4843
(dp4844
g61
(dp4845
g69
I4
ssg70
Nsg63
(lp4846
sbasbasbasbag56
(g72
g58
NtRp4847
(dp4848
g61
(dp4849
sg70
g3719
sg63
(lp4850
g56
(g77
g58
NtRp4851
(dp4852
g61
(dp4853
g81
g82
ssg70
g4847
sg63
(lp4854
S'session_filename'
p4855
asbag56
(g77
g58
NtRp4856
(dp4857
g61
(dp4858
g88
g89
ssg70
g4847
sg63
(lp4859
S':'
asbag56
(g77
g58
NtRp4860
(dp4861
g61
(dp4862
sg70
g4847
sg63
(lp4863
g56
(g57
g58
NtRp4864
(dp4865
g61
(dp4866
g69
I5
ssg70
g4860
sg63
(lp4867
S'/home/brencam/web2py/applications/gallery/sessions/127.0.0.1-b404fb97-7cd7-4778-b1a5-c4b1975cb907'
p4868
asbasbasbag56
(g72
g58
NtRp4869
(dp4870
g61
(dp4871
sg70
g3719
sg63
(lp4872
g56
(g77
g58
NtRp4873
(dp4874
g61
(dp4875
g81
g82
ssg70
g4869
sg63
(lp4876
S'session_id'
p4877
asbag56
(g77
g58
NtRp4878
(dp4879
g61
(dp4880
g88
g89
ssg70
g4869
sg63
(lp4881
S':'
asbag56
(g77
g58
NtRp4882
(dp4883
g61
(dp4884
sg70
g4869
sg63
(lp4885
g56
(g57
g58
NtRp4886
(dp4887
g61
(dp4888
g69
I5
ssg70
g4882
sg63
(lp4889
S'127.0.0.1-b404fb97-7cd7-4778-b1a5-c4b1975cb907'
p4890
asbasbasbag56
(g72
g58
NtRp4891
(dp4892
g61
(dp4893
sg70
g3719
sg63
(lp4894
g56
(g77
g58
NtRp4895
(dp4896
g61
(dp4897
g81
g82
ssg70
g4891
sg63
(lp4898
S'session_id_name'
p4899
asbag56
(g77
g58
NtRp4900
(dp4901
g61
(dp4902
g88
g89
ssg70
g4891
sg63
(lp4903
S':'
asbag56
(g77
g58
NtRp4904
(dp4905
g61
(dp4906
sg70
g4891
sg63
(lp4907
g56
(g57
g58
NtRp4908
(dp4909
g61
(dp4910
g69
I5
ssg70
g4904
sg63
(lp4911
g3776
asbasbasbag56
(g72
g58
NtRp4912
(dp4913
g61
(dp4914
sg70
g3719
sg63
(lp4915
g56
(g77
g58
NtRp4916
(dp4917
g61
(dp4918
g81
g82
ssg70
g4912
sg63
(lp4919
S'session_new'
p4920
asbag56
(g77
g58
NtRp4921
(dp4922
g61
(dp4923
g88
g89
ssg70
g4912
sg63
(lp4924
S':'
asbag56
(g77
g58
NtRp4925
(dp4926
g61
(dp4927
sg70
g4912
sg63
(lp4928
g56
(g57
g58
NtRp4929
(dp4930
g61
(dp4931
g69
I5
ssg70
g4925
sg63
(lp4932
g99
asbasbasbag56
(g72
g58
NtRp4933
(dp4934
g61
(dp4935
sg70
g3719
sg63
(lp4936
g56
(g77
g58
NtRp4937
(dp4938
g61
(dp4939
g81
g82
ssg70
g4933
sg63
(lp4940
S'status'
p4941
asbag56
(g77
g58
NtRp4942
(dp4943
g61
(dp4944
g88
g89
ssg70
g4933
sg63
(lp4945
S':'
asbag56
(g77
g58
NtRp4946
(dp4947
g61
(dp4948
sg70
g4933
sg63
(lp4949
g56
(g57
g58
NtRp4950
(dp4951
g61
(dp4952
g69
I5
ssg70
g4946
sg63
(lp4953
S'200'
p4954
asbasbasbag56
(g72
g58
NtRp4955
(dp4956
g61
(dp4957
sg70
g3719
sg63
(lp4958
g56
(g77
g58
NtRp4959
(dp4960
g61
(dp4961
g81
g82
ssg70
g4955
sg63
(lp4962
S'subtitle'
p4963
asbag56
(g77
g58
NtRp4964
(dp4965
g61
(dp4966
g88
g89
ssg70
g4955
sg63
(lp4967
S':'
asbag56
(g77
g58
NtRp4968
(dp4969
g61
(dp4970
sg70
g4955
sg63
(lp4971
g56
(g57
g58
NtRp4972
(dp4973
g61
(dp4974
g69
I5
ssg70
g4968
sg63
(lp4975
g4224
(S's1\x00\x00\x00Web2py and CSS, JQuery vs Dojo Image Gallery Demo'
tRp4976
asbasbasbag56
(g72
g58
NtRp4977
(dp4978
g61
(dp4979
sg70
g3719
sg63
(lp4980
g56
(g77
g58
NtRp4981
(dp4982
g61
(dp4983
g81
g82
ssg70
g4977
sg63
(lp4984
S'title'
p4985
asbag56
(g77
g58
NtRp4986
(dp4987
g61
(dp4988
g88
g89
ssg70
g4977
sg63
(lp4989
S':'
asbag56
(g77
g58
NtRp4990
(dp4991
g61
(dp4992
sg70
g4977
sg63
(lp4993
g56
(g57
g58
NtRp4994
(dp4995
g61
(dp4996
g69
I5
ssg70
g4990
sg63
(lp4997
S'My Photo Gallery Demo'
p4998
asbasbasbag56
(g72
g58
NtRp4999
(dp5000
g61
(dp5001
sg70
g3719
sg63
(lp5002
g56
(g77
g58
NtRp5003
(dp5004
g61
(dp5005
g81
g82
ssg70
g4999
sg63
(lp5006
g2779
asbag56
(g77
g58
NtRp5007
(dp5008
g61
(dp5009
g88
g89
ssg70
g4999
sg63
(lp5010
S':'
asbag56
(g77
g58
NtRp5011
(dp5012
g61
(dp5013
sg70
g4999
sg63
(lp5014
g56
(g57
g58
NtRp5015
(dp5016
g61
(dp5017
g69
I5
ssg70
g5011
sg63
(lp5018
g2792
asbasbasbag56
(g72
g58
NtRp5019
(dp5020
g61
(dp5021
sg70
g3719
sg63
(lp5022
g56
(g77
g58
NtRp5023
(dp5024
g61
(dp5025
g81
g82
ssg70
g5019
sg63
(lp5026
S'view'
p5027
asbag56
(g77
g58
NtRp5028
(dp5029
g61
(dp5030
g88
g89
ssg70
g5019
sg63
(lp5031
S':'
asbag56
(g77
g58
NtRp5032
(dp5033
g61
(dp5034
sg70
g5019
sg63
(lp5035
g56
(g57
g58
NtRp5036
(dp5037
g61
(dp5038
g69
I5
ssg70
g5032
sg63
(lp5039
S'search/xmlgettags.html'
p5040
asbasbasbasbasbsS'locals'
p5041
(dp5042
S'self'
p5043
S'<gluon.contrib.simplejson.encoder.JSONEncoder object>'
p5044
sS'o'
S'<gluon.dal.Rows object>'
p5045
sssS'traceback'
p5046
S'Traceback (most recent call last):\n  File "/home/brencam/web2py/gluon/restricted.py", line 194, in restricted\n    exec ccode in environment\n  File "/home/brencam/web2py/applications/gallery/controllers/search.py", line 158, in <module>\n  File "/home/brencam/web2py/gluon/globals.py", line 149, in <lambda>\n    self._caller = lambda f: f()\n  File "/home/brencam/web2py/applications/gallery/controllers/search.py", line 43, in xmlgettags\n    return sj.dumps(tags)\n  File "/home/brencam/web2py/gluon/contrib/simplejson/__init__.py", line 263, in dumps\n    return _default_encoder.encode(obj)\n  File "/home/brencam/web2py/gluon/contrib/simplejson/encoder.py", line 217, in encode\n    chunks = list(chunks)\n  File "/home/brencam/web2py/gluon/contrib/simplejson/encoder.py", line 496, in _iterencode\n    o = _default(o)\n  File "/home/brencam/web2py/gluon/contrib/simplejson/encoder.py", line 191, in default\n    raise TypeError(repr(o) + " is not JSON serializable")\nTypeError: <gluon.dal.Rows object at 0xb536df4c> is not JSON serializable\n'
p5047
s.