(dp1
S'output'
p2
S''
sS'layer'
p3
S'/home/brencam/web2py/applications/gallery/models/db.py'
p4
sS'code'
p5
S'# -*- coding: utf-8 -*-\n\n#########################################################################\n## This scaffolding model makes your app work on Google App Engine too\n## File is released under public domain and you can use without limitations\n#########################################################################\n\n#response.title = "My Photo Gallery Demo"\n\nif not request.env.web2py_runtime_gae:     \n    ## if NOT running on Google App Engine use SQLite or other DB\n    db = DAL(\'sqlite://storage.sqlite\') \nelse:\n    ## connect to Google BigTable (optional \'google:datastore://namespace\')\n    db = DAL(\'google:datastore\') \n    ## store sessions and tickets there\n    session.connect(request, response, db = db) \n    ## or store session in Memcache, Redis, etc.\n    ## from gluon.contrib.memdb import MEMDB\n    ## from google.appengine.api.memcache import Client\n    ## session.connect(request, response, db = MEMDB(Client()))\n\n## by default give a view/generic.extension to all actions from localhost\n## none otherwise. a pattern can be \'controller/function.extension\'\nresponse.generic_patterns = [\'*\'] if request.is_local else []\n\n#########################################################################\n## Here is sample code if you need for\n## - email capabilities\n## - authentication (registration, login, logout, ... )\n## - authorization (role based authorization)\n## - services (xml, csv, json, xmlrpc, jsonrpc, amf, rss)\n## - old style crud actions\n## (more options discussed in gluon/tools.py)\n#########################################################################\n\nfrom gluon.tools import Auth, Crud, Service, PluginManager, prettydate\nauth = Auth(db, hmac_key=Auth.get_or_create_key()) \ncrud, service, plugins = Crud(db), Service(), PluginManager()\n\n## create all tables needed by auth if not custom tables\nauth.define_tables() \n\n## configure email\nmail=auth.settings.mailer\nmail.settings.server = \'logging\' or \'smtp.gmail.com:587\'\nmail.settings.sender = \'you@gmail.com\'\nmail.settings.login = \'username:password\'\n\n## configure auth policy\nauth.settings.registration_requires_verification = False\nauth.settings.registration_requires_approval = False\nauth.settings.reset_password_requires_verification = True\n\n## if you need to use OpenID, Facebook, MySpace, Twitter, Linkedin, etc.\n## register with janrain.com, write your domain:api_key in private/janrain.key\n## from gluon.contrib.login_methods.rpx_account import use_janrain\n## use_janrain(auth,filename=\'private/janrain.key\')\n\n#########################################################################\n## Define your tables below (or better in another model file) for example\n##\n## >>> db.define_table(\'mytable\',Field(\'myfield\',\'string\'))\n##\n## Fields can be \'string\',\'text\',\'password\',\'integer\',\'double\',\'boolean\'\n##       \'date\',\'time\',\'datetime\',\'blob\',\'upload\', \'reference TABLENAME\'\n## There is an implicit \'id integer autoincrement\' field\n## Consult manual for more options, validators, etc.\n##\n## More API examples for controllers:\n##\n## >>> db.mytable.insert(myfield=\'value\')\n## >>> rows=db(db.mytable.myfield==\'value\').select(db.mytable.ALL)\n## >>> for row in rows: print row.id, row.myfield\n#########################################################################\n\n\n## 10/28/2011 - db for image gallery\n\ndb.define_table(\'image\',\n   Field(\'title\', unique=True),\n   Field(\'file\', \'upload\'),\n   format = \'%(title)s\')\n\ndb.define_table(\'comment\',\n   Field(\'image_id\', db.image),\n   Field(\'author\'),\n   Field(\'email\'),\n   Field(\'body\', \'text\'))\n\ndb.image.title.requires = IS_NOT_IN_DB(db, db.image.title)\ndb.comment.image_id.requires = IS_IN_DB(db, db.image.id, \'%(title)s\')\ndb.comment.author.requires = IS_NOT_EMPTY()\ndb.comment.email.requires = IS_EMAIL()\ndb.comment.body.requires = IS_NOT_EMPTY()\n\ndb.comment.image_id.writable = db.comment.image_id.readable = False\n\n'
p6
sS'snapshot'
p7
(dp8
S'exception'
p9
(dp10
S'__module__'
p11
S"'sqlite3'"
p12
sS'__getslice__'
p13
S"<method-wrapper '__getslice__' of OperationalError object>"
p14
sS'__str__'
p15
S"<method-wrapper '__str__' of OperationalError object>"
p16
sS'__reduce__'
p17
S'<built-in method __reduce__ of OperationalError object>'
p18
sS'__dict__'
p19
S'{}'
p20
sS'__sizeof__'
p21
S'<built-in method __sizeof__ of OperationalError object>'
p22
sS'__weakref__'
p23
S'None'
p24
sS'__init__'
p25
S"<method-wrapper '__init__' of OperationalError object>"
p26
sS'__setattr__'
p27
S"<method-wrapper '__setattr__' of OperationalError object>"
p28
sS'__reduce_ex__'
p29
S'<built-in method __reduce_ex__ of OperationalError object>'
p30
sS'__new__'
p31
S'<built-in method __new__ of type object>'
p32
sS'__format__'
p33
S'<built-in method __format__ of OperationalError object>'
p34
sS'__class__'
p35
S"<class 'sqlite3.OperationalError'>"
p36
sS'__doc__'
p37
S'None'
p38
sS'__getitem__'
p39
S"<method-wrapper '__getitem__' of OperationalError object>"
p40
sS'__setstate__'
p41
S'<built-in method __setstate__ of OperationalError object>'
p42
sS'__getattribute__'
p43
S"<method-wrapper '__getattribute__' of OperationalError object>"
p44
sS'args'
p45
S"('table auth_user already exists',)"
p46
sS'__subclasshook__'
p47
S'<built-in method __subclasshook__ of type object>'
p48
sS'__unicode__'
p49
S'<built-in method __unicode__ of OperationalError object>'
p50
sS'__delattr__'
p51
S"<method-wrapper '__delattr__' of OperationalError object>"
p52
sS'__repr__'
p53
S"<method-wrapper '__repr__' of OperationalError object>"
p54
sS'__hash__'
p55
S"<method-wrapper '__hash__' of OperationalError object>"
p56
ssS'evalue'
p57
S'table auth_user already exists'
p58
sS'request'
p59
ccopy_reg
_reconstructor
p60
(cgluon.html
BEAUTIFY
p61
c__builtin__
object
p62
NtRp63
(dp64
S'attributes'
p65
(dp66
sS'components'
p67
(lp68
g60
(cgluon.html
TABLE
p69
g62
NtRp70
(dp71
g65
(dp72
S'level'
p73
I5
ssS'parent'
p74
Nsg67
(lp75
g60
(cgluon.html
TR
p76
g62
NtRp77
(dp78
g65
(dp79
sg74
g70
sg67
(lp80
g60
(cgluon.html
TD
p81
g62
NtRp82
(dp83
g65
(dp84
S'_style'
p85
S'font-weight:bold;'
p86
ssg74
g77
sg67
(lp87
S'ajax'
p88
asbag60
(g81
g62
NtRp89
(dp90
g65
(dp91
S'_valign'
p92
S'top'
p93
ssg74
g77
sg67
(lp94
S':'
asbag60
(g81
g62
NtRp95
(dp96
g65
(dp97
sg74
g77
sg67
(lp98
g60
(g61
g62
NtRp99
(dp100
g65
(dp101
g73
I5
ssg74
g95
sg67
(lp102
S'False'
p103
asbasbasbag60
(g76
g62
NtRp104
(dp105
g65
(dp106
sg74
g70
sg67
(lp107
g60
(g81
g62
NtRp108
(dp109
g65
(dp110
g85
g86
ssg74
g104
sg67
(lp111
S'application'
p112
asbag60
(g81
g62
NtRp113
(dp114
g65
(dp115
g92
g93
ssg74
g104
sg67
(lp116
S':'
asbag60
(g81
g62
NtRp117
(dp118
g65
(dp119
sg74
g104
sg67
(lp120
g60
(g61
g62
NtRp121
(dp122
g65
(dp123
g73
I5
ssg74
g117
sg67
(lp124
S'gallery'
p125
asbasbasbag60
(g76
g62
NtRp126
(dp127
g65
(dp128
sg74
g70
sg67
(lp129
g60
(g81
g62
NtRp130
(dp131
g65
(dp132
g85
g86
ssg74
g126
sg67
(lp133
g45
asbag60
(g81
g62
NtRp134
(dp135
g65
(dp136
g92
g93
ssg74
g126
sg67
(lp137
S':'
asbag60
(g81
g62
NtRp138
(dp139
g65
(dp140
sg74
g126
sg67
(lp141
g60
(g61
g62
NtRp142
(dp143
g65
(dp144
g73
I5
ssg74
g138
sg67
(lp145
g60
(g69
g62
NtRp146
(dp147
g65
(dp148
g73
I4
ssg74
Nsg67
(lp149
sbasbasbasbag60
(g76
g62
NtRp150
(dp151
g65
(dp152
sg74
g70
sg67
(lp153
g60
(g81
g62
NtRp154
(dp155
g65
(dp156
g85
g86
ssg74
g150
sg67
(lp157
S'body'
p158
asbag60
(g81
g62
NtRp159
(dp160
g65
(dp161
g92
g93
ssg74
g150
sg67
(lp162
S':'
asbag60
(g81
g62
NtRp163
(dp164
g65
(dp165
sg74
g150
sg67
(lp166
g60
(g61
g62
NtRp167
(dp168
g65
(dp169
g73
I5
ssg74
g163
sg67
(lp170
S'<cStringIO.StringO object at 0xaf182a00>'
p171
asbasbasbag60
(g76
g62
NtRp172
(dp173
g65
(dp174
sg74
g70
sg67
(lp175
g60
(g81
g62
NtRp176
(dp177
g65
(dp178
g85
g86
ssg74
g172
sg67
(lp179
S'client'
p180
asbag60
(g81
g62
NtRp181
(dp182
g65
(dp183
g92
g93
ssg74
g172
sg67
(lp184
S':'
asbag60
(g81
g62
NtRp185
(dp186
g65
(dp187
sg74
g172
sg67
(lp188
g60
(g61
g62
NtRp189
(dp190
g65
(dp191
g73
I5
ssg74
g185
sg67
(lp192
S'127.0.0.1'
p193
asbasbasbag60
(g76
g62
NtRp194
(dp195
g65
(dp196
sg74
g70
sg67
(lp197
g60
(g81
g62
NtRp198
(dp199
g65
(dp200
g85
g86
ssg74
g194
sg67
(lp201
S'controller'
p202
asbag60
(g81
g62
NtRp203
(dp204
g65
(dp205
g92
g93
ssg74
g194
sg67
(lp206
S':'
asbag60
(g81
g62
NtRp207
(dp208
g65
(dp209
sg74
g194
sg67
(lp210
g60
(g61
g62
NtRp211
(dp212
g65
(dp213
g73
I5
ssg74
g207
sg67
(lp214
S'default'
p215
asbasbasbag60
(g76
g62
NtRp216
(dp217
g65
(dp218
sg74
g70
sg67
(lp219
g60
(g81
g62
NtRp220
(dp221
g65
(dp222
g85
g86
ssg74
g216
sg67
(lp223
S'cookies'
p224
asbag60
(g81
g62
NtRp225
(dp226
g65
(dp227
g92
g93
ssg74
g216
sg67
(lp228
S':'
asbag60
(g81
g62
NtRp229
(dp230
g65
(dp231
sg74
g216
sg67
(lp232
g60
(g61
g62
NtRp233
(dp234
g65
(dp235
g73
I5
ssg74
g229
sg67
(lp236
g60
(g69
g62
NtRp237
(dp238
g65
(dp239
g73
I4
ssg74
Nsg67
(lp240
g60
(g76
g62
NtRp241
(dp242
g65
(dp243
sg74
g237
sg67
(lp244
g60
(g81
g62
NtRp245
(dp246
g65
(dp247
g85
g86
ssg74
g241
sg67
(lp248
S'csrftoken'
p249
asbag60
(g81
g62
NtRp250
(dp251
g65
(dp252
g92
g93
ssg74
g241
sg67
(lp253
S':'
asbag60
(g81
g62
NtRp254
(dp255
g65
(dp256
sg74
g241
sg67
(lp257
g60
(g61
g62
NtRp258
(dp259
g65
(dp260
g73
I4
ssg74
g254
sg67
(lp261
g60
(g69
g62
NtRp262
(dp263
g65
(dp264
g73
I3
ssg74
Nsg67
(lp265
g60
(g76
g62
NtRp266
(dp267
g65
(dp268
sg74
g262
sg67
(lp269
g60
(g81
g62
NtRp270
(dp271
g65
(dp272
g85
g86
ssg74
g266
sg67
(lp273
S'comment'
p274
asbag60
(g81
g62
NtRp275
(dp276
g65
(dp277
g92
g93
ssg74
g266
sg67
(lp278
S':'
asbag60
(g81
g62
NtRp279
(dp280
g65
(dp281
sg74
g266
sg67
(lp282
g60
(g61
g62
NtRp283
(dp284
g65
(dp285
g73
I3
ssg74
g279
sg67
(lp286
S''
asbasbasbag60
(g76
g62
NtRp287
(dp288
g65
(dp289
sg74
g262
sg67
(lp290
g60
(g81
g62
NtRp291
(dp292
g65
(dp293
g85
g86
ssg74
g287
sg67
(lp294
S'domain'
p295
asbag60
(g81
g62
NtRp296
(dp297
g65
(dp298
g92
g93
ssg74
g287
sg67
(lp299
S':'
asbag60
(g81
g62
NtRp300
(dp301
g65
(dp302
sg74
g287
sg67
(lp303
g60
(g61
g62
NtRp304
(dp305
g65
(dp306
g73
I3
ssg74
g300
sg67
(lp307
S''
asbasbasbag60
(g76
g62
NtRp308
(dp309
g65
(dp310
sg74
g262
sg67
(lp311
g60
(g81
g62
NtRp312
(dp313
g65
(dp314
g85
g86
ssg74
g308
sg67
(lp315
S'expires'
p316
asbag60
(g81
g62
NtRp317
(dp318
g65
(dp319
g92
g93
ssg74
g308
sg67
(lp320
S':'
asbag60
(g81
g62
NtRp321
(dp322
g65
(dp323
sg74
g308
sg67
(lp324
g60
(g61
g62
NtRp325
(dp326
g65
(dp327
g73
I3
ssg74
g321
sg67
(lp328
S''
asbasbasbag60
(g76
g62
NtRp329
(dp330
g65
(dp331
sg74
g262
sg67
(lp332
g60
(g81
g62
NtRp333
(dp334
g65
(dp335
g85
g86
ssg74
g329
sg67
(lp336
S'httponly'
p337
asbag60
(g81
g62
NtRp338
(dp339
g65
(dp340
g92
g93
ssg74
g329
sg67
(lp341
S':'
asbag60
(g81
g62
NtRp342
(dp343
g65
(dp344
sg74
g329
sg67
(lp345
g60
(g61
g62
NtRp346
(dp347
g65
(dp348
g73
I3
ssg74
g342
sg67
(lp349
S''
asbasbasbag60
(g76
g62
NtRp350
(dp351
g65
(dp352
sg74
g262
sg67
(lp353
g60
(g81
g62
NtRp354
(dp355
g65
(dp356
g85
g86
ssg74
g350
sg67
(lp357
S'max-age'
p358
asbag60
(g81
g62
NtRp359
(dp360
g65
(dp361
g92
g93
ssg74
g350
sg67
(lp362
S':'
asbag60
(g81
g62
NtRp363
(dp364
g65
(dp365
sg74
g350
sg67
(lp366
g60
(g61
g62
NtRp367
(dp368
g65
(dp369
g73
I3
ssg74
g363
sg67
(lp370
S''
asbasbasbag60
(g76
g62
NtRp371
(dp372
g65
(dp373
sg74
g262
sg67
(lp374
g60
(g81
g62
NtRp375
(dp376
g65
(dp377
g85
g86
ssg74
g371
sg67
(lp378
S'path'
p379
asbag60
(g81
g62
NtRp380
(dp381
g65
(dp382
g92
g93
ssg74
g371
sg67
(lp383
S':'
asbag60
(g81
g62
NtRp384
(dp385
g65
(dp386
sg74
g371
sg67
(lp387
g60
(g61
g62
NtRp388
(dp389
g65
(dp390
g73
I3
ssg74
g384
sg67
(lp391
S''
asbasbasbag60
(g76
g62
NtRp392
(dp393
g65
(dp394
sg74
g262
sg67
(lp395
g60
(g81
g62
NtRp396
(dp397
g65
(dp398
g85
g86
ssg74
g392
sg67
(lp399
S'secure'
p400
asbag60
(g81
g62
NtRp401
(dp402
g65
(dp403
g92
g93
ssg74
g392
sg67
(lp404
S':'
asbag60
(g81
g62
NtRp405
(dp406
g65
(dp407
sg74
g392
sg67
(lp408
g60
(g61
g62
NtRp409
(dp410
g65
(dp411
g73
I3
ssg74
g405
sg67
(lp412
S''
asbasbasbag60
(g76
g62
NtRp413
(dp414
g65
(dp415
sg74
g262
sg67
(lp416
g60
(g81
g62
NtRp417
(dp418
g65
(dp419
g85
g86
ssg74
g413
sg67
(lp420
S'version'
p421
asbag60
(g81
g62
NtRp422
(dp423
g65
(dp424
g92
g93
ssg74
g413
sg67
(lp425
S':'
asbag60
(g81
g62
NtRp426
(dp427
g65
(dp428
sg74
g413
sg67
(lp429
g60
(g61
g62
NtRp430
(dp431
g65
(dp432
g73
I3
ssg74
g426
sg67
(lp433
S''
asbasbasbasbasbasbasbag60
(g76
g62
NtRp434
(dp435
g65
(dp436
sg74
g237
sg67
(lp437
g60
(g81
g62
NtRp438
(dp439
g65
(dp440
g85
g86
ssg74
g434
sg67
(lp441
S'session_id_admin'
p442
asbag60
(g81
g62
NtRp443
(dp444
g65
(dp445
g92
g93
ssg74
g434
sg67
(lp446
S':'
asbag60
(g81
g62
NtRp447
(dp448
g65
(dp449
sg74
g434
sg67
(lp450
g60
(g61
g62
NtRp451
(dp452
g65
(dp453
g73
I4
ssg74
g447
sg67
(lp454
g60
(g69
g62
NtRp455
(dp456
g65
(dp457
g73
I3
ssg74
Nsg67
(lp458
g60
(g76
g62
NtRp459
(dp460
g65
(dp461
sg74
g455
sg67
(lp462
g60
(g81
g62
NtRp463
(dp464
g65
(dp465
g85
g86
ssg74
g459
sg67
(lp466
g274
asbag60
(g81
g62
NtRp467
(dp468
g65
(dp469
g92
g93
ssg74
g459
sg67
(lp470
S':'
asbag60
(g81
g62
NtRp471
(dp472
g65
(dp473
sg74
g459
sg67
(lp474
g60
(g61
g62
NtRp475
(dp476
g65
(dp477
g73
I3
ssg74
g471
sg67
(lp478
S''
asbasbasbag60
(g76
g62
NtRp479
(dp480
g65
(dp481
sg74
g455
sg67
(lp482
g60
(g81
g62
NtRp483
(dp484
g65
(dp485
g85
g86
ssg74
g479
sg67
(lp486
g295
asbag60
(g81
g62
NtRp487
(dp488
g65
(dp489
g92
g93
ssg74
g479
sg67
(lp490
S':'
asbag60
(g81
g62
NtRp491
(dp492
g65
(dp493
sg74
g479
sg67
(lp494
g60
(g61
g62
NtRp495
(dp496
g65
(dp497
g73
I3
ssg74
g491
sg67
(lp498
S''
asbasbasbag60
(g76
g62
NtRp499
(dp500
g65
(dp501
sg74
g455
sg67
(lp502
g60
(g81
g62
NtRp503
(dp504
g65
(dp505
g85
g86
ssg74
g499
sg67
(lp506
g316
asbag60
(g81
g62
NtRp507
(dp508
g65
(dp509
g92
g93
ssg74
g499
sg67
(lp510
S':'
asbag60
(g81
g62
NtRp511
(dp512
g65
(dp513
sg74
g499
sg67
(lp514
g60
(g61
g62
NtRp515
(dp516
g65
(dp517
g73
I3
ssg74
g511
sg67
(lp518
S''
asbasbasbag60
(g76
g62
NtRp519
(dp520
g65
(dp521
sg74
g455
sg67
(lp522
g60
(g81
g62
NtRp523
(dp524
g65
(dp525
g85
g86
ssg74
g519
sg67
(lp526
g337
asbag60
(g81
g62
NtRp527
(dp528
g65
(dp529
g92
g93
ssg74
g519
sg67
(lp530
S':'
asbag60
(g81
g62
NtRp531
(dp532
g65
(dp533
sg74
g519
sg67
(lp534
g60
(g61
g62
NtRp535
(dp536
g65
(dp537
g73
I3
ssg74
g531
sg67
(lp538
S''
asbasbasbag60
(g76
g62
NtRp539
(dp540
g65
(dp541
sg74
g455
sg67
(lp542
g60
(g81
g62
NtRp543
(dp544
g65
(dp545
g85
g86
ssg74
g539
sg67
(lp546
g358
asbag60
(g81
g62
NtRp547
(dp548
g65
(dp549
g92
g93
ssg74
g539
sg67
(lp550
S':'
asbag60
(g81
g62
NtRp551
(dp552
g65
(dp553
sg74
g539
sg67
(lp554
g60
(g61
g62
NtRp555
(dp556
g65
(dp557
g73
I3
ssg74
g551
sg67
(lp558
S''
asbasbasbag60
(g76
g62
NtRp559
(dp560
g65
(dp561
sg74
g455
sg67
(lp562
g60
(g81
g62
NtRp563
(dp564
g65
(dp565
g85
g86
ssg74
g559
sg67
(lp566
g379
asbag60
(g81
g62
NtRp567
(dp568
g65
(dp569
g92
g93
ssg74
g559
sg67
(lp570
S':'
asbag60
(g81
g62
NtRp571
(dp572
g65
(dp573
sg74
g559
sg67
(lp574
g60
(g61
g62
NtRp575
(dp576
g65
(dp577
g73
I3
ssg74
g571
sg67
(lp578
S''
asbasbasbag60
(g76
g62
NtRp579
(dp580
g65
(dp581
sg74
g455
sg67
(lp582
g60
(g81
g62
NtRp583
(dp584
g65
(dp585
g85
g86
ssg74
g579
sg67
(lp586
g400
asbag60
(g81
g62
NtRp587
(dp588
g65
(dp589
g92
g93
ssg74
g579
sg67
(lp590
S':'
asbag60
(g81
g62
NtRp591
(dp592
g65
(dp593
sg74
g579
sg67
(lp594
g60
(g61
g62
NtRp595
(dp596
g65
(dp597
g73
I3
ssg74
g591
sg67
(lp598
S''
asbasbasbag60
(g76
g62
NtRp599
(dp600
g65
(dp601
sg74
g455
sg67
(lp602
g60
(g81
g62
NtRp603
(dp604
g65
(dp605
g85
g86
ssg74
g599
sg67
(lp606
g421
asbag60
(g81
g62
NtRp607
(dp608
g65
(dp609
g92
g93
ssg74
g599
sg67
(lp610
S':'
asbag60
(g81
g62
NtRp611
(dp612
g65
(dp613
sg74
g599
sg67
(lp614
g60
(g61
g62
NtRp615
(dp616
g65
(dp617
g73
I3
ssg74
g611
sg67
(lp618
S''
asbasbasbasbasbasbasbag60
(g76
g62
NtRp619
(dp620
g65
(dp621
sg74
g237
sg67
(lp622
g60
(g81
g62
NtRp623
(dp624
g65
(dp625
g85
g86
ssg74
g619
sg67
(lp626
S'session_id_gallery'
p627
asbag60
(g81
g62
NtRp628
(dp629
g65
(dp630
g92
g93
ssg74
g619
sg67
(lp631
S':'
asbag60
(g81
g62
NtRp632
(dp633
g65
(dp634
sg74
g619
sg67
(lp635
g60
(g61
g62
NtRp636
(dp637
g65
(dp638
g73
I4
ssg74
g632
sg67
(lp639
g60
(g69
g62
NtRp640
(dp641
g65
(dp642
g73
I3
ssg74
Nsg67
(lp643
g60
(g76
g62
NtRp644
(dp645
g65
(dp646
sg74
g640
sg67
(lp647
g60
(g81
g62
NtRp648
(dp649
g65
(dp650
g85
g86
ssg74
g644
sg67
(lp651
g274
asbag60
(g81
g62
NtRp652
(dp653
g65
(dp654
g92
g93
ssg74
g644
sg67
(lp655
S':'
asbag60
(g81
g62
NtRp656
(dp657
g65
(dp658
sg74
g644
sg67
(lp659
g60
(g61
g62
NtRp660
(dp661
g65
(dp662
g73
I3
ssg74
g656
sg67
(lp663
S''
asbasbasbag60
(g76
g62
NtRp664
(dp665
g65
(dp666
sg74
g640
sg67
(lp667
g60
(g81
g62
NtRp668
(dp669
g65
(dp670
g85
g86
ssg74
g664
sg67
(lp671
g295
asbag60
(g81
g62
NtRp672
(dp673
g65
(dp674
g92
g93
ssg74
g664
sg67
(lp675
S':'
asbag60
(g81
g62
NtRp676
(dp677
g65
(dp678
sg74
g664
sg67
(lp679
g60
(g61
g62
NtRp680
(dp681
g65
(dp682
g73
I3
ssg74
g676
sg67
(lp683
S''
asbasbasbag60
(g76
g62
NtRp684
(dp685
g65
(dp686
sg74
g640
sg67
(lp687
g60
(g81
g62
NtRp688
(dp689
g65
(dp690
g85
g86
ssg74
g684
sg67
(lp691
g316
asbag60
(g81
g62
NtRp692
(dp693
g65
(dp694
g92
g93
ssg74
g684
sg67
(lp695
S':'
asbag60
(g81
g62
NtRp696
(dp697
g65
(dp698
sg74
g684
sg67
(lp699
g60
(g61
g62
NtRp700
(dp701
g65
(dp702
g73
I3
ssg74
g696
sg67
(lp703
S''
asbasbasbag60
(g76
g62
NtRp704
(dp705
g65
(dp706
sg74
g640
sg67
(lp707
g60
(g81
g62
NtRp708
(dp709
g65
(dp710
g85
g86
ssg74
g704
sg67
(lp711
g337
asbag60
(g81
g62
NtRp712
(dp713
g65
(dp714
g92
g93
ssg74
g704
sg67
(lp715
S':'
asbag60
(g81
g62
NtRp716
(dp717
g65
(dp718
sg74
g704
sg67
(lp719
g60
(g61
g62
NtRp720
(dp721
g65
(dp722
g73
I3
ssg74
g716
sg67
(lp723
S''
asbasbasbag60
(g76
g62
NtRp724
(dp725
g65
(dp726
sg74
g640
sg67
(lp727
g60
(g81
g62
NtRp728
(dp729
g65
(dp730
g85
g86
ssg74
g724
sg67
(lp731
g358
asbag60
(g81
g62
NtRp732
(dp733
g65
(dp734
g92
g93
ssg74
g724
sg67
(lp735
S':'
asbag60
(g81
g62
NtRp736
(dp737
g65
(dp738
sg74
g724
sg67
(lp739
g60
(g61
g62
NtRp740
(dp741
g65
(dp742
g73
I3
ssg74
g736
sg67
(lp743
S''
asbasbasbag60
(g76
g62
NtRp744
(dp745
g65
(dp746
sg74
g640
sg67
(lp747
g60
(g81
g62
NtRp748
(dp749
g65
(dp750
g85
g86
ssg74
g744
sg67
(lp751
g379
asbag60
(g81
g62
NtRp752
(dp753
g65
(dp754
g92
g93
ssg74
g744
sg67
(lp755
S':'
asbag60
(g81
g62
NtRp756
(dp757
g65
(dp758
sg74
g744
sg67
(lp759
g60
(g61
g62
NtRp760
(dp761
g65
(dp762
g73
I3
ssg74
g756
sg67
(lp763
S''
asbasbasbag60
(g76
g62
NtRp764
(dp765
g65
(dp766
sg74
g640
sg67
(lp767
g60
(g81
g62
NtRp768
(dp769
g65
(dp770
g85
g86
ssg74
g764
sg67
(lp771
g400
asbag60
(g81
g62
NtRp772
(dp773
g65
(dp774
g92
g93
ssg74
g764
sg67
(lp775
S':'
asbag60
(g81
g62
NtRp776
(dp777
g65
(dp778
sg74
g764
sg67
(lp779
g60
(g61
g62
NtRp780
(dp781
g65
(dp782
g73
I3
ssg74
g776
sg67
(lp783
S''
asbasbasbag60
(g76
g62
NtRp784
(dp785
g65
(dp786
sg74
g640
sg67
(lp787
g60
(g81
g62
NtRp788
(dp789
g65
(dp790
g85
g86
ssg74
g784
sg67
(lp791
g421
asbag60
(g81
g62
NtRp792
(dp793
g65
(dp794
g92
g93
ssg74
g784
sg67
(lp795
S':'
asbag60
(g81
g62
NtRp796
(dp797
g65
(dp798
sg74
g784
sg67
(lp799
g60
(g61
g62
NtRp800
(dp801
g65
(dp802
g73
I3
ssg74
g796
sg67
(lp803
S''
asbasbasbasbasbasbasbag60
(g76
g62
NtRp804
(dp805
g65
(dp806
sg74
g237
sg67
(lp807
g60
(g81
g62
NtRp808
(dp809
g65
(dp810
g85
g86
ssg74
g804
sg67
(lp811
S'session_id_welcome'
p812
asbag60
(g81
g62
NtRp813
(dp814
g65
(dp815
g92
g93
ssg74
g804
sg67
(lp816
S':'
asbag60
(g81
g62
NtRp817
(dp818
g65
(dp819
sg74
g804
sg67
(lp820
g60
(g61
g62
NtRp821
(dp822
g65
(dp823
g73
I4
ssg74
g817
sg67
(lp824
g60
(g69
g62
NtRp825
(dp826
g65
(dp827
g73
I3
ssg74
Nsg67
(lp828
g60
(g76
g62
NtRp829
(dp830
g65
(dp831
sg74
g825
sg67
(lp832
g60
(g81
g62
NtRp833
(dp834
g65
(dp835
g85
g86
ssg74
g829
sg67
(lp836
g274
asbag60
(g81
g62
NtRp837
(dp838
g65
(dp839
g92
g93
ssg74
g829
sg67
(lp840
S':'
asbag60
(g81
g62
NtRp841
(dp842
g65
(dp843
sg74
g829
sg67
(lp844
g60
(g61
g62
NtRp845
(dp846
g65
(dp847
g73
I3
ssg74
g841
sg67
(lp848
S''
asbasbasbag60
(g76
g62
NtRp849
(dp850
g65
(dp851
sg74
g825
sg67
(lp852
g60
(g81
g62
NtRp853
(dp854
g65
(dp855
g85
g86
ssg74
g849
sg67
(lp856
g295
asbag60
(g81
g62
NtRp857
(dp858
g65
(dp859
g92
g93
ssg74
g849
sg67
(lp860
S':'
asbag60
(g81
g62
NtRp861
(dp862
g65
(dp863
sg74
g849
sg67
(lp864
g60
(g61
g62
NtRp865
(dp866
g65
(dp867
g73
I3
ssg74
g861
sg67
(lp868
S''
asbasbasbag60
(g76
g62
NtRp869
(dp870
g65
(dp871
sg74
g825
sg67
(lp872
g60
(g81
g62
NtRp873
(dp874
g65
(dp875
g85
g86
ssg74
g869
sg67
(lp876
g316
asbag60
(g81
g62
NtRp877
(dp878
g65
(dp879
g92
g93
ssg74
g869
sg67
(lp880
S':'
asbag60
(g81
g62
NtRp881
(dp882
g65
(dp883
sg74
g869
sg67
(lp884
g60
(g61
g62
NtRp885
(dp886
g65
(dp887
g73
I3
ssg74
g881
sg67
(lp888
S''
asbasbasbag60
(g76
g62
NtRp889
(dp890
g65
(dp891
sg74
g825
sg67
(lp892
g60
(g81
g62
NtRp893
(dp894
g65
(dp895
g85
g86
ssg74
g889
sg67
(lp896
g337
asbag60
(g81
g62
NtRp897
(dp898
g65
(dp899
g92
g93
ssg74
g889
sg67
(lp900
S':'
asbag60
(g81
g62
NtRp901
(dp902
g65
(dp903
sg74
g889
sg67
(lp904
g60
(g61
g62
NtRp905
(dp906
g65
(dp907
g73
I3
ssg74
g901
sg67
(lp908
S''
asbasbasbag60
(g76
g62
NtRp909
(dp910
g65
(dp911
sg74
g825
sg67
(lp912
g60
(g81
g62
NtRp913
(dp914
g65
(dp915
g85
g86
ssg74
g909
sg67
(lp916
g358
asbag60
(g81
g62
NtRp917
(dp918
g65
(dp919
g92
g93
ssg74
g909
sg67
(lp920
S':'
asbag60
(g81
g62
NtRp921
(dp922
g65
(dp923
sg74
g909
sg67
(lp924
g60
(g61
g62
NtRp925
(dp926
g65
(dp927
g73
I3
ssg74
g921
sg67
(lp928
S''
asbasbasbag60
(g76
g62
NtRp929
(dp930
g65
(dp931
sg74
g825
sg67
(lp932
g60
(g81
g62
NtRp933
(dp934
g65
(dp935
g85
g86
ssg74
g929
sg67
(lp936
g379
asbag60
(g81
g62
NtRp937
(dp938
g65
(dp939
g92
g93
ssg74
g929
sg67
(lp940
S':'
asbag60
(g81
g62
NtRp941
(dp942
g65
(dp943
sg74
g929
sg67
(lp944
g60
(g61
g62
NtRp945
(dp946
g65
(dp947
g73
I3
ssg74
g941
sg67
(lp948
S''
asbasbasbag60
(g76
g62
NtRp949
(dp950
g65
(dp951
sg74
g825
sg67
(lp952
g60
(g81
g62
NtRp953
(dp954
g65
(dp955
g85
g86
ssg74
g949
sg67
(lp956
g400
asbag60
(g81
g62
NtRp957
(dp958
g65
(dp959
g92
g93
ssg74
g949
sg67
(lp960
S':'
asbag60
(g81
g62
NtRp961
(dp962
g65
(dp963
sg74
g949
sg67
(lp964
g60
(g61
g62
NtRp965
(dp966
g65
(dp967
g73
I3
ssg74
g961
sg67
(lp968
S''
asbasbasbag60
(g76
g62
NtRp969
(dp970
g65
(dp971
sg74
g825
sg67
(lp972
g60
(g81
g62
NtRp973
(dp974
g65
(dp975
g85
g86
ssg74
g969
sg67
(lp976
g421
asbag60
(g81
g62
NtRp977
(dp978
g65
(dp979
g92
g93
ssg74
g969
sg67
(lp980
S':'
asbag60
(g81
g62
NtRp981
(dp982
g65
(dp983
sg74
g969
sg67
(lp984
g60
(g61
g62
NtRp985
(dp986
g65
(dp987
g73
I3
ssg74
g981
sg67
(lp988
S''
asbasbasbasbasbasbasbasbasbasbasbag60
(g76
g62
NtRp989
(dp990
g65
(dp991
sg74
g70
sg67
(lp992
g60
(g81
g62
NtRp993
(dp994
g65
(dp995
g85
g86
ssg74
g989
sg67
(lp996
S'env'
p997
asbag60
(g81
g62
NtRp998
(dp999
g65
(dp1000
g92
g93
ssg74
g989
sg67
(lp1001
S':'
asbag60
(g81
g62
NtRp1002
(dp1003
g65
(dp1004
sg74
g989
sg67
(lp1005
g60
(g61
g62
NtRp1006
(dp1007
g65
(dp1008
g73
I5
ssg74
g1002
sg67
(lp1009
g60
(g69
g62
NtRp1010
(dp1011
g65
(dp1012
g73
I4
ssg74
Nsg67
(lp1013
g60
(g76
g62
NtRp1014
(dp1015
g65
(dp1016
sg74
g1010
sg67
(lp1017
g60
(g81
g62
NtRp1018
(dp1019
g65
(dp1020
g85
g86
ssg74
g1014
sg67
(lp1021
S'app_folders'
p1022
asbag60
(g81
g62
NtRp1023
(dp1024
g65
(dp1025
g92
g93
ssg74
g1014
sg67
(lp1026
S':'
asbag60
(g81
g62
NtRp1027
(dp1028
g65
(dp1029
sg74
g1014
sg67
(lp1030
g60
(g61
g62
NtRp1031
(dp1032
g65
(dp1033
g73
I4
ssg74
g1027
sg67
(lp1034
S"set(['/home/brencam/web2py/applications/admin/', '/home/brencam/web2py/applications/welcome/', '/home/brencam/web2py/applications/gallery/'])"
p1035
asbasbasbag60
(g76
g62
NtRp1036
(dp1037
g65
(dp1038
sg74
g1010
sg67
(lp1039
g60
(g81
g62
NtRp1040
(dp1041
g65
(dp1042
g85
g86
ssg74
g1036
sg67
(lp1043
S'applications_parent'
p1044
asbag60
(g81
g62
NtRp1045
(dp1046
g65
(dp1047
g92
g93
ssg74
g1036
sg67
(lp1048
S':'
asbag60
(g81
g62
NtRp1049
(dp1050
g65
(dp1051
sg74
g1036
sg67
(lp1052
g60
(g61
g62
NtRp1053
(dp1054
g65
(dp1055
g73
I4
ssg74
g1049
sg67
(lp1056
S'/home/brencam/web2py'
p1057
asbasbasbag60
(g76
g62
NtRp1058
(dp1059
g65
(dp1060
sg74
g1010
sg67
(lp1061
g60
(g81
g62
NtRp1062
(dp1063
g65
(dp1064
g85
g86
ssg74
g1058
sg67
(lp1065
S'cmd_args'
p1066
asbag60
(g81
g62
NtRp1067
(dp1068
g65
(dp1069
g92
g93
ssg74
g1058
sg67
(lp1070
S':'
asbag60
(g81
g62
NtRp1071
(dp1072
g65
(dp1073
sg74
g1058
sg67
(lp1074
g60
(g61
g62
NtRp1075
(dp1076
g65
(dp1077
g73
I4
ssg74
g1071
sg67
(lp1078
g60
(g69
g62
NtRp1079
(dp1080
g65
(dp1081
g73
I3
ssg74
Nsg67
(lp1082
sbasbasbasbag60
(g76
g62
NtRp1083
(dp1084
g65
(dp1085
sg74
g1010
sg67
(lp1086
g60
(g81
g62
NtRp1087
(dp1088
g65
(dp1089
g85
g86
ssg74
g1083
sg67
(lp1090
S'cmd_options'
p1091
asbag60
(g81
g62
NtRp1092
(dp1093
g65
(dp1094
g92
g93
ssg74
g1083
sg67
(lp1095
S':'
asbag60
(g81
g62
NtRp1096
(dp1097
g65
(dp1098
sg74
g1083
sg67
(lp1099
g60
(g61
g62
NtRp1100
(dp1101
g65
(dp1102
g73
I4
ssg74
g1096
sg67
(lp1103
S"<Values at 0x8e5026c: {'verbose': False, 'ip': '127.0.0.1', 'shutdown_timeout': 5, 'taskbar': False, 'nocron': False, 'pid_filename': 'httpserver.pid', 'maxthreads': None, 'softcron': False, 'server_name': 'localhost.localdomain', 'bpython': False, 'nogui': False, 'port': 8000, 'extcron': False, 'debuglevel': 30, 'test': None, 'folder': '/home/brencam/web2py', 'config': '', 'import_models': False, 'winservice': '', 'shell': None, 'run': '', 'log_filename': 'httpserver.log', 'args': [''], 'ssl_ca_certificate': None, 'scheduler': None, 'profiler_filename': None, 'ssl_private_key': '', 'password': 'admin', 'request_queue_size': 5, 'ssl_certificate': '', 'cronjob': False, 'plain': False, 'quiet': False, 'interfaces': None, 'minthreads': None, 'timeout': 10, 'numthreads': None, 'nobanner': False}>"
p1104
asbasbasbag60
(g76
g62
NtRp1105
(dp1106
g65
(dp1107
sg74
g1010
sg67
(lp1108
g60
(g81
g62
NtRp1109
(dp1110
g65
(dp1111
g85
g86
ssg74
g1105
sg67
(lp1112
S'db_sessions'
p1113
asbag60
(g81
g62
NtRp1114
(dp1115
g65
(dp1116
g92
g93
ssg74
g1105
sg67
(lp1117
S':'
asbag60
(g81
g62
NtRp1118
(dp1119
g65
(dp1120
sg74
g1105
sg67
(lp1121
g60
(g61
g62
NtRp1122
(dp1123
g65
(dp1124
g73
I4
ssg74
g1118
sg67
(lp1125
S'set([])'
p1126
asbasbasbag60
(g76
g62
NtRp1127
(dp1128
g65
(dp1129
sg74
g1010
sg67
(lp1130
g60
(g81
g62
NtRp1131
(dp1132
g65
(dp1133
g85
g86
ssg74
g1127
sg67
(lp1134
S'debugging'
p1135
asbag60
(g81
g62
NtRp1136
(dp1137
g65
(dp1138
g92
g93
ssg74
g1127
sg67
(lp1139
S':'
asbag60
(g81
g62
NtRp1140
(dp1141
g65
(dp1142
sg74
g1127
sg67
(lp1143
g60
(g61
g62
NtRp1144
(dp1145
g65
(dp1146
g73
I4
ssg74
g1140
sg67
(lp1147
g103
asbasbasbag60
(g76
g62
NtRp1148
(dp1149
g65
(dp1150
sg74
g1010
sg67
(lp1151
g60
(g81
g62
NtRp1152
(dp1153
g65
(dp1154
g85
g86
ssg74
g1148
sg67
(lp1155
S'gluon_parent'
p1156
asbag60
(g81
g62
NtRp1157
(dp1158
g65
(dp1159
g92
g93
ssg74
g1148
sg67
(lp1160
S':'
asbag60
(g81
g62
NtRp1161
(dp1162
g65
(dp1163
sg74
g1148
sg67
(lp1164
g60
(g61
g62
NtRp1165
(dp1166
g65
(dp1167
g73
I4
ssg74
g1161
sg67
(lp1168
S'/home/brencam/web2py'
p1169
asbasbasbag60
(g76
g62
NtRp1170
(dp1171
g65
(dp1172
sg74
g1010
sg67
(lp1173
g60
(g81
g62
NtRp1174
(dp1175
g65
(dp1176
g85
g86
ssg74
g1170
sg67
(lp1177
S'http_accept'
p1178
asbag60
(g81
g62
NtRp1179
(dp1180
g65
(dp1181
g92
g93
ssg74
g1170
sg67
(lp1182
S':'
asbag60
(g81
g62
NtRp1183
(dp1184
g65
(dp1185
sg74
g1170
sg67
(lp1186
g60
(g61
g62
NtRp1187
(dp1188
g65
(dp1189
g73
I4
ssg74
g1183
sg67
(lp1190
S'text/html,application/xhtml+xml,application/xml;q=0.9,*/*;q=0.8'
p1191
asbasbasbag60
(g76
g62
NtRp1192
(dp1193
g65
(dp1194
sg74
g1010
sg67
(lp1195
g60
(g81
g62
NtRp1196
(dp1197
g65
(dp1198
g85
g86
ssg74
g1192
sg67
(lp1199
S'http_accept_charset'
p1200
asbag60
(g81
g62
NtRp1201
(dp1202
g65
(dp1203
g92
g93
ssg74
g1192
sg67
(lp1204
S':'
asbag60
(g81
g62
NtRp1205
(dp1206
g65
(dp1207
sg74
g1192
sg67
(lp1208
g60
(g61
g62
NtRp1209
(dp1210
g65
(dp1211
g73
I4
ssg74
g1205
sg67
(lp1212
S'ISO-8859-1,utf-8;q=0.7,*;q=0.3'
p1213
asbasbasbag60
(g76
g62
NtRp1214
(dp1215
g65
(dp1216
sg74
g1010
sg67
(lp1217
g60
(g81
g62
NtRp1218
(dp1219
g65
(dp1220
g85
g86
ssg74
g1214
sg67
(lp1221
S'http_accept_encoding'
p1222
asbag60
(g81
g62
NtRp1223
(dp1224
g65
(dp1225
g92
g93
ssg74
g1214
sg67
(lp1226
S':'
asbag60
(g81
g62
NtRp1227
(dp1228
g65
(dp1229
sg74
g1214
sg67
(lp1230
g60
(g61
g62
NtRp1231
(dp1232
g65
(dp1233
g73
I4
ssg74
g1227
sg67
(lp1234
S'gzip,deflate,sdch'
p1235
asbasbasbag60
(g76
g62
NtRp1236
(dp1237
g65
(dp1238
sg74
g1010
sg67
(lp1239
g60
(g81
g62
NtRp1240
(dp1241
g65
(dp1242
g85
g86
ssg74
g1236
sg67
(lp1243
S'http_accept_language'
p1244
asbag60
(g81
g62
NtRp1245
(dp1246
g65
(dp1247
g92
g93
ssg74
g1236
sg67
(lp1248
S':'
asbag60
(g81
g62
NtRp1249
(dp1250
g65
(dp1251
sg74
g1236
sg67
(lp1252
g60
(g61
g62
NtRp1253
(dp1254
g65
(dp1255
g73
I4
ssg74
g1249
sg67
(lp1256
S'en-US,en;q=0.8'
p1257
asbasbasbag60
(g76
g62
NtRp1258
(dp1259
g65
(dp1260
sg74
g1010
sg67
(lp1261
g60
(g81
g62
NtRp1262
(dp1263
g65
(dp1264
g85
g86
ssg74
g1258
sg67
(lp1265
S'http_connection'
p1266
asbag60
(g81
g62
NtRp1267
(dp1268
g65
(dp1269
g92
g93
ssg74
g1258
sg67
(lp1270
S':'
asbag60
(g81
g62
NtRp1271
(dp1272
g65
(dp1273
sg74
g1258
sg67
(lp1274
g60
(g61
g62
NtRp1275
(dp1276
g65
(dp1277
g73
I4
ssg74
g1271
sg67
(lp1278
S'keep-alive'
p1279
asbasbasbag60
(g76
g62
NtRp1280
(dp1281
g65
(dp1282
sg74
g1010
sg67
(lp1283
g60
(g81
g62
NtRp1284
(dp1285
g65
(dp1286
g85
g86
ssg74
g1280
sg67
(lp1287
S'http_cookie'
p1288
asbag60
(g81
g62
NtRp1289
(dp1290
g65
(dp1291
g92
g93
ssg74
g1280
sg67
(lp1292
S':'
asbag60
(g81
g62
NtRp1293
(dp1294
g65
(dp1295
sg74
g1280
sg67
(lp1296
g60
(g61
g62
NtRp1297
(dp1298
g65
(dp1299
g73
I4
ssg74
g1293
sg67
(lp1300
S'__utma=96992031.552746526.1281494094.1291180555.1291186411.9; csrftoken=7b3621df70ed8d65c15785486fff8908; __utma_a2a=7438973308.1350086890.1318529964.1318645324.1318645410.28; session_id_gallery=127.0.0.1-5764d7f9-8178-4db1-bc94-76589577a2e3; session_id_welcome=127.0.0.1-2548fbb9-cb47-4024-8841-2b05f4c48186; session_id_admin=127.0.0.1-3e5a77ab-784e-45e7-af04-68be2a31ef2c'
p1301
asbasbasbag60
(g76
g62
NtRp1302
(dp1303
g65
(dp1304
sg74
g1010
sg67
(lp1305
g60
(g81
g62
NtRp1306
(dp1307
g65
(dp1308
g85
g86
ssg74
g1302
sg67
(lp1309
S'http_host'
p1310
asbag60
(g81
g62
NtRp1311
(dp1312
g65
(dp1313
g92
g93
ssg74
g1302
sg67
(lp1314
S':'
asbag60
(g81
g62
NtRp1315
(dp1316
g65
(dp1317
sg74
g1302
sg67
(lp1318
g60
(g61
g62
NtRp1319
(dp1320
g65
(dp1321
g73
I4
ssg74
g1315
sg67
(lp1322
S'127.0.0.1:8000'
p1323
asbasbasbag60
(g76
g62
NtRp1324
(dp1325
g65
(dp1326
sg74
g1010
sg67
(lp1327
g60
(g81
g62
NtRp1328
(dp1329
g65
(dp1330
g85
g86
ssg74
g1324
sg67
(lp1331
S'http_referer'
p1332
asbag60
(g81
g62
NtRp1333
(dp1334
g65
(dp1335
g92
g93
ssg74
g1324
sg67
(lp1336
S':'
asbag60
(g81
g62
NtRp1337
(dp1338
g65
(dp1339
sg74
g1324
sg67
(lp1340
g60
(g61
g62
NtRp1341
(dp1342
g65
(dp1343
g73
I4
ssg74
g1337
sg67
(lp1344
S'http://127.0.0.1:8000/admin/default/site'
p1345
asbasbasbag60
(g76
g62
NtRp1346
(dp1347
g65
(dp1348
sg74
g1010
sg67
(lp1349
g60
(g81
g62
NtRp1350
(dp1351
g65
(dp1352
g85
g86
ssg74
g1346
sg67
(lp1353
S'http_user_agent'
p1354
asbag60
(g81
g62
NtRp1355
(dp1356
g65
(dp1357
g92
g93
ssg74
g1346
sg67
(lp1358
S':'
asbag60
(g81
g62
NtRp1359
(dp1360
g65
(dp1361
sg74
g1346
sg67
(lp1362
g60
(g61
g62
NtRp1363
(dp1364
g65
(dp1365
g73
I4
ssg74
g1359
sg67
(lp1366
S'Mozilla/5.0 (X11; Linux i686) AppleWebKit/535.1 (KHTML, like Gecko) Chrome/14.0.835.204 Safari/535.1'
p1367
asbasbasbag60
(g76
g62
NtRp1368
(dp1369
g65
(dp1370
sg74
g1010
sg67
(lp1371
g60
(g81
g62
NtRp1372
(dp1373
g65
(dp1374
g85
g86
ssg74
g1368
sg67
(lp1375
S'is_jython'
p1376
asbag60
(g81
g62
NtRp1377
(dp1378
g65
(dp1379
g92
g93
ssg74
g1368
sg67
(lp1380
S':'
asbag60
(g81
g62
NtRp1381
(dp1382
g65
(dp1383
sg74
g1368
sg67
(lp1384
g60
(g61
g62
NtRp1385
(dp1386
g65
(dp1387
g73
I4
ssg74
g1381
sg67
(lp1388
g103
asbasbasbag60
(g76
g62
NtRp1389
(dp1390
g65
(dp1391
sg74
g1010
sg67
(lp1392
g60
(g81
g62
NtRp1393
(dp1394
g65
(dp1395
g85
g86
ssg74
g1389
sg67
(lp1396
S'path_info'
p1397
asbag60
(g81
g62
NtRp1398
(dp1399
g65
(dp1400
g92
g93
ssg74
g1389
sg67
(lp1401
S':'
asbag60
(g81
g62
NtRp1402
(dp1403
g65
(dp1404
sg74
g1389
sg67
(lp1405
g60
(g61
g62
NtRp1406
(dp1407
g65
(dp1408
g73
I4
ssg74
g1402
sg67
(lp1409
S'/gallery/default/index'
p1410
asbasbasbag60
(g76
g62
NtRp1411
(dp1412
g65
(dp1413
sg74
g1010
sg67
(lp1414
g60
(g81
g62
NtRp1415
(dp1416
g65
(dp1417
g85
g86
ssg74
g1411
sg67
(lp1418
S'query_string'
p1419
asbag60
(g81
g62
NtRp1420
(dp1421
g65
(dp1422
g92
g93
ssg74
g1411
sg67
(lp1423
S':'
asbag60
(g81
g62
NtRp1424
(dp1425
g65
(dp1426
sg74
g1411
sg67
(lp1427
g60
(g61
g62
NtRp1428
(dp1429
g65
(dp1430
g73
I4
ssg74
g1424
sg67
(lp1431
S''
asbasbasbag60
(g76
g62
NtRp1432
(dp1433
g65
(dp1434
sg74
g1010
sg67
(lp1435
g60
(g81
g62
NtRp1436
(dp1437
g65
(dp1438
g85
g86
ssg74
g1432
sg67
(lp1439
S'remote_addr'
p1440
asbag60
(g81
g62
NtRp1441
(dp1442
g65
(dp1443
g92
g93
ssg74
g1432
sg67
(lp1444
S':'
asbag60
(g81
g62
NtRp1445
(dp1446
g65
(dp1447
sg74
g1432
sg67
(lp1448
g60
(g61
g62
NtRp1449
(dp1450
g65
(dp1451
g73
I4
ssg74
g1445
sg67
(lp1452
g193
asbasbasbag60
(g76
g62
NtRp1453
(dp1454
g65
(dp1455
sg74
g1010
sg67
(lp1456
g60
(g81
g62
NtRp1457
(dp1458
g65
(dp1459
g85
g86
ssg74
g1453
sg67
(lp1460
S'remote_port'
p1461
asbag60
(g81
g62
NtRp1462
(dp1463
g65
(dp1464
g92
g93
ssg74
g1453
sg67
(lp1465
S':'
asbag60
(g81
g62
NtRp1466
(dp1467
g65
(dp1468
sg74
g1453
sg67
(lp1469
g60
(g61
g62
NtRp1470
(dp1471
g65
(dp1472
g73
I4
ssg74
g1466
sg67
(lp1473
S'59005'
p1474
asbasbasbag60
(g76
g62
NtRp1475
(dp1476
g65
(dp1477
sg74
g1010
sg67
(lp1478
g60
(g81
g62
NtRp1479
(dp1480
g65
(dp1481
g85
g86
ssg74
g1475
sg67
(lp1482
S'request_method'
p1483
asbag60
(g81
g62
NtRp1484
(dp1485
g65
(dp1486
g92
g93
ssg74
g1475
sg67
(lp1487
S':'
asbag60
(g81
g62
NtRp1488
(dp1489
g65
(dp1490
sg74
g1475
sg67
(lp1491
g60
(g61
g62
NtRp1492
(dp1493
g65
(dp1494
g73
I4
ssg74
g1488
sg67
(lp1495
S'GET'
p1496
asbasbasbag60
(g76
g62
NtRp1497
(dp1498
g65
(dp1499
sg74
g1010
sg67
(lp1500
g60
(g81
g62
NtRp1501
(dp1502
g65
(dp1503
g85
g86
ssg74
g1497
sg67
(lp1504
S'script_name'
p1505
asbag60
(g81
g62
NtRp1506
(dp1507
g65
(dp1508
g92
g93
ssg74
g1497
sg67
(lp1509
S':'
asbag60
(g81
g62
NtRp1510
(dp1511
g65
(dp1512
sg74
g1497
sg67
(lp1513
g60
(g61
g62
NtRp1514
(dp1515
g65
(dp1516
g73
I4
ssg74
g1510
sg67
(lp1517
S''
asbasbasbag60
(g76
g62
NtRp1518
(dp1519
g65
(dp1520
sg74
g1010
sg67
(lp1521
g60
(g81
g62
NtRp1522
(dp1523
g65
(dp1524
g85
g86
ssg74
g1518
sg67
(lp1525
S'server_name'
p1526
asbag60
(g81
g62
NtRp1527
(dp1528
g65
(dp1529
g92
g93
ssg74
g1518
sg67
(lp1530
S':'
asbag60
(g81
g62
NtRp1531
(dp1532
g65
(dp1533
sg74
g1518
sg67
(lp1534
g60
(g61
g62
NtRp1535
(dp1536
g65
(dp1537
g73
I4
ssg74
g1531
sg67
(lp1538
S'localhost.localdomain'
p1539
asbasbasbag60
(g76
g62
NtRp1540
(dp1541
g65
(dp1542
sg74
g1010
sg67
(lp1543
g60
(g81
g62
NtRp1544
(dp1545
g65
(dp1546
g85
g86
ssg74
g1540
sg67
(lp1547
S'server_port'
p1548
asbag60
(g81
g62
NtRp1549
(dp1550
g65
(dp1551
g92
g93
ssg74
g1540
sg67
(lp1552
S':'
asbag60
(g81
g62
NtRp1553
(dp1554
g65
(dp1555
sg74
g1540
sg67
(lp1556
g60
(g61
g62
NtRp1557
(dp1558
g65
(dp1559
g73
I4
ssg74
g1553
sg67
(lp1560
S'8000'
p1561
asbasbasbag60
(g76
g62
NtRp1562
(dp1563
g65
(dp1564
sg74
g1010
sg67
(lp1565
g60
(g81
g62
NtRp1566
(dp1567
g65
(dp1568
g85
g86
ssg74
g1562
sg67
(lp1569
S'server_protocol'
p1570
asbag60
(g81
g62
NtRp1571
(dp1572
g65
(dp1573
g92
g93
ssg74
g1562
sg67
(lp1574
S':'
asbag60
(g81
g62
NtRp1575
(dp1576
g65
(dp1577
sg74
g1562
sg67
(lp1578
g60
(g61
g62
NtRp1579
(dp1580
g65
(dp1581
g73
I4
ssg74
g1575
sg67
(lp1582
S'HTTP/1.1'
p1583
asbasbasbag60
(g76
g62
NtRp1584
(dp1585
g65
(dp1586
sg74
g1010
sg67
(lp1587
g60
(g81
g62
NtRp1588
(dp1589
g65
(dp1590
g85
g86
ssg74
g1584
sg67
(lp1591
S'server_software'
p1592
asbag60
(g81
g62
NtRp1593
(dp1594
g65
(dp1595
g92
g93
ssg74
g1584
sg67
(lp1596
S':'
asbag60
(g81
g62
NtRp1597
(dp1598
g65
(dp1599
sg74
g1584
sg67
(lp1600
g60
(g61
g62
NtRp1601
(dp1602
g65
(dp1603
g73
I4
ssg74
g1597
sg67
(lp1604
S'Rocket 1.2.4'
p1605
asbasbasbag60
(g76
g62
NtRp1606
(dp1607
g65
(dp1608
sg74
g1010
sg67
(lp1609
g60
(g81
g62
NtRp1610
(dp1611
g65
(dp1612
g85
g86
ssg74
g1606
sg67
(lp1613
S'web2py_crontype'
p1614
asbag60
(g81
g62
NtRp1615
(dp1616
g65
(dp1617
g92
g93
ssg74
g1606
sg67
(lp1618
S':'
asbag60
(g81
g62
NtRp1619
(dp1620
g65
(dp1621
sg74
g1606
sg67
(lp1622
g60
(g61
g62
NtRp1623
(dp1624
g65
(dp1625
g73
I4
ssg74
g1619
sg67
(lp1626
S'hard'
p1627
asbasbasbag60
(g76
g62
NtRp1628
(dp1629
g65
(dp1630
sg74
g1010
sg67
(lp1631
g60
(g81
g62
NtRp1632
(dp1633
g65
(dp1634
g85
g86
ssg74
g1628
sg67
(lp1635
S'web2py_path'
p1636
asbag60
(g81
g62
NtRp1637
(dp1638
g65
(dp1639
g92
g93
ssg74
g1628
sg67
(lp1640
S':'
asbag60
(g81
g62
NtRp1641
(dp1642
g65
(dp1643
sg74
g1628
sg67
(lp1644
g60
(g61
g62
NtRp1645
(dp1646
g65
(dp1647
g73
I4
ssg74
g1641
sg67
(lp1648
g1057
asbasbasbag60
(g76
g62
NtRp1649
(dp1650
g65
(dp1651
sg74
g1010
sg67
(lp1652
g60
(g81
g62
NtRp1653
(dp1654
g65
(dp1655
g85
g86
ssg74
g1649
sg67
(lp1656
S'web2py_version'
p1657
asbag60
(g81
g62
NtRp1658
(dp1659
g65
(dp1660
g92
g93
ssg74
g1649
sg67
(lp1661
S':'
asbag60
(g81
g62
NtRp1662
(dp1663
g65
(dp1664
sg74
g1649
sg67
(lp1665
g60
(g61
g62
NtRp1666
(dp1667
g65
(dp1668
g73
I4
ssg74
g1662
sg67
(lp1669
g60
(g69
g62
NtRp1670
(dp1671
g65
(dp1672
g73
I3
ssg74
Nsg67
(lp1673
g60
(g76
g62
NtRp1674
(dp1675
g65
(dp1676
sg74
g1670
sg67
(lp1677
g60
(g81
g62
NtRp1678
(dp1679
g65
(dp1680
sg74
g1674
sg67
(lp1681
g60
(g61
g62
NtRp1682
(dp1683
g65
(dp1684
g73
I3
ssg74
g1678
sg67
(lp1685
S'1'
asbasbasbag60
(g76
g62
NtRp1686
(dp1687
g65
(dp1688
sg74
g1670
sg67
(lp1689
g60
(g81
g62
NtRp1690
(dp1691
g65
(dp1692
sg74
g1686
sg67
(lp1693
g60
(g61
g62
NtRp1694
(dp1695
g65
(dp1696
g73
I3
ssg74
g1690
sg67
(lp1697
S'99'
p1698
asbasbasbag60
(g76
g62
NtRp1699
(dp1700
g65
(dp1701
sg74
g1670
sg67
(lp1702
g60
(g81
g62
NtRp1703
(dp1704
g65
(dp1705
sg74
g1699
sg67
(lp1706
g60
(g61
g62
NtRp1707
(dp1708
g65
(dp1709
g73
I3
ssg74
g1703
sg67
(lp1710
S'2'
asbasbasbag60
(g76
g62
NtRp1711
(dp1712
g65
(dp1713
sg74
g1670
sg67
(lp1714
g60
(g81
g62
NtRp1715
(dp1716
g65
(dp1717
sg74
g1711
sg67
(lp1718
g60
(g61
g62
NtRp1719
(dp1720
g65
(dp1721
g73
I3
ssg74
g1715
sg67
(lp1722
S'datetime.datetime(2011, 9, 26, 6, 55, 33)'
p1723
asbasbasbag60
(g76
g62
NtRp1724
(dp1725
g65
(dp1726
sg74
g1670
sg67
(lp1727
g60
(g81
g62
NtRp1728
(dp1729
g65
(dp1730
sg74
g1724
sg67
(lp1731
g60
(g61
g62
NtRp1732
(dp1733
g65
(dp1734
g73
I3
ssg74
g1728
sg67
(lp1735
S'stable'
p1736
asbasbasbasbasbasbasbag60
(g76
g62
NtRp1737
(dp1738
g65
(dp1739
sg74
g1010
sg67
(lp1740
g60
(g81
g62
NtRp1741
(dp1742
g65
(dp1743
g85
g86
ssg74
g1737
sg67
(lp1744
S'wsgi_errors'
p1745
asbag60
(g81
g62
NtRp1746
(dp1747
g65
(dp1748
g92
g93
ssg74
g1737
sg67
(lp1749
S':'
asbag60
(g81
g62
NtRp1750
(dp1751
g65
(dp1752
sg74
g1737
sg67
(lp1753
g60
(g61
g62
NtRp1754
(dp1755
g65
(dp1756
g73
I4
ssg74
g1750
sg67
(lp1757
S"<open file '<stderr>', mode 'w' at 0xb75610d0>"
p1758
asbasbasbag60
(g76
g62
NtRp1759
(dp1760
g65
(dp1761
sg74
g1010
sg67
(lp1762
g60
(g81
g62
NtRp1763
(dp1764
g65
(dp1765
g85
g86
ssg74
g1759
sg67
(lp1766
S'wsgi_file_wrapper'
p1767
asbag60
(g81
g62
NtRp1768
(dp1769
g65
(dp1770
g92
g93
ssg74
g1759
sg67
(lp1771
S':'
asbag60
(g81
g62
NtRp1772
(dp1773
g65
(dp1774
sg74
g1759
sg67
(lp1775
g60
(g61
g62
NtRp1776
(dp1777
g65
(dp1778
g73
I4
ssg74
g1772
sg67
(lp1779
S'<class wsgiref.util.FileWrapper at 0x8a4d50c>'
p1780
asbasbasbag60
(g76
g62
NtRp1781
(dp1782
g65
(dp1783
sg74
g1010
sg67
(lp1784
g60
(g81
g62
NtRp1785
(dp1786
g65
(dp1787
g85
g86
ssg74
g1781
sg67
(lp1788
S'wsgi_input'
p1789
asbag60
(g81
g62
NtRp1790
(dp1791
g65
(dp1792
g92
g93
ssg74
g1781
sg67
(lp1793
S':'
asbag60
(g81
g62
NtRp1794
(dp1795
g65
(dp1796
sg74
g1781
sg67
(lp1797
g60
(g61
g62
NtRp1798
(dp1799
g65
(dp1800
g73
I4
ssg74
g1794
sg67
(lp1801
S'<socket._fileobject object at 0xaf15bbec>'
p1802
asbasbasbag60
(g76
g62
NtRp1803
(dp1804
g65
(dp1805
sg74
g1010
sg67
(lp1806
g60
(g81
g62
NtRp1807
(dp1808
g65
(dp1809
g85
g86
ssg74
g1803
sg67
(lp1810
S'wsgi_multiprocess'
p1811
asbag60
(g81
g62
NtRp1812
(dp1813
g65
(dp1814
g92
g93
ssg74
g1803
sg67
(lp1815
S':'
asbag60
(g81
g62
NtRp1816
(dp1817
g65
(dp1818
sg74
g1803
sg67
(lp1819
g60
(g61
g62
NtRp1820
(dp1821
g65
(dp1822
g73
I4
ssg74
g1816
sg67
(lp1823
g103
asbasbasbag60
(g76
g62
NtRp1824
(dp1825
g65
(dp1826
sg74
g1010
sg67
(lp1827
g60
(g81
g62
NtRp1828
(dp1829
g65
(dp1830
g85
g86
ssg74
g1824
sg67
(lp1831
S'wsgi_multithread'
p1832
asbag60
(g81
g62
NtRp1833
(dp1834
g65
(dp1835
g92
g93
ssg74
g1824
sg67
(lp1836
S':'
asbag60
(g81
g62
NtRp1837
(dp1838
g65
(dp1839
sg74
g1824
sg67
(lp1840
g60
(g61
g62
NtRp1841
(dp1842
g65
(dp1843
g73
I4
ssg74
g1837
sg67
(lp1844
S'True'
p1845
asbasbasbag60
(g76
g62
NtRp1846
(dp1847
g65
(dp1848
sg74
g1010
sg67
(lp1849
g60
(g81
g62
NtRp1850
(dp1851
g65
(dp1852
g85
g86
ssg74
g1846
sg67
(lp1853
S'wsgi_run_once'
p1854
asbag60
(g81
g62
NtRp1855
(dp1856
g65
(dp1857
g92
g93
ssg74
g1846
sg67
(lp1858
S':'
asbag60
(g81
g62
NtRp1859
(dp1860
g65
(dp1861
sg74
g1846
sg67
(lp1862
g60
(g61
g62
NtRp1863
(dp1864
g65
(dp1865
g73
I4
ssg74
g1859
sg67
(lp1866
g103
asbasbasbag60
(g76
g62
NtRp1867
(dp1868
g65
(dp1869
sg74
g1010
sg67
(lp1870
g60
(g81
g62
NtRp1871
(dp1872
g65
(dp1873
g85
g86
ssg74
g1867
sg67
(lp1874
S'wsgi_url_scheme'
p1875
asbag60
(g81
g62
NtRp1876
(dp1877
g65
(dp1878
g92
g93
ssg74
g1867
sg67
(lp1879
S':'
asbag60
(g81
g62
NtRp1880
(dp1881
g65
(dp1882
sg74
g1867
sg67
(lp1883
g60
(g61
g62
NtRp1884
(dp1885
g65
(dp1886
g73
I4
ssg74
g1880
sg67
(lp1887
S'http'
p1888
asbasbasbag60
(g76
g62
NtRp1889
(dp1890
g65
(dp1891
sg74
g1010
sg67
(lp1892
g60
(g81
g62
NtRp1893
(dp1894
g65
(dp1895
g85
g86
ssg74
g1889
sg67
(lp1896
S'wsgi_version'
p1897
asbag60
(g81
g62
NtRp1898
(dp1899
g65
(dp1900
g92
g93
ssg74
g1889
sg67
(lp1901
S':'
asbag60
(g81
g62
NtRp1902
(dp1903
g65
(dp1904
sg74
g1889
sg67
(lp1905
g60
(g61
g62
NtRp1906
(dp1907
g65
(dp1908
g73
I4
ssg74
g1902
sg67
(lp1909
g60
(g69
g62
NtRp1910
(dp1911
g65
(dp1912
g73
I3
ssg74
Nsg67
(lp1913
g60
(g76
g62
NtRp1914
(dp1915
g65
(dp1916
sg74
g1910
sg67
(lp1917
g60
(g81
g62
NtRp1918
(dp1919
g65
(dp1920
sg74
g1914
sg67
(lp1921
g60
(g61
g62
NtRp1922
(dp1923
g65
(dp1924
g73
I3
ssg74
g1918
sg67
(lp1925
S'1'
asbasbasbag60
(g76
g62
NtRp1926
(dp1927
g65
(dp1928
sg74
g1910
sg67
(lp1929
g60
(g81
g62
NtRp1930
(dp1931
g65
(dp1932
sg74
g1926
sg67
(lp1933
g60
(g61
g62
NtRp1934
(dp1935
g65
(dp1936
g73
I3
ssg74
g1930
sg67
(lp1937
S'0'
asbasbasbasbasbasbasbasbasbasbasbag60
(g76
g62
NtRp1938
(dp1939
g65
(dp1940
sg74
g70
sg67
(lp1941
g60
(g81
g62
NtRp1942
(dp1943
g65
(dp1944
g85
g86
ssg74
g1938
sg67
(lp1945
S'extension'
p1946
asbag60
(g81
g62
NtRp1947
(dp1948
g65
(dp1949
g92
g93
ssg74
g1938
sg67
(lp1950
S':'
asbag60
(g81
g62
NtRp1951
(dp1952
g65
(dp1953
sg74
g1938
sg67
(lp1954
g60
(g61
g62
NtRp1955
(dp1956
g65
(dp1957
g73
I5
ssg74
g1951
sg67
(lp1958
S'html'
p1959
asbasbasbag60
(g76
g62
NtRp1960
(dp1961
g65
(dp1962
sg74
g70
sg67
(lp1963
g60
(g81
g62
NtRp1964
(dp1965
g65
(dp1966
g85
g86
ssg74
g1960
sg67
(lp1967
S'folder'
p1968
asbag60
(g81
g62
NtRp1969
(dp1970
g65
(dp1971
g92
g93
ssg74
g1960
sg67
(lp1972
S':'
asbag60
(g81
g62
NtRp1973
(dp1974
g65
(dp1975
sg74
g1960
sg67
(lp1976
g60
(g61
g62
NtRp1977
(dp1978
g65
(dp1979
g73
I5
ssg74
g1973
sg67
(lp1980
S'/home/brencam/web2py/applications/gallery/'
p1981
asbasbasbag60
(g76
g62
NtRp1982
(dp1983
g65
(dp1984
sg74
g70
sg67
(lp1985
g60
(g81
g62
NtRp1986
(dp1987
g65
(dp1988
g85
g86
ssg74
g1982
sg67
(lp1989
S'function'
p1990
asbag60
(g81
g62
NtRp1991
(dp1992
g65
(dp1993
g92
g93
ssg74
g1982
sg67
(lp1994
S':'
asbag60
(g81
g62
NtRp1995
(dp1996
g65
(dp1997
sg74
g1982
sg67
(lp1998
g60
(g61
g62
NtRp1999
(dp2000
g65
(dp2001
g73
I5
ssg74
g1995
sg67
(lp2002
S'index'
p2003
asbasbasbag60
(g76
g62
NtRp2004
(dp2005
g65
(dp2006
sg74
g70
sg67
(lp2007
g60
(g81
g62
NtRp2008
(dp2009
g65
(dp2010
g85
g86
ssg74
g2004
sg67
(lp2011
S'get_vars'
p2012
asbag60
(g81
g62
NtRp2013
(dp2014
g65
(dp2015
g92
g93
ssg74
g2004
sg67
(lp2016
S':'
asbag60
(g81
g62
NtRp2017
(dp2018
g65
(dp2019
sg74
g2004
sg67
(lp2020
g60
(g61
g62
NtRp2021
(dp2022
g65
(dp2023
g73
I5
ssg74
g2017
sg67
(lp2024
g60
(g69
g62
NtRp2025
(dp2026
g65
(dp2027
g73
I4
ssg74
Nsg67
(lp2028
sbasbasbasbag60
(g76
g62
NtRp2029
(dp2030
g65
(dp2031
sg74
g70
sg67
(lp2032
g60
(g81
g62
NtRp2033
(dp2034
g65
(dp2035
g85
g86
ssg74
g2029
sg67
(lp2036
S'global_settings'
p2037
asbag60
(g81
g62
NtRp2038
(dp2039
g65
(dp2040
g92
g93
ssg74
g2029
sg67
(lp2041
S':'
asbag60
(g81
g62
NtRp2042
(dp2043
g65
(dp2044
sg74
g2029
sg67
(lp2045
g60
(g61
g62
NtRp2046
(dp2047
g65
(dp2048
g73
I5
ssg74
g2042
sg67
(lp2049
g60
(g69
g62
NtRp2050
(dp2051
g65
(dp2052
g73
I4
ssg74
Nsg67
(lp2053
g60
(g76
g62
NtRp2054
(dp2055
g65
(dp2056
sg74
g2050
sg67
(lp2057
g60
(g81
g62
NtRp2058
(dp2059
g65
(dp2060
g85
g86
ssg74
g2054
sg67
(lp2061
g1022
asbag60
(g81
g62
NtRp2062
(dp2063
g65
(dp2064
g92
g93
ssg74
g2054
sg67
(lp2065
S':'
asbag60
(g81
g62
NtRp2066
(dp2067
g65
(dp2068
sg74
g2054
sg67
(lp2069
g60
(g61
g62
NtRp2070
(dp2071
g65
(dp2072
g73
I4
ssg74
g2066
sg67
(lp2073
S"set(['/home/brencam/web2py/applications/admin/', '/home/brencam/web2py/applications/welcome/', '/home/brencam/web2py/applications/gallery/'])"
p2074
asbasbasbag60
(g76
g62
NtRp2075
(dp2076
g65
(dp2077
sg74
g2050
sg67
(lp2078
g60
(g81
g62
NtRp2079
(dp2080
g65
(dp2081
g85
g86
ssg74
g2075
sg67
(lp2082
g1044
asbag60
(g81
g62
NtRp2083
(dp2084
g65
(dp2085
g92
g93
ssg74
g2075
sg67
(lp2086
S':'
asbag60
(g81
g62
NtRp2087
(dp2088
g65
(dp2089
sg74
g2075
sg67
(lp2090
g60
(g61
g62
NtRp2091
(dp2092
g65
(dp2093
g73
I4
ssg74
g2087
sg67
(lp2094
g1057
asbasbasbag60
(g76
g62
NtRp2095
(dp2096
g65
(dp2097
sg74
g2050
sg67
(lp2098
g60
(g81
g62
NtRp2099
(dp2100
g65
(dp2101
g85
g86
ssg74
g2095
sg67
(lp2102
g1066
asbag60
(g81
g62
NtRp2103
(dp2104
g65
(dp2105
g92
g93
ssg74
g2095
sg67
(lp2106
S':'
asbag60
(g81
g62
NtRp2107
(dp2108
g65
(dp2109
sg74
g2095
sg67
(lp2110
g60
(g61
g62
NtRp2111
(dp2112
g65
(dp2113
g73
I4
ssg74
g2107
sg67
(lp2114
g60
(g69
g62
NtRp2115
(dp2116
g65
(dp2117
g73
I3
ssg74
Nsg67
(lp2118
sbasbasbasbag60
(g76
g62
NtRp2119
(dp2120
g65
(dp2121
sg74
g2050
sg67
(lp2122
g60
(g81
g62
NtRp2123
(dp2124
g65
(dp2125
g85
g86
ssg74
g2119
sg67
(lp2126
g1091
asbag60
(g81
g62
NtRp2127
(dp2128
g65
(dp2129
g92
g93
ssg74
g2119
sg67
(lp2130
S':'
asbag60
(g81
g62
NtRp2131
(dp2132
g65
(dp2133
sg74
g2119
sg67
(lp2134
g60
(g61
g62
NtRp2135
(dp2136
g65
(dp2137
g73
I4
ssg74
g2131
sg67
(lp2138
S"<Values at 0x8e5026c: {'verbose': False, 'ip': '127.0.0.1', 'shutdown_timeout': 5, 'taskbar': False, 'nocron': False, 'pid_filename': 'httpserver.pid', 'maxthreads': None, 'softcron': False, 'server_name': 'localhost.localdomain', 'bpython': False, 'nogui': False, 'port': 8000, 'extcron': False, 'debuglevel': 30, 'test': None, 'folder': '/home/brencam/web2py', 'config': '', 'import_models': False, 'winservice': '', 'shell': None, 'run': '', 'log_filename': 'httpserver.log', 'args': [''], 'ssl_ca_certificate': None, 'scheduler': None, 'profiler_filename': None, 'ssl_private_key': '', 'password': 'admin', 'request_queue_size': 5, 'ssl_certificate': '', 'cronjob': False, 'plain': False, 'quiet': False, 'interfaces': None, 'minthreads': None, 'timeout': 10, 'numthreads': None, 'nobanner': False}>"
p2139
asbasbasbag60
(g76
g62
NtRp2140
(dp2141
g65
(dp2142
sg74
g2050
sg67
(lp2143
g60
(g81
g62
NtRp2144
(dp2145
g65
(dp2146
g85
g86
ssg74
g2140
sg67
(lp2147
g1113
asbag60
(g81
g62
NtRp2148
(dp2149
g65
(dp2150
g92
g93
ssg74
g2140
sg67
(lp2151
S':'
asbag60
(g81
g62
NtRp2152
(dp2153
g65
(dp2154
sg74
g2140
sg67
(lp2155
g60
(g61
g62
NtRp2156
(dp2157
g65
(dp2158
g73
I4
ssg74
g2152
sg67
(lp2159
S'set([])'
p2160
asbasbasbag60
(g76
g62
NtRp2161
(dp2162
g65
(dp2163
sg74
g2050
sg67
(lp2164
g60
(g81
g62
NtRp2165
(dp2166
g65
(dp2167
g85
g86
ssg74
g2161
sg67
(lp2168
g1135
asbag60
(g81
g62
NtRp2169
(dp2170
g65
(dp2171
g92
g93
ssg74
g2161
sg67
(lp2172
S':'
asbag60
(g81
g62
NtRp2173
(dp2174
g65
(dp2175
sg74
g2161
sg67
(lp2176
g60
(g61
g62
NtRp2177
(dp2178
g65
(dp2179
g73
I4
ssg74
g2173
sg67
(lp2180
g103
asbasbasbag60
(g76
g62
NtRp2181
(dp2182
g65
(dp2183
sg74
g2050
sg67
(lp2184
g60
(g81
g62
NtRp2185
(dp2186
g65
(dp2187
g85
g86
ssg74
g2181
sg67
(lp2188
g1156
asbag60
(g81
g62
NtRp2189
(dp2190
g65
(dp2191
g92
g93
ssg74
g2181
sg67
(lp2192
S':'
asbag60
(g81
g62
NtRp2193
(dp2194
g65
(dp2195
sg74
g2181
sg67
(lp2196
g60
(g61
g62
NtRp2197
(dp2198
g65
(dp2199
g73
I4
ssg74
g2193
sg67
(lp2200
g1169
asbasbasbag60
(g76
g62
NtRp2201
(dp2202
g65
(dp2203
sg74
g2050
sg67
(lp2204
g60
(g81
g62
NtRp2205
(dp2206
g65
(dp2207
g85
g86
ssg74
g2201
sg67
(lp2208
g1376
asbag60
(g81
g62
NtRp2209
(dp2210
g65
(dp2211
g92
g93
ssg74
g2201
sg67
(lp2212
S':'
asbag60
(g81
g62
NtRp2213
(dp2214
g65
(dp2215
sg74
g2201
sg67
(lp2216
g60
(g61
g62
NtRp2217
(dp2218
g65
(dp2219
g73
I4
ssg74
g2213
sg67
(lp2220
g103
asbasbasbag60
(g76
g62
NtRp2221
(dp2222
g65
(dp2223
sg74
g2050
sg67
(lp2224
g60
(g81
g62
NtRp2225
(dp2226
g65
(dp2227
g85
g86
ssg74
g2221
sg67
(lp2228
g1614
asbag60
(g81
g62
NtRp2229
(dp2230
g65
(dp2231
g92
g93
ssg74
g2221
sg67
(lp2232
S':'
asbag60
(g81
g62
NtRp2233
(dp2234
g65
(dp2235
sg74
g2221
sg67
(lp2236
g60
(g61
g62
NtRp2237
(dp2238
g65
(dp2239
g73
I4
ssg74
g2233
sg67
(lp2240
g1627
asbasbasbag60
(g76
g62
NtRp2241
(dp2242
g65
(dp2243
sg74
g2050
sg67
(lp2244
g60
(g81
g62
NtRp2245
(dp2246
g65
(dp2247
g85
g86
ssg74
g2241
sg67
(lp2248
g1657
asbag60
(g81
g62
NtRp2249
(dp2250
g65
(dp2251
g92
g93
ssg74
g2241
sg67
(lp2252
S':'
asbag60
(g81
g62
NtRp2253
(dp2254
g65
(dp2255
sg74
g2241
sg67
(lp2256
g60
(g61
g62
NtRp2257
(dp2258
g65
(dp2259
g73
I4
ssg74
g2253
sg67
(lp2260
g60
(g69
g62
NtRp2261
(dp2262
g65
(dp2263
g73
I3
ssg74
Nsg67
(lp2264
g60
(g76
g62
NtRp2265
(dp2266
g65
(dp2267
sg74
g2261
sg67
(lp2268
g60
(g81
g62
NtRp2269
(dp2270
g65
(dp2271
sg74
g2265
sg67
(lp2272
g60
(g61
g62
NtRp2273
(dp2274
g65
(dp2275
g73
I3
ssg74
g2269
sg67
(lp2276
S'1'
asbasbasbag60
(g76
g62
NtRp2277
(dp2278
g65
(dp2279
sg74
g2261
sg67
(lp2280
g60
(g81
g62
NtRp2281
(dp2282
g65
(dp2283
sg74
g2277
sg67
(lp2284
g60
(g61
g62
NtRp2285
(dp2286
g65
(dp2287
g73
I3
ssg74
g2281
sg67
(lp2288
S'99'
p2289
asbasbasbag60
(g76
g62
NtRp2290
(dp2291
g65
(dp2292
sg74
g2261
sg67
(lp2293
g60
(g81
g62
NtRp2294
(dp2295
g65
(dp2296
sg74
g2290
sg67
(lp2297
g60
(g61
g62
NtRp2298
(dp2299
g65
(dp2300
g73
I3
ssg74
g2294
sg67
(lp2301
S'2'
asbasbasbag60
(g76
g62
NtRp2302
(dp2303
g65
(dp2304
sg74
g2261
sg67
(lp2305
g60
(g81
g62
NtRp2306
(dp2307
g65
(dp2308
sg74
g2302
sg67
(lp2309
g60
(g61
g62
NtRp2310
(dp2311
g65
(dp2312
g73
I3
ssg74
g2306
sg67
(lp2313
S'datetime.datetime(2011, 9, 26, 6, 55, 33)'
p2314
asbasbasbag60
(g76
g62
NtRp2315
(dp2316
g65
(dp2317
sg74
g2261
sg67
(lp2318
g60
(g81
g62
NtRp2319
(dp2320
g65
(dp2321
sg74
g2315
sg67
(lp2322
g60
(g61
g62
NtRp2323
(dp2324
g65
(dp2325
g73
I3
ssg74
g2319
sg67
(lp2326
g1736
asbasbasbasbasbasbasbasbasbasbasbag60
(g76
g62
NtRp2327
(dp2328
g65
(dp2329
sg74
g70
sg67
(lp2330
g60
(g81
g62
NtRp2331
(dp2332
g65
(dp2333
g85
g86
ssg74
g2327
sg67
(lp2334
S'is_https'
p2335
asbag60
(g81
g62
NtRp2336
(dp2337
g65
(dp2338
g92
g93
ssg74
g2327
sg67
(lp2339
S':'
asbag60
(g81
g62
NtRp2340
(dp2341
g65
(dp2342
sg74
g2327
sg67
(lp2343
g60
(g61
g62
NtRp2344
(dp2345
g65
(dp2346
g73
I5
ssg74
g2340
sg67
(lp2347
g103
asbasbasbag60
(g76
g62
NtRp2348
(dp2349
g65
(dp2350
sg74
g70
sg67
(lp2351
g60
(g81
g62
NtRp2352
(dp2353
g65
(dp2354
g85
g86
ssg74
g2348
sg67
(lp2355
S'is_local'
p2356
asbag60
(g81
g62
NtRp2357
(dp2358
g65
(dp2359
g92
g93
ssg74
g2348
sg67
(lp2360
S':'
asbag60
(g81
g62
NtRp2361
(dp2362
g65
(dp2363
sg74
g2348
sg67
(lp2364
g60
(g61
g62
NtRp2365
(dp2366
g65
(dp2367
g73
I5
ssg74
g2361
sg67
(lp2368
g1845
asbasbasbag60
(g76
g62
NtRp2369
(dp2370
g65
(dp2371
sg74
g70
sg67
(lp2372
g60
(g81
g62
NtRp2373
(dp2374
g65
(dp2375
g85
g86
ssg74
g2369
sg67
(lp2376
S'is_restful'
p2377
asbag60
(g81
g62
NtRp2378
(dp2379
g65
(dp2380
g92
g93
ssg74
g2369
sg67
(lp2381
S':'
asbag60
(g81
g62
NtRp2382
(dp2383
g65
(dp2384
sg74
g2369
sg67
(lp2385
g60
(g61
g62
NtRp2386
(dp2387
g65
(dp2388
g73
I5
ssg74
g2382
sg67
(lp2389
g103
asbasbasbag60
(g76
g62
NtRp2390
(dp2391
g65
(dp2392
sg74
g70
sg67
(lp2393
g60
(g81
g62
NtRp2394
(dp2395
g65
(dp2396
g85
g86
ssg74
g2390
sg67
(lp2397
S'now'
p2398
asbag60
(g81
g62
NtRp2399
(dp2400
g65
(dp2401
g92
g93
ssg74
g2390
sg67
(lp2402
S':'
asbag60
(g81
g62
NtRp2403
(dp2404
g65
(dp2405
sg74
g2390
sg67
(lp2406
g60
(g61
g62
NtRp2407
(dp2408
g65
(dp2409
g73
I5
ssg74
g2403
sg67
(lp2410
S'datetime.datetime(2011, 11, 2, 23, 23, 56, 887827)'
p2411
asbasbasbag60
(g76
g62
NtRp2412
(dp2413
g65
(dp2414
sg74
g70
sg67
(lp2415
g60
(g81
g62
NtRp2416
(dp2417
g65
(dp2418
g85
g86
ssg74
g2412
sg67
(lp2419
S'post_vars'
p2420
asbag60
(g81
g62
NtRp2421
(dp2422
g65
(dp2423
g92
g93
ssg74
g2412
sg67
(lp2424
S':'
asbag60
(g81
g62
NtRp2425
(dp2426
g65
(dp2427
sg74
g2412
sg67
(lp2428
g60
(g61
g62
NtRp2429
(dp2430
g65
(dp2431
g73
I5
ssg74
g2425
sg67
(lp2432
g60
(g69
g62
NtRp2433
(dp2434
g65
(dp2435
g73
I4
ssg74
Nsg67
(lp2436
sbasbasbasbag60
(g76
g62
NtRp2437
(dp2438
g65
(dp2439
sg74
g70
sg67
(lp2440
g60
(g81
g62
NtRp2441
(dp2442
g65
(dp2443
g85
g86
ssg74
g2437
sg67
(lp2444
S'url'
p2445
asbag60
(g81
g62
NtRp2446
(dp2447
g65
(dp2448
g92
g93
ssg74
g2437
sg67
(lp2449
S':'
asbag60
(g81
g62
NtRp2450
(dp2451
g65
(dp2452
sg74
g2437
sg67
(lp2453
g60
(g61
g62
NtRp2454
(dp2455
g65
(dp2456
g73
I5
ssg74
g2450
sg67
(lp2457
S'/gallery/default/index'
p2458
asbasbasbag60
(g76
g62
NtRp2459
(dp2460
g65
(dp2461
sg74
g70
sg67
(lp2462
g60
(g81
g62
NtRp2463
(dp2464
g65
(dp2465
g85
g86
ssg74
g2459
sg67
(lp2466
S'utcnow'
p2467
asbag60
(g81
g62
NtRp2468
(dp2469
g65
(dp2470
g92
g93
ssg74
g2459
sg67
(lp2471
S':'
asbag60
(g81
g62
NtRp2472
(dp2473
g65
(dp2474
sg74
g2459
sg67
(lp2475
g60
(g61
g62
NtRp2476
(dp2477
g65
(dp2478
g73
I5
ssg74
g2472
sg67
(lp2479
S'datetime.datetime(2011, 11, 3, 6, 23, 56, 887852)'
p2480
asbasbasbag60
(g76
g62
NtRp2481
(dp2482
g65
(dp2483
sg74
g70
sg67
(lp2484
g60
(g81
g62
NtRp2485
(dp2486
g65
(dp2487
g85
g86
ssg74
g2481
sg67
(lp2488
S'uuid'
p2489
asbag60
(g81
g62
NtRp2490
(dp2491
g65
(dp2492
g92
g93
ssg74
g2481
sg67
(lp2493
S':'
asbag60
(g81
g62
NtRp2494
(dp2495
g65
(dp2496
sg74
g2481
sg67
(lp2497
g60
(g61
g62
NtRp2498
(dp2499
g65
(dp2500
g73
I5
ssg74
g2494
sg67
(lp2501
S'gallery/127.0.0.1.2011-11-02.23-23-56.6ab93d54-6533-4112-88b6-b0b661fa6833'
p2502
asbasbasbag60
(g76
g62
NtRp2503
(dp2504
g65
(dp2505
sg74
g70
sg67
(lp2506
g60
(g81
g62
NtRp2507
(dp2508
g65
(dp2509
g85
g86
ssg74
g2503
sg67
(lp2510
S'vars'
p2511
asbag60
(g81
g62
NtRp2512
(dp2513
g65
(dp2514
g92
g93
ssg74
g2503
sg67
(lp2515
S':'
asbag60
(g81
g62
NtRp2516
(dp2517
g65
(dp2518
sg74
g2503
sg67
(lp2519
g60
(g61
g62
NtRp2520
(dp2521
g65
(dp2522
g73
I5
ssg74
g2516
sg67
(lp2523
g60
(g69
g62
NtRp2524
(dp2525
g65
(dp2526
g73
I4
ssg74
Nsg67
(lp2527
sbasbasbasbag60
(g76
g62
NtRp2528
(dp2529
g65
(dp2530
sg74
g70
sg67
(lp2531
g60
(g81
g62
NtRp2532
(dp2533
g65
(dp2534
g85
g86
ssg74
g2528
sg67
(lp2535
S'wsgi'
p2536
asbag60
(g81
g62
NtRp2537
(dp2538
g65
(dp2539
g92
g93
ssg74
g2528
sg67
(lp2540
S':'
asbag60
(g81
g62
NtRp2541
(dp2542
g65
(dp2543
sg74
g2528
sg67
(lp2544
g60
(g61
g62
NtRp2545
(dp2546
g65
(dp2547
g73
I5
ssg74
g2541
sg67
(lp2548
g60
(g69
g62
NtRp2549
(dp2550
g65
(dp2551
g73
I4
ssg74
Nsg67
(lp2552
g60
(g76
g62
NtRp2553
(dp2554
g65
(dp2555
sg74
g2549
sg67
(lp2556
g60
(g81
g62
NtRp2557
(dp2558
g65
(dp2559
g85
g86
ssg74
g2553
sg67
(lp2560
S'environ'
p2561
asbag60
(g81
g62
NtRp2562
(dp2563
g65
(dp2564
g92
g93
ssg74
g2553
sg67
(lp2565
S':'
asbag60
(g81
g62
NtRp2566
(dp2567
g65
(dp2568
sg74
g2553
sg67
(lp2569
g60
(g61
g62
NtRp2570
(dp2571
g65
(dp2572
g73
I4
ssg74
g2566
sg67
(lp2573
g60
(g69
g62
NtRp2574
(dp2575
g65
(dp2576
g73
I3
ssg74
Nsg67
(lp2577
g60
(g76
g62
NtRp2578
(dp2579
g65
(dp2580
sg74
g2574
sg67
(lp2581
g60
(g81
g62
NtRp2582
(dp2583
g65
(dp2584
g85
g86
ssg74
g2578
sg67
(lp2585
S'HTTP_ACCEPT'
p2586
asbag60
(g81
g62
NtRp2587
(dp2588
g65
(dp2589
g92
g93
ssg74
g2578
sg67
(lp2590
S':'
asbag60
(g81
g62
NtRp2591
(dp2592
g65
(dp2593
sg74
g2578
sg67
(lp2594
g60
(g61
g62
NtRp2595
(dp2596
g65
(dp2597
g73
I3
ssg74
g2591
sg67
(lp2598
g1191
asbasbasbag60
(g76
g62
NtRp2599
(dp2600
g65
(dp2601
sg74
g2574
sg67
(lp2602
g60
(g81
g62
NtRp2603
(dp2604
g65
(dp2605
g85
g86
ssg74
g2599
sg67
(lp2606
S'HTTP_ACCEPT_CHARSET'
p2607
asbag60
(g81
g62
NtRp2608
(dp2609
g65
(dp2610
g92
g93
ssg74
g2599
sg67
(lp2611
S':'
asbag60
(g81
g62
NtRp2612
(dp2613
g65
(dp2614
sg74
g2599
sg67
(lp2615
g60
(g61
g62
NtRp2616
(dp2617
g65
(dp2618
g73
I3
ssg74
g2612
sg67
(lp2619
g1213
asbasbasbag60
(g76
g62
NtRp2620
(dp2621
g65
(dp2622
sg74
g2574
sg67
(lp2623
g60
(g81
g62
NtRp2624
(dp2625
g65
(dp2626
g85
g86
ssg74
g2620
sg67
(lp2627
S'HTTP_ACCEPT_ENCODING'
p2628
asbag60
(g81
g62
NtRp2629
(dp2630
g65
(dp2631
g92
g93
ssg74
g2620
sg67
(lp2632
S':'
asbag60
(g81
g62
NtRp2633
(dp2634
g65
(dp2635
sg74
g2620
sg67
(lp2636
g60
(g61
g62
NtRp2637
(dp2638
g65
(dp2639
g73
I3
ssg74
g2633
sg67
(lp2640
g1235
asbasbasbag60
(g76
g62
NtRp2641
(dp2642
g65
(dp2643
sg74
g2574
sg67
(lp2644
g60
(g81
g62
NtRp2645
(dp2646
g65
(dp2647
g85
g86
ssg74
g2641
sg67
(lp2648
S'HTTP_ACCEPT_LANGUAGE'
p2649
asbag60
(g81
g62
NtRp2650
(dp2651
g65
(dp2652
g92
g93
ssg74
g2641
sg67
(lp2653
S':'
asbag60
(g81
g62
NtRp2654
(dp2655
g65
(dp2656
sg74
g2641
sg67
(lp2657
g60
(g61
g62
NtRp2658
(dp2659
g65
(dp2660
g73
I3
ssg74
g2654
sg67
(lp2661
g1257
asbasbasbag60
(g76
g62
NtRp2662
(dp2663
g65
(dp2664
sg74
g2574
sg67
(lp2665
g60
(g81
g62
NtRp2666
(dp2667
g65
(dp2668
g85
g86
ssg74
g2662
sg67
(lp2669
S'HTTP_CONNECTION'
p2670
asbag60
(g81
g62
NtRp2671
(dp2672
g65
(dp2673
g92
g93
ssg74
g2662
sg67
(lp2674
S':'
asbag60
(g81
g62
NtRp2675
(dp2676
g65
(dp2677
sg74
g2662
sg67
(lp2678
g60
(g61
g62
NtRp2679
(dp2680
g65
(dp2681
g73
I3
ssg74
g2675
sg67
(lp2682
g1279
asbasbasbag60
(g76
g62
NtRp2683
(dp2684
g65
(dp2685
sg74
g2574
sg67
(lp2686
g60
(g81
g62
NtRp2687
(dp2688
g65
(dp2689
g85
g86
ssg74
g2683
sg67
(lp2690
S'HTTP_COOKIE'
p2691
asbag60
(g81
g62
NtRp2692
(dp2693
g65
(dp2694
g92
g93
ssg74
g2683
sg67
(lp2695
S':'
asbag60
(g81
g62
NtRp2696
(dp2697
g65
(dp2698
sg74
g2683
sg67
(lp2699
g60
(g61
g62
NtRp2700
(dp2701
g65
(dp2702
g73
I3
ssg74
g2696
sg67
(lp2703
g1301
asbasbasbag60
(g76
g62
NtRp2704
(dp2705
g65
(dp2706
sg74
g2574
sg67
(lp2707
g60
(g81
g62
NtRp2708
(dp2709
g65
(dp2710
g85
g86
ssg74
g2704
sg67
(lp2711
S'HTTP_HOST'
p2712
asbag60
(g81
g62
NtRp2713
(dp2714
g65
(dp2715
g92
g93
ssg74
g2704
sg67
(lp2716
S':'
asbag60
(g81
g62
NtRp2717
(dp2718
g65
(dp2719
sg74
g2704
sg67
(lp2720
g60
(g61
g62
NtRp2721
(dp2722
g65
(dp2723
g73
I3
ssg74
g2717
sg67
(lp2724
g1323
asbasbasbag60
(g76
g62
NtRp2725
(dp2726
g65
(dp2727
sg74
g2574
sg67
(lp2728
g60
(g81
g62
NtRp2729
(dp2730
g65
(dp2731
g85
g86
ssg74
g2725
sg67
(lp2732
S'HTTP_REFERER'
p2733
asbag60
(g81
g62
NtRp2734
(dp2735
g65
(dp2736
g92
g93
ssg74
g2725
sg67
(lp2737
S':'
asbag60
(g81
g62
NtRp2738
(dp2739
g65
(dp2740
sg74
g2725
sg67
(lp2741
g60
(g61
g62
NtRp2742
(dp2743
g65
(dp2744
g73
I3
ssg74
g2738
sg67
(lp2745
g1345
asbasbasbag60
(g76
g62
NtRp2746
(dp2747
g65
(dp2748
sg74
g2574
sg67
(lp2749
g60
(g81
g62
NtRp2750
(dp2751
g65
(dp2752
g85
g86
ssg74
g2746
sg67
(lp2753
S'HTTP_USER_AGENT'
p2754
asbag60
(g81
g62
NtRp2755
(dp2756
g65
(dp2757
g92
g93
ssg74
g2746
sg67
(lp2758
S':'
asbag60
(g81
g62
NtRp2759
(dp2760
g65
(dp2761
sg74
g2746
sg67
(lp2762
g60
(g61
g62
NtRp2763
(dp2764
g65
(dp2765
g73
I3
ssg74
g2759
sg67
(lp2766
g1367
asbasbasbag60
(g76
g62
NtRp2767
(dp2768
g65
(dp2769
sg74
g2574
sg67
(lp2770
g60
(g81
g62
NtRp2771
(dp2772
g65
(dp2773
g85
g86
ssg74
g2767
sg67
(lp2774
S'PATH_INFO'
p2775
asbag60
(g81
g62
NtRp2776
(dp2777
g65
(dp2778
g92
g93
ssg74
g2767
sg67
(lp2779
S':'
asbag60
(g81
g62
NtRp2780
(dp2781
g65
(dp2782
sg74
g2767
sg67
(lp2783
g60
(g61
g62
NtRp2784
(dp2785
g65
(dp2786
g73
I3
ssg74
g2780
sg67
(lp2787
g1410
asbasbasbag60
(g76
g62
NtRp2788
(dp2789
g65
(dp2790
sg74
g2574
sg67
(lp2791
g60
(g81
g62
NtRp2792
(dp2793
g65
(dp2794
g85
g86
ssg74
g2788
sg67
(lp2795
S'QUERY_STRING'
p2796
asbag60
(g81
g62
NtRp2797
(dp2798
g65
(dp2799
g92
g93
ssg74
g2788
sg67
(lp2800
S':'
asbag60
(g81
g62
NtRp2801
(dp2802
g65
(dp2803
sg74
g2788
sg67
(lp2804
g60
(g61
g62
NtRp2805
(dp2806
g65
(dp2807
g73
I3
ssg74
g2801
sg67
(lp2808
S''
asbasbasbag60
(g76
g62
NtRp2809
(dp2810
g65
(dp2811
sg74
g2574
sg67
(lp2812
g60
(g81
g62
NtRp2813
(dp2814
g65
(dp2815
g85
g86
ssg74
g2809
sg67
(lp2816
S'REMOTE_ADDR'
p2817
asbag60
(g81
g62
NtRp2818
(dp2819
g65
(dp2820
g92
g93
ssg74
g2809
sg67
(lp2821
S':'
asbag60
(g81
g62
NtRp2822
(dp2823
g65
(dp2824
sg74
g2809
sg67
(lp2825
g60
(g61
g62
NtRp2826
(dp2827
g65
(dp2828
g73
I3
ssg74
g2822
sg67
(lp2829
g193
asbasbasbag60
(g76
g62
NtRp2830
(dp2831
g65
(dp2832
sg74
g2574
sg67
(lp2833
g60
(g81
g62
NtRp2834
(dp2835
g65
(dp2836
g85
g86
ssg74
g2830
sg67
(lp2837
S'REMOTE_PORT'
p2838
asbag60
(g81
g62
NtRp2839
(dp2840
g65
(dp2841
g92
g93
ssg74
g2830
sg67
(lp2842
S':'
asbag60
(g81
g62
NtRp2843
(dp2844
g65
(dp2845
sg74
g2830
sg67
(lp2846
g60
(g61
g62
NtRp2847
(dp2848
g65
(dp2849
g73
I3
ssg74
g2843
sg67
(lp2850
g1474
asbasbasbag60
(g76
g62
NtRp2851
(dp2852
g65
(dp2853
sg74
g2574
sg67
(lp2854
g60
(g81
g62
NtRp2855
(dp2856
g65
(dp2857
g85
g86
ssg74
g2851
sg67
(lp2858
S'REQUEST_METHOD'
p2859
asbag60
(g81
g62
NtRp2860
(dp2861
g65
(dp2862
g92
g93
ssg74
g2851
sg67
(lp2863
S':'
asbag60
(g81
g62
NtRp2864
(dp2865
g65
(dp2866
sg74
g2851
sg67
(lp2867
g60
(g61
g62
NtRp2868
(dp2869
g65
(dp2870
g73
I3
ssg74
g2864
sg67
(lp2871
g1496
asbasbasbag60
(g76
g62
NtRp2872
(dp2873
g65
(dp2874
sg74
g2574
sg67
(lp2875
g60
(g81
g62
NtRp2876
(dp2877
g65
(dp2878
g85
g86
ssg74
g2872
sg67
(lp2879
S'SCRIPT_NAME'
p2880
asbag60
(g81
g62
NtRp2881
(dp2882
g65
(dp2883
g92
g93
ssg74
g2872
sg67
(lp2884
S':'
asbag60
(g81
g62
NtRp2885
(dp2886
g65
(dp2887
sg74
g2872
sg67
(lp2888
g60
(g61
g62
NtRp2889
(dp2890
g65
(dp2891
g73
I3
ssg74
g2885
sg67
(lp2892
S''
asbasbasbag60
(g76
g62
NtRp2893
(dp2894
g65
(dp2895
sg74
g2574
sg67
(lp2896
g60
(g81
g62
NtRp2897
(dp2898
g65
(dp2899
g85
g86
ssg74
g2893
sg67
(lp2900
S'SERVER_NAME'
p2901
asbag60
(g81
g62
NtRp2902
(dp2903
g65
(dp2904
g92
g93
ssg74
g2893
sg67
(lp2905
S':'
asbag60
(g81
g62
NtRp2906
(dp2907
g65
(dp2908
sg74
g2893
sg67
(lp2909
g60
(g61
g62
NtRp2910
(dp2911
g65
(dp2912
g73
I3
ssg74
g2906
sg67
(lp2913
g1539
asbasbasbag60
(g76
g62
NtRp2914
(dp2915
g65
(dp2916
sg74
g2574
sg67
(lp2917
g60
(g81
g62
NtRp2918
(dp2919
g65
(dp2920
g85
g86
ssg74
g2914
sg67
(lp2921
S'SERVER_PORT'
p2922
asbag60
(g81
g62
NtRp2923
(dp2924
g65
(dp2925
g92
g93
ssg74
g2914
sg67
(lp2926
S':'
asbag60
(g81
g62
NtRp2927
(dp2928
g65
(dp2929
sg74
g2914
sg67
(lp2930
g60
(g61
g62
NtRp2931
(dp2932
g65
(dp2933
g73
I3
ssg74
g2927
sg67
(lp2934
g1561
asbasbasbag60
(g76
g62
NtRp2935
(dp2936
g65
(dp2937
sg74
g2574
sg67
(lp2938
g60
(g81
g62
NtRp2939
(dp2940
g65
(dp2941
g85
g86
ssg74
g2935
sg67
(lp2942
S'SERVER_PROTOCOL'
p2943
asbag60
(g81
g62
NtRp2944
(dp2945
g65
(dp2946
g92
g93
ssg74
g2935
sg67
(lp2947
S':'
asbag60
(g81
g62
NtRp2948
(dp2949
g65
(dp2950
sg74
g2935
sg67
(lp2951
g60
(g61
g62
NtRp2952
(dp2953
g65
(dp2954
g73
I3
ssg74
g2948
sg67
(lp2955
g1583
asbasbasbag60
(g76
g62
NtRp2956
(dp2957
g65
(dp2958
sg74
g2574
sg67
(lp2959
g60
(g81
g62
NtRp2960
(dp2961
g65
(dp2962
g85
g86
ssg74
g2956
sg67
(lp2963
S'SERVER_SOFTWARE'
p2964
asbag60
(g81
g62
NtRp2965
(dp2966
g65
(dp2967
g92
g93
ssg74
g2956
sg67
(lp2968
S':'
asbag60
(g81
g62
NtRp2969
(dp2970
g65
(dp2971
sg74
g2956
sg67
(lp2972
g60
(g61
g62
NtRp2973
(dp2974
g65
(dp2975
g73
I3
ssg74
g2969
sg67
(lp2976
g1605
asbasbasbag60
(g76
g62
NtRp2977
(dp2978
g65
(dp2979
sg74
g2574
sg67
(lp2980
g60
(g81
g62
NtRp2981
(dp2982
g65
(dp2983
g85
g86
ssg74
g2977
sg67
(lp2984
S'wsgi.errors'
p2985
asbag60
(g81
g62
NtRp2986
(dp2987
g65
(dp2988
g92
g93
ssg74
g2977
sg67
(lp2989
S':'
asbag60
(g81
g62
NtRp2990
(dp2991
g65
(dp2992
sg74
g2977
sg67
(lp2993
g60
(g61
g62
NtRp2994
(dp2995
g65
(dp2996
g73
I3
ssg74
g2990
sg67
(lp2997
S"<open file '<stderr>', mode 'w' at 0xb75610d0>"
p2998
asbasbasbag60
(g76
g62
NtRp2999
(dp3000
g65
(dp3001
sg74
g2574
sg67
(lp3002
g60
(g81
g62
NtRp3003
(dp3004
g65
(dp3005
g85
g86
ssg74
g2999
sg67
(lp3006
S'wsgi.file_wrapper'
p3007
asbag60
(g81
g62
NtRp3008
(dp3009
g65
(dp3010
g92
g93
ssg74
g2999
sg67
(lp3011
S':'
asbag60
(g81
g62
NtRp3012
(dp3013
g65
(dp3014
sg74
g2999
sg67
(lp3015
g60
(g61
g62
NtRp3016
(dp3017
g65
(dp3018
g73
I3
ssg74
g3012
sg67
(lp3019
S'<class wsgiref.util.FileWrapper at 0x8a4d50c>'
p3020
asbasbasbag60
(g76
g62
NtRp3021
(dp3022
g65
(dp3023
sg74
g2574
sg67
(lp3024
g60
(g81
g62
NtRp3025
(dp3026
g65
(dp3027
g85
g86
ssg74
g3021
sg67
(lp3028
S'wsgi.input'
p3029
asbag60
(g81
g62
NtRp3030
(dp3031
g65
(dp3032
g92
g93
ssg74
g3021
sg67
(lp3033
S':'
asbag60
(g81
g62
NtRp3034
(dp3035
g65
(dp3036
sg74
g3021
sg67
(lp3037
g60
(g61
g62
NtRp3038
(dp3039
g65
(dp3040
g73
I3
ssg74
g3034
sg67
(lp3041
S'<cStringIO.StringO object at 0xaf182a00>'
p3042
asbasbasbag60
(g76
g62
NtRp3043
(dp3044
g65
(dp3045
sg74
g2574
sg67
(lp3046
g60
(g81
g62
NtRp3047
(dp3048
g65
(dp3049
g85
g86
ssg74
g3043
sg67
(lp3050
S'wsgi.multiprocess'
p3051
asbag60
(g81
g62
NtRp3052
(dp3053
g65
(dp3054
g92
g93
ssg74
g3043
sg67
(lp3055
S':'
asbag60
(g81
g62
NtRp3056
(dp3057
g65
(dp3058
sg74
g3043
sg67
(lp3059
g60
(g61
g62
NtRp3060
(dp3061
g65
(dp3062
g73
I3
ssg74
g3056
sg67
(lp3063
g103
asbasbasbag60
(g76
g62
NtRp3064
(dp3065
g65
(dp3066
sg74
g2574
sg67
(lp3067
g60
(g81
g62
NtRp3068
(dp3069
g65
(dp3070
g85
g86
ssg74
g3064
sg67
(lp3071
S'wsgi.multithread'
p3072
asbag60
(g81
g62
NtRp3073
(dp3074
g65
(dp3075
g92
g93
ssg74
g3064
sg67
(lp3076
S':'
asbag60
(g81
g62
NtRp3077
(dp3078
g65
(dp3079
sg74
g3064
sg67
(lp3080
g60
(g61
g62
NtRp3081
(dp3082
g65
(dp3083
g73
I3
ssg74
g3077
sg67
(lp3084
g1845
asbasbasbag60
(g76
g62
NtRp3085
(dp3086
g65
(dp3087
sg74
g2574
sg67
(lp3088
g60
(g81
g62
NtRp3089
(dp3090
g65
(dp3091
g85
g86
ssg74
g3085
sg67
(lp3092
S'wsgi.run_once'
p3093
asbag60
(g81
g62
NtRp3094
(dp3095
g65
(dp3096
g92
g93
ssg74
g3085
sg67
(lp3097
S':'
asbag60
(g81
g62
NtRp3098
(dp3099
g65
(dp3100
sg74
g3085
sg67
(lp3101
g60
(g61
g62
NtRp3102
(dp3103
g65
(dp3104
g73
I3
ssg74
g3098
sg67
(lp3105
g103
asbasbasbag60
(g76
g62
NtRp3106
(dp3107
g65
(dp3108
sg74
g2574
sg67
(lp3109
g60
(g81
g62
NtRp3110
(dp3111
g65
(dp3112
g85
g86
ssg74
g3106
sg67
(lp3113
S'wsgi.url_scheme'
p3114
asbag60
(g81
g62
NtRp3115
(dp3116
g65
(dp3117
g92
g93
ssg74
g3106
sg67
(lp3118
S':'
asbag60
(g81
g62
NtRp3119
(dp3120
g65
(dp3121
sg74
g3106
sg67
(lp3122
g60
(g61
g62
NtRp3123
(dp3124
g65
(dp3125
g73
I3
ssg74
g3119
sg67
(lp3126
g1888
asbasbasbag60
(g76
g62
NtRp3127
(dp3128
g65
(dp3129
sg74
g2574
sg67
(lp3130
g60
(g81
g62
NtRp3131
(dp3132
g65
(dp3133
g85
g86
ssg74
g3127
sg67
(lp3134
S'wsgi.version'
p3135
asbag60
(g81
g62
NtRp3136
(dp3137
g65
(dp3138
g92
g93
ssg74
g3127
sg67
(lp3139
S':'
asbag60
(g81
g62
NtRp3140
(dp3141
g65
(dp3142
sg74
g3127
sg67
(lp3143
g60
(g61
g62
NtRp3144
(dp3145
g65
(dp3146
g73
I3
ssg74
g3140
sg67
(lp3147
S'1'
asbasbasbasbasbasbasbasbasbasbasbasbasbsS'frames'
p3148
(lp3149
(dp3150
S'file'
p3151
S'/home/brencam/web2py/gluon/restricted.py'
p3152
sS'dump'
p3153
(dp3154
S'environment'
p3155
S"{'A': <class 'gluon.html.A'>, 'Auth': <class 'gluon.tools.Auth'>, 'B': <class 'gluon.html.B'>, 'BEAUTIFY': <class 'gluon.html.BEAUTIFY'>, 'BODY': <class 'gluon.html.BODY'>, 'BR': <class 'gluon.html.BR'>, 'BUTTON': <class 'gluon.html.BUTTON'>, 'CAT': <class 'gluon.html.CAT'>, 'CENTER': <class 'gluon.html.CENTER'>, 'CLEANUP': <class 'gluon.validators.CLEANUP'>, ...}"
p3156
sS'ccode'
p3157
S'<code object <module> at 0xae5b6728, file "/home...b2py/applications/gallery/models/db.py", line 10>'
p3158
ssS'lnum'
p3159
I194
sS'lines'
p3160
(dp3161
I192
S'        else:'
p3162
sI193
S'            ccode = compile2(code,layer)'
p3163
sI194
S'        exec ccode in environment'
p3164
sI195
S'    except HTTP:'
p3165
sI196
S'        raise'
p3166
sI197
S'    except Exception, error:'
p3167
sI198
S'        # XXX Show exception in Wing IDE if running in debugger'
p3168
sI189
S'    try:'
p3169
sI190
S'        if type(code) == types.CodeType:'
p3170
sI191
S'            ccode = code'
p3171
ssS'call'
p3172
S"(code='# -*- coding: utf-8 -*-\\n\\n#######################...writable = db.comment.image_id.readable = False\\n\\n', environment={'A': <class 'gluon.html.A'>, 'Auth': <class 'gluon.tools.Auth'>, 'B': <class 'gluon.html.B'>, 'BEAUTIFY': <class 'gluon.html.BEAUTIFY'>, 'BODY': <class 'gluon.html.BODY'>, 'BR': <class 'gluon.html.BR'>, 'BUTTON': <class 'gluon.html.BUTTON'>, 'CAT': <class 'gluon.html.CAT'>, 'CENTER': <class 'gluon.html.CENTER'>, 'CLEANUP': <class 'gluon.validators.CLEANUP'>, ...}, layer='/home/brencam/web2py/applications/gallery/models/db.py')"
p3173
sS'func'
p3174
S'restricted'
p3175
sa(dp3176
g3151
S'/home/brencam/web2py/applications/gallery/models/db.py'
p3177
sg3153
(dp3178
S'auth.define_tables'
p3179
S'<bound method Auth.define_tables of <gluon.tools.Auth object>>'
p3180
sS'auth'
p3181
S'<gluon.tools.Auth object>'
p3182
ssg3159
I42
sg3160
(dp3183
I37
S'from gluon.tools import Auth, Crud, Service, PluginManager, prettydate'
p3184
sI38
S'auth = Auth(db, hmac_key=Auth.get_or_create_key())'
p3185
sI39
S'crud, service, plugins = Crud(db), Service(), PluginManager()'
p3186
sI40
S''
sI41
S'## create all tables needed by auth if not custom tables'
p3187
sI42
S'auth.define_tables()'
p3188
sI43
S''
sI44
S'## configure email'
p3189
sI45
S'mail=auth.settings.mailer'
p3190
sI46
S"mail.settings.server = 'logging' or 'smtp.gmail.com:587'"
p3191
ssg3172
S'()'
p3192
sg3174
S'<module>'
p3193
sa(dp3194
g3151
S'/home/brencam/web2py/gluon/tools.py'
p3195
sg3153
(dp3196
S'builtinformat'
p3197
S'<built-in function format>'
p3198
ssg3159
I1256
sg3160
(dp3199
I1251
S'                    *settings.extra_fields.get(settings.table_user_name,[]),'
p3200
sI1252
S'                    **dict('
p3201
sI1253
S'                        migrate=self.__get_migrate(settings.table_user_name,'
p3202
sI1254
S'                                                   migrate),'
p3203
sI1255
S'                        fake_migrate=fake_migrate,'
p3204
sI1256
S"                        format='%(first_name)s %(last_name)s (%(id)s)'))"
p3205
sI1257
S'            table.first_name.requires = \\'
p3206
sI1258
S'                IS_NOT_EMPTY(error_message=self.messages.is_empty)'
p3207
sI1259
S'            table.last_name.requires = \\'
p3208
sI1260
S'                IS_NOT_EMPTY(error_message=self.messages.is_empty)'
p3209
ssg3172
S'(self=<gluon.tools.Auth object>, username=False, migrate=True, fake_migrate=False)'
p3210
sg3174
S'define_tables'
p3211
sa(dp3212
g3151
S'/home/brencam/web2py/gluon/dal.py'
p3213
sg3153
(dp3214
S'polymodel'
p3215
S'None'
p3216
ssg3159
I4491
sg3160
(dp3217
I4486
S"        if migrate or self._adapter.dbengine=='google:datastore':"
p3218
sI4487
S'            try:'
p3219
sI4488
S'                sql_locker.acquire()'
p3220
sI4489
S'                self._adapter.create_table(t,migrate=migrate,'
p3221
sI4490
S'                                           fake_migrate=fake_migrate,'
p3222
sI4491
S'                                           polymodel=polymodel)'
p3223
sI4492
S'            finally:'
p3224
sI4493
S'                sql_locker.release()'
p3225
sI4494
S'        else:'
p3226
sI4495
S'            t._dbt = None'
p3227
ssg3172
S"(self=<DAL {'_migrate_enabled': True, '_lastsql': 'CRE...'_uri_hash': 'c8b669d15150d7109e5f7ab36744a5b7'}>, tablename='auth_user', *fields=(<gluon.dal.Field object>, <gluon.dal.Field object>, <gluon.dal.Field object>, <gluon.dal.Field object>, <gluon.dal.Field object>, <gluon.dal.Field object>), **args={'fake_migrate': False, 'format': '%(first_name)s %(last_name)s (%(id)s)', 'migrate': True})"
p3228
sg3174
S'define_table'
p3229
sa(dp3230
g3151
S'/home/brencam/web2py/gluon/dal.py'
p3231
sg3153
(dp3232
S'query'
p3233
S"'CREATE TABLE auth_user(\\n    id INTEGER PRIMARY K...ey CHAR(512),\\n    reset_password_key CHAR(512)\\n);'"
p3234
sS'self'
p3235
S'<gluon.dal.SQLiteAdapter object>'
p3236
sS'table'
p3237
S"<Table {'first_name': <gluon.dal.Field object at...c>, 'id': <gluon.dal.Field object at 0x8d333cc>}>"
p3238
sS'self.create_sequence_and_triggers'
p3239
S'<bound method SQLiteAdapter.create_sequence_and_triggers of <gluon.dal.SQLiteAdapter object>>'
p3240
ssg3159
I677
sg3160
(dp3241
I672
S'            if table._dbt:'
p3242
sI673
S"                logfile.write('timestamp: %s\\n'"
p3243
sI674
S'                               % datetime.datetime.today().isoformat())'
p3244
sI675
S"                logfile.write(query + '\\n')"
p3245
sI676
S'            if not fake_migrate:'
p3246
sI677
S'                self.create_sequence_and_triggers(query,table)'
p3247
sI678
S'                table._db.commit()'
p3248
sI679
S'            if table._dbt:'
p3249
sI680
S"                tfile = self.file_open(table._dbt, 'w')"
p3250
sI681
S'                cPickle.dump(sql_fields, tfile)'
p3251
ssg3172
S"(self=<gluon.dal.SQLiteAdapter object>, table=<Table {'first_name': <gluon.dal.Field object at...c>, 'id': <gluon.dal.Field object at 0x8d333cc>}>, migrate=True, fake_migrate=False, polymodel=None)"
p3252
sg3174
S'create_table'
p3253
sa(dp3254
g3151
S'/home/brencam/web2py/gluon/dal.py'
p3255
sg3153
(dp3256
S'query'
p3257
S"'CREATE TABLE auth_user(\\n    id INTEGER PRIMARY K...ey CHAR(512),\\n    reset_password_key CHAR(512)\\n);'"
p3258
sS'self'
p3259
S'<gluon.dal.SQLiteAdapter object>'
p3260
sS'self.execute'
p3261
S'<bound method SQLiteAdapter.execute of <gluon.dal.SQLiteAdapter object>>'
p3262
ssg3159
I1299
sg3160
(dp3263
I1294
S''
sI1295
S'    def constraint_name(self, table, fieldname):'
p3264
sI1296
S"        return '%s_%s__constraint' % (table,fieldname)"
p3265
sI1297
S''
sI1298
S'    def create_sequence_and_triggers(self, query, table, **args):'
p3266
sI1299
S'        self.execute(query)'
p3267
sI1300
S''
sI1301
S'    def log_execute(self,*a,**b):'
p3268
sI1302
S'        self.db._lastsql = a[0]'
p3269
sI1303
S'        t0 = time.time()'
p3270
ssg3172
S"(self=<gluon.dal.SQLiteAdapter object>, query='CREATE TABLE auth_user(\\n    id INTEGER PRIMARY K...ey CHAR(512),\\n    reset_password_key CHAR(512)\\n);', table=<Table {'first_name': <gluon.dal.Field object at...c>, 'id': <gluon.dal.Field object at 0x8d333cc>}>, **args={})"
p3271
sg3174
S'create_sequence_and_triggers'
p3272
sa(dp3273
g3151
S'/home/brencam/web2py/gluon/dal.py'
p3274
sg3153
(dp3275
S'a'
S"('CREATE TABLE auth_user(\\n    id INTEGER PRIMARY K...ey CHAR(512),\\n    reset_password_key CHAR(512)\\n);',)"
p3276
sS'self'
p3277
S'<gluon.dal.SQLiteAdapter object>'
p3278
sS'b'
g20
sS'self.log_execute'
p3279
S'<bound method SQLiteAdapter.log_execute of <gluon.dal.SQLiteAdapter object>>'
p3280
ssg3159
I1309
sg3160
(dp3281
I1312
S'        if isinstance(obj,CALLABLETYPES):'
p3282
sI1313
S'            obj = obj()'
p3283
sI1304
S'        ret = self.cursor.execute(*a,**b)'
p3284
sI1305
S'        self.db._timings.append((a[0],time.time()-t0))'
p3285
sI1306
S'        return ret'
p3286
sI1307
S''
sI1308
S'    def execute(self,*a,**b):'
p3287
sI1309
S'        return self.log_execute(*a, **b)'
p3288
sI1310
S''
sI1311
S'    def represent(self, obj, fieldtype):'
p3289
ssg3172
S"(self=<gluon.dal.SQLiteAdapter object>, *a=('CREATE TABLE auth_user(\\n    id INTEGER PRIMARY K...ey CHAR(512),\\n    reset_password_key CHAR(512)\\n);',), **b={})"
p3290
sg3174
S'execute'
p3291
sa(dp3292
g3151
S'/home/brencam/web2py/gluon/dal.py'
p3293
sg3153
(dp3294
S'a'
S"('CREATE TABLE auth_user(\\n    id INTEGER PRIMARY K...ey CHAR(512),\\n    reset_password_key CHAR(512)\\n);',)"
p3295
sS'b'
g20
sS'self'
p3296
S'<gluon.dal.SQLiteAdapter object>'
p3297
sS'ret'
p3298
S'undefined'
p3299
sS'self.cursor'
p3300
S'<sqlite3.Cursor object>'
p3301
sS'self.cursor.execute'
p3302
S'<built-in method execute of sqlite3.Cursor object>'
p3303
ssg3159
I1304
sg3160
(dp3304
I1299
S'        self.execute(query)'
p3305
sI1300
S''
sI1301
S'    def log_execute(self,*a,**b):'
p3306
sI1302
S'        self.db._lastsql = a[0]'
p3307
sI1303
S'        t0 = time.time()'
p3308
sI1304
S'        ret = self.cursor.execute(*a,**b)'
p3309
sI1305
S'        self.db._timings.append((a[0],time.time()-t0))'
p3310
sI1306
S'        return ret'
p3311
sI1307
S''
sI1308
S'    def execute(self,*a,**b):'
p3312
ssg3172
S"(self=<gluon.dal.SQLiteAdapter object>, *a=('CREATE TABLE auth_user(\\n    id INTEGER PRIMARY K...ey CHAR(512),\\n    reset_password_key CHAR(512)\\n);',), **b={})"
p3313
sg3174
S'log_execute'
p3314
sasS'pyver'
p3315
S'Python 2.6.6: /usr/bin/python'
p3316
sS'session'
p3317
g60
(g61
g62
NtRp3318
(dp3319
g65
(dp3320
sg67
(lp3321
g60
(g69
g62
NtRp3322
(dp3323
g65
(dp3324
g73
I5
ssg74
Nsg67
(lp3325
sbasbsS'etype'
p3326
S"<class 'sqlite3.OperationalError'>"
p3327
sS'date'
p3328
S'Wed Nov  2 23:23:56 2011'
p3329
sS'response'
p3330
g60
(g61
g62
NtRp3331
(dp3332
g65
(dp3333
sg67
(lp3334
g60
(g69
g62
NtRp3335
(dp3336
g65
(dp3337
g73
I5
ssg74
Nsg67
(lp3338
g60
(g76
g62
NtRp3339
(dp3340
g65
(dp3341
sg74
g3335
sg67
(lp3342
g60
(g81
g62
NtRp3343
(dp3344
g65
(dp3345
g85
g86
ssg74
g3339
sg67
(lp3346
g158
asbag60
(g81
g62
NtRp3347
(dp3348
g65
(dp3349
g92
g93
ssg74
g3339
sg67
(lp3350
S':'
asbag60
(g81
g62
NtRp3351
(dp3352
g65
(dp3353
sg74
g3339
sg67
(lp3354
g60
(g61
g62
NtRp3355
(dp3356
g65
(dp3357
g73
I5
ssg74
g3351
sg67
(lp3358
S'<cStringIO.StringO object at 0xaf77b720>'
p3359
asbasbasbag60
(g76
g62
NtRp3360
(dp3361
g65
(dp3362
sg74
g3335
sg67
(lp3363
g60
(g81
g62
NtRp3364
(dp3365
g65
(dp3366
g85
g86
ssg74
g3360
sg67
(lp3367
g224
asbag60
(g81
g62
NtRp3368
(dp3369
g65
(dp3370
g92
g93
ssg74
g3360
sg67
(lp3371
S':'
asbag60
(g81
g62
NtRp3372
(dp3373
g65
(dp3374
sg74
g3360
sg67
(lp3375
g60
(g61
g62
NtRp3376
(dp3377
g65
(dp3378
g73
I5
ssg74
g3372
sg67
(lp3379
g60
(g69
g62
NtRp3380
(dp3381
g65
(dp3382
g73
I4
ssg74
Nsg67
(lp3383
g60
(g76
g62
NtRp3384
(dp3385
g65
(dp3386
sg74
g3380
sg67
(lp3387
g60
(g81
g62
NtRp3388
(dp3389
g65
(dp3390
g85
g86
ssg74
g3384
sg67
(lp3391
S'session_id_gallery'
p3392
asbag60
(g81
g62
NtRp3393
(dp3394
g65
(dp3395
g92
g93
ssg74
g3384
sg67
(lp3396
S':'
asbag60
(g81
g62
NtRp3397
(dp3398
g65
(dp3399
sg74
g3384
sg67
(lp3400
g60
(g61
g62
NtRp3401
(dp3402
g65
(dp3403
g73
I4
ssg74
g3397
sg67
(lp3404
g60
(g69
g62
NtRp3405
(dp3406
g65
(dp3407
g73
I3
ssg74
Nsg67
(lp3408
g60
(g76
g62
NtRp3409
(dp3410
g65
(dp3411
sg74
g3405
sg67
(lp3412
g60
(g81
g62
NtRp3413
(dp3414
g65
(dp3415
g85
g86
ssg74
g3409
sg67
(lp3416
g274
asbag60
(g81
g62
NtRp3417
(dp3418
g65
(dp3419
g92
g93
ssg74
g3409
sg67
(lp3420
S':'
asbag60
(g81
g62
NtRp3421
(dp3422
g65
(dp3423
sg74
g3409
sg67
(lp3424
g60
(g61
g62
NtRp3425
(dp3426
g65
(dp3427
g73
I3
ssg74
g3421
sg67
(lp3428
S''
asbasbasbag60
(g76
g62
NtRp3429
(dp3430
g65
(dp3431
sg74
g3405
sg67
(lp3432
g60
(g81
g62
NtRp3433
(dp3434
g65
(dp3435
g85
g86
ssg74
g3429
sg67
(lp3436
g295
asbag60
(g81
g62
NtRp3437
(dp3438
g65
(dp3439
g92
g93
ssg74
g3429
sg67
(lp3440
S':'
asbag60
(g81
g62
NtRp3441
(dp3442
g65
(dp3443
sg74
g3429
sg67
(lp3444
g60
(g61
g62
NtRp3445
(dp3446
g65
(dp3447
g73
I3
ssg74
g3441
sg67
(lp3448
S''
asbasbasbag60
(g76
g62
NtRp3449
(dp3450
g65
(dp3451
sg74
g3405
sg67
(lp3452
g60
(g81
g62
NtRp3453
(dp3454
g65
(dp3455
g85
g86
ssg74
g3449
sg67
(lp3456
g316
asbag60
(g81
g62
NtRp3457
(dp3458
g65
(dp3459
g92
g93
ssg74
g3449
sg67
(lp3460
S':'
asbag60
(g81
g62
NtRp3461
(dp3462
g65
(dp3463
sg74
g3449
sg67
(lp3464
g60
(g61
g62
NtRp3465
(dp3466
g65
(dp3467
g73
I3
ssg74
g3461
sg67
(lp3468
S''
asbasbasbag60
(g76
g62
NtRp3469
(dp3470
g65
(dp3471
sg74
g3405
sg67
(lp3472
g60
(g81
g62
NtRp3473
(dp3474
g65
(dp3475
g85
g86
ssg74
g3469
sg67
(lp3476
g337
asbag60
(g81
g62
NtRp3477
(dp3478
g65
(dp3479
g92
g93
ssg74
g3469
sg67
(lp3480
S':'
asbag60
(g81
g62
NtRp3481
(dp3482
g65
(dp3483
sg74
g3469
sg67
(lp3484
g60
(g61
g62
NtRp3485
(dp3486
g65
(dp3487
g73
I3
ssg74
g3481
sg67
(lp3488
S''
asbasbasbag60
(g76
g62
NtRp3489
(dp3490
g65
(dp3491
sg74
g3405
sg67
(lp3492
g60
(g81
g62
NtRp3493
(dp3494
g65
(dp3495
g85
g86
ssg74
g3489
sg67
(lp3496
g358
asbag60
(g81
g62
NtRp3497
(dp3498
g65
(dp3499
g92
g93
ssg74
g3489
sg67
(lp3500
S':'
asbag60
(g81
g62
NtRp3501
(dp3502
g65
(dp3503
sg74
g3489
sg67
(lp3504
g60
(g61
g62
NtRp3505
(dp3506
g65
(dp3507
g73
I3
ssg74
g3501
sg67
(lp3508
S''
asbasbasbag60
(g76
g62
NtRp3509
(dp3510
g65
(dp3511
sg74
g3405
sg67
(lp3512
g60
(g81
g62
NtRp3513
(dp3514
g65
(dp3515
g85
g86
ssg74
g3509
sg67
(lp3516
g379
asbag60
(g81
g62
NtRp3517
(dp3518
g65
(dp3519
g92
g93
ssg74
g3509
sg67
(lp3520
S':'
asbag60
(g81
g62
NtRp3521
(dp3522
g65
(dp3523
sg74
g3509
sg67
(lp3524
g60
(g61
g62
NtRp3525
(dp3526
g65
(dp3527
g73
I3
ssg74
g3521
sg67
(lp3528
S'/'
asbasbasbag60
(g76
g62
NtRp3529
(dp3530
g65
(dp3531
sg74
g3405
sg67
(lp3532
g60
(g81
g62
NtRp3533
(dp3534
g65
(dp3535
g85
g86
ssg74
g3529
sg67
(lp3536
g400
asbag60
(g81
g62
NtRp3537
(dp3538
g65
(dp3539
g92
g93
ssg74
g3529
sg67
(lp3540
S':'
asbag60
(g81
g62
NtRp3541
(dp3542
g65
(dp3543
sg74
g3529
sg67
(lp3544
g60
(g61
g62
NtRp3545
(dp3546
g65
(dp3547
g73
I3
ssg74
g3541
sg67
(lp3548
S''
asbasbasbag60
(g76
g62
NtRp3549
(dp3550
g65
(dp3551
sg74
g3405
sg67
(lp3552
g60
(g81
g62
NtRp3553
(dp3554
g65
(dp3555
g85
g86
ssg74
g3549
sg67
(lp3556
g421
asbag60
(g81
g62
NtRp3557
(dp3558
g65
(dp3559
g92
g93
ssg74
g3549
sg67
(lp3560
S':'
asbag60
(g81
g62
NtRp3561
(dp3562
g65
(dp3563
sg74
g3549
sg67
(lp3564
g60
(g61
g62
NtRp3565
(dp3566
g65
(dp3567
g73
I3
ssg74
g3561
sg67
(lp3568
S''
asbasbasbasbasbasbasbasbasbasbasbag60
(g76
g62
NtRp3569
(dp3570
g65
(dp3571
sg74
g3335
sg67
(lp3572
g60
(g81
g62
NtRp3573
(dp3574
g65
(dp3575
g85
g86
ssg74
g3569
sg67
(lp3576
S'files'
p3577
asbag60
(g81
g62
NtRp3578
(dp3579
g65
(dp3580
g92
g93
ssg74
g3569
sg67
(lp3581
S':'
asbag60
(g81
g62
NtRp3582
(dp3583
g65
(dp3584
sg74
g3569
sg67
(lp3585
g60
(g61
g62
NtRp3586
(dp3587
g65
(dp3588
g73
I5
ssg74
g3582
sg67
(lp3589
g60
(g69
g62
NtRp3590
(dp3591
g65
(dp3592
g73
I4
ssg74
Nsg67
(lp3593
sbasbasbasbag60
(g76
g62
NtRp3594
(dp3595
g65
(dp3596
sg74
g3335
sg67
(lp3597
g60
(g81
g62
NtRp3598
(dp3599
g65
(dp3600
g85
g86
ssg74
g3594
sg67
(lp3601
S'flash'
p3602
asbag60
(g81
g62
NtRp3603
(dp3604
g65
(dp3605
g92
g93
ssg74
g3594
sg67
(lp3606
S':'
asbag60
(g81
g62
NtRp3607
(dp3608
g65
(dp3609
sg74
g3594
sg67
(lp3610
g60
(g61
g62
NtRp3611
(dp3612
g65
(dp3613
g73
I5
ssg74
g3607
sg67
(lp3614
S''
asbasbasbag60
(g76
g62
NtRp3615
(dp3616
g65
(dp3617
sg74
g3335
sg67
(lp3618
g60
(g81
g62
NtRp3619
(dp3620
g65
(dp3621
g85
g86
ssg74
g3615
sg67
(lp3622
S'generic_patterns'
p3623
asbag60
(g81
g62
NtRp3624
(dp3625
g65
(dp3626
g92
g93
ssg74
g3615
sg67
(lp3627
S':'
asbag60
(g81
g62
NtRp3628
(dp3629
g65
(dp3630
sg74
g3615
sg67
(lp3631
g60
(g61
g62
NtRp3632
(dp3633
g65
(dp3634
g73
I5
ssg74
g3628
sg67
(lp3635
g60
(g69
g62
NtRp3636
(dp3637
g65
(dp3638
g73
I4
ssg74
Nsg67
(lp3639
g60
(g76
g62
NtRp3640
(dp3641
g65
(dp3642
sg74
g3636
sg67
(lp3643
g60
(g81
g62
NtRp3644
(dp3645
g65
(dp3646
sg74
g3640
sg67
(lp3647
g60
(g61
g62
NtRp3648
(dp3649
g65
(dp3650
g73
I4
ssg74
g3644
sg67
(lp3651
S'*'
asbasbasbasbasbasbasbag60
(g76
g62
NtRp3652
(dp3653
g65
(dp3654
sg74
g3335
sg67
(lp3655
g60
(g81
g62
NtRp3656
(dp3657
g65
(dp3658
g85
g86
ssg74
g3652
sg67
(lp3659
S'headers'
p3660
asbag60
(g81
g62
NtRp3661
(dp3662
g65
(dp3663
g92
g93
ssg74
g3652
sg67
(lp3664
S':'
asbag60
(g81
g62
NtRp3665
(dp3666
g65
(dp3667
sg74
g3652
sg67
(lp3668
g60
(g61
g62
NtRp3669
(dp3670
g65
(dp3671
g73
I5
ssg74
g3665
sg67
(lp3672
g60
(g69
g62
NtRp3673
(dp3674
g65
(dp3675
g73
I4
ssg74
Nsg67
(lp3676
g60
(g76
g62
NtRp3677
(dp3678
g65
(dp3679
sg74
g3673
sg67
(lp3680
g60
(g81
g62
NtRp3681
(dp3682
g65
(dp3683
g85
g86
ssg74
g3677
sg67
(lp3684
S'Cache-Control'
p3685
asbag60
(g81
g62
NtRp3686
(dp3687
g65
(dp3688
g92
g93
ssg74
g3677
sg67
(lp3689
S':'
asbag60
(g81
g62
NtRp3690
(dp3691
g65
(dp3692
sg74
g3677
sg67
(lp3693
g60
(g61
g62
NtRp3694
(dp3695
g65
(dp3696
g73
I4
ssg74
g3690
sg67
(lp3697
S'no-store, no-cache, must-revalidate, post-check=0, pre-check=0'
p3698
asbasbasbag60
(g76
g62
NtRp3699
(dp3700
g65
(dp3701
sg74
g3673
sg67
(lp3702
g60
(g81
g62
NtRp3703
(dp3704
g65
(dp3705
g85
g86
ssg74
g3699
sg67
(lp3706
S'Content-Type'
p3707
asbag60
(g81
g62
NtRp3708
(dp3709
g65
(dp3710
g92
g93
ssg74
g3699
sg67
(lp3711
S':'
asbag60
(g81
g62
NtRp3712
(dp3713
g65
(dp3714
sg74
g3699
sg67
(lp3715
g60
(g61
g62
NtRp3716
(dp3717
g65
(dp3718
g73
I4
ssg74
g3712
sg67
(lp3719
S'text/html; charset=utf-8'
p3720
asbasbasbag60
(g76
g62
NtRp3721
(dp3722
g65
(dp3723
sg74
g3673
sg67
(lp3724
g60
(g81
g62
NtRp3725
(dp3726
g65
(dp3727
g85
g86
ssg74
g3721
sg67
(lp3728
S'Expires'
p3729
asbag60
(g81
g62
NtRp3730
(dp3731
g65
(dp3732
g92
g93
ssg74
g3721
sg67
(lp3733
S':'
asbag60
(g81
g62
NtRp3734
(dp3735
g65
(dp3736
sg74
g3721
sg67
(lp3737
g60
(g61
g62
NtRp3738
(dp3739
g65
(dp3740
g73
I4
ssg74
g3734
sg67
(lp3741
S'Thu, 03 Nov 2011 06:23:56 GMT'
p3742
asbasbasbag60
(g76
g62
NtRp3743
(dp3744
g65
(dp3745
sg74
g3673
sg67
(lp3746
g60
(g81
g62
NtRp3747
(dp3748
g65
(dp3749
g85
g86
ssg74
g3743
sg67
(lp3750
S'Pragma'
p3751
asbag60
(g81
g62
NtRp3752
(dp3753
g65
(dp3754
g92
g93
ssg74
g3743
sg67
(lp3755
S':'
asbag60
(g81
g62
NtRp3756
(dp3757
g65
(dp3758
sg74
g3743
sg67
(lp3759
g60
(g61
g62
NtRp3760
(dp3761
g65
(dp3762
g73
I4
ssg74
g3756
sg67
(lp3763
S'no-cache'
p3764
asbasbasbag60
(g76
g62
NtRp3765
(dp3766
g65
(dp3767
sg74
g3673
sg67
(lp3768
g60
(g81
g62
NtRp3769
(dp3770
g65
(dp3771
g85
g86
ssg74
g3765
sg67
(lp3772
S'X-Powered-By'
p3773
asbag60
(g81
g62
NtRp3774
(dp3775
g65
(dp3776
g92
g93
ssg74
g3765
sg67
(lp3777
S':'
asbag60
(g81
g62
NtRp3778
(dp3779
g65
(dp3780
sg74
g3765
sg67
(lp3781
g60
(g61
g62
NtRp3782
(dp3783
g65
(dp3784
g73
I4
ssg74
g3778
sg67
(lp3785
S'web2py'
p3786
asbasbasbasbasbasbasbag60
(g76
g62
NtRp3787
(dp3788
g65
(dp3789
sg74
g3335
sg67
(lp3790
g60
(g81
g62
NtRp3791
(dp3792
g65
(dp3793
g85
g86
ssg74
g3787
sg67
(lp3794
S'menu'
p3795
asbag60
(g81
g62
NtRp3796
(dp3797
g65
(dp3798
g92
g93
ssg74
g3787
sg67
(lp3799
S':'
asbag60
(g81
g62
NtRp3800
(dp3801
g65
(dp3802
sg74
g3787
sg67
(lp3803
g60
(g61
g62
NtRp3804
(dp3805
g65
(dp3806
g73
I5
ssg74
g3800
sg67
(lp3807
g60
(g69
g62
NtRp3808
(dp3809
g65
(dp3810
g73
I4
ssg74
Nsg67
(lp3811
sbasbasbasbag60
(g76
g62
NtRp3812
(dp3813
g65
(dp3814
sg74
g3335
sg67
(lp3815
g60
(g81
g62
NtRp3816
(dp3817
g65
(dp3818
g85
g86
ssg74
g3812
sg67
(lp3819
S'meta'
p3820
asbag60
(g81
g62
NtRp3821
(dp3822
g65
(dp3823
g92
g93
ssg74
g3812
sg67
(lp3824
S':'
asbag60
(g81
g62
NtRp3825
(dp3826
g65
(dp3827
sg74
g3812
sg67
(lp3828
g60
(g61
g62
NtRp3829
(dp3830
g65
(dp3831
g73
I5
ssg74
g3825
sg67
(lp3832
g60
(g69
g62
NtRp3833
(dp3834
g65
(dp3835
g73
I4
ssg74
Nsg67
(lp3836
sbasbasbasbag60
(g76
g62
NtRp3837
(dp3838
g65
(dp3839
sg74
g3335
sg67
(lp3840
g60
(g81
g62
NtRp3841
(dp3842
g65
(dp3843
g85
g86
ssg74
g3837
sg67
(lp3844
S'postprocessing'
p3845
asbag60
(g81
g62
NtRp3846
(dp3847
g65
(dp3848
g92
g93
ssg74
g3837
sg67
(lp3849
S':'
asbag60
(g81
g62
NtRp3850
(dp3851
g65
(dp3852
sg74
g3837
sg67
(lp3853
g60
(g61
g62
NtRp3854
(dp3855
g65
(dp3856
g73
I5
ssg74
g3850
sg67
(lp3857
g60
(g69
g62
NtRp3858
(dp3859
g65
(dp3860
g73
I4
ssg74
Nsg67
(lp3861
sbasbasbasbag60
(g76
g62
NtRp3862
(dp3863
g65
(dp3864
sg74
g3335
sg67
(lp3865
g60
(g81
g62
NtRp3866
(dp3867
g65
(dp3868
g85
g86
ssg74
g3862
sg67
(lp3869
S'session_file'
p3870
asbag60
(g81
g62
NtRp3871
(dp3872
g65
(dp3873
g92
g93
ssg74
g3862
sg67
(lp3874
S':'
asbag60
(g81
g62
NtRp3875
(dp3876
g65
(dp3877
sg74
g3862
sg67
(lp3878
g60
(g61
g62
NtRp3879
(dp3880
g65
(dp3881
g73
I5
ssg74
g3875
sg67
(lp3882
S"<open file '/home/brencam/web2py/applications/gallery/sessions/127.0.0.1-5764d7f9-8178-4db1-bc94-76589577a2e3', mode 'rb+' at 0xae5b7b78>"
p3883
asbasbasbag60
(g76
g62
NtRp3884
(dp3885
g65
(dp3886
sg74
g3335
sg67
(lp3887
g60
(g81
g62
NtRp3888
(dp3889
g65
(dp3890
g85
g86
ssg74
g3884
sg67
(lp3891
S'session_filename'
p3892
asbag60
(g81
g62
NtRp3893
(dp3894
g65
(dp3895
g92
g93
ssg74
g3884
sg67
(lp3896
S':'
asbag60
(g81
g62
NtRp3897
(dp3898
g65
(dp3899
sg74
g3884
sg67
(lp3900
g60
(g61
g62
NtRp3901
(dp3902
g65
(dp3903
g73
I5
ssg74
g3897
sg67
(lp3904
S'/home/brencam/web2py/applications/gallery/sessions/127.0.0.1-5764d7f9-8178-4db1-bc94-76589577a2e3'
p3905
asbasbasbag60
(g76
g62
NtRp3906
(dp3907
g65
(dp3908
sg74
g3335
sg67
(lp3909
g60
(g81
g62
NtRp3910
(dp3911
g65
(dp3912
g85
g86
ssg74
g3906
sg67
(lp3913
S'session_id'
p3914
asbag60
(g81
g62
NtRp3915
(dp3916
g65
(dp3917
g92
g93
ssg74
g3906
sg67
(lp3918
S':'
asbag60
(g81
g62
NtRp3919
(dp3920
g65
(dp3921
sg74
g3906
sg67
(lp3922
g60
(g61
g62
NtRp3923
(dp3924
g65
(dp3925
g73
I5
ssg74
g3919
sg67
(lp3926
S'127.0.0.1-5764d7f9-8178-4db1-bc94-76589577a2e3'
p3927
asbasbasbag60
(g76
g62
NtRp3928
(dp3929
g65
(dp3930
sg74
g3335
sg67
(lp3931
g60
(g81
g62
NtRp3932
(dp3933
g65
(dp3934
g85
g86
ssg74
g3928
sg67
(lp3935
S'session_id_name'
p3936
asbag60
(g81
g62
NtRp3937
(dp3938
g65
(dp3939
g92
g93
ssg74
g3928
sg67
(lp3940
S':'
asbag60
(g81
g62
NtRp3941
(dp3942
g65
(dp3943
sg74
g3928
sg67
(lp3944
g60
(g61
g62
NtRp3945
(dp3946
g65
(dp3947
g73
I5
ssg74
g3941
sg67
(lp3948
g3392
asbasbasbag60
(g76
g62
NtRp3949
(dp3950
g65
(dp3951
sg74
g3335
sg67
(lp3952
g60
(g81
g62
NtRp3953
(dp3954
g65
(dp3955
g85
g86
ssg74
g3949
sg67
(lp3956
S'session_locked'
p3957
asbag60
(g81
g62
NtRp3958
(dp3959
g65
(dp3960
g92
g93
ssg74
g3949
sg67
(lp3961
S':'
asbag60
(g81
g62
NtRp3962
(dp3963
g65
(dp3964
sg74
g3949
sg67
(lp3965
g60
(g61
g62
NtRp3966
(dp3967
g65
(dp3968
g73
I5
ssg74
g3962
sg67
(lp3969
g1845
asbasbasbag60
(g76
g62
NtRp3970
(dp3971
g65
(dp3972
sg74
g3335
sg67
(lp3973
g60
(g81
g62
NtRp3974
(dp3975
g65
(dp3976
g85
g86
ssg74
g3970
sg67
(lp3977
S'session_new'
p3978
asbag60
(g81
g62
NtRp3979
(dp3980
g65
(dp3981
g92
g93
ssg74
g3970
sg67
(lp3982
S':'
asbag60
(g81
g62
NtRp3983
(dp3984
g65
(dp3985
sg74
g3970
sg67
(lp3986
g60
(g61
g62
NtRp3987
(dp3988
g65
(dp3989
g73
I5
ssg74
g3983
sg67
(lp3990
g103
asbasbasbag60
(g76
g62
NtRp3991
(dp3992
g65
(dp3993
sg74
g3335
sg67
(lp3994
g60
(g81
g62
NtRp3995
(dp3996
g65
(dp3997
g85
g86
ssg74
g3991
sg67
(lp3998
S'status'
p3999
asbag60
(g81
g62
NtRp4000
(dp4001
g65
(dp4002
g92
g93
ssg74
g3991
sg67
(lp4003
S':'
asbag60
(g81
g62
NtRp4004
(dp4005
g65
(dp4006
sg74
g3991
sg67
(lp4007
g60
(g61
g62
NtRp4008
(dp4009
g65
(dp4010
g73
I5
ssg74
g4004
sg67
(lp4011
S'200'
p4012
asbasbasbag60
(g76
g62
NtRp4013
(dp4014
g65
(dp4015
sg74
g3335
sg67
(lp4016
g60
(g81
g62
NtRp4017
(dp4018
g65
(dp4019
g85
g86
ssg74
g4013
sg67
(lp4020
g2489
asbag60
(g81
g62
NtRp4021
(dp4022
g65
(dp4023
g92
g93
ssg74
g4013
sg67
(lp4024
S':'
asbag60
(g81
g62
NtRp4025
(dp4026
g65
(dp4027
sg74
g4013
sg67
(lp4028
g60
(g61
g62
NtRp4029
(dp4030
g65
(dp4031
g73
I5
ssg74
g4025
sg67
(lp4032
g2502
asbasbasbag60
(g76
g62
NtRp4033
(dp4034
g65
(dp4035
sg74
g3335
sg67
(lp4036
g60
(g81
g62
NtRp4037
(dp4038
g65
(dp4039
g85
g86
ssg74
g4033
sg67
(lp4040
S'view'
p4041
asbag60
(g81
g62
NtRp4042
(dp4043
g65
(dp4044
g92
g93
ssg74
g4033
sg67
(lp4045
S':'
asbag60
(g81
g62
NtRp4046
(dp4047
g65
(dp4048
sg74
g4033
sg67
(lp4049
g60
(g61
g62
NtRp4050
(dp4051
g65
(dp4052
g73
I5
ssg74
g4046
sg67
(lp4053
S'default/index.html'
p4054
asbasbasbasbasbsS'locals'
p4055
(dp4056
S'a'
S"('CREATE TABLE auth_user(\\n    id INTEGER PRIMARY K...ey CHAR(512),\\n    reset_password_key CHAR(512)\\n);',)"
p4057
sS'self'
p4058
S'<gluon.dal.SQLiteAdapter object>'
p4059
sS'b'
g20
sS't0'
p4060
S'1320301436.89535'
p4061
sssS'traceback'
p4062
S'Traceback (most recent call last):\n  File "/home/brencam/web2py/gluon/restricted.py", line 194, in restricted\n    exec ccode in environment\n  File "/home/brencam/web2py/applications/gallery/models/db.py", line 42, in <module>\n    auth.define_tables()\n  File "/home/brencam/web2py/gluon/tools.py", line 1256, in define_tables\n    format=\'%(first_name)s %(last_name)s (%(id)s)\'))\n  File "/home/brencam/web2py/gluon/dal.py", line 4491, in define_table\n    polymodel=polymodel)\n  File "/home/brencam/web2py/gluon/dal.py", line 677, in create_table\n    self.create_sequence_and_triggers(query,table)\n  File "/home/brencam/web2py/gluon/dal.py", line 1299, in create_sequence_and_triggers\n    self.execute(query)\n  File "/home/brencam/web2py/gluon/dal.py", line 1309, in execute\n    return self.log_execute(*a, **b)\n  File "/home/brencam/web2py/gluon/dal.py", line 1304, in log_execute\n    ret = self.cursor.execute(*a,**b)\nOperationalError: table auth_user already exists\n'
p4063
s.