(dp1
S'output'
p2
S''
sS'layer'
p3
S'/home/brencam/web2py/applications/gallery/controllers/search.py'
p4
sS'code'
p5
S'# Search Controller\nimport datetime\n\ndef getnames():\n    # for ajax search -  find list of images - match on search string\n    # (need to return list in json format ??)\n    print \'*************  processing ajax request *********** at %s\' %datetime.datetime.now().ctime()\n\n    sval =\'\'\n    if  request.vars[\'q\']:\n        sval = request.vars[\'q\']\n\n        #queries with %LIKE% ****HERE BE THE DRAGONS!!!!******\n\n        images = db(db.image.title.like(sval+\'%\')).select()\n    else:\n        images = db(db.image.ALL).select()\n\n#    html =  XML( <img src="{{=URL(\'download\', args=image.file)}}" width="120"  height="100"  for image in images)\n\n#    print \'***************   html **********\' html\n  \n    r = images[0]\n\n    # return image and title for all matches\n    #return XML(DIV(LI(*[IMG(_src=URL(\'default\',\'download\', args= r.file), _width="120", _height="100" ) for r in images])))\n\n    s = "<div>"\n    #s =""\n    for r in images:\n        print  s\n        s += LI(IMG(_src=URL(\'default\',\'download\', args= r.file), _width="120", _height="100"  )).xml()\n        s +=  \', \'\n        s += A(r.title, _href=URL(\'default\',\'show\',args=r.id).xml()\n    s+= "</div>"\n    print s\n    return XML(s)\n\n#    return XML(UL(LI([IMG(_src=URL(\'default\',\'download\', args= r.file), _width="120", _height="100" ) \\\n#    for r in images])))\n\n    # working \n    #return XML(DIV(LI(*[IMG(_src=URL(\'default\',\'download\', args= r.file), _width="120", _height="100" ) \\\n    #for r in images])))\n\n\n\n# A(r.title, _href=URL(\'default\',\'show\',args=r.id)))))\n\n\n    # return image and title as link  - one image\n    #return XML(DIV(LI(IMG(_src=URL(\'default\',\'download\', args= r.file), _alt="", _width="120",  _height="100"), A(r.title, _href=URL(\'default\',\'show\',args=r.id)))))\n\n\n\n\n\n\n#    return XML( A(IMG(_src=URL(\'default\',\'download\', args= r.file), _alt="", _width="120",  _height="100"), _href=URL(\'default\',\'index\')))\n\n    \n\n#<li><img  src="{{=URL(\'download\', args=image.file)}}" width="120"  height="100" />{{=A(image.title, _href=URL("show", args=image.id))}}\n#</li>\n\n\n    # Can I do a redirect from ajax request with the search results ??\n    #redirect (URL(\'default\', \'showcss\'))\n\n    # Note the URL Syntax here to create a link to a different controller (the default)\n    # How to show thumbnails for selected images here as well ??\n#    return XML(UL(*[LI(A(\'%s \' % (img.title),_href=URL(\'default\',\'show\',args=img.id)))\\\n#                    for img in images]))\n\n\n\nresponse._vars=response._caller(getnames)\n'
p6
sS'snapshot'
p7
(dp8
S'exception'
p9
(dp10
S'__getslice__'
p11
S"<method-wrapper '__getslice__' of exceptions.SyntaxError object>"
p12
sS'text'
p13
S'\'    s+= "</div>"\\n\''
p14
sS'__str__'
p15
S"<method-wrapper '__str__' of exceptions.SyntaxError object>"
p16
sS'__reduce__'
p17
S'<built-in method __reduce__ of exceptions.SyntaxError object>'
p18
sS'__dict__'
p19
S'{}'
p20
sS'__sizeof__'
p21
S'<built-in method __sizeof__ of exceptions.SyntaxError object>'
p22
sS'__init__'
p23
S"<method-wrapper '__init__' of exceptions.SyntaxError object>"
p24
sS'__setattr__'
p25
S"<method-wrapper '__setattr__' of exceptions.SyntaxError object>"
p26
sS'__reduce_ex__'
p27
S'<built-in method __reduce_ex__ of exceptions.SyntaxError object>'
p28
sS'__new__'
p29
S'<built-in method __new__ of type object>'
p30
sS'__format__'
p31
S'<built-in method __format__ of exceptions.SyntaxError object>'
p32
sS'__class__'
p33
S"<type 'exceptions.SyntaxError'>"
p34
sS'filename'
p35
S"'/home/brencam/web2py/applications/gallery/controllers/search.py'"
p36
sS'lineno'
p37
S'35'
p38
sS'msg'
p39
S"'invalid syntax'"
p40
sS'__doc__'
p41
S"'Invalid syntax.'"
p42
sS'__getitem__'
p43
S"<method-wrapper '__getitem__' of exceptions.SyntaxError object>"
p44
sS'__setstate__'
p45
S'<built-in method __setstate__ of exceptions.SyntaxError object>'
p46
sS'__getattribute__'
p47
S"<method-wrapper '__getattribute__' of exceptions.SyntaxError object>"
p48
sS'print_file_and_line'
p49
S'None'
p50
sS'args'
p51
S'(\'invalid syntax\', (\'/home/brencam/web2py/applications/gallery/controllers/search.py\', 35, 5, \'    s+= "</div>"\\n\'))'
p52
sS'__subclasshook__'
p53
S'<built-in method __subclasshook__ of type object>'
p54
sS'offset'
p55
S'5'
sS'__unicode__'
p56
S'<built-in method __unicode__ of exceptions.SyntaxError object>'
p57
sS'__delattr__'
p58
S"<method-wrapper '__delattr__' of exceptions.SyntaxError object>"
p59
sS'__repr__'
p60
S"<method-wrapper '__repr__' of exceptions.SyntaxError object>"
p61
sS'__hash__'
p62
S"<method-wrapper '__hash__' of exceptions.SyntaxError object>"
p63
ssS'evalue'
p64
S'invalid syntax (search.py, line 35)'
p65
sS'request'
p66
ccopy_reg
_reconstructor
p67
(cgluon.html
BEAUTIFY
p68
c__builtin__
object
p69
NtRp70
(dp71
S'attributes'
p72
(dp73
sS'components'
p74
(lp75
g67
(cgluon.html
TABLE
p76
g69
NtRp77
(dp78
g72
(dp79
S'level'
p80
I5
ssS'parent'
p81
Nsg74
(lp82
g67
(cgluon.html
TR
p83
g69
NtRp84
(dp85
g72
(dp86
sg81
g77
sg74
(lp87
g67
(cgluon.html
TD
p88
g69
NtRp89
(dp90
g72
(dp91
S'_style'
p92
S'font-weight:bold;'
p93
ssg81
g84
sg74
(lp94
S'ajax'
p95
asbag67
(g88
g69
NtRp96
(dp97
g72
(dp98
S'_valign'
p99
S'top'
p100
ssg81
g84
sg74
(lp101
S':'
asbag67
(g88
g69
NtRp102
(dp103
g72
(dp104
sg81
g84
sg74
(lp105
g67
(g68
g69
NtRp106
(dp107
g72
(dp108
g80
I5
ssg81
g102
sg74
(lp109
S'True'
p110
asbasbasbag67
(g83
g69
NtRp111
(dp112
g72
(dp113
sg81
g77
sg74
(lp114
g67
(g88
g69
NtRp115
(dp116
g72
(dp117
g92
g93
ssg81
g111
sg74
(lp118
S'application'
p119
asbag67
(g88
g69
NtRp120
(dp121
g72
(dp122
g99
g100
ssg81
g111
sg74
(lp123
S':'
asbag67
(g88
g69
NtRp124
(dp125
g72
(dp126
sg81
g111
sg74
(lp127
g67
(g68
g69
NtRp128
(dp129
g72
(dp130
g80
I5
ssg81
g124
sg74
(lp131
S'gallery'
p132
asbasbasbag67
(g83
g69
NtRp133
(dp134
g72
(dp135
sg81
g77
sg74
(lp136
g67
(g88
g69
NtRp137
(dp138
g72
(dp139
g92
g93
ssg81
g133
sg74
(lp140
g51
asbag67
(g88
g69
NtRp141
(dp142
g72
(dp143
g99
g100
ssg81
g133
sg74
(lp144
S':'
asbag67
(g88
g69
NtRp145
(dp146
g72
(dp147
sg81
g133
sg74
(lp148
g67
(g68
g69
NtRp149
(dp150
g72
(dp151
g80
I5
ssg81
g145
sg74
(lp152
g67
(g76
g69
NtRp153
(dp154
g72
(dp155
g80
I4
ssg81
Nsg74
(lp156
sbasbasbasbag67
(g83
g69
NtRp157
(dp158
g72
(dp159
sg81
g77
sg74
(lp160
g67
(g88
g69
NtRp161
(dp162
g72
(dp163
g92
g93
ssg81
g157
sg74
(lp164
S'body'
p165
asbag67
(g88
g69
NtRp166
(dp167
g72
(dp168
g99
g100
ssg81
g157
sg74
(lp169
S':'
asbag67
(g88
g69
NtRp170
(dp171
g72
(dp172
sg81
g157
sg74
(lp173
g67
(g68
g69
NtRp174
(dp175
g72
(dp176
g80
I5
ssg81
g170
sg74
(lp177
S'<cStringIO.StringO object at 0xaf6778e0>'
p178
asbasbasbag67
(g83
g69
NtRp179
(dp180
g72
(dp181
sg81
g77
sg74
(lp182
g67
(g88
g69
NtRp183
(dp184
g72
(dp185
g92
g93
ssg81
g179
sg74
(lp186
S'client'
p187
asbag67
(g88
g69
NtRp188
(dp189
g72
(dp190
g99
g100
ssg81
g179
sg74
(lp191
S':'
asbag67
(g88
g69
NtRp192
(dp193
g72
(dp194
sg81
g179
sg74
(lp195
g67
(g68
g69
NtRp196
(dp197
g72
(dp198
g80
I5
ssg81
g192
sg74
(lp199
S'127.0.0.1'
p200
asbasbasbag67
(g83
g69
NtRp201
(dp202
g72
(dp203
sg81
g77
sg74
(lp204
g67
(g88
g69
NtRp205
(dp206
g72
(dp207
g92
g93
ssg81
g201
sg74
(lp208
S'controller'
p209
asbag67
(g88
g69
NtRp210
(dp211
g72
(dp212
g99
g100
ssg81
g201
sg74
(lp213
S':'
asbag67
(g88
g69
NtRp214
(dp215
g72
(dp216
sg81
g201
sg74
(lp217
g67
(g68
g69
NtRp218
(dp219
g72
(dp220
g80
I5
ssg81
g214
sg74
(lp221
S'search'
p222
asbasbasbag67
(g83
g69
NtRp223
(dp224
g72
(dp225
sg81
g77
sg74
(lp226
g67
(g88
g69
NtRp227
(dp228
g72
(dp229
g92
g93
ssg81
g223
sg74
(lp230
S'cookies'
p231
asbag67
(g88
g69
NtRp232
(dp233
g72
(dp234
g99
g100
ssg81
g223
sg74
(lp235
S':'
asbag67
(g88
g69
NtRp236
(dp237
g72
(dp238
sg81
g223
sg74
(lp239
g67
(g68
g69
NtRp240
(dp241
g72
(dp242
g80
I5
ssg81
g236
sg74
(lp243
g67
(g76
g69
NtRp244
(dp245
g72
(dp246
g80
I4
ssg81
Nsg74
(lp247
g67
(g83
g69
NtRp248
(dp249
g72
(dp250
sg81
g244
sg74
(lp251
g67
(g88
g69
NtRp252
(dp253
g72
(dp254
g92
g93
ssg81
g248
sg74
(lp255
S'csrftoken'
p256
asbag67
(g88
g69
NtRp257
(dp258
g72
(dp259
g99
g100
ssg81
g248
sg74
(lp260
S':'
asbag67
(g88
g69
NtRp261
(dp262
g72
(dp263
sg81
g248
sg74
(lp264
g67
(g68
g69
NtRp265
(dp266
g72
(dp267
g80
I4
ssg81
g261
sg74
(lp268
g67
(g76
g69
NtRp269
(dp270
g72
(dp271
g80
I3
ssg81
Nsg74
(lp272
g67
(g83
g69
NtRp273
(dp274
g72
(dp275
sg81
g269
sg74
(lp276
g67
(g88
g69
NtRp277
(dp278
g72
(dp279
g92
g93
ssg81
g273
sg74
(lp280
S'comment'
p281
asbag67
(g88
g69
NtRp282
(dp283
g72
(dp284
g99
g100
ssg81
g273
sg74
(lp285
S':'
asbag67
(g88
g69
NtRp286
(dp287
g72
(dp288
sg81
g273
sg74
(lp289
g67
(g68
g69
NtRp290
(dp291
g72
(dp292
g80
I3
ssg81
g286
sg74
(lp293
S''
asbasbasbag67
(g83
g69
NtRp294
(dp295
g72
(dp296
sg81
g269
sg74
(lp297
g67
(g88
g69
NtRp298
(dp299
g72
(dp300
g92
g93
ssg81
g294
sg74
(lp301
S'domain'
p302
asbag67
(g88
g69
NtRp303
(dp304
g72
(dp305
g99
g100
ssg81
g294
sg74
(lp306
S':'
asbag67
(g88
g69
NtRp307
(dp308
g72
(dp309
sg81
g294
sg74
(lp310
g67
(g68
g69
NtRp311
(dp312
g72
(dp313
g80
I3
ssg81
g307
sg74
(lp314
S''
asbasbasbag67
(g83
g69
NtRp315
(dp316
g72
(dp317
sg81
g269
sg74
(lp318
g67
(g88
g69
NtRp319
(dp320
g72
(dp321
g92
g93
ssg81
g315
sg74
(lp322
S'expires'
p323
asbag67
(g88
g69
NtRp324
(dp325
g72
(dp326
g99
g100
ssg81
g315
sg74
(lp327
S':'
asbag67
(g88
g69
NtRp328
(dp329
g72
(dp330
sg81
g315
sg74
(lp331
g67
(g68
g69
NtRp332
(dp333
g72
(dp334
g80
I3
ssg81
g328
sg74
(lp335
S''
asbasbasbag67
(g83
g69
NtRp336
(dp337
g72
(dp338
sg81
g269
sg74
(lp339
g67
(g88
g69
NtRp340
(dp341
g72
(dp342
g92
g93
ssg81
g336
sg74
(lp343
S'httponly'
p344
asbag67
(g88
g69
NtRp345
(dp346
g72
(dp347
g99
g100
ssg81
g336
sg74
(lp348
S':'
asbag67
(g88
g69
NtRp349
(dp350
g72
(dp351
sg81
g336
sg74
(lp352
g67
(g68
g69
NtRp353
(dp354
g72
(dp355
g80
I3
ssg81
g349
sg74
(lp356
S''
asbasbasbag67
(g83
g69
NtRp357
(dp358
g72
(dp359
sg81
g269
sg74
(lp360
g67
(g88
g69
NtRp361
(dp362
g72
(dp363
g92
g93
ssg81
g357
sg74
(lp364
S'max-age'
p365
asbag67
(g88
g69
NtRp366
(dp367
g72
(dp368
g99
g100
ssg81
g357
sg74
(lp369
S':'
asbag67
(g88
g69
NtRp370
(dp371
g72
(dp372
sg81
g357
sg74
(lp373
g67
(g68
g69
NtRp374
(dp375
g72
(dp376
g80
I3
ssg81
g370
sg74
(lp377
S''
asbasbasbag67
(g83
g69
NtRp378
(dp379
g72
(dp380
sg81
g269
sg74
(lp381
g67
(g88
g69
NtRp382
(dp383
g72
(dp384
g92
g93
ssg81
g378
sg74
(lp385
S'path'
p386
asbag67
(g88
g69
NtRp387
(dp388
g72
(dp389
g99
g100
ssg81
g378
sg74
(lp390
S':'
asbag67
(g88
g69
NtRp391
(dp392
g72
(dp393
sg81
g378
sg74
(lp394
g67
(g68
g69
NtRp395
(dp396
g72
(dp397
g80
I3
ssg81
g391
sg74
(lp398
S''
asbasbasbag67
(g83
g69
NtRp399
(dp400
g72
(dp401
sg81
g269
sg74
(lp402
g67
(g88
g69
NtRp403
(dp404
g72
(dp405
g92
g93
ssg81
g399
sg74
(lp406
S'secure'
p407
asbag67
(g88
g69
NtRp408
(dp409
g72
(dp410
g99
g100
ssg81
g399
sg74
(lp411
S':'
asbag67
(g88
g69
NtRp412
(dp413
g72
(dp414
sg81
g399
sg74
(lp415
g67
(g68
g69
NtRp416
(dp417
g72
(dp418
g80
I3
ssg81
g412
sg74
(lp419
S''
asbasbasbag67
(g83
g69
NtRp420
(dp421
g72
(dp422
sg81
g269
sg74
(lp423
g67
(g88
g69
NtRp424
(dp425
g72
(dp426
g92
g93
ssg81
g420
sg74
(lp427
S'version'
p428
asbag67
(g88
g69
NtRp429
(dp430
g72
(dp431
g99
g100
ssg81
g420
sg74
(lp432
S':'
asbag67
(g88
g69
NtRp433
(dp434
g72
(dp435
sg81
g420
sg74
(lp436
g67
(g68
g69
NtRp437
(dp438
g72
(dp439
g80
I3
ssg81
g433
sg74
(lp440
S''
asbasbasbasbasbasbasbag67
(g83
g69
NtRp441
(dp442
g72
(dp443
sg81
g244
sg74
(lp444
g67
(g88
g69
NtRp445
(dp446
g72
(dp447
g92
g93
ssg81
g441
sg74
(lp448
S'session_id_admin'
p449
asbag67
(g88
g69
NtRp450
(dp451
g72
(dp452
g99
g100
ssg81
g441
sg74
(lp453
S':'
asbag67
(g88
g69
NtRp454
(dp455
g72
(dp456
sg81
g441
sg74
(lp457
g67
(g68
g69
NtRp458
(dp459
g72
(dp460
g80
I4
ssg81
g454
sg74
(lp461
g67
(g76
g69
NtRp462
(dp463
g72
(dp464
g80
I3
ssg81
Nsg74
(lp465
g67
(g83
g69
NtRp466
(dp467
g72
(dp468
sg81
g462
sg74
(lp469
g67
(g88
g69
NtRp470
(dp471
g72
(dp472
g92
g93
ssg81
g466
sg74
(lp473
g281
asbag67
(g88
g69
NtRp474
(dp475
g72
(dp476
g99
g100
ssg81
g466
sg74
(lp477
S':'
asbag67
(g88
g69
NtRp478
(dp479
g72
(dp480
sg81
g466
sg74
(lp481
g67
(g68
g69
NtRp482
(dp483
g72
(dp484
g80
I3
ssg81
g478
sg74
(lp485
S''
asbasbasbag67
(g83
g69
NtRp486
(dp487
g72
(dp488
sg81
g462
sg74
(lp489
g67
(g88
g69
NtRp490
(dp491
g72
(dp492
g92
g93
ssg81
g486
sg74
(lp493
g302
asbag67
(g88
g69
NtRp494
(dp495
g72
(dp496
g99
g100
ssg81
g486
sg74
(lp497
S':'
asbag67
(g88
g69
NtRp498
(dp499
g72
(dp500
sg81
g486
sg74
(lp501
g67
(g68
g69
NtRp502
(dp503
g72
(dp504
g80
I3
ssg81
g498
sg74
(lp505
S''
asbasbasbag67
(g83
g69
NtRp506
(dp507
g72
(dp508
sg81
g462
sg74
(lp509
g67
(g88
g69
NtRp510
(dp511
g72
(dp512
g92
g93
ssg81
g506
sg74
(lp513
g323
asbag67
(g88
g69
NtRp514
(dp515
g72
(dp516
g99
g100
ssg81
g506
sg74
(lp517
S':'
asbag67
(g88
g69
NtRp518
(dp519
g72
(dp520
sg81
g506
sg74
(lp521
g67
(g68
g69
NtRp522
(dp523
g72
(dp524
g80
I3
ssg81
g518
sg74
(lp525
S''
asbasbasbag67
(g83
g69
NtRp526
(dp527
g72
(dp528
sg81
g462
sg74
(lp529
g67
(g88
g69
NtRp530
(dp531
g72
(dp532
g92
g93
ssg81
g526
sg74
(lp533
g344
asbag67
(g88
g69
NtRp534
(dp535
g72
(dp536
g99
g100
ssg81
g526
sg74
(lp537
S':'
asbag67
(g88
g69
NtRp538
(dp539
g72
(dp540
sg81
g526
sg74
(lp541
g67
(g68
g69
NtRp542
(dp543
g72
(dp544
g80
I3
ssg81
g538
sg74
(lp545
S''
asbasbasbag67
(g83
g69
NtRp546
(dp547
g72
(dp548
sg81
g462
sg74
(lp549
g67
(g88
g69
NtRp550
(dp551
g72
(dp552
g92
g93
ssg81
g546
sg74
(lp553
g365
asbag67
(g88
g69
NtRp554
(dp555
g72
(dp556
g99
g100
ssg81
g546
sg74
(lp557
S':'
asbag67
(g88
g69
NtRp558
(dp559
g72
(dp560
sg81
g546
sg74
(lp561
g67
(g68
g69
NtRp562
(dp563
g72
(dp564
g80
I3
ssg81
g558
sg74
(lp565
S''
asbasbasbag67
(g83
g69
NtRp566
(dp567
g72
(dp568
sg81
g462
sg74
(lp569
g67
(g88
g69
NtRp570
(dp571
g72
(dp572
g92
g93
ssg81
g566
sg74
(lp573
g386
asbag67
(g88
g69
NtRp574
(dp575
g72
(dp576
g99
g100
ssg81
g566
sg74
(lp577
S':'
asbag67
(g88
g69
NtRp578
(dp579
g72
(dp580
sg81
g566
sg74
(lp581
g67
(g68
g69
NtRp582
(dp583
g72
(dp584
g80
I3
ssg81
g578
sg74
(lp585
S''
asbasbasbag67
(g83
g69
NtRp586
(dp587
g72
(dp588
sg81
g462
sg74
(lp589
g67
(g88
g69
NtRp590
(dp591
g72
(dp592
g92
g93
ssg81
g586
sg74
(lp593
g407
asbag67
(g88
g69
NtRp594
(dp595
g72
(dp596
g99
g100
ssg81
g586
sg74
(lp597
S':'
asbag67
(g88
g69
NtRp598
(dp599
g72
(dp600
sg81
g586
sg74
(lp601
g67
(g68
g69
NtRp602
(dp603
g72
(dp604
g80
I3
ssg81
g598
sg74
(lp605
S''
asbasbasbag67
(g83
g69
NtRp606
(dp607
g72
(dp608
sg81
g462
sg74
(lp609
g67
(g88
g69
NtRp610
(dp611
g72
(dp612
g92
g93
ssg81
g606
sg74
(lp613
g428
asbag67
(g88
g69
NtRp614
(dp615
g72
(dp616
g99
g100
ssg81
g606
sg74
(lp617
S':'
asbag67
(g88
g69
NtRp618
(dp619
g72
(dp620
sg81
g606
sg74
(lp621
g67
(g68
g69
NtRp622
(dp623
g72
(dp624
g80
I3
ssg81
g618
sg74
(lp625
S''
asbasbasbasbasbasbasbag67
(g83
g69
NtRp626
(dp627
g72
(dp628
sg81
g244
sg74
(lp629
g67
(g88
g69
NtRp630
(dp631
g72
(dp632
g92
g93
ssg81
g626
sg74
(lp633
S'session_id_gallery'
p634
asbag67
(g88
g69
NtRp635
(dp636
g72
(dp637
g99
g100
ssg81
g626
sg74
(lp638
S':'
asbag67
(g88
g69
NtRp639
(dp640
g72
(dp641
sg81
g626
sg74
(lp642
g67
(g68
g69
NtRp643
(dp644
g72
(dp645
g80
I4
ssg81
g639
sg74
(lp646
g67
(g76
g69
NtRp647
(dp648
g72
(dp649
g80
I3
ssg81
Nsg74
(lp650
g67
(g83
g69
NtRp651
(dp652
g72
(dp653
sg81
g647
sg74
(lp654
g67
(g88
g69
NtRp655
(dp656
g72
(dp657
g92
g93
ssg81
g651
sg74
(lp658
g281
asbag67
(g88
g69
NtRp659
(dp660
g72
(dp661
g99
g100
ssg81
g651
sg74
(lp662
S':'
asbag67
(g88
g69
NtRp663
(dp664
g72
(dp665
sg81
g651
sg74
(lp666
g67
(g68
g69
NtRp667
(dp668
g72
(dp669
g80
I3
ssg81
g663
sg74
(lp670
S''
asbasbasbag67
(g83
g69
NtRp671
(dp672
g72
(dp673
sg81
g647
sg74
(lp674
g67
(g88
g69
NtRp675
(dp676
g72
(dp677
g92
g93
ssg81
g671
sg74
(lp678
g302
asbag67
(g88
g69
NtRp679
(dp680
g72
(dp681
g99
g100
ssg81
g671
sg74
(lp682
S':'
asbag67
(g88
g69
NtRp683
(dp684
g72
(dp685
sg81
g671
sg74
(lp686
g67
(g68
g69
NtRp687
(dp688
g72
(dp689
g80
I3
ssg81
g683
sg74
(lp690
S''
asbasbasbag67
(g83
g69
NtRp691
(dp692
g72
(dp693
sg81
g647
sg74
(lp694
g67
(g88
g69
NtRp695
(dp696
g72
(dp697
g92
g93
ssg81
g691
sg74
(lp698
g323
asbag67
(g88
g69
NtRp699
(dp700
g72
(dp701
g99
g100
ssg81
g691
sg74
(lp702
S':'
asbag67
(g88
g69
NtRp703
(dp704
g72
(dp705
sg81
g691
sg74
(lp706
g67
(g68
g69
NtRp707
(dp708
g72
(dp709
g80
I3
ssg81
g703
sg74
(lp710
S''
asbasbasbag67
(g83
g69
NtRp711
(dp712
g72
(dp713
sg81
g647
sg74
(lp714
g67
(g88
g69
NtRp715
(dp716
g72
(dp717
g92
g93
ssg81
g711
sg74
(lp718
g344
asbag67
(g88
g69
NtRp719
(dp720
g72
(dp721
g99
g100
ssg81
g711
sg74
(lp722
S':'
asbag67
(g88
g69
NtRp723
(dp724
g72
(dp725
sg81
g711
sg74
(lp726
g67
(g68
g69
NtRp727
(dp728
g72
(dp729
g80
I3
ssg81
g723
sg74
(lp730
S''
asbasbasbag67
(g83
g69
NtRp731
(dp732
g72
(dp733
sg81
g647
sg74
(lp734
g67
(g88
g69
NtRp735
(dp736
g72
(dp737
g92
g93
ssg81
g731
sg74
(lp738
g365
asbag67
(g88
g69
NtRp739
(dp740
g72
(dp741
g99
g100
ssg81
g731
sg74
(lp742
S':'
asbag67
(g88
g69
NtRp743
(dp744
g72
(dp745
sg81
g731
sg74
(lp746
g67
(g68
g69
NtRp747
(dp748
g72
(dp749
g80
I3
ssg81
g743
sg74
(lp750
S''
asbasbasbag67
(g83
g69
NtRp751
(dp752
g72
(dp753
sg81
g647
sg74
(lp754
g67
(g88
g69
NtRp755
(dp756
g72
(dp757
g92
g93
ssg81
g751
sg74
(lp758
g386
asbag67
(g88
g69
NtRp759
(dp760
g72
(dp761
g99
g100
ssg81
g751
sg74
(lp762
S':'
asbag67
(g88
g69
NtRp763
(dp764
g72
(dp765
sg81
g751
sg74
(lp766
g67
(g68
g69
NtRp767
(dp768
g72
(dp769
g80
I3
ssg81
g763
sg74
(lp770
S''
asbasbasbag67
(g83
g69
NtRp771
(dp772
g72
(dp773
sg81
g647
sg74
(lp774
g67
(g88
g69
NtRp775
(dp776
g72
(dp777
g92
g93
ssg81
g771
sg74
(lp778
g407
asbag67
(g88
g69
NtRp779
(dp780
g72
(dp781
g99
g100
ssg81
g771
sg74
(lp782
S':'
asbag67
(g88
g69
NtRp783
(dp784
g72
(dp785
sg81
g771
sg74
(lp786
g67
(g68
g69
NtRp787
(dp788
g72
(dp789
g80
I3
ssg81
g783
sg74
(lp790
S''
asbasbasbag67
(g83
g69
NtRp791
(dp792
g72
(dp793
sg81
g647
sg74
(lp794
g67
(g88
g69
NtRp795
(dp796
g72
(dp797
g92
g93
ssg81
g791
sg74
(lp798
g428
asbag67
(g88
g69
NtRp799
(dp800
g72
(dp801
g99
g100
ssg81
g791
sg74
(lp802
S':'
asbag67
(g88
g69
NtRp803
(dp804
g72
(dp805
sg81
g791
sg74
(lp806
g67
(g68
g69
NtRp807
(dp808
g72
(dp809
g80
I3
ssg81
g803
sg74
(lp810
S''
asbasbasbasbasbasbasbag67
(g83
g69
NtRp811
(dp812
g72
(dp813
sg81
g244
sg74
(lp814
g67
(g88
g69
NtRp815
(dp816
g72
(dp817
g92
g93
ssg81
g811
sg74
(lp818
S'session_id_welcome'
p819
asbag67
(g88
g69
NtRp820
(dp821
g72
(dp822
g99
g100
ssg81
g811
sg74
(lp823
S':'
asbag67
(g88
g69
NtRp824
(dp825
g72
(dp826
sg81
g811
sg74
(lp827
g67
(g68
g69
NtRp828
(dp829
g72
(dp830
g80
I4
ssg81
g824
sg74
(lp831
g67
(g76
g69
NtRp832
(dp833
g72
(dp834
g80
I3
ssg81
Nsg74
(lp835
g67
(g83
g69
NtRp836
(dp837
g72
(dp838
sg81
g832
sg74
(lp839
g67
(g88
g69
NtRp840
(dp841
g72
(dp842
g92
g93
ssg81
g836
sg74
(lp843
g281
asbag67
(g88
g69
NtRp844
(dp845
g72
(dp846
g99
g100
ssg81
g836
sg74
(lp847
S':'
asbag67
(g88
g69
NtRp848
(dp849
g72
(dp850
sg81
g836
sg74
(lp851
g67
(g68
g69
NtRp852
(dp853
g72
(dp854
g80
I3
ssg81
g848
sg74
(lp855
S''
asbasbasbag67
(g83
g69
NtRp856
(dp857
g72
(dp858
sg81
g832
sg74
(lp859
g67
(g88
g69
NtRp860
(dp861
g72
(dp862
g92
g93
ssg81
g856
sg74
(lp863
g302
asbag67
(g88
g69
NtRp864
(dp865
g72
(dp866
g99
g100
ssg81
g856
sg74
(lp867
S':'
asbag67
(g88
g69
NtRp868
(dp869
g72
(dp870
sg81
g856
sg74
(lp871
g67
(g68
g69
NtRp872
(dp873
g72
(dp874
g80
I3
ssg81
g868
sg74
(lp875
S''
asbasbasbag67
(g83
g69
NtRp876
(dp877
g72
(dp878
sg81
g832
sg74
(lp879
g67
(g88
g69
NtRp880
(dp881
g72
(dp882
g92
g93
ssg81
g876
sg74
(lp883
g323
asbag67
(g88
g69
NtRp884
(dp885
g72
(dp886
g99
g100
ssg81
g876
sg74
(lp887
S':'
asbag67
(g88
g69
NtRp888
(dp889
g72
(dp890
sg81
g876
sg74
(lp891
g67
(g68
g69
NtRp892
(dp893
g72
(dp894
g80
I3
ssg81
g888
sg74
(lp895
S''
asbasbasbag67
(g83
g69
NtRp896
(dp897
g72
(dp898
sg81
g832
sg74
(lp899
g67
(g88
g69
NtRp900
(dp901
g72
(dp902
g92
g93
ssg81
g896
sg74
(lp903
g344
asbag67
(g88
g69
NtRp904
(dp905
g72
(dp906
g99
g100
ssg81
g896
sg74
(lp907
S':'
asbag67
(g88
g69
NtRp908
(dp909
g72
(dp910
sg81
g896
sg74
(lp911
g67
(g68
g69
NtRp912
(dp913
g72
(dp914
g80
I3
ssg81
g908
sg74
(lp915
S''
asbasbasbag67
(g83
g69
NtRp916
(dp917
g72
(dp918
sg81
g832
sg74
(lp919
g67
(g88
g69
NtRp920
(dp921
g72
(dp922
g92
g93
ssg81
g916
sg74
(lp923
g365
asbag67
(g88
g69
NtRp924
(dp925
g72
(dp926
g99
g100
ssg81
g916
sg74
(lp927
S':'
asbag67
(g88
g69
NtRp928
(dp929
g72
(dp930
sg81
g916
sg74
(lp931
g67
(g68
g69
NtRp932
(dp933
g72
(dp934
g80
I3
ssg81
g928
sg74
(lp935
S''
asbasbasbag67
(g83
g69
NtRp936
(dp937
g72
(dp938
sg81
g832
sg74
(lp939
g67
(g88
g69
NtRp940
(dp941
g72
(dp942
g92
g93
ssg81
g936
sg74
(lp943
g386
asbag67
(g88
g69
NtRp944
(dp945
g72
(dp946
g99
g100
ssg81
g936
sg74
(lp947
S':'
asbag67
(g88
g69
NtRp948
(dp949
g72
(dp950
sg81
g936
sg74
(lp951
g67
(g68
g69
NtRp952
(dp953
g72
(dp954
g80
I3
ssg81
g948
sg74
(lp955
S''
asbasbasbag67
(g83
g69
NtRp956
(dp957
g72
(dp958
sg81
g832
sg74
(lp959
g67
(g88
g69
NtRp960
(dp961
g72
(dp962
g92
g93
ssg81
g956
sg74
(lp963
g407
asbag67
(g88
g69
NtRp964
(dp965
g72
(dp966
g99
g100
ssg81
g956
sg74
(lp967
S':'
asbag67
(g88
g69
NtRp968
(dp969
g72
(dp970
sg81
g956
sg74
(lp971
g67
(g68
g69
NtRp972
(dp973
g72
(dp974
g80
I3
ssg81
g968
sg74
(lp975
S''
asbasbasbag67
(g83
g69
NtRp976
(dp977
g72
(dp978
sg81
g832
sg74
(lp979
g67
(g88
g69
NtRp980
(dp981
g72
(dp982
g92
g93
ssg81
g976
sg74
(lp983
g428
asbag67
(g88
g69
NtRp984
(dp985
g72
(dp986
g99
g100
ssg81
g976
sg74
(lp987
S':'
asbag67
(g88
g69
NtRp988
(dp989
g72
(dp990
sg81
g976
sg74
(lp991
g67
(g68
g69
NtRp992
(dp993
g72
(dp994
g80
I3
ssg81
g988
sg74
(lp995
S''
asbasbasbasbasbasbasbasbasbasbasbag67
(g83
g69
NtRp996
(dp997
g72
(dp998
sg81
g77
sg74
(lp999
g67
(g88
g69
NtRp1000
(dp1001
g72
(dp1002
g92
g93
ssg81
g996
sg74
(lp1003
S'env'
p1004
asbag67
(g88
g69
NtRp1005
(dp1006
g72
(dp1007
g99
g100
ssg81
g996
sg74
(lp1008
S':'
asbag67
(g88
g69
NtRp1009
(dp1010
g72
(dp1011
sg81
g996
sg74
(lp1012
g67
(g68
g69
NtRp1013
(dp1014
g72
(dp1015
g80
I5
ssg81
g1009
sg74
(lp1016
g67
(g76
g69
NtRp1017
(dp1018
g72
(dp1019
g80
I4
ssg81
Nsg74
(lp1020
g67
(g83
g69
NtRp1021
(dp1022
g72
(dp1023
sg81
g1017
sg74
(lp1024
g67
(g88
g69
NtRp1025
(dp1026
g72
(dp1027
g92
g93
ssg81
g1021
sg74
(lp1028
S'app_folders'
p1029
asbag67
(g88
g69
NtRp1030
(dp1031
g72
(dp1032
g99
g100
ssg81
g1021
sg74
(lp1033
S':'
asbag67
(g88
g69
NtRp1034
(dp1035
g72
(dp1036
sg81
g1021
sg74
(lp1037
g67
(g68
g69
NtRp1038
(dp1039
g72
(dp1040
g80
I4
ssg81
g1034
sg74
(lp1041
S"set(['/home/brencam/web2py/applications/examples/', '/home/brencam/web2py/applications/admin/', '/home/brencam/web2py/applications/welcome/', '/home/brencam/web2py/applications/gallery/'])"
p1042
asbasbasbag67
(g83
g69
NtRp1043
(dp1044
g72
(dp1045
sg81
g1017
sg74
(lp1046
g67
(g88
g69
NtRp1047
(dp1048
g72
(dp1049
g92
g93
ssg81
g1043
sg74
(lp1050
S'applications_parent'
p1051
asbag67
(g88
g69
NtRp1052
(dp1053
g72
(dp1054
g99
g100
ssg81
g1043
sg74
(lp1055
S':'
asbag67
(g88
g69
NtRp1056
(dp1057
g72
(dp1058
sg81
g1043
sg74
(lp1059
g67
(g68
g69
NtRp1060
(dp1061
g72
(dp1062
g80
I4
ssg81
g1056
sg74
(lp1063
S'/home/brencam/web2py'
p1064
asbasbasbag67
(g83
g69
NtRp1065
(dp1066
g72
(dp1067
sg81
g1017
sg74
(lp1068
g67
(g88
g69
NtRp1069
(dp1070
g72
(dp1071
g92
g93
ssg81
g1065
sg74
(lp1072
S'cmd_args'
p1073
asbag67
(g88
g69
NtRp1074
(dp1075
g72
(dp1076
g99
g100
ssg81
g1065
sg74
(lp1077
S':'
asbag67
(g88
g69
NtRp1078
(dp1079
g72
(dp1080
sg81
g1065
sg74
(lp1081
g67
(g68
g69
NtRp1082
(dp1083
g72
(dp1084
g80
I4
ssg81
g1078
sg74
(lp1085
g67
(g76
g69
NtRp1086
(dp1087
g72
(dp1088
g80
I3
ssg81
Nsg74
(lp1089
sbasbasbasbag67
(g83
g69
NtRp1090
(dp1091
g72
(dp1092
sg81
g1017
sg74
(lp1093
g67
(g88
g69
NtRp1094
(dp1095
g72
(dp1096
g92
g93
ssg81
g1090
sg74
(lp1097
S'cmd_options'
p1098
asbag67
(g88
g69
NtRp1099
(dp1100
g72
(dp1101
g99
g100
ssg81
g1090
sg74
(lp1102
S':'
asbag67
(g88
g69
NtRp1103
(dp1104
g72
(dp1105
sg81
g1090
sg74
(lp1106
g67
(g68
g69
NtRp1107
(dp1108
g72
(dp1109
g80
I4
ssg81
g1103
sg74
(lp1110
S"<Values at 0x8e5026c: {'verbose': False, 'ip': '127.0.0.1', 'shutdown_timeout': 5, 'taskbar': False, 'nocron': False, 'pid_filename': 'httpserver.pid', 'maxthreads': None, 'softcron': False, 'server_name': 'localhost.localdomain', 'bpython': False, 'nogui': False, 'port': 8000, 'extcron': False, 'debuglevel': 30, 'test': None, 'folder': '/home/brencam/web2py', 'config': '', 'import_models': False, 'winservice': '', 'shell': None, 'run': '', 'log_filename': 'httpserver.log', 'args': [''], 'ssl_ca_certificate': None, 'scheduler': None, 'profiler_filename': None, 'ssl_private_key': '', 'password': 'admin', 'request_queue_size': 5, 'ssl_certificate': '', 'cronjob': False, 'plain': False, 'quiet': False, 'interfaces': None, 'minthreads': None, 'timeout': 10, 'numthreads': None, 'nobanner': False}>"
p1111
asbasbasbag67
(g83
g69
NtRp1112
(dp1113
g72
(dp1114
sg81
g1017
sg74
(lp1115
g67
(g88
g69
NtRp1116
(dp1117
g72
(dp1118
g92
g93
ssg81
g1112
sg74
(lp1119
S'content_type'
p1120
asbag67
(g88
g69
NtRp1121
(dp1122
g72
(dp1123
g99
g100
ssg81
g1112
sg74
(lp1124
S':'
asbag67
(g88
g69
NtRp1125
(dp1126
g72
(dp1127
sg81
g1112
sg74
(lp1128
g67
(g68
g69
NtRp1129
(dp1130
g72
(dp1131
g80
I4
ssg81
g1125
sg74
(lp1132
S'application/x-www-form-urlencoded'
p1133
asbasbasbag67
(g83
g69
NtRp1134
(dp1135
g72
(dp1136
sg81
g1017
sg74
(lp1137
g67
(g88
g69
NtRp1138
(dp1139
g72
(dp1140
g92
g93
ssg81
g1134
sg74
(lp1141
S'db_sessions'
p1142
asbag67
(g88
g69
NtRp1143
(dp1144
g72
(dp1145
g99
g100
ssg81
g1134
sg74
(lp1146
S':'
asbag67
(g88
g69
NtRp1147
(dp1148
g72
(dp1149
sg81
g1134
sg74
(lp1150
g67
(g68
g69
NtRp1151
(dp1152
g72
(dp1153
g80
I4
ssg81
g1147
sg74
(lp1154
S'set([])'
p1155
asbasbasbag67
(g83
g69
NtRp1156
(dp1157
g72
(dp1158
sg81
g1017
sg74
(lp1159
g67
(g88
g69
NtRp1160
(dp1161
g72
(dp1162
g92
g93
ssg81
g1156
sg74
(lp1163
S'debugging'
p1164
asbag67
(g88
g69
NtRp1165
(dp1166
g72
(dp1167
g99
g100
ssg81
g1156
sg74
(lp1168
S':'
asbag67
(g88
g69
NtRp1169
(dp1170
g72
(dp1171
sg81
g1156
sg74
(lp1172
g67
(g68
g69
NtRp1173
(dp1174
g72
(dp1175
g80
I4
ssg81
g1169
sg74
(lp1176
S'False'
p1177
asbasbasbag67
(g83
g69
NtRp1178
(dp1179
g72
(dp1180
sg81
g1017
sg74
(lp1181
g67
(g88
g69
NtRp1182
(dp1183
g72
(dp1184
g92
g93
ssg81
g1178
sg74
(lp1185
S'gluon_parent'
p1186
asbag67
(g88
g69
NtRp1187
(dp1188
g72
(dp1189
g99
g100
ssg81
g1178
sg74
(lp1190
S':'
asbag67
(g88
g69
NtRp1191
(dp1192
g72
(dp1193
sg81
g1178
sg74
(lp1194
g67
(g68
g69
NtRp1195
(dp1196
g72
(dp1197
g80
I4
ssg81
g1191
sg74
(lp1198
S'/home/brencam/web2py'
p1199
asbasbasbag67
(g83
g69
NtRp1200
(dp1201
g72
(dp1202
sg81
g1017
sg74
(lp1203
g67
(g88
g69
NtRp1204
(dp1205
g72
(dp1206
g92
g93
ssg81
g1200
sg74
(lp1207
S'http_accept'
p1208
asbag67
(g88
g69
NtRp1209
(dp1210
g72
(dp1211
g99
g100
ssg81
g1200
sg74
(lp1212
S':'
asbag67
(g88
g69
NtRp1213
(dp1214
g72
(dp1215
sg81
g1200
sg74
(lp1216
g67
(g68
g69
NtRp1217
(dp1218
g72
(dp1219
g80
I4
ssg81
g1213
sg74
(lp1220
S'*/*'
p1221
asbasbasbag67
(g83
g69
NtRp1222
(dp1223
g72
(dp1224
sg81
g1017
sg74
(lp1225
g67
(g88
g69
NtRp1226
(dp1227
g72
(dp1228
g92
g93
ssg81
g1222
sg74
(lp1229
S'http_accept_charset'
p1230
asbag67
(g88
g69
NtRp1231
(dp1232
g72
(dp1233
g99
g100
ssg81
g1222
sg74
(lp1234
S':'
asbag67
(g88
g69
NtRp1235
(dp1236
g72
(dp1237
sg81
g1222
sg74
(lp1238
g67
(g68
g69
NtRp1239
(dp1240
g72
(dp1241
g80
I4
ssg81
g1235
sg74
(lp1242
S'ISO-8859-1,utf-8;q=0.7,*;q=0.3'
p1243
asbasbasbag67
(g83
g69
NtRp1244
(dp1245
g72
(dp1246
sg81
g1017
sg74
(lp1247
g67
(g88
g69
NtRp1248
(dp1249
g72
(dp1250
g92
g93
ssg81
g1244
sg74
(lp1251
S'http_accept_encoding'
p1252
asbag67
(g88
g69
NtRp1253
(dp1254
g72
(dp1255
g99
g100
ssg81
g1244
sg74
(lp1256
S':'
asbag67
(g88
g69
NtRp1257
(dp1258
g72
(dp1259
sg81
g1244
sg74
(lp1260
g67
(g68
g69
NtRp1261
(dp1262
g72
(dp1263
g80
I4
ssg81
g1257
sg74
(lp1264
S'gzip,deflate,sdch'
p1265
asbasbasbag67
(g83
g69
NtRp1266
(dp1267
g72
(dp1268
sg81
g1017
sg74
(lp1269
g67
(g88
g69
NtRp1270
(dp1271
g72
(dp1272
g92
g93
ssg81
g1266
sg74
(lp1273
S'http_accept_language'
p1274
asbag67
(g88
g69
NtRp1275
(dp1276
g72
(dp1277
g99
g100
ssg81
g1266
sg74
(lp1278
S':'
asbag67
(g88
g69
NtRp1279
(dp1280
g72
(dp1281
sg81
g1266
sg74
(lp1282
g67
(g68
g69
NtRp1283
(dp1284
g72
(dp1285
g80
I4
ssg81
g1279
sg74
(lp1286
S'en-US,en;q=0.8'
p1287
asbasbasbag67
(g83
g69
NtRp1288
(dp1289
g72
(dp1290
sg81
g1017
sg74
(lp1291
g67
(g88
g69
NtRp1292
(dp1293
g72
(dp1294
g92
g93
ssg81
g1288
sg74
(lp1295
S'http_connection'
p1296
asbag67
(g88
g69
NtRp1297
(dp1298
g72
(dp1299
g99
g100
ssg81
g1288
sg74
(lp1300
S':'
asbag67
(g88
g69
NtRp1301
(dp1302
g72
(dp1303
sg81
g1288
sg74
(lp1304
g67
(g68
g69
NtRp1305
(dp1306
g72
(dp1307
g80
I4
ssg81
g1301
sg74
(lp1308
S'keep-alive'
p1309
asbasbasbag67
(g83
g69
NtRp1310
(dp1311
g72
(dp1312
sg81
g1017
sg74
(lp1313
g67
(g88
g69
NtRp1314
(dp1315
g72
(dp1316
g92
g93
ssg81
g1310
sg74
(lp1317
S'http_content_type'
p1318
asbag67
(g88
g69
NtRp1319
(dp1320
g72
(dp1321
g99
g100
ssg81
g1310
sg74
(lp1322
S':'
asbag67
(g88
g69
NtRp1323
(dp1324
g72
(dp1325
sg81
g1310
sg74
(lp1326
g67
(g68
g69
NtRp1327
(dp1328
g72
(dp1329
g80
I4
ssg81
g1323
sg74
(lp1330
g1133
asbasbasbag67
(g83
g69
NtRp1331
(dp1332
g72
(dp1333
sg81
g1017
sg74
(lp1334
g67
(g88
g69
NtRp1335
(dp1336
g72
(dp1337
g92
g93
ssg81
g1331
sg74
(lp1338
S'http_cookie'
p1339
asbag67
(g88
g69
NtRp1340
(dp1341
g72
(dp1342
g99
g100
ssg81
g1331
sg74
(lp1343
S':'
asbag67
(g88
g69
NtRp1344
(dp1345
g72
(dp1346
sg81
g1331
sg74
(lp1347
g67
(g68
g69
NtRp1348
(dp1349
g72
(dp1350
g80
I4
ssg81
g1344
sg74
(lp1351
S'__utma=96992031.552746526.1281494094.1291180555.1291186411.9; csrftoken=7b3621df70ed8d65c15785486fff8908; __utma_a2a=7438973308.1350086890.1318529964.1318645324.1318645410.28; session_id_welcome=127.0.0.1-e89cf04d-0b50-4bf6-92b3-026e707eb338; session_id_admin=127.0.0.1-30eaebc8-27f0-4f0a-865e-672af7936e9e; session_id_gallery=127.0.0.1-115c6dbe-498a-4f5c-9157-77b392632e79'
p1352
asbasbasbag67
(g83
g69
NtRp1353
(dp1354
g72
(dp1355
sg81
g1017
sg74
(lp1356
g67
(g88
g69
NtRp1357
(dp1358
g72
(dp1359
g92
g93
ssg81
g1353
sg74
(lp1360
S'http_host'
p1361
asbag67
(g88
g69
NtRp1362
(dp1363
g72
(dp1364
g99
g100
ssg81
g1353
sg74
(lp1365
S':'
asbag67
(g88
g69
NtRp1366
(dp1367
g72
(dp1368
sg81
g1353
sg74
(lp1369
g67
(g68
g69
NtRp1370
(dp1371
g72
(dp1372
g80
I4
ssg81
g1366
sg74
(lp1373
S'127.0.0.1:8000'
p1374
asbasbasbag67
(g83
g69
NtRp1375
(dp1376
g72
(dp1377
sg81
g1017
sg74
(lp1378
g67
(g88
g69
NtRp1379
(dp1380
g72
(dp1381
g92
g93
ssg81
g1375
sg74
(lp1382
S'http_referer'
p1383
asbag67
(g88
g69
NtRp1384
(dp1385
g72
(dp1386
g99
g100
ssg81
g1375
sg74
(lp1387
S':'
asbag67
(g88
g69
NtRp1388
(dp1389
g72
(dp1390
sg81
g1375
sg74
(lp1391
g67
(g68
g69
NtRp1392
(dp1393
g72
(dp1394
g80
I4
ssg81
g1388
sg74
(lp1395
S'http://127.0.0.1:8000/gallery/default/sendform'
p1396
asbasbasbag67
(g83
g69
NtRp1397
(dp1398
g72
(dp1399
sg81
g1017
sg74
(lp1400
g67
(g88
g69
NtRp1401
(dp1402
g72
(dp1403
g92
g93
ssg81
g1397
sg74
(lp1404
S'http_user_agent'
p1405
asbag67
(g88
g69
NtRp1406
(dp1407
g72
(dp1408
g99
g100
ssg81
g1397
sg74
(lp1409
S':'
asbag67
(g88
g69
NtRp1410
(dp1411
g72
(dp1412
sg81
g1397
sg74
(lp1413
g67
(g68
g69
NtRp1414
(dp1415
g72
(dp1416
g80
I4
ssg81
g1410
sg74
(lp1417
S'Mozilla/5.0 (X11; Linux i686) AppleWebKit/535.1 (KHTML, like Gecko) Chrome/14.0.835.204 Safari/535.1'
p1418
asbasbasbag67
(g83
g69
NtRp1419
(dp1420
g72
(dp1421
sg81
g1017
sg74
(lp1422
g67
(g88
g69
NtRp1423
(dp1424
g72
(dp1425
g92
g93
ssg81
g1419
sg74
(lp1426
S'http_x_requested_with'
p1427
asbag67
(g88
g69
NtRp1428
(dp1429
g72
(dp1430
g99
g100
ssg81
g1419
sg74
(lp1431
S':'
asbag67
(g88
g69
NtRp1432
(dp1433
g72
(dp1434
sg81
g1419
sg74
(lp1435
g67
(g68
g69
NtRp1436
(dp1437
g72
(dp1438
g80
I4
ssg81
g1432
sg74
(lp1439
S'XMLHttpRequest'
p1440
asbasbasbag67
(g83
g69
NtRp1441
(dp1442
g72
(dp1443
sg81
g1017
sg74
(lp1444
g67
(g88
g69
NtRp1445
(dp1446
g72
(dp1447
g92
g93
ssg81
g1441
sg74
(lp1448
S'is_jython'
p1449
asbag67
(g88
g69
NtRp1450
(dp1451
g72
(dp1452
g99
g100
ssg81
g1441
sg74
(lp1453
S':'
asbag67
(g88
g69
NtRp1454
(dp1455
g72
(dp1456
sg81
g1441
sg74
(lp1457
g67
(g68
g69
NtRp1458
(dp1459
g72
(dp1460
g80
I4
ssg81
g1454
sg74
(lp1461
g1177
asbasbasbag67
(g83
g69
NtRp1462
(dp1463
g72
(dp1464
sg81
g1017
sg74
(lp1465
g67
(g88
g69
NtRp1466
(dp1467
g72
(dp1468
g92
g93
ssg81
g1462
sg74
(lp1469
S'path_info'
p1470
asbag67
(g88
g69
NtRp1471
(dp1472
g72
(dp1473
g99
g100
ssg81
g1462
sg74
(lp1474
S':'
asbag67
(g88
g69
NtRp1475
(dp1476
g72
(dp1477
sg81
g1462
sg74
(lp1478
g67
(g68
g69
NtRp1479
(dp1480
g72
(dp1481
g80
I4
ssg81
g1475
sg74
(lp1482
S'/gallery/search/getnames'
p1483
asbasbasbag67
(g83
g69
NtRp1484
(dp1485
g72
(dp1486
sg81
g1017
sg74
(lp1487
g67
(g88
g69
NtRp1488
(dp1489
g72
(dp1490
g92
g93
ssg81
g1484
sg74
(lp1491
S'query_string'
p1492
asbag67
(g88
g69
NtRp1493
(dp1494
g72
(dp1495
g99
g100
ssg81
g1484
sg74
(lp1496
S':'
asbag67
(g88
g69
NtRp1497
(dp1498
g72
(dp1499
sg81
g1484
sg74
(lp1500
g67
(g68
g69
NtRp1501
(dp1502
g72
(dp1503
g80
I4
ssg81
g1497
sg74
(lp1504
S'q=P'
p1505
asbasbasbag67
(g83
g69
NtRp1506
(dp1507
g72
(dp1508
sg81
g1017
sg74
(lp1509
g67
(g88
g69
NtRp1510
(dp1511
g72
(dp1512
g92
g93
ssg81
g1506
sg74
(lp1513
S'remote_addr'
p1514
asbag67
(g88
g69
NtRp1515
(dp1516
g72
(dp1517
g99
g100
ssg81
g1506
sg74
(lp1518
S':'
asbag67
(g88
g69
NtRp1519
(dp1520
g72
(dp1521
sg81
g1506
sg74
(lp1522
g67
(g68
g69
NtRp1523
(dp1524
g72
(dp1525
g80
I4
ssg81
g1519
sg74
(lp1526
g200
asbasbasbag67
(g83
g69
NtRp1527
(dp1528
g72
(dp1529
sg81
g1017
sg74
(lp1530
g67
(g88
g69
NtRp1531
(dp1532
g72
(dp1533
g92
g93
ssg81
g1527
sg74
(lp1534
S'remote_port'
p1535
asbag67
(g88
g69
NtRp1536
(dp1537
g72
(dp1538
g99
g100
ssg81
g1527
sg74
(lp1539
S':'
asbag67
(g88
g69
NtRp1540
(dp1541
g72
(dp1542
sg81
g1527
sg74
(lp1543
g67
(g68
g69
NtRp1544
(dp1545
g72
(dp1546
g80
I4
ssg81
g1540
sg74
(lp1547
S'41082'
p1548
asbasbasbag67
(g83
g69
NtRp1549
(dp1550
g72
(dp1551
sg81
g1017
sg74
(lp1552
g67
(g88
g69
NtRp1553
(dp1554
g72
(dp1555
g92
g93
ssg81
g1549
sg74
(lp1556
S'request_method'
p1557
asbag67
(g88
g69
NtRp1558
(dp1559
g72
(dp1560
g99
g100
ssg81
g1549
sg74
(lp1561
S':'
asbag67
(g88
g69
NtRp1562
(dp1563
g72
(dp1564
sg81
g1549
sg74
(lp1565
g67
(g68
g69
NtRp1566
(dp1567
g72
(dp1568
g80
I4
ssg81
g1562
sg74
(lp1569
S'GET'
p1570
asbasbasbag67
(g83
g69
NtRp1571
(dp1572
g72
(dp1573
sg81
g1017
sg74
(lp1574
g67
(g88
g69
NtRp1575
(dp1576
g72
(dp1577
g92
g93
ssg81
g1571
sg74
(lp1578
S'script_name'
p1579
asbag67
(g88
g69
NtRp1580
(dp1581
g72
(dp1582
g99
g100
ssg81
g1571
sg74
(lp1583
S':'
asbag67
(g88
g69
NtRp1584
(dp1585
g72
(dp1586
sg81
g1571
sg74
(lp1587
g67
(g68
g69
NtRp1588
(dp1589
g72
(dp1590
g80
I4
ssg81
g1584
sg74
(lp1591
S''
asbasbasbag67
(g83
g69
NtRp1592
(dp1593
g72
(dp1594
sg81
g1017
sg74
(lp1595
g67
(g88
g69
NtRp1596
(dp1597
g72
(dp1598
g92
g93
ssg81
g1592
sg74
(lp1599
S'server_name'
p1600
asbag67
(g88
g69
NtRp1601
(dp1602
g72
(dp1603
g99
g100
ssg81
g1592
sg74
(lp1604
S':'
asbag67
(g88
g69
NtRp1605
(dp1606
g72
(dp1607
sg81
g1592
sg74
(lp1608
g67
(g68
g69
NtRp1609
(dp1610
g72
(dp1611
g80
I4
ssg81
g1605
sg74
(lp1612
S'localhost.localdomain'
p1613
asbasbasbag67
(g83
g69
NtRp1614
(dp1615
g72
(dp1616
sg81
g1017
sg74
(lp1617
g67
(g88
g69
NtRp1618
(dp1619
g72
(dp1620
g92
g93
ssg81
g1614
sg74
(lp1621
S'server_port'
p1622
asbag67
(g88
g69
NtRp1623
(dp1624
g72
(dp1625
g99
g100
ssg81
g1614
sg74
(lp1626
S':'
asbag67
(g88
g69
NtRp1627
(dp1628
g72
(dp1629
sg81
g1614
sg74
(lp1630
g67
(g68
g69
NtRp1631
(dp1632
g72
(dp1633
g80
I4
ssg81
g1627
sg74
(lp1634
S'8000'
p1635
asbasbasbag67
(g83
g69
NtRp1636
(dp1637
g72
(dp1638
sg81
g1017
sg74
(lp1639
g67
(g88
g69
NtRp1640
(dp1641
g72
(dp1642
g92
g93
ssg81
g1636
sg74
(lp1643
S'server_protocol'
p1644
asbag67
(g88
g69
NtRp1645
(dp1646
g72
(dp1647
g99
g100
ssg81
g1636
sg74
(lp1648
S':'
asbag67
(g88
g69
NtRp1649
(dp1650
g72
(dp1651
sg81
g1636
sg74
(lp1652
g67
(g68
g69
NtRp1653
(dp1654
g72
(dp1655
g80
I4
ssg81
g1649
sg74
(lp1656
S'HTTP/1.1'
p1657
asbasbasbag67
(g83
g69
NtRp1658
(dp1659
g72
(dp1660
sg81
g1017
sg74
(lp1661
g67
(g88
g69
NtRp1662
(dp1663
g72
(dp1664
g92
g93
ssg81
g1658
sg74
(lp1665
S'server_software'
p1666
asbag67
(g88
g69
NtRp1667
(dp1668
g72
(dp1669
g99
g100
ssg81
g1658
sg74
(lp1670
S':'
asbag67
(g88
g69
NtRp1671
(dp1672
g72
(dp1673
sg81
g1658
sg74
(lp1674
g67
(g68
g69
NtRp1675
(dp1676
g72
(dp1677
g80
I4
ssg81
g1671
sg74
(lp1678
S'Rocket 1.2.4'
p1679
asbasbasbag67
(g83
g69
NtRp1680
(dp1681
g72
(dp1682
sg81
g1017
sg74
(lp1683
g67
(g88
g69
NtRp1684
(dp1685
g72
(dp1686
g92
g93
ssg81
g1680
sg74
(lp1687
S'web2py_crontype'
p1688
asbag67
(g88
g69
NtRp1689
(dp1690
g72
(dp1691
g99
g100
ssg81
g1680
sg74
(lp1692
S':'
asbag67
(g88
g69
NtRp1693
(dp1694
g72
(dp1695
sg81
g1680
sg74
(lp1696
g67
(g68
g69
NtRp1697
(dp1698
g72
(dp1699
g80
I4
ssg81
g1693
sg74
(lp1700
S'hard'
p1701
asbasbasbag67
(g83
g69
NtRp1702
(dp1703
g72
(dp1704
sg81
g1017
sg74
(lp1705
g67
(g88
g69
NtRp1706
(dp1707
g72
(dp1708
g92
g93
ssg81
g1702
sg74
(lp1709
S'web2py_path'
p1710
asbag67
(g88
g69
NtRp1711
(dp1712
g72
(dp1713
g99
g100
ssg81
g1702
sg74
(lp1714
S':'
asbag67
(g88
g69
NtRp1715
(dp1716
g72
(dp1717
sg81
g1702
sg74
(lp1718
g67
(g68
g69
NtRp1719
(dp1720
g72
(dp1721
g80
I4
ssg81
g1715
sg74
(lp1722
g1064
asbasbasbag67
(g83
g69
NtRp1723
(dp1724
g72
(dp1725
sg81
g1017
sg74
(lp1726
g67
(g88
g69
NtRp1727
(dp1728
g72
(dp1729
g92
g93
ssg81
g1723
sg74
(lp1730
S'web2py_version'
p1731
asbag67
(g88
g69
NtRp1732
(dp1733
g72
(dp1734
g99
g100
ssg81
g1723
sg74
(lp1735
S':'
asbag67
(g88
g69
NtRp1736
(dp1737
g72
(dp1738
sg81
g1723
sg74
(lp1739
g67
(g68
g69
NtRp1740
(dp1741
g72
(dp1742
g80
I4
ssg81
g1736
sg74
(lp1743
g67
(g76
g69
NtRp1744
(dp1745
g72
(dp1746
g80
I3
ssg81
Nsg74
(lp1747
g67
(g83
g69
NtRp1748
(dp1749
g72
(dp1750
sg81
g1744
sg74
(lp1751
g67
(g88
g69
NtRp1752
(dp1753
g72
(dp1754
sg81
g1748
sg74
(lp1755
g67
(g68
g69
NtRp1756
(dp1757
g72
(dp1758
g80
I3
ssg81
g1752
sg74
(lp1759
S'1'
asbasbasbag67
(g83
g69
NtRp1760
(dp1761
g72
(dp1762
sg81
g1744
sg74
(lp1763
g67
(g88
g69
NtRp1764
(dp1765
g72
(dp1766
sg81
g1760
sg74
(lp1767
g67
(g68
g69
NtRp1768
(dp1769
g72
(dp1770
g80
I3
ssg81
g1764
sg74
(lp1771
S'99'
p1772
asbasbasbag67
(g83
g69
NtRp1773
(dp1774
g72
(dp1775
sg81
g1744
sg74
(lp1776
g67
(g88
g69
NtRp1777
(dp1778
g72
(dp1779
sg81
g1773
sg74
(lp1780
g67
(g68
g69
NtRp1781
(dp1782
g72
(dp1783
g80
I3
ssg81
g1777
sg74
(lp1784
S'2'
asbasbasbag67
(g83
g69
NtRp1785
(dp1786
g72
(dp1787
sg81
g1744
sg74
(lp1788
g67
(g88
g69
NtRp1789
(dp1790
g72
(dp1791
sg81
g1785
sg74
(lp1792
g67
(g68
g69
NtRp1793
(dp1794
g72
(dp1795
g80
I3
ssg81
g1789
sg74
(lp1796
S'datetime.datetime(2011, 9, 26, 6, 55, 33)'
p1797
asbasbasbag67
(g83
g69
NtRp1798
(dp1799
g72
(dp1800
sg81
g1744
sg74
(lp1801
g67
(g88
g69
NtRp1802
(dp1803
g72
(dp1804
sg81
g1798
sg74
(lp1805
g67
(g68
g69
NtRp1806
(dp1807
g72
(dp1808
g80
I3
ssg81
g1802
sg74
(lp1809
S'stable'
p1810
asbasbasbasbasbasbasbag67
(g83
g69
NtRp1811
(dp1812
g72
(dp1813
sg81
g1017
sg74
(lp1814
g67
(g88
g69
NtRp1815
(dp1816
g72
(dp1817
g92
g93
ssg81
g1811
sg74
(lp1818
S'wsgi_errors'
p1819
asbag67
(g88
g69
NtRp1820
(dp1821
g72
(dp1822
g99
g100
ssg81
g1811
sg74
(lp1823
S':'
asbag67
(g88
g69
NtRp1824
(dp1825
g72
(dp1826
sg81
g1811
sg74
(lp1827
g67
(g68
g69
NtRp1828
(dp1829
g72
(dp1830
g80
I4
ssg81
g1824
sg74
(lp1831
S"<open file '<stderr>', mode 'w' at 0xb75610d0>"
p1832
asbasbasbag67
(g83
g69
NtRp1833
(dp1834
g72
(dp1835
sg81
g1017
sg74
(lp1836
g67
(g88
g69
NtRp1837
(dp1838
g72
(dp1839
g92
g93
ssg81
g1833
sg74
(lp1840
S'wsgi_file_wrapper'
p1841
asbag67
(g88
g69
NtRp1842
(dp1843
g72
(dp1844
g99
g100
ssg81
g1833
sg74
(lp1845
S':'
asbag67
(g88
g69
NtRp1846
(dp1847
g72
(dp1848
sg81
g1833
sg74
(lp1849
g67
(g68
g69
NtRp1850
(dp1851
g72
(dp1852
g80
I4
ssg81
g1846
sg74
(lp1853
S'<class wsgiref.util.FileWrapper at 0x8a4d50c>'
p1854
asbasbasbag67
(g83
g69
NtRp1855
(dp1856
g72
(dp1857
sg81
g1017
sg74
(lp1858
g67
(g88
g69
NtRp1859
(dp1860
g72
(dp1861
g92
g93
ssg81
g1855
sg74
(lp1862
S'wsgi_input'
p1863
asbag67
(g88
g69
NtRp1864
(dp1865
g72
(dp1866
g99
g100
ssg81
g1855
sg74
(lp1867
S':'
asbag67
(g88
g69
NtRp1868
(dp1869
g72
(dp1870
sg81
g1855
sg74
(lp1871
g67
(g68
g69
NtRp1872
(dp1873
g72
(dp1874
g80
I4
ssg81
g1868
sg74
(lp1875
S'<socket._fileobject object at 0xaf045b6c>'
p1876
asbasbasbag67
(g83
g69
NtRp1877
(dp1878
g72
(dp1879
sg81
g1017
sg74
(lp1880
g67
(g88
g69
NtRp1881
(dp1882
g72
(dp1883
g92
g93
ssg81
g1877
sg74
(lp1884
S'wsgi_multiprocess'
p1885
asbag67
(g88
g69
NtRp1886
(dp1887
g72
(dp1888
g99
g100
ssg81
g1877
sg74
(lp1889
S':'
asbag67
(g88
g69
NtRp1890
(dp1891
g72
(dp1892
sg81
g1877
sg74
(lp1893
g67
(g68
g69
NtRp1894
(dp1895
g72
(dp1896
g80
I4
ssg81
g1890
sg74
(lp1897
g1177
asbasbasbag67
(g83
g69
NtRp1898
(dp1899
g72
(dp1900
sg81
g1017
sg74
(lp1901
g67
(g88
g69
NtRp1902
(dp1903
g72
(dp1904
g92
g93
ssg81
g1898
sg74
(lp1905
S'wsgi_multithread'
p1906
asbag67
(g88
g69
NtRp1907
(dp1908
g72
(dp1909
g99
g100
ssg81
g1898
sg74
(lp1910
S':'
asbag67
(g88
g69
NtRp1911
(dp1912
g72
(dp1913
sg81
g1898
sg74
(lp1914
g67
(g68
g69
NtRp1915
(dp1916
g72
(dp1917
g80
I4
ssg81
g1911
sg74
(lp1918
g110
asbasbasbag67
(g83
g69
NtRp1919
(dp1920
g72
(dp1921
sg81
g1017
sg74
(lp1922
g67
(g88
g69
NtRp1923
(dp1924
g72
(dp1925
g92
g93
ssg81
g1919
sg74
(lp1926
S'wsgi_run_once'
p1927
asbag67
(g88
g69
NtRp1928
(dp1929
g72
(dp1930
g99
g100
ssg81
g1919
sg74
(lp1931
S':'
asbag67
(g88
g69
NtRp1932
(dp1933
g72
(dp1934
sg81
g1919
sg74
(lp1935
g67
(g68
g69
NtRp1936
(dp1937
g72
(dp1938
g80
I4
ssg81
g1932
sg74
(lp1939
g1177
asbasbasbag67
(g83
g69
NtRp1940
(dp1941
g72
(dp1942
sg81
g1017
sg74
(lp1943
g67
(g88
g69
NtRp1944
(dp1945
g72
(dp1946
g92
g93
ssg81
g1940
sg74
(lp1947
S'wsgi_url_scheme'
p1948
asbag67
(g88
g69
NtRp1949
(dp1950
g72
(dp1951
g99
g100
ssg81
g1940
sg74
(lp1952
S':'
asbag67
(g88
g69
NtRp1953
(dp1954
g72
(dp1955
sg81
g1940
sg74
(lp1956
g67
(g68
g69
NtRp1957
(dp1958
g72
(dp1959
g80
I4
ssg81
g1953
sg74
(lp1960
S'http'
p1961
asbasbasbag67
(g83
g69
NtRp1962
(dp1963
g72
(dp1964
sg81
g1017
sg74
(lp1965
g67
(g88
g69
NtRp1966
(dp1967
g72
(dp1968
g92
g93
ssg81
g1962
sg74
(lp1969
S'wsgi_version'
p1970
asbag67
(g88
g69
NtRp1971
(dp1972
g72
(dp1973
g99
g100
ssg81
g1962
sg74
(lp1974
S':'
asbag67
(g88
g69
NtRp1975
(dp1976
g72
(dp1977
sg81
g1962
sg74
(lp1978
g67
(g68
g69
NtRp1979
(dp1980
g72
(dp1981
g80
I4
ssg81
g1975
sg74
(lp1982
g67
(g76
g69
NtRp1983
(dp1984
g72
(dp1985
g80
I3
ssg81
Nsg74
(lp1986
g67
(g83
g69
NtRp1987
(dp1988
g72
(dp1989
sg81
g1983
sg74
(lp1990
g67
(g88
g69
NtRp1991
(dp1992
g72
(dp1993
sg81
g1987
sg74
(lp1994
g67
(g68
g69
NtRp1995
(dp1996
g72
(dp1997
g80
I3
ssg81
g1991
sg74
(lp1998
S'1'
asbasbasbag67
(g83
g69
NtRp1999
(dp2000
g72
(dp2001
sg81
g1983
sg74
(lp2002
g67
(g88
g69
NtRp2003
(dp2004
g72
(dp2005
sg81
g1999
sg74
(lp2006
g67
(g68
g69
NtRp2007
(dp2008
g72
(dp2009
g80
I3
ssg81
g2003
sg74
(lp2010
S'0'
asbasbasbasbasbasbasbasbasbasbasbag67
(g83
g69
NtRp2011
(dp2012
g72
(dp2013
sg81
g77
sg74
(lp2014
g67
(g88
g69
NtRp2015
(dp2016
g72
(dp2017
g92
g93
ssg81
g2011
sg74
(lp2018
S'extension'
p2019
asbag67
(g88
g69
NtRp2020
(dp2021
g72
(dp2022
g99
g100
ssg81
g2011
sg74
(lp2023
S':'
asbag67
(g88
g69
NtRp2024
(dp2025
g72
(dp2026
sg81
g2011
sg74
(lp2027
g67
(g68
g69
NtRp2028
(dp2029
g72
(dp2030
g80
I5
ssg81
g2024
sg74
(lp2031
S'html'
p2032
asbasbasbag67
(g83
g69
NtRp2033
(dp2034
g72
(dp2035
sg81
g77
sg74
(lp2036
g67
(g88
g69
NtRp2037
(dp2038
g72
(dp2039
g92
g93
ssg81
g2033
sg74
(lp2040
S'folder'
p2041
asbag67
(g88
g69
NtRp2042
(dp2043
g72
(dp2044
g99
g100
ssg81
g2033
sg74
(lp2045
S':'
asbag67
(g88
g69
NtRp2046
(dp2047
g72
(dp2048
sg81
g2033
sg74
(lp2049
g67
(g68
g69
NtRp2050
(dp2051
g72
(dp2052
g80
I5
ssg81
g2046
sg74
(lp2053
S'/home/brencam/web2py/applications/gallery/'
p2054
asbasbasbag67
(g83
g69
NtRp2055
(dp2056
g72
(dp2057
sg81
g77
sg74
(lp2058
g67
(g88
g69
NtRp2059
(dp2060
g72
(dp2061
g92
g93
ssg81
g2055
sg74
(lp2062
S'function'
p2063
asbag67
(g88
g69
NtRp2064
(dp2065
g72
(dp2066
g99
g100
ssg81
g2055
sg74
(lp2067
S':'
asbag67
(g88
g69
NtRp2068
(dp2069
g72
(dp2070
sg81
g2055
sg74
(lp2071
g67
(g68
g69
NtRp2072
(dp2073
g72
(dp2074
g80
I5
ssg81
g2068
sg74
(lp2075
S'getnames'
p2076
asbasbasbag67
(g83
g69
NtRp2077
(dp2078
g72
(dp2079
sg81
g77
sg74
(lp2080
g67
(g88
g69
NtRp2081
(dp2082
g72
(dp2083
g92
g93
ssg81
g2077
sg74
(lp2084
S'get_vars'
p2085
asbag67
(g88
g69
NtRp2086
(dp2087
g72
(dp2088
g99
g100
ssg81
g2077
sg74
(lp2089
S':'
asbag67
(g88
g69
NtRp2090
(dp2091
g72
(dp2092
sg81
g2077
sg74
(lp2093
g67
(g68
g69
NtRp2094
(dp2095
g72
(dp2096
g80
I5
ssg81
g2090
sg74
(lp2097
g67
(g76
g69
NtRp2098
(dp2099
g72
(dp2100
g80
I4
ssg81
Nsg74
(lp2101
g67
(g83
g69
NtRp2102
(dp2103
g72
(dp2104
sg81
g2098
sg74
(lp2105
g67
(g88
g69
NtRp2106
(dp2107
g72
(dp2108
g92
g93
ssg81
g2102
sg74
(lp2109
S'q'
asbag67
(g88
g69
NtRp2110
(dp2111
g72
(dp2112
g99
g100
ssg81
g2102
sg74
(lp2113
S':'
asbag67
(g88
g69
NtRp2114
(dp2115
g72
(dp2116
sg81
g2102
sg74
(lp2117
g67
(g68
g69
NtRp2118
(dp2119
g72
(dp2120
g80
I4
ssg81
g2114
sg74
(lp2121
S'P'
asbasbasbasbasbasbasbag67
(g83
g69
NtRp2122
(dp2123
g72
(dp2124
sg81
g77
sg74
(lp2125
g67
(g88
g69
NtRp2126
(dp2127
g72
(dp2128
g92
g93
ssg81
g2122
sg74
(lp2129
S'global_settings'
p2130
asbag67
(g88
g69
NtRp2131
(dp2132
g72
(dp2133
g99
g100
ssg81
g2122
sg74
(lp2134
S':'
asbag67
(g88
g69
NtRp2135
(dp2136
g72
(dp2137
sg81
g2122
sg74
(lp2138
g67
(g68
g69
NtRp2139
(dp2140
g72
(dp2141
g80
I5
ssg81
g2135
sg74
(lp2142
g67
(g76
g69
NtRp2143
(dp2144
g72
(dp2145
g80
I4
ssg81
Nsg74
(lp2146
g67
(g83
g69
NtRp2147
(dp2148
g72
(dp2149
sg81
g2143
sg74
(lp2150
g67
(g88
g69
NtRp2151
(dp2152
g72
(dp2153
g92
g93
ssg81
g2147
sg74
(lp2154
g1029
asbag67
(g88
g69
NtRp2155
(dp2156
g72
(dp2157
g99
g100
ssg81
g2147
sg74
(lp2158
S':'
asbag67
(g88
g69
NtRp2159
(dp2160
g72
(dp2161
sg81
g2147
sg74
(lp2162
g67
(g68
g69
NtRp2163
(dp2164
g72
(dp2165
g80
I4
ssg81
g2159
sg74
(lp2166
S"set(['/home/brencam/web2py/applications/examples/', '/home/brencam/web2py/applications/admin/', '/home/brencam/web2py/applications/welcome/', '/home/brencam/web2py/applications/gallery/'])"
p2167
asbasbasbag67
(g83
g69
NtRp2168
(dp2169
g72
(dp2170
sg81
g2143
sg74
(lp2171
g67
(g88
g69
NtRp2172
(dp2173
g72
(dp2174
g92
g93
ssg81
g2168
sg74
(lp2175
g1051
asbag67
(g88
g69
NtRp2176
(dp2177
g72
(dp2178
g99
g100
ssg81
g2168
sg74
(lp2179
S':'
asbag67
(g88
g69
NtRp2180
(dp2181
g72
(dp2182
sg81
g2168
sg74
(lp2183
g67
(g68
g69
NtRp2184
(dp2185
g72
(dp2186
g80
I4
ssg81
g2180
sg74
(lp2187
g1064
asbasbasbag67
(g83
g69
NtRp2188
(dp2189
g72
(dp2190
sg81
g2143
sg74
(lp2191
g67
(g88
g69
NtRp2192
(dp2193
g72
(dp2194
g92
g93
ssg81
g2188
sg74
(lp2195
g1073
asbag67
(g88
g69
NtRp2196
(dp2197
g72
(dp2198
g99
g100
ssg81
g2188
sg74
(lp2199
S':'
asbag67
(g88
g69
NtRp2200
(dp2201
g72
(dp2202
sg81
g2188
sg74
(lp2203
g67
(g68
g69
NtRp2204
(dp2205
g72
(dp2206
g80
I4
ssg81
g2200
sg74
(lp2207
g67
(g76
g69
NtRp2208
(dp2209
g72
(dp2210
g80
I3
ssg81
Nsg74
(lp2211
sbasbasbasbag67
(g83
g69
NtRp2212
(dp2213
g72
(dp2214
sg81
g2143
sg74
(lp2215
g67
(g88
g69
NtRp2216
(dp2217
g72
(dp2218
g92
g93
ssg81
g2212
sg74
(lp2219
g1098
asbag67
(g88
g69
NtRp2220
(dp2221
g72
(dp2222
g99
g100
ssg81
g2212
sg74
(lp2223
S':'
asbag67
(g88
g69
NtRp2224
(dp2225
g72
(dp2226
sg81
g2212
sg74
(lp2227
g67
(g68
g69
NtRp2228
(dp2229
g72
(dp2230
g80
I4
ssg81
g2224
sg74
(lp2231
S"<Values at 0x8e5026c: {'verbose': False, 'ip': '127.0.0.1', 'shutdown_timeout': 5, 'taskbar': False, 'nocron': False, 'pid_filename': 'httpserver.pid', 'maxthreads': None, 'softcron': False, 'server_name': 'localhost.localdomain', 'bpython': False, 'nogui': False, 'port': 8000, 'extcron': False, 'debuglevel': 30, 'test': None, 'folder': '/home/brencam/web2py', 'config': '', 'import_models': False, 'winservice': '', 'shell': None, 'run': '', 'log_filename': 'httpserver.log', 'args': [''], 'ssl_ca_certificate': None, 'scheduler': None, 'profiler_filename': None, 'ssl_private_key': '', 'password': 'admin', 'request_queue_size': 5, 'ssl_certificate': '', 'cronjob': False, 'plain': False, 'quiet': False, 'interfaces': None, 'minthreads': None, 'timeout': 10, 'numthreads': None, 'nobanner': False}>"
p2232
asbasbasbag67
(g83
g69
NtRp2233
(dp2234
g72
(dp2235
sg81
g2143
sg74
(lp2236
g67
(g88
g69
NtRp2237
(dp2238
g72
(dp2239
g92
g93
ssg81
g2233
sg74
(lp2240
g1142
asbag67
(g88
g69
NtRp2241
(dp2242
g72
(dp2243
g99
g100
ssg81
g2233
sg74
(lp2244
S':'
asbag67
(g88
g69
NtRp2245
(dp2246
g72
(dp2247
sg81
g2233
sg74
(lp2248
g67
(g68
g69
NtRp2249
(dp2250
g72
(dp2251
g80
I4
ssg81
g2245
sg74
(lp2252
S'set([])'
p2253
asbasbasbag67
(g83
g69
NtRp2254
(dp2255
g72
(dp2256
sg81
g2143
sg74
(lp2257
g67
(g88
g69
NtRp2258
(dp2259
g72
(dp2260
g92
g93
ssg81
g2254
sg74
(lp2261
g1164
asbag67
(g88
g69
NtRp2262
(dp2263
g72
(dp2264
g99
g100
ssg81
g2254
sg74
(lp2265
S':'
asbag67
(g88
g69
NtRp2266
(dp2267
g72
(dp2268
sg81
g2254
sg74
(lp2269
g67
(g68
g69
NtRp2270
(dp2271
g72
(dp2272
g80
I4
ssg81
g2266
sg74
(lp2273
g1177
asbasbasbag67
(g83
g69
NtRp2274
(dp2275
g72
(dp2276
sg81
g2143
sg74
(lp2277
g67
(g88
g69
NtRp2278
(dp2279
g72
(dp2280
g92
g93
ssg81
g2274
sg74
(lp2281
g1186
asbag67
(g88
g69
NtRp2282
(dp2283
g72
(dp2284
g99
g100
ssg81
g2274
sg74
(lp2285
S':'
asbag67
(g88
g69
NtRp2286
(dp2287
g72
(dp2288
sg81
g2274
sg74
(lp2289
g67
(g68
g69
NtRp2290
(dp2291
g72
(dp2292
g80
I4
ssg81
g2286
sg74
(lp2293
g1199
asbasbasbag67
(g83
g69
NtRp2294
(dp2295
g72
(dp2296
sg81
g2143
sg74
(lp2297
g67
(g88
g69
NtRp2298
(dp2299
g72
(dp2300
g92
g93
ssg81
g2294
sg74
(lp2301
g1449
asbag67
(g88
g69
NtRp2302
(dp2303
g72
(dp2304
g99
g100
ssg81
g2294
sg74
(lp2305
S':'
asbag67
(g88
g69
NtRp2306
(dp2307
g72
(dp2308
sg81
g2294
sg74
(lp2309
g67
(g68
g69
NtRp2310
(dp2311
g72
(dp2312
g80
I4
ssg81
g2306
sg74
(lp2313
g1177
asbasbasbag67
(g83
g69
NtRp2314
(dp2315
g72
(dp2316
sg81
g2143
sg74
(lp2317
g67
(g88
g69
NtRp2318
(dp2319
g72
(dp2320
g92
g93
ssg81
g2314
sg74
(lp2321
g1688
asbag67
(g88
g69
NtRp2322
(dp2323
g72
(dp2324
g99
g100
ssg81
g2314
sg74
(lp2325
S':'
asbag67
(g88
g69
NtRp2326
(dp2327
g72
(dp2328
sg81
g2314
sg74
(lp2329
g67
(g68
g69
NtRp2330
(dp2331
g72
(dp2332
g80
I4
ssg81
g2326
sg74
(lp2333
g1701
asbasbasbag67
(g83
g69
NtRp2334
(dp2335
g72
(dp2336
sg81
g2143
sg74
(lp2337
g67
(g88
g69
NtRp2338
(dp2339
g72
(dp2340
g92
g93
ssg81
g2334
sg74
(lp2341
g1731
asbag67
(g88
g69
NtRp2342
(dp2343
g72
(dp2344
g99
g100
ssg81
g2334
sg74
(lp2345
S':'
asbag67
(g88
g69
NtRp2346
(dp2347
g72
(dp2348
sg81
g2334
sg74
(lp2349
g67
(g68
g69
NtRp2350
(dp2351
g72
(dp2352
g80
I4
ssg81
g2346
sg74
(lp2353
g67
(g76
g69
NtRp2354
(dp2355
g72
(dp2356
g80
I3
ssg81
Nsg74
(lp2357
g67
(g83
g69
NtRp2358
(dp2359
g72
(dp2360
sg81
g2354
sg74
(lp2361
g67
(g88
g69
NtRp2362
(dp2363
g72
(dp2364
sg81
g2358
sg74
(lp2365
g67
(g68
g69
NtRp2366
(dp2367
g72
(dp2368
g80
I3
ssg81
g2362
sg74
(lp2369
S'1'
asbasbasbag67
(g83
g69
NtRp2370
(dp2371
g72
(dp2372
sg81
g2354
sg74
(lp2373
g67
(g88
g69
NtRp2374
(dp2375
g72
(dp2376
sg81
g2370
sg74
(lp2377
g67
(g68
g69
NtRp2378
(dp2379
g72
(dp2380
g80
I3
ssg81
g2374
sg74
(lp2381
S'99'
p2382
asbasbasbag67
(g83
g69
NtRp2383
(dp2384
g72
(dp2385
sg81
g2354
sg74
(lp2386
g67
(g88
g69
NtRp2387
(dp2388
g72
(dp2389
sg81
g2383
sg74
(lp2390
g67
(g68
g69
NtRp2391
(dp2392
g72
(dp2393
g80
I3
ssg81
g2387
sg74
(lp2394
S'2'
asbasbasbag67
(g83
g69
NtRp2395
(dp2396
g72
(dp2397
sg81
g2354
sg74
(lp2398
g67
(g88
g69
NtRp2399
(dp2400
g72
(dp2401
sg81
g2395
sg74
(lp2402
g67
(g68
g69
NtRp2403
(dp2404
g72
(dp2405
g80
I3
ssg81
g2399
sg74
(lp2406
S'datetime.datetime(2011, 9, 26, 6, 55, 33)'
p2407
asbasbasbag67
(g83
g69
NtRp2408
(dp2409
g72
(dp2410
sg81
g2354
sg74
(lp2411
g67
(g88
g69
NtRp2412
(dp2413
g72
(dp2414
sg81
g2408
sg74
(lp2415
g67
(g68
g69
NtRp2416
(dp2417
g72
(dp2418
g80
I3
ssg81
g2412
sg74
(lp2419
g1810
asbasbasbasbasbasbasbasbasbasbasbag67
(g83
g69
NtRp2420
(dp2421
g72
(dp2422
sg81
g77
sg74
(lp2423
g67
(g88
g69
NtRp2424
(dp2425
g72
(dp2426
g92
g93
ssg81
g2420
sg74
(lp2427
S'is_https'
p2428
asbag67
(g88
g69
NtRp2429
(dp2430
g72
(dp2431
g99
g100
ssg81
g2420
sg74
(lp2432
S':'
asbag67
(g88
g69
NtRp2433
(dp2434
g72
(dp2435
sg81
g2420
sg74
(lp2436
g67
(g68
g69
NtRp2437
(dp2438
g72
(dp2439
g80
I5
ssg81
g2433
sg74
(lp2440
g1177
asbasbasbag67
(g83
g69
NtRp2441
(dp2442
g72
(dp2443
sg81
g77
sg74
(lp2444
g67
(g88
g69
NtRp2445
(dp2446
g72
(dp2447
g92
g93
ssg81
g2441
sg74
(lp2448
S'is_local'
p2449
asbag67
(g88
g69
NtRp2450
(dp2451
g72
(dp2452
g99
g100
ssg81
g2441
sg74
(lp2453
S':'
asbag67
(g88
g69
NtRp2454
(dp2455
g72
(dp2456
sg81
g2441
sg74
(lp2457
g67
(g68
g69
NtRp2458
(dp2459
g72
(dp2460
g80
I5
ssg81
g2454
sg74
(lp2461
g110
asbasbasbag67
(g83
g69
NtRp2462
(dp2463
g72
(dp2464
sg81
g77
sg74
(lp2465
g67
(g88
g69
NtRp2466
(dp2467
g72
(dp2468
g92
g93
ssg81
g2462
sg74
(lp2469
S'is_restful'
p2470
asbag67
(g88
g69
NtRp2471
(dp2472
g72
(dp2473
g99
g100
ssg81
g2462
sg74
(lp2474
S':'
asbag67
(g88
g69
NtRp2475
(dp2476
g72
(dp2477
sg81
g2462
sg74
(lp2478
g67
(g68
g69
NtRp2479
(dp2480
g72
(dp2481
g80
I5
ssg81
g2475
sg74
(lp2482
g1177
asbasbasbag67
(g83
g69
NtRp2483
(dp2484
g72
(dp2485
sg81
g77
sg74
(lp2486
g67
(g88
g69
NtRp2487
(dp2488
g72
(dp2489
g92
g93
ssg81
g2483
sg74
(lp2490
S'now'
p2491
asbag67
(g88
g69
NtRp2492
(dp2493
g72
(dp2494
g99
g100
ssg81
g2483
sg74
(lp2495
S':'
asbag67
(g88
g69
NtRp2496
(dp2497
g72
(dp2498
sg81
g2483
sg74
(lp2499
g67
(g68
g69
NtRp2500
(dp2501
g72
(dp2502
g80
I5
ssg81
g2496
sg74
(lp2503
S'datetime.datetime(2011, 11, 3, 2, 34, 11, 862293)'
p2504
asbasbasbag67
(g83
g69
NtRp2505
(dp2506
g72
(dp2507
sg81
g77
sg74
(lp2508
g67
(g88
g69
NtRp2509
(dp2510
g72
(dp2511
g92
g93
ssg81
g2505
sg74
(lp2512
S'post_vars'
p2513
asbag67
(g88
g69
NtRp2514
(dp2515
g72
(dp2516
g99
g100
ssg81
g2505
sg74
(lp2517
S':'
asbag67
(g88
g69
NtRp2518
(dp2519
g72
(dp2520
sg81
g2505
sg74
(lp2521
g67
(g68
g69
NtRp2522
(dp2523
g72
(dp2524
g80
I5
ssg81
g2518
sg74
(lp2525
g67
(g76
g69
NtRp2526
(dp2527
g72
(dp2528
g80
I4
ssg81
Nsg74
(lp2529
sbasbasbasbag67
(g83
g69
NtRp2530
(dp2531
g72
(dp2532
sg81
g77
sg74
(lp2533
g67
(g88
g69
NtRp2534
(dp2535
g72
(dp2536
g92
g93
ssg81
g2530
sg74
(lp2537
S'url'
p2538
asbag67
(g88
g69
NtRp2539
(dp2540
g72
(dp2541
g99
g100
ssg81
g2530
sg74
(lp2542
S':'
asbag67
(g88
g69
NtRp2543
(dp2544
g72
(dp2545
sg81
g2530
sg74
(lp2546
g67
(g68
g69
NtRp2547
(dp2548
g72
(dp2549
g80
I5
ssg81
g2543
sg74
(lp2550
S'/gallery/search/getnames'
p2551
asbasbasbag67
(g83
g69
NtRp2552
(dp2553
g72
(dp2554
sg81
g77
sg74
(lp2555
g67
(g88
g69
NtRp2556
(dp2557
g72
(dp2558
g92
g93
ssg81
g2552
sg74
(lp2559
S'utcnow'
p2560
asbag67
(g88
g69
NtRp2561
(dp2562
g72
(dp2563
g99
g100
ssg81
g2552
sg74
(lp2564
S':'
asbag67
(g88
g69
NtRp2565
(dp2566
g72
(dp2567
sg81
g2552
sg74
(lp2568
g67
(g68
g69
NtRp2569
(dp2570
g72
(dp2571
g80
I5
ssg81
g2565
sg74
(lp2572
S'datetime.datetime(2011, 11, 3, 9, 34, 11, 862331)'
p2573
asbasbasbag67
(g83
g69
NtRp2574
(dp2575
g72
(dp2576
sg81
g77
sg74
(lp2577
g67
(g88
g69
NtRp2578
(dp2579
g72
(dp2580
g92
g93
ssg81
g2574
sg74
(lp2581
S'uuid'
p2582
asbag67
(g88
g69
NtRp2583
(dp2584
g72
(dp2585
g99
g100
ssg81
g2574
sg74
(lp2586
S':'
asbag67
(g88
g69
NtRp2587
(dp2588
g72
(dp2589
sg81
g2574
sg74
(lp2590
g67
(g68
g69
NtRp2591
(dp2592
g72
(dp2593
g80
I5
ssg81
g2587
sg74
(lp2594
S'gallery/127.0.0.1.2011-11-03.02-34-11.0ba286f2-b363-48f6-9178-b34b564d4a5e'
p2595
asbasbasbag67
(g83
g69
NtRp2596
(dp2597
g72
(dp2598
sg81
g77
sg74
(lp2599
g67
(g88
g69
NtRp2600
(dp2601
g72
(dp2602
g92
g93
ssg81
g2596
sg74
(lp2603
S'vars'
p2604
asbag67
(g88
g69
NtRp2605
(dp2606
g72
(dp2607
g99
g100
ssg81
g2596
sg74
(lp2608
S':'
asbag67
(g88
g69
NtRp2609
(dp2610
g72
(dp2611
sg81
g2596
sg74
(lp2612
g67
(g68
g69
NtRp2613
(dp2614
g72
(dp2615
g80
I5
ssg81
g2609
sg74
(lp2616
g67
(g76
g69
NtRp2617
(dp2618
g72
(dp2619
g80
I4
ssg81
Nsg74
(lp2620
g67
(g83
g69
NtRp2621
(dp2622
g72
(dp2623
sg81
g2617
sg74
(lp2624
g67
(g88
g69
NtRp2625
(dp2626
g72
(dp2627
g92
g93
ssg81
g2621
sg74
(lp2628
S'q'
asbag67
(g88
g69
NtRp2629
(dp2630
g72
(dp2631
g99
g100
ssg81
g2621
sg74
(lp2632
S':'
asbag67
(g88
g69
NtRp2633
(dp2634
g72
(dp2635
sg81
g2621
sg74
(lp2636
g67
(g68
g69
NtRp2637
(dp2638
g72
(dp2639
g80
I4
ssg81
g2633
sg74
(lp2640
S'P'
asbasbasbasbasbasbasbag67
(g83
g69
NtRp2641
(dp2642
g72
(dp2643
sg81
g77
sg74
(lp2644
g67
(g88
g69
NtRp2645
(dp2646
g72
(dp2647
g92
g93
ssg81
g2641
sg74
(lp2648
S'wsgi'
p2649
asbag67
(g88
g69
NtRp2650
(dp2651
g72
(dp2652
g99
g100
ssg81
g2641
sg74
(lp2653
S':'
asbag67
(g88
g69
NtRp2654
(dp2655
g72
(dp2656
sg81
g2641
sg74
(lp2657
g67
(g68
g69
NtRp2658
(dp2659
g72
(dp2660
g80
I5
ssg81
g2654
sg74
(lp2661
g67
(g76
g69
NtRp2662
(dp2663
g72
(dp2664
g80
I4
ssg81
Nsg74
(lp2665
g67
(g83
g69
NtRp2666
(dp2667
g72
(dp2668
sg81
g2662
sg74
(lp2669
g67
(g88
g69
NtRp2670
(dp2671
g72
(dp2672
g92
g93
ssg81
g2666
sg74
(lp2673
S'environ'
p2674
asbag67
(g88
g69
NtRp2675
(dp2676
g72
(dp2677
g99
g100
ssg81
g2666
sg74
(lp2678
S':'
asbag67
(g88
g69
NtRp2679
(dp2680
g72
(dp2681
sg81
g2666
sg74
(lp2682
g67
(g68
g69
NtRp2683
(dp2684
g72
(dp2685
g80
I4
ssg81
g2679
sg74
(lp2686
g67
(g76
g69
NtRp2687
(dp2688
g72
(dp2689
g80
I3
ssg81
Nsg74
(lp2690
g67
(g83
g69
NtRp2691
(dp2692
g72
(dp2693
sg81
g2687
sg74
(lp2694
g67
(g88
g69
NtRp2695
(dp2696
g72
(dp2697
g92
g93
ssg81
g2691
sg74
(lp2698
S'CONTENT_TYPE'
p2699
asbag67
(g88
g69
NtRp2700
(dp2701
g72
(dp2702
g99
g100
ssg81
g2691
sg74
(lp2703
S':'
asbag67
(g88
g69
NtRp2704
(dp2705
g72
(dp2706
sg81
g2691
sg74
(lp2707
g67
(g68
g69
NtRp2708
(dp2709
g72
(dp2710
g80
I3
ssg81
g2704
sg74
(lp2711
g1133
asbasbasbag67
(g83
g69
NtRp2712
(dp2713
g72
(dp2714
sg81
g2687
sg74
(lp2715
g67
(g88
g69
NtRp2716
(dp2717
g72
(dp2718
g92
g93
ssg81
g2712
sg74
(lp2719
S'HTTP_ACCEPT'
p2720
asbag67
(g88
g69
NtRp2721
(dp2722
g72
(dp2723
g99
g100
ssg81
g2712
sg74
(lp2724
S':'
asbag67
(g88
g69
NtRp2725
(dp2726
g72
(dp2727
sg81
g2712
sg74
(lp2728
g67
(g68
g69
NtRp2729
(dp2730
g72
(dp2731
g80
I3
ssg81
g2725
sg74
(lp2732
g1221
asbasbasbag67
(g83
g69
NtRp2733
(dp2734
g72
(dp2735
sg81
g2687
sg74
(lp2736
g67
(g88
g69
NtRp2737
(dp2738
g72
(dp2739
g92
g93
ssg81
g2733
sg74
(lp2740
S'HTTP_ACCEPT_CHARSET'
p2741
asbag67
(g88
g69
NtRp2742
(dp2743
g72
(dp2744
g99
g100
ssg81
g2733
sg74
(lp2745
S':'
asbag67
(g88
g69
NtRp2746
(dp2747
g72
(dp2748
sg81
g2733
sg74
(lp2749
g67
(g68
g69
NtRp2750
(dp2751
g72
(dp2752
g80
I3
ssg81
g2746
sg74
(lp2753
g1243
asbasbasbag67
(g83
g69
NtRp2754
(dp2755
g72
(dp2756
sg81
g2687
sg74
(lp2757
g67
(g88
g69
NtRp2758
(dp2759
g72
(dp2760
g92
g93
ssg81
g2754
sg74
(lp2761
S'HTTP_ACCEPT_ENCODING'
p2762
asbag67
(g88
g69
NtRp2763
(dp2764
g72
(dp2765
g99
g100
ssg81
g2754
sg74
(lp2766
S':'
asbag67
(g88
g69
NtRp2767
(dp2768
g72
(dp2769
sg81
g2754
sg74
(lp2770
g67
(g68
g69
NtRp2771
(dp2772
g72
(dp2773
g80
I3
ssg81
g2767
sg74
(lp2774
g1265
asbasbasbag67
(g83
g69
NtRp2775
(dp2776
g72
(dp2777
sg81
g2687
sg74
(lp2778
g67
(g88
g69
NtRp2779
(dp2780
g72
(dp2781
g92
g93
ssg81
g2775
sg74
(lp2782
S'HTTP_ACCEPT_LANGUAGE'
p2783
asbag67
(g88
g69
NtRp2784
(dp2785
g72
(dp2786
g99
g100
ssg81
g2775
sg74
(lp2787
S':'
asbag67
(g88
g69
NtRp2788
(dp2789
g72
(dp2790
sg81
g2775
sg74
(lp2791
g67
(g68
g69
NtRp2792
(dp2793
g72
(dp2794
g80
I3
ssg81
g2788
sg74
(lp2795
g1287
asbasbasbag67
(g83
g69
NtRp2796
(dp2797
g72
(dp2798
sg81
g2687
sg74
(lp2799
g67
(g88
g69
NtRp2800
(dp2801
g72
(dp2802
g92
g93
ssg81
g2796
sg74
(lp2803
S'HTTP_CONNECTION'
p2804
asbag67
(g88
g69
NtRp2805
(dp2806
g72
(dp2807
g99
g100
ssg81
g2796
sg74
(lp2808
S':'
asbag67
(g88
g69
NtRp2809
(dp2810
g72
(dp2811
sg81
g2796
sg74
(lp2812
g67
(g68
g69
NtRp2813
(dp2814
g72
(dp2815
g80
I3
ssg81
g2809
sg74
(lp2816
g1309
asbasbasbag67
(g83
g69
NtRp2817
(dp2818
g72
(dp2819
sg81
g2687
sg74
(lp2820
g67
(g88
g69
NtRp2821
(dp2822
g72
(dp2823
g92
g93
ssg81
g2817
sg74
(lp2824
S'HTTP_CONTENT_TYPE'
p2825
asbag67
(g88
g69
NtRp2826
(dp2827
g72
(dp2828
g99
g100
ssg81
g2817
sg74
(lp2829
S':'
asbag67
(g88
g69
NtRp2830
(dp2831
g72
(dp2832
sg81
g2817
sg74
(lp2833
g67
(g68
g69
NtRp2834
(dp2835
g72
(dp2836
g80
I3
ssg81
g2830
sg74
(lp2837
g1133
asbasbasbag67
(g83
g69
NtRp2838
(dp2839
g72
(dp2840
sg81
g2687
sg74
(lp2841
g67
(g88
g69
NtRp2842
(dp2843
g72
(dp2844
g92
g93
ssg81
g2838
sg74
(lp2845
S'HTTP_COOKIE'
p2846
asbag67
(g88
g69
NtRp2847
(dp2848
g72
(dp2849
g99
g100
ssg81
g2838
sg74
(lp2850
S':'
asbag67
(g88
g69
NtRp2851
(dp2852
g72
(dp2853
sg81
g2838
sg74
(lp2854
g67
(g68
g69
NtRp2855
(dp2856
g72
(dp2857
g80
I3
ssg81
g2851
sg74
(lp2858
g1352
asbasbasbag67
(g83
g69
NtRp2859
(dp2860
g72
(dp2861
sg81
g2687
sg74
(lp2862
g67
(g88
g69
NtRp2863
(dp2864
g72
(dp2865
g92
g93
ssg81
g2859
sg74
(lp2866
S'HTTP_HOST'
p2867
asbag67
(g88
g69
NtRp2868
(dp2869
g72
(dp2870
g99
g100
ssg81
g2859
sg74
(lp2871
S':'
asbag67
(g88
g69
NtRp2872
(dp2873
g72
(dp2874
sg81
g2859
sg74
(lp2875
g67
(g68
g69
NtRp2876
(dp2877
g72
(dp2878
g80
I3
ssg81
g2872
sg74
(lp2879
g1374
asbasbasbag67
(g83
g69
NtRp2880
(dp2881
g72
(dp2882
sg81
g2687
sg74
(lp2883
g67
(g88
g69
NtRp2884
(dp2885
g72
(dp2886
g92
g93
ssg81
g2880
sg74
(lp2887
S'HTTP_REFERER'
p2888
asbag67
(g88
g69
NtRp2889
(dp2890
g72
(dp2891
g99
g100
ssg81
g2880
sg74
(lp2892
S':'
asbag67
(g88
g69
NtRp2893
(dp2894
g72
(dp2895
sg81
g2880
sg74
(lp2896
g67
(g68
g69
NtRp2897
(dp2898
g72
(dp2899
g80
I3
ssg81
g2893
sg74
(lp2900
g1396
asbasbasbag67
(g83
g69
NtRp2901
(dp2902
g72
(dp2903
sg81
g2687
sg74
(lp2904
g67
(g88
g69
NtRp2905
(dp2906
g72
(dp2907
g92
g93
ssg81
g2901
sg74
(lp2908
S'HTTP_USER_AGENT'
p2909
asbag67
(g88
g69
NtRp2910
(dp2911
g72
(dp2912
g99
g100
ssg81
g2901
sg74
(lp2913
S':'
asbag67
(g88
g69
NtRp2914
(dp2915
g72
(dp2916
sg81
g2901
sg74
(lp2917
g67
(g68
g69
NtRp2918
(dp2919
g72
(dp2920
g80
I3
ssg81
g2914
sg74
(lp2921
g1418
asbasbasbag67
(g83
g69
NtRp2922
(dp2923
g72
(dp2924
sg81
g2687
sg74
(lp2925
g67
(g88
g69
NtRp2926
(dp2927
g72
(dp2928
g92
g93
ssg81
g2922
sg74
(lp2929
S'HTTP_X_REQUESTED_WITH'
p2930
asbag67
(g88
g69
NtRp2931
(dp2932
g72
(dp2933
g99
g100
ssg81
g2922
sg74
(lp2934
S':'
asbag67
(g88
g69
NtRp2935
(dp2936
g72
(dp2937
sg81
g2922
sg74
(lp2938
g67
(g68
g69
NtRp2939
(dp2940
g72
(dp2941
g80
I3
ssg81
g2935
sg74
(lp2942
g1440
asbasbasbag67
(g83
g69
NtRp2943
(dp2944
g72
(dp2945
sg81
g2687
sg74
(lp2946
g67
(g88
g69
NtRp2947
(dp2948
g72
(dp2949
g92
g93
ssg81
g2943
sg74
(lp2950
S'PATH_INFO'
p2951
asbag67
(g88
g69
NtRp2952
(dp2953
g72
(dp2954
g99
g100
ssg81
g2943
sg74
(lp2955
S':'
asbag67
(g88
g69
NtRp2956
(dp2957
g72
(dp2958
sg81
g2943
sg74
(lp2959
g67
(g68
g69
NtRp2960
(dp2961
g72
(dp2962
g80
I3
ssg81
g2956
sg74
(lp2963
g1483
asbasbasbag67
(g83
g69
NtRp2964
(dp2965
g72
(dp2966
sg81
g2687
sg74
(lp2967
g67
(g88
g69
NtRp2968
(dp2969
g72
(dp2970
g92
g93
ssg81
g2964
sg74
(lp2971
S'QUERY_STRING'
p2972
asbag67
(g88
g69
NtRp2973
(dp2974
g72
(dp2975
g99
g100
ssg81
g2964
sg74
(lp2976
S':'
asbag67
(g88
g69
NtRp2977
(dp2978
g72
(dp2979
sg81
g2964
sg74
(lp2980
g67
(g68
g69
NtRp2981
(dp2982
g72
(dp2983
g80
I3
ssg81
g2977
sg74
(lp2984
g1505
asbasbasbag67
(g83
g69
NtRp2985
(dp2986
g72
(dp2987
sg81
g2687
sg74
(lp2988
g67
(g88
g69
NtRp2989
(dp2990
g72
(dp2991
g92
g93
ssg81
g2985
sg74
(lp2992
S'REMOTE_ADDR'
p2993
asbag67
(g88
g69
NtRp2994
(dp2995
g72
(dp2996
g99
g100
ssg81
g2985
sg74
(lp2997
S':'
asbag67
(g88
g69
NtRp2998
(dp2999
g72
(dp3000
sg81
g2985
sg74
(lp3001
g67
(g68
g69
NtRp3002
(dp3003
g72
(dp3004
g80
I3
ssg81
g2998
sg74
(lp3005
g200
asbasbasbag67
(g83
g69
NtRp3006
(dp3007
g72
(dp3008
sg81
g2687
sg74
(lp3009
g67
(g88
g69
NtRp3010
(dp3011
g72
(dp3012
g92
g93
ssg81
g3006
sg74
(lp3013
S'REMOTE_PORT'
p3014
asbag67
(g88
g69
NtRp3015
(dp3016
g72
(dp3017
g99
g100
ssg81
g3006
sg74
(lp3018
S':'
asbag67
(g88
g69
NtRp3019
(dp3020
g72
(dp3021
sg81
g3006
sg74
(lp3022
g67
(g68
g69
NtRp3023
(dp3024
g72
(dp3025
g80
I3
ssg81
g3019
sg74
(lp3026
g1548
asbasbasbag67
(g83
g69
NtRp3027
(dp3028
g72
(dp3029
sg81
g2687
sg74
(lp3030
g67
(g88
g69
NtRp3031
(dp3032
g72
(dp3033
g92
g93
ssg81
g3027
sg74
(lp3034
S'REQUEST_METHOD'
p3035
asbag67
(g88
g69
NtRp3036
(dp3037
g72
(dp3038
g99
g100
ssg81
g3027
sg74
(lp3039
S':'
asbag67
(g88
g69
NtRp3040
(dp3041
g72
(dp3042
sg81
g3027
sg74
(lp3043
g67
(g68
g69
NtRp3044
(dp3045
g72
(dp3046
g80
I3
ssg81
g3040
sg74
(lp3047
g1570
asbasbasbag67
(g83
g69
NtRp3048
(dp3049
g72
(dp3050
sg81
g2687
sg74
(lp3051
g67
(g88
g69
NtRp3052
(dp3053
g72
(dp3054
g92
g93
ssg81
g3048
sg74
(lp3055
S'SCRIPT_NAME'
p3056
asbag67
(g88
g69
NtRp3057
(dp3058
g72
(dp3059
g99
g100
ssg81
g3048
sg74
(lp3060
S':'
asbag67
(g88
g69
NtRp3061
(dp3062
g72
(dp3063
sg81
g3048
sg74
(lp3064
g67
(g68
g69
NtRp3065
(dp3066
g72
(dp3067
g80
I3
ssg81
g3061
sg74
(lp3068
S''
asbasbasbag67
(g83
g69
NtRp3069
(dp3070
g72
(dp3071
sg81
g2687
sg74
(lp3072
g67
(g88
g69
NtRp3073
(dp3074
g72
(dp3075
g92
g93
ssg81
g3069
sg74
(lp3076
S'SERVER_NAME'
p3077
asbag67
(g88
g69
NtRp3078
(dp3079
g72
(dp3080
g99
g100
ssg81
g3069
sg74
(lp3081
S':'
asbag67
(g88
g69
NtRp3082
(dp3083
g72
(dp3084
sg81
g3069
sg74
(lp3085
g67
(g68
g69
NtRp3086
(dp3087
g72
(dp3088
g80
I3
ssg81
g3082
sg74
(lp3089
g1613
asbasbasbag67
(g83
g69
NtRp3090
(dp3091
g72
(dp3092
sg81
g2687
sg74
(lp3093
g67
(g88
g69
NtRp3094
(dp3095
g72
(dp3096
g92
g93
ssg81
g3090
sg74
(lp3097
S'SERVER_PORT'
p3098
asbag67
(g88
g69
NtRp3099
(dp3100
g72
(dp3101
g99
g100
ssg81
g3090
sg74
(lp3102
S':'
asbag67
(g88
g69
NtRp3103
(dp3104
g72
(dp3105
sg81
g3090
sg74
(lp3106
g67
(g68
g69
NtRp3107
(dp3108
g72
(dp3109
g80
I3
ssg81
g3103
sg74
(lp3110
g1635
asbasbasbag67
(g83
g69
NtRp3111
(dp3112
g72
(dp3113
sg81
g2687
sg74
(lp3114
g67
(g88
g69
NtRp3115
(dp3116
g72
(dp3117
g92
g93
ssg81
g3111
sg74
(lp3118
S'SERVER_PROTOCOL'
p3119
asbag67
(g88
g69
NtRp3120
(dp3121
g72
(dp3122
g99
g100
ssg81
g3111
sg74
(lp3123
S':'
asbag67
(g88
g69
NtRp3124
(dp3125
g72
(dp3126
sg81
g3111
sg74
(lp3127
g67
(g68
g69
NtRp3128
(dp3129
g72
(dp3130
g80
I3
ssg81
g3124
sg74
(lp3131
g1657
asbasbasbag67
(g83
g69
NtRp3132
(dp3133
g72
(dp3134
sg81
g2687
sg74
(lp3135
g67
(g88
g69
NtRp3136
(dp3137
g72
(dp3138
g92
g93
ssg81
g3132
sg74
(lp3139
S'SERVER_SOFTWARE'
p3140
asbag67
(g88
g69
NtRp3141
(dp3142
g72
(dp3143
g99
g100
ssg81
g3132
sg74
(lp3144
S':'
asbag67
(g88
g69
NtRp3145
(dp3146
g72
(dp3147
sg81
g3132
sg74
(lp3148
g67
(g68
g69
NtRp3149
(dp3150
g72
(dp3151
g80
I3
ssg81
g3145
sg74
(lp3152
g1679
asbasbasbag67
(g83
g69
NtRp3153
(dp3154
g72
(dp3155
sg81
g2687
sg74
(lp3156
g67
(g88
g69
NtRp3157
(dp3158
g72
(dp3159
g92
g93
ssg81
g3153
sg74
(lp3160
S'wsgi.errors'
p3161
asbag67
(g88
g69
NtRp3162
(dp3163
g72
(dp3164
g99
g100
ssg81
g3153
sg74
(lp3165
S':'
asbag67
(g88
g69
NtRp3166
(dp3167
g72
(dp3168
sg81
g3153
sg74
(lp3169
g67
(g68
g69
NtRp3170
(dp3171
g72
(dp3172
g80
I3
ssg81
g3166
sg74
(lp3173
S"<open file '<stderr>', mode 'w' at 0xb75610d0>"
p3174
asbasbasbag67
(g83
g69
NtRp3175
(dp3176
g72
(dp3177
sg81
g2687
sg74
(lp3178
g67
(g88
g69
NtRp3179
(dp3180
g72
(dp3181
g92
g93
ssg81
g3175
sg74
(lp3182
S'wsgi.file_wrapper'
p3183
asbag67
(g88
g69
NtRp3184
(dp3185
g72
(dp3186
g99
g100
ssg81
g3175
sg74
(lp3187
S':'
asbag67
(g88
g69
NtRp3188
(dp3189
g72
(dp3190
sg81
g3175
sg74
(lp3191
g67
(g68
g69
NtRp3192
(dp3193
g72
(dp3194
g80
I3
ssg81
g3188
sg74
(lp3195
S'<class wsgiref.util.FileWrapper at 0x8a4d50c>'
p3196
asbasbasbag67
(g83
g69
NtRp3197
(dp3198
g72
(dp3199
sg81
g2687
sg74
(lp3200
g67
(g88
g69
NtRp3201
(dp3202
g72
(dp3203
g92
g93
ssg81
g3197
sg74
(lp3204
S'wsgi.input'
p3205
asbag67
(g88
g69
NtRp3206
(dp3207
g72
(dp3208
g99
g100
ssg81
g3197
sg74
(lp3209
S':'
asbag67
(g88
g69
NtRp3210
(dp3211
g72
(dp3212
sg81
g3197
sg74
(lp3213
g67
(g68
g69
NtRp3214
(dp3215
g72
(dp3216
g80
I3
ssg81
g3210
sg74
(lp3217
S'<cStringIO.StringO object at 0xaf6778e0>'
p3218
asbasbasbag67
(g83
g69
NtRp3219
(dp3220
g72
(dp3221
sg81
g2687
sg74
(lp3222
g67
(g88
g69
NtRp3223
(dp3224
g72
(dp3225
g92
g93
ssg81
g3219
sg74
(lp3226
S'wsgi.multiprocess'
p3227
asbag67
(g88
g69
NtRp3228
(dp3229
g72
(dp3230
g99
g100
ssg81
g3219
sg74
(lp3231
S':'
asbag67
(g88
g69
NtRp3232
(dp3233
g72
(dp3234
sg81
g3219
sg74
(lp3235
g67
(g68
g69
NtRp3236
(dp3237
g72
(dp3238
g80
I3
ssg81
g3232
sg74
(lp3239
g1177
asbasbasbag67
(g83
g69
NtRp3240
(dp3241
g72
(dp3242
sg81
g2687
sg74
(lp3243
g67
(g88
g69
NtRp3244
(dp3245
g72
(dp3246
g92
g93
ssg81
g3240
sg74
(lp3247
S'wsgi.multithread'
p3248
asbag67
(g88
g69
NtRp3249
(dp3250
g72
(dp3251
g99
g100
ssg81
g3240
sg74
(lp3252
S':'
asbag67
(g88
g69
NtRp3253
(dp3254
g72
(dp3255
sg81
g3240
sg74
(lp3256
g67
(g68
g69
NtRp3257
(dp3258
g72
(dp3259
g80
I3
ssg81
g3253
sg74
(lp3260
g110
asbasbasbag67
(g83
g69
NtRp3261
(dp3262
g72
(dp3263
sg81
g2687
sg74
(lp3264
g67
(g88
g69
NtRp3265
(dp3266
g72
(dp3267
g92
g93
ssg81
g3261
sg74
(lp3268
S'wsgi.run_once'
p3269
asbag67
(g88
g69
NtRp3270
(dp3271
g72
(dp3272
g99
g100
ssg81
g3261
sg74
(lp3273
S':'
asbag67
(g88
g69
NtRp3274
(dp3275
g72
(dp3276
sg81
g3261
sg74
(lp3277
g67
(g68
g69
NtRp3278
(dp3279
g72
(dp3280
g80
I3
ssg81
g3274
sg74
(lp3281
g1177
asbasbasbag67
(g83
g69
NtRp3282
(dp3283
g72
(dp3284
sg81
g2687
sg74
(lp3285
g67
(g88
g69
NtRp3286
(dp3287
g72
(dp3288
g92
g93
ssg81
g3282
sg74
(lp3289
S'wsgi.url_scheme'
p3290
asbag67
(g88
g69
NtRp3291
(dp3292
g72
(dp3293
g99
g100
ssg81
g3282
sg74
(lp3294
S':'
asbag67
(g88
g69
NtRp3295
(dp3296
g72
(dp3297
sg81
g3282
sg74
(lp3298
g67
(g68
g69
NtRp3299
(dp3300
g72
(dp3301
g80
I3
ssg81
g3295
sg74
(lp3302
g1961
asbasbasbag67
(g83
g69
NtRp3303
(dp3304
g72
(dp3305
sg81
g2687
sg74
(lp3306
g67
(g88
g69
NtRp3307
(dp3308
g72
(dp3309
g92
g93
ssg81
g3303
sg74
(lp3310
S'wsgi.version'
p3311
asbag67
(g88
g69
NtRp3312
(dp3313
g72
(dp3314
g99
g100
ssg81
g3303
sg74
(lp3315
S':'
asbag67
(g88
g69
NtRp3316
(dp3317
g72
(dp3318
sg81
g3303
sg74
(lp3319
g67
(g68
g69
NtRp3320
(dp3321
g72
(dp3322
g80
I3
ssg81
g3316
sg74
(lp3323
S'1'
asbasbasbasbasbasbasbasbasbasbasbasbasbsS'frames'
p3324
(lp3325
(dp3326
S'file'
p3327
S'/home/brencam/web2py/gluon/restricted.py'
p3328
sS'dump'
p3329
(dp3330
S'code'
p3331
S"'# Search Controller\\nimport datetime\\n\\ndef getname...]))\\n\\n\\n\\nresponse._vars=response._caller(getnames)\\n'"
p3332
sS'layer'
p3333
S"'/home/brencam/web2py/applications/gallery/controllers/search.py'"
p3334
sS'global compile2'
p3335
S'<function compile2>'
p3336
sS'ccode'
p3337
S'undefined'
p3338
ssS'lnum'
p3339
I193
sS'lines'
p3340
(dp3341
I192
S'        else:'
p3342
sI193
S'            ccode = compile2(code,layer)'
p3343
sI194
S'        exec ccode in environment'
p3344
sI195
S'    except HTTP:'
p3345
sI196
S'        raise'
p3346
sI197
S'    except Exception, error:'
p3347
sI188
S"    environment['__file__'] = layer"
p3348
sI189
S'    try:'
p3349
sI190
S'        if type(code) == types.CodeType:'
p3350
sI191
S'            ccode = code'
p3351
ssS'call'
p3352
S"(code='# Search Controller\\nimport datetime\\n\\ndef getname...]))\\n\\n\\n\\nresponse._vars=response._caller(getnames)\\n', environment={'A': <class 'gluon.html.A'>, 'Auth': <class 'gluon.tools.Auth'>, 'B': <class 'gluon.html.B'>, 'BEAUTIFY': <class 'gluon.html.BEAUTIFY'>, 'BODY': <class 'gluon.html.BODY'>, 'BR': <class 'gluon.html.BR'>, 'BUTTON': <class 'gluon.html.BUTTON'>, 'CAT': <class 'gluon.html.CAT'>, 'CENTER': <class 'gluon.html.CENTER'>, 'CLEANUP': <class 'gluon.validators.CLEANUP'>, ...}, layer='/home/brencam/web2py/applications/gallery/controllers/search.py')"
p3353
sS'func'
p3354
S'restricted'
p3355
sa(dp3356
g3327
S'/home/brencam/web2py/gluon/restricted.py'
p3357
sg3329
(dp3358
S'builtincompile'
p3359
S'<built-in function compile>'
p3360
sS'code'
p3361
S"'# Search Controller\\nimport datetime\\n\\ndef getname...]))\\n\\n\\n\\nresponse._vars=response._caller(getnames)\\n'"
p3362
sS'code.rstrip'
p3363
S'<built-in method rstrip of str object>'
p3364
sS').replace'
p3365
g3338
sS'layer'
p3366
S"'/home/brencam/web2py/applications/gallery/controllers/search.py'"
p3367
ssg3339
I179
sg3340
(dp3368
I174
S''
sI175
S'def compile2(code,layer):'
p3369
sI176
S'    """'
p3370
sI177
S"    The +'\\n' is necessary else compile fails when code ends in a comment."
p3371
sI178
S'    """'
p3372
sI179
S"    return compile(code.rstrip().replace('\\r\\n','\\n')+'\\n', layer, 'exec')"
p3373
sI180
S''
sI181
S"def restricted(code, environment=None, layer='Unknown'):"
p3374
sI182
S'    """'
p3375
sI183
S'    runs code in environment and returns the output. if an exception occurs'
p3376
ssg3352
S"(code='# Search Controller\\nimport datetime\\n\\ndef getname...]))\\n\\n\\n\\nresponse._vars=response._caller(getnames)\\n', layer='/home/brencam/web2py/applications/gallery/controllers/search.py')"
p3377
sg3354
S'compile2'
p3378
sasS'pyver'
p3379
S'Python 2.6.6: /usr/bin/python'
p3380
sS'session'
p3381
g67
(g68
g69
NtRp3382
(dp3383
g72
(dp3384
sg74
(lp3385
g67
(g76
g69
NtRp3386
(dp3387
g72
(dp3388
g80
I5
ssg81
Nsg74
(lp3389
sbasbsS'etype'
p3390
S"<type 'exceptions.SyntaxError'>"
p3391
sS'date'
p3392
S'Thu Nov  3 02:34:11 2011'
p3393
sS'response'
p3394
g67
(g68
g69
NtRp3395
(dp3396
g72
(dp3397
sg74
(lp3398
g67
(g76
g69
NtRp3399
(dp3400
g72
(dp3401
g80
I5
ssg81
Nsg74
(lp3402
g67
(g83
g69
NtRp3403
(dp3404
g72
(dp3405
sg81
g3399
sg74
(lp3406
g67
(g88
g69
NtRp3407
(dp3408
g72
(dp3409
g92
g93
ssg81
g3403
sg74
(lp3410
g165
asbag67
(g88
g69
NtRp3411
(dp3412
g72
(dp3413
g99
g100
ssg81
g3403
sg74
(lp3414
S':'
asbag67
(g88
g69
NtRp3415
(dp3416
g72
(dp3417
sg81
g3403
sg74
(lp3418
g67
(g68
g69
NtRp3419
(dp3420
g72
(dp3421
g80
I5
ssg81
g3415
sg74
(lp3422
S'<cStringIO.StringO object at 0xaf166e00>'
p3423
asbasbasbag67
(g83
g69
NtRp3424
(dp3425
g72
(dp3426
sg81
g3399
sg74
(lp3427
g67
(g88
g69
NtRp3428
(dp3429
g72
(dp3430
g92
g93
ssg81
g3424
sg74
(lp3431
g231
asbag67
(g88
g69
NtRp3432
(dp3433
g72
(dp3434
g99
g100
ssg81
g3424
sg74
(lp3435
S':'
asbag67
(g88
g69
NtRp3436
(dp3437
g72
(dp3438
sg81
g3424
sg74
(lp3439
g67
(g68
g69
NtRp3440
(dp3441
g72
(dp3442
g80
I5
ssg81
g3436
sg74
(lp3443
g67
(g76
g69
NtRp3444
(dp3445
g72
(dp3446
g80
I4
ssg81
Nsg74
(lp3447
g67
(g83
g69
NtRp3448
(dp3449
g72
(dp3450
sg81
g3444
sg74
(lp3451
g67
(g88
g69
NtRp3452
(dp3453
g72
(dp3454
g92
g93
ssg81
g3448
sg74
(lp3455
S'session_id_gallery'
p3456
asbag67
(g88
g69
NtRp3457
(dp3458
g72
(dp3459
g99
g100
ssg81
g3448
sg74
(lp3460
S':'
asbag67
(g88
g69
NtRp3461
(dp3462
g72
(dp3463
sg81
g3448
sg74
(lp3464
g67
(g68
g69
NtRp3465
(dp3466
g72
(dp3467
g80
I4
ssg81
g3461
sg74
(lp3468
g67
(g76
g69
NtRp3469
(dp3470
g72
(dp3471
g80
I3
ssg81
Nsg74
(lp3472
g67
(g83
g69
NtRp3473
(dp3474
g72
(dp3475
sg81
g3469
sg74
(lp3476
g67
(g88
g69
NtRp3477
(dp3478
g72
(dp3479
g92
g93
ssg81
g3473
sg74
(lp3480
g281
asbag67
(g88
g69
NtRp3481
(dp3482
g72
(dp3483
g99
g100
ssg81
g3473
sg74
(lp3484
S':'
asbag67
(g88
g69
NtRp3485
(dp3486
g72
(dp3487
sg81
g3473
sg74
(lp3488
g67
(g68
g69
NtRp3489
(dp3490
g72
(dp3491
g80
I3
ssg81
g3485
sg74
(lp3492
S''
asbasbasbag67
(g83
g69
NtRp3493
(dp3494
g72
(dp3495
sg81
g3469
sg74
(lp3496
g67
(g88
g69
NtRp3497
(dp3498
g72
(dp3499
g92
g93
ssg81
g3493
sg74
(lp3500
g302
asbag67
(g88
g69
NtRp3501
(dp3502
g72
(dp3503
g99
g100
ssg81
g3493
sg74
(lp3504
S':'
asbag67
(g88
g69
NtRp3505
(dp3506
g72
(dp3507
sg81
g3493
sg74
(lp3508
g67
(g68
g69
NtRp3509
(dp3510
g72
(dp3511
g80
I3
ssg81
g3505
sg74
(lp3512
S''
asbasbasbag67
(g83
g69
NtRp3513
(dp3514
g72
(dp3515
sg81
g3469
sg74
(lp3516
g67
(g88
g69
NtRp3517
(dp3518
g72
(dp3519
g92
g93
ssg81
g3513
sg74
(lp3520
g323
asbag67
(g88
g69
NtRp3521
(dp3522
g72
(dp3523
g99
g100
ssg81
g3513
sg74
(lp3524
S':'
asbag67
(g88
g69
NtRp3525
(dp3526
g72
(dp3527
sg81
g3513
sg74
(lp3528
g67
(g68
g69
NtRp3529
(dp3530
g72
(dp3531
g80
I3
ssg81
g3525
sg74
(lp3532
S''
asbasbasbag67
(g83
g69
NtRp3533
(dp3534
g72
(dp3535
sg81
g3469
sg74
(lp3536
g67
(g88
g69
NtRp3537
(dp3538
g72
(dp3539
g92
g93
ssg81
g3533
sg74
(lp3540
g344
asbag67
(g88
g69
NtRp3541
(dp3542
g72
(dp3543
g99
g100
ssg81
g3533
sg74
(lp3544
S':'
asbag67
(g88
g69
NtRp3545
(dp3546
g72
(dp3547
sg81
g3533
sg74
(lp3548
g67
(g68
g69
NtRp3549
(dp3550
g72
(dp3551
g80
I3
ssg81
g3545
sg74
(lp3552
S''
asbasbasbag67
(g83
g69
NtRp3553
(dp3554
g72
(dp3555
sg81
g3469
sg74
(lp3556
g67
(g88
g69
NtRp3557
(dp3558
g72
(dp3559
g92
g93
ssg81
g3553
sg74
(lp3560
g365
asbag67
(g88
g69
NtRp3561
(dp3562
g72
(dp3563
g99
g100
ssg81
g3553
sg74
(lp3564
S':'
asbag67
(g88
g69
NtRp3565
(dp3566
g72
(dp3567
sg81
g3553
sg74
(lp3568
g67
(g68
g69
NtRp3569
(dp3570
g72
(dp3571
g80
I3
ssg81
g3565
sg74
(lp3572
S''
asbasbasbag67
(g83
g69
NtRp3573
(dp3574
g72
(dp3575
sg81
g3469
sg74
(lp3576
g67
(g88
g69
NtRp3577
(dp3578
g72
(dp3579
g92
g93
ssg81
g3573
sg74
(lp3580
g386
asbag67
(g88
g69
NtRp3581
(dp3582
g72
(dp3583
g99
g100
ssg81
g3573
sg74
(lp3584
S':'
asbag67
(g88
g69
NtRp3585
(dp3586
g72
(dp3587
sg81
g3573
sg74
(lp3588
g67
(g68
g69
NtRp3589
(dp3590
g72
(dp3591
g80
I3
ssg81
g3585
sg74
(lp3592
S'/'
asbasbasbag67
(g83
g69
NtRp3593
(dp3594
g72
(dp3595
sg81
g3469
sg74
(lp3596
g67
(g88
g69
NtRp3597
(dp3598
g72
(dp3599
g92
g93
ssg81
g3593
sg74
(lp3600
g407
asbag67
(g88
g69
NtRp3601
(dp3602
g72
(dp3603
g99
g100
ssg81
g3593
sg74
(lp3604
S':'
asbag67
(g88
g69
NtRp3605
(dp3606
g72
(dp3607
sg81
g3593
sg74
(lp3608
g67
(g68
g69
NtRp3609
(dp3610
g72
(dp3611
g80
I3
ssg81
g3605
sg74
(lp3612
S''
asbasbasbag67
(g83
g69
NtRp3613
(dp3614
g72
(dp3615
sg81
g3469
sg74
(lp3616
g67
(g88
g69
NtRp3617
(dp3618
g72
(dp3619
g92
g93
ssg81
g3613
sg74
(lp3620
g428
asbag67
(g88
g69
NtRp3621
(dp3622
g72
(dp3623
g99
g100
ssg81
g3613
sg74
(lp3624
S':'
asbag67
(g88
g69
NtRp3625
(dp3626
g72
(dp3627
sg81
g3613
sg74
(lp3628
g67
(g68
g69
NtRp3629
(dp3630
g72
(dp3631
g80
I3
ssg81
g3625
sg74
(lp3632
S''
asbasbasbasbasbasbasbasbasbasbasbag67
(g83
g69
NtRp3633
(dp3634
g72
(dp3635
sg81
g3399
sg74
(lp3636
g67
(g88
g69
NtRp3637
(dp3638
g72
(dp3639
g92
g93
ssg81
g3633
sg74
(lp3640
S'files'
p3641
asbag67
(g88
g69
NtRp3642
(dp3643
g72
(dp3644
g99
g100
ssg81
g3633
sg74
(lp3645
S':'
asbag67
(g88
g69
NtRp3646
(dp3647
g72
(dp3648
sg81
g3633
sg74
(lp3649
g67
(g68
g69
NtRp3650
(dp3651
g72
(dp3652
g80
I5
ssg81
g3646
sg74
(lp3653
g67
(g76
g69
NtRp3654
(dp3655
g72
(dp3656
g80
I4
ssg81
Nsg74
(lp3657
sbasbasbasbag67
(g83
g69
NtRp3658
(dp3659
g72
(dp3660
sg81
g3399
sg74
(lp3661
g67
(g88
g69
NtRp3662
(dp3663
g72
(dp3664
g92
g93
ssg81
g3658
sg74
(lp3665
S'flash'
p3666
asbag67
(g88
g69
NtRp3667
(dp3668
g72
(dp3669
g99
g100
ssg81
g3658
sg74
(lp3670
S':'
asbag67
(g88
g69
NtRp3671
(dp3672
g72
(dp3673
sg81
g3658
sg74
(lp3674
g67
(g68
g69
NtRp3675
(dp3676
g72
(dp3677
g80
I5
ssg81
g3671
sg74
(lp3678
S''
asbasbasbag67
(g83
g69
NtRp3679
(dp3680
g72
(dp3681
sg81
g3399
sg74
(lp3682
g67
(g88
g69
NtRp3683
(dp3684
g72
(dp3685
g92
g93
ssg81
g3679
sg74
(lp3686
S'generic_patterns'
p3687
asbag67
(g88
g69
NtRp3688
(dp3689
g72
(dp3690
g99
g100
ssg81
g3679
sg74
(lp3691
S':'
asbag67
(g88
g69
NtRp3692
(dp3693
g72
(dp3694
sg81
g3679
sg74
(lp3695
g67
(g68
g69
NtRp3696
(dp3697
g72
(dp3698
g80
I5
ssg81
g3692
sg74
(lp3699
g67
(g76
g69
NtRp3700
(dp3701
g72
(dp3702
g80
I4
ssg81
Nsg74
(lp3703
g67
(g83
g69
NtRp3704
(dp3705
g72
(dp3706
sg81
g3700
sg74
(lp3707
g67
(g88
g69
NtRp3708
(dp3709
g72
(dp3710
sg81
g3704
sg74
(lp3711
g67
(g68
g69
NtRp3712
(dp3713
g72
(dp3714
g80
I4
ssg81
g3708
sg74
(lp3715
S'*'
asbasbasbasbasbasbasbag67
(g83
g69
NtRp3716
(dp3717
g72
(dp3718
sg81
g3399
sg74
(lp3719
g67
(g88
g69
NtRp3720
(dp3721
g72
(dp3722
g92
g93
ssg81
g3716
sg74
(lp3723
S'headers'
p3724
asbag67
(g88
g69
NtRp3725
(dp3726
g72
(dp3727
g99
g100
ssg81
g3716
sg74
(lp3728
S':'
asbag67
(g88
g69
NtRp3729
(dp3730
g72
(dp3731
sg81
g3716
sg74
(lp3732
g67
(g68
g69
NtRp3733
(dp3734
g72
(dp3735
g80
I5
ssg81
g3729
sg74
(lp3736
g67
(g76
g69
NtRp3737
(dp3738
g72
(dp3739
g80
I4
ssg81
Nsg74
(lp3740
g67
(g83
g69
NtRp3741
(dp3742
g72
(dp3743
sg81
g3737
sg74
(lp3744
g67
(g88
g69
NtRp3745
(dp3746
g72
(dp3747
g92
g93
ssg81
g3741
sg74
(lp3748
S'Cache-Control'
p3749
asbag67
(g88
g69
NtRp3750
(dp3751
g72
(dp3752
g99
g100
ssg81
g3741
sg74
(lp3753
S':'
asbag67
(g88
g69
NtRp3754
(dp3755
g72
(dp3756
sg81
g3741
sg74
(lp3757
g67
(g68
g69
NtRp3758
(dp3759
g72
(dp3760
g80
I4
ssg81
g3754
sg74
(lp3761
S'no-store, no-cache, must-revalidate, post-check=0, pre-check=0'
p3762
asbasbasbag67
(g83
g69
NtRp3763
(dp3764
g72
(dp3765
sg81
g3737
sg74
(lp3766
g67
(g88
g69
NtRp3767
(dp3768
g72
(dp3769
g92
g93
ssg81
g3763
sg74
(lp3770
S'Content-Type'
p3771
asbag67
(g88
g69
NtRp3772
(dp3773
g72
(dp3774
g99
g100
ssg81
g3763
sg74
(lp3775
S':'
asbag67
(g88
g69
NtRp3776
(dp3777
g72
(dp3778
sg81
g3763
sg74
(lp3779
g67
(g68
g69
NtRp3780
(dp3781
g72
(dp3782
g80
I4
ssg81
g3776
sg74
(lp3783
S'text/html; charset=utf-8'
p3784
asbasbasbag67
(g83
g69
NtRp3785
(dp3786
g72
(dp3787
sg81
g3737
sg74
(lp3788
g67
(g88
g69
NtRp3789
(dp3790
g72
(dp3791
g92
g93
ssg81
g3785
sg74
(lp3792
S'Expires'
p3793
asbag67
(g88
g69
NtRp3794
(dp3795
g72
(dp3796
g99
g100
ssg81
g3785
sg74
(lp3797
S':'
asbag67
(g88
g69
NtRp3798
(dp3799
g72
(dp3800
sg81
g3785
sg74
(lp3801
g67
(g68
g69
NtRp3802
(dp3803
g72
(dp3804
g80
I4
ssg81
g3798
sg74
(lp3805
S'Thu, 03 Nov 2011 09:34:11 GMT'
p3806
asbasbasbag67
(g83
g69
NtRp3807
(dp3808
g72
(dp3809
sg81
g3737
sg74
(lp3810
g67
(g88
g69
NtRp3811
(dp3812
g72
(dp3813
g92
g93
ssg81
g3807
sg74
(lp3814
S'Pragma'
p3815
asbag67
(g88
g69
NtRp3816
(dp3817
g72
(dp3818
g99
g100
ssg81
g3807
sg74
(lp3819
S':'
asbag67
(g88
g69
NtRp3820
(dp3821
g72
(dp3822
sg81
g3807
sg74
(lp3823
g67
(g68
g69
NtRp3824
(dp3825
g72
(dp3826
g80
I4
ssg81
g3820
sg74
(lp3827
S'no-cache'
p3828
asbasbasbag67
(g83
g69
NtRp3829
(dp3830
g72
(dp3831
sg81
g3737
sg74
(lp3832
g67
(g88
g69
NtRp3833
(dp3834
g72
(dp3835
g92
g93
ssg81
g3829
sg74
(lp3836
S'X-Powered-By'
p3837
asbag67
(g88
g69
NtRp3838
(dp3839
g72
(dp3840
g99
g100
ssg81
g3829
sg74
(lp3841
S':'
asbag67
(g88
g69
NtRp3842
(dp3843
g72
(dp3844
sg81
g3829
sg74
(lp3845
g67
(g68
g69
NtRp3846
(dp3847
g72
(dp3848
g80
I4
ssg81
g3842
sg74
(lp3849
S'web2py'
p3850
asbasbasbasbasbasbasbag67
(g83
g69
NtRp3851
(dp3852
g72
(dp3853
sg81
g3399
sg74
(lp3854
g67
(g88
g69
NtRp3855
(dp3856
g72
(dp3857
g92
g93
ssg81
g3851
sg74
(lp3858
S'menu'
p3859
asbag67
(g88
g69
NtRp3860
(dp3861
g72
(dp3862
g99
g100
ssg81
g3851
sg74
(lp3863
S':'
asbag67
(g88
g69
NtRp3864
(dp3865
g72
(dp3866
sg81
g3851
sg74
(lp3867
g67
(g68
g69
NtRp3868
(dp3869
g72
(dp3870
g80
I5
ssg81
g3864
sg74
(lp3871
g67
(g76
g69
NtRp3872
(dp3873
g72
(dp3874
g80
I4
ssg81
Nsg74
(lp3875
g67
(g83
g69
NtRp3876
(dp3877
g72
(dp3878
sg81
g3872
sg74
(lp3879
g67
(g88
g69
NtRp3880
(dp3881
g72
(dp3882
sg81
g3876
sg74
(lp3883
g67
(g68
g69
NtRp3884
(dp3885
g72
(dp3886
g80
I4
ssg81
g3880
sg74
(lp3887
g67
(g76
g69
NtRp3888
(dp3889
g72
(dp3890
g80
I3
ssg81
Nsg74
(lp3891
g67
(g83
g69
NtRp3892
(dp3893
g72
(dp3894
sg81
g3888
sg74
(lp3895
g67
(g88
g69
NtRp3896
(dp3897
g72
(dp3898
sg81
g3892
sg74
(lp3899
g67
(g68
g69
NtRp3900
(dp3901
g72
(dp3902
g80
I3
ssg81
g3896
sg74
(lp3903
cgluon.languages
lazyT_unpickle
p3904
(S's\x04\x00\x00\x00Home'
tRp3905
asbasbasbag67
(g83
g69
NtRp3906
(dp3907
g72
(dp3908
sg81
g3888
sg74
(lp3909
g67
(g88
g69
NtRp3910
(dp3911
g72
(dp3912
sg81
g3906
sg74
(lp3913
g67
(g68
g69
NtRp3914
(dp3915
g72
(dp3916
g80
I3
ssg81
g3910
sg74
(lp3917
g1177
asbasbasbag67
(g83
g69
NtRp3918
(dp3919
g72
(dp3920
sg81
g3888
sg74
(lp3921
g67
(g88
g69
NtRp3922
(dp3923
g72
(dp3924
sg81
g3918
sg74
(lp3925
g67
(g68
g69
NtRp3926
(dp3927
g72
(dp3928
g80
I3
ssg81
g3922
sg74
(lp3929
S'/gallery/default/index'
p3930
asbasbasbag67
(g83
g69
NtRp3931
(dp3932
g72
(dp3933
sg81
g3888
sg74
(lp3934
g67
(g88
g69
NtRp3935
(dp3936
g72
(dp3937
sg81
g3931
sg74
(lp3938
g67
(g68
g69
NtRp3939
(dp3940
g72
(dp3941
g80
I3
ssg81
g3935
sg74
(lp3942
g67
(g76
g69
NtRp3943
(dp3944
g72
(dp3945
g80
I2
ssg81
Nsg74
(lp3946
sbasbasbasbasbasbasbasbag67
(g83
g69
NtRp3947
(dp3948
g72
(dp3949
sg81
g3872
sg74
(lp3950
g67
(g88
g69
NtRp3951
(dp3952
g72
(dp3953
sg81
g3947
sg74
(lp3954
g67
(g68
g69
NtRp3955
(dp3956
g72
(dp3957
g80
I4
ssg81
g3951
sg74
(lp3958
g67
(g76
g69
NtRp3959
(dp3960
g72
(dp3961
g80
I3
ssg81
Nsg74
(lp3962
g67
(g83
g69
NtRp3963
(dp3964
g72
(dp3965
sg81
g3959
sg74
(lp3966
g67
(g88
g69
NtRp3967
(dp3968
g72
(dp3969
sg81
g3963
sg74
(lp3970
g67
(g68
g69
NtRp3971
(dp3972
g72
(dp3973
g80
I3
ssg81
g3967
sg74
(lp3974
g3904
(S's\r\x00\x00\x00Gallery - CSS'
tRp3975
asbasbasbag67
(g83
g69
NtRp3976
(dp3977
g72
(dp3978
sg81
g3959
sg74
(lp3979
g67
(g88
g69
NtRp3980
(dp3981
g72
(dp3982
sg81
g3976
sg74
(lp3983
g67
(g68
g69
NtRp3984
(dp3985
g72
(dp3986
g80
I3
ssg81
g3980
sg74
(lp3987
g1177
asbasbasbag67
(g83
g69
NtRp3988
(dp3989
g72
(dp3990
sg81
g3959
sg74
(lp3991
g67
(g88
g69
NtRp3992
(dp3993
g72
(dp3994
sg81
g3988
sg74
(lp3995
g67
(g68
g69
NtRp3996
(dp3997
g72
(dp3998
g80
I3
ssg81
g3992
sg74
(lp3999
S'/gallery/default/showcss'
p4000
asbasbasbag67
(g83
g69
NtRp4001
(dp4002
g72
(dp4003
sg81
g3959
sg74
(lp4004
g67
(g88
g69
NtRp4005
(dp4006
g72
(dp4007
sg81
g4001
sg74
(lp4008
g67
(g68
g69
NtRp4009
(dp4010
g72
(dp4011
g80
I3
ssg81
g4005
sg74
(lp4012
g67
(g76
g69
NtRp4013
(dp4014
g72
(dp4015
g80
I2
ssg81
Nsg74
(lp4016
sbasbasbasbasbasbasbasbag67
(g83
g69
NtRp4017
(dp4018
g72
(dp4019
sg81
g3872
sg74
(lp4020
g67
(g88
g69
NtRp4021
(dp4022
g72
(dp4023
sg81
g4017
sg74
(lp4024
g67
(g68
g69
NtRp4025
(dp4026
g72
(dp4027
g80
I4
ssg81
g4021
sg74
(lp4028
g67
(g76
g69
NtRp4029
(dp4030
g72
(dp4031
g80
I3
ssg81
Nsg74
(lp4032
g67
(g83
g69
NtRp4033
(dp4034
g72
(dp4035
sg81
g4029
sg74
(lp4036
g67
(g88
g69
NtRp4037
(dp4038
g72
(dp4039
sg81
g4033
sg74
(lp4040
g67
(g68
g69
NtRp4041
(dp4042
g72
(dp4043
g80
I3
ssg81
g4037
sg74
(lp4044
g3904
(S's\x10\x00\x00\x00Gallery - JQuery'
tRp4045
asbasbasbag67
(g83
g69
NtRp4046
(dp4047
g72
(dp4048
sg81
g4029
sg74
(lp4049
g67
(g88
g69
NtRp4050
(dp4051
g72
(dp4052
sg81
g4046
sg74
(lp4053
g67
(g68
g69
NtRp4054
(dp4055
g72
(dp4056
g80
I3
ssg81
g4050
sg74
(lp4057
g1177
asbasbasbag67
(g83
g69
NtRp4058
(dp4059
g72
(dp4060
sg81
g4029
sg74
(lp4061
g67
(g88
g69
NtRp4062
(dp4063
g72
(dp4064
sg81
g4058
sg74
(lp4065
g67
(g68
g69
NtRp4066
(dp4067
g72
(dp4068
g80
I3
ssg81
g4062
sg74
(lp4069
S'/gallery/default/showjq'
p4070
asbasbasbag67
(g83
g69
NtRp4071
(dp4072
g72
(dp4073
sg81
g4029
sg74
(lp4074
g67
(g88
g69
NtRp4075
(dp4076
g72
(dp4077
sg81
g4071
sg74
(lp4078
g67
(g68
g69
NtRp4079
(dp4080
g72
(dp4081
g80
I3
ssg81
g4075
sg74
(lp4082
g67
(g76
g69
NtRp4083
(dp4084
g72
(dp4085
g80
I2
ssg81
Nsg74
(lp4086
sbasbasbasbasbasbasbasbag67
(g83
g69
NtRp4087
(dp4088
g72
(dp4089
sg81
g3872
sg74
(lp4090
g67
(g88
g69
NtRp4091
(dp4092
g72
(dp4093
sg81
g4087
sg74
(lp4094
g67
(g68
g69
NtRp4095
(dp4096
g72
(dp4097
g80
I4
ssg81
g4091
sg74
(lp4098
g67
(g76
g69
NtRp4099
(dp4100
g72
(dp4101
g80
I3
ssg81
Nsg74
(lp4102
g67
(g83
g69
NtRp4103
(dp4104
g72
(dp4105
sg81
g4099
sg74
(lp4106
g67
(g88
g69
NtRp4107
(dp4108
g72
(dp4109
sg81
g4103
sg74
(lp4110
g67
(g68
g69
NtRp4111
(dp4112
g72
(dp4113
g80
I3
ssg81
g4107
sg74
(lp4114
g3904
(S's\x0e\x00\x00\x00Gallery - Dojo'
tRp4115
asbasbasbag67
(g83
g69
NtRp4116
(dp4117
g72
(dp4118
sg81
g4099
sg74
(lp4119
g67
(g88
g69
NtRp4120
(dp4121
g72
(dp4122
sg81
g4116
sg74
(lp4123
g67
(g68
g69
NtRp4124
(dp4125
g72
(dp4126
g80
I3
ssg81
g4120
sg74
(lp4127
g1177
asbasbasbag67
(g83
g69
NtRp4128
(dp4129
g72
(dp4130
sg81
g4099
sg74
(lp4131
g67
(g88
g69
NtRp4132
(dp4133
g72
(dp4134
sg81
g4128
sg74
(lp4135
g67
(g68
g69
NtRp4136
(dp4137
g72
(dp4138
g80
I3
ssg81
g4132
sg74
(lp4139
S'/gallery/default/index'
p4140
asbasbasbag67
(g83
g69
NtRp4141
(dp4142
g72
(dp4143
sg81
g4099
sg74
(lp4144
g67
(g88
g69
NtRp4145
(dp4146
g72
(dp4147
sg81
g4141
sg74
(lp4148
g67
(g68
g69
NtRp4149
(dp4150
g72
(dp4151
g80
I3
ssg81
g4145
sg74
(lp4152
g67
(g76
g69
NtRp4153
(dp4154
g72
(dp4155
g80
I2
ssg81
Nsg74
(lp4156
sbasbasbasbasbasbasbasbag67
(g83
g69
NtRp4157
(dp4158
g72
(dp4159
sg81
g3872
sg74
(lp4160
g67
(g88
g69
NtRp4161
(dp4162
g72
(dp4163
sg81
g4157
sg74
(lp4164
g67
(g68
g69
NtRp4165
(dp4166
g72
(dp4167
g80
I4
ssg81
g4161
sg74
(lp4168
g67
(g76
g69
NtRp4169
(dp4170
g72
(dp4171
g80
I3
ssg81
Nsg74
(lp4172
g67
(g83
g69
NtRp4173
(dp4174
g72
(dp4175
sg81
g4169
sg74
(lp4176
g67
(g88
g69
NtRp4177
(dp4178
g72
(dp4179
sg81
g4173
sg74
(lp4180
g67
(g68
g69
NtRp4181
(dp4182
g72
(dp4183
g80
I3
ssg81
g4177
sg74
(lp4184
g3904
(S's\x11\x00\x00\x00AjaxSearch - Dojo'
tRp4185
asbasbasbag67
(g83
g69
NtRp4186
(dp4187
g72
(dp4188
sg81
g4169
sg74
(lp4189
g67
(g88
g69
NtRp4190
(dp4191
g72
(dp4192
sg81
g4186
sg74
(lp4193
g67
(g68
g69
NtRp4194
(dp4195
g72
(dp4196
g80
I3
ssg81
g4190
sg74
(lp4197
g1177
asbasbasbag67
(g83
g69
NtRp4198
(dp4199
g72
(dp4200
sg81
g4169
sg74
(lp4201
g67
(g88
g69
NtRp4202
(dp4203
g72
(dp4204
sg81
g4198
sg74
(lp4205
g67
(g68
g69
NtRp4206
(dp4207
g72
(dp4208
g80
I3
ssg81
g4202
sg74
(lp4209
S'/gallery/default/sendform'
p4210
asbasbasbag67
(g83
g69
NtRp4211
(dp4212
g72
(dp4213
sg81
g4169
sg74
(lp4214
g67
(g88
g69
NtRp4215
(dp4216
g72
(dp4217
sg81
g4211
sg74
(lp4218
g67
(g68
g69
NtRp4219
(dp4220
g72
(dp4221
g80
I3
ssg81
g4215
sg74
(lp4222
g67
(g76
g69
NtRp4223
(dp4224
g72
(dp4225
g80
I2
ssg81
Nsg74
(lp4226
sbasbasbasbasbasbasbasbag67
(g83
g69
NtRp4227
(dp4228
g72
(dp4229
sg81
g3872
sg74
(lp4230
g67
(g88
g69
NtRp4231
(dp4232
g72
(dp4233
sg81
g4227
sg74
(lp4234
g67
(g68
g69
NtRp4235
(dp4236
g72
(dp4237
g80
I4
ssg81
g4231
sg74
(lp4238
g67
(g76
g69
NtRp4239
(dp4240
g72
(dp4241
g80
I3
ssg81
Nsg74
(lp4242
g67
(g83
g69
NtRp4243
(dp4244
g72
(dp4245
sg81
g4239
sg74
(lp4246
g67
(g88
g69
NtRp4247
(dp4248
g72
(dp4249
sg81
g4243
sg74
(lp4250
g67
(g68
g69
NtRp4251
(dp4252
g72
(dp4253
g80
I3
ssg81
g4247
sg74
(lp4254
g3904
(S's\x05\x00\x00\x00Admin'
tRp4255
asbasbasbag67
(g83
g69
NtRp4256
(dp4257
g72
(dp4258
sg81
g4239
sg74
(lp4259
g67
(g88
g69
NtRp4260
(dp4261
g72
(dp4262
sg81
g4256
sg74
(lp4263
g67
(g68
g69
NtRp4264
(dp4265
g72
(dp4266
g80
I3
ssg81
g4260
sg74
(lp4267
g1177
asbasbasbag67
(g83
g69
NtRp4268
(dp4269
g72
(dp4270
sg81
g4239
sg74
(lp4271
g67
(g88
g69
NtRp4272
(dp4273
g72
(dp4274
sg81
g4268
sg74
(lp4275
g67
(g68
g69
NtRp4276
(dp4277
g72
(dp4278
g80
I3
ssg81
g4272
sg74
(lp4279
S'/admin/default/index'
p4280
asbasbasbag67
(g83
g69
NtRp4281
(dp4282
g72
(dp4283
sg81
g4239
sg74
(lp4284
g67
(g88
g69
NtRp4285
(dp4286
g72
(dp4287
sg81
g4281
sg74
(lp4288
g67
(g68
g69
NtRp4289
(dp4290
g72
(dp4291
g80
I3
ssg81
g4285
sg74
(lp4292
g67
(g76
g69
NtRp4293
(dp4294
g72
(dp4295
g80
I2
ssg81
Nsg74
(lp4296
sbasbasbasbasbasbasbasbasbasbasbasbag67
(g83
g69
NtRp4297
(dp4298
g72
(dp4299
sg81
g3399
sg74
(lp4300
g67
(g88
g69
NtRp4301
(dp4302
g72
(dp4303
g92
g93
ssg81
g4297
sg74
(lp4304
S'meta'
p4305
asbag67
(g88
g69
NtRp4306
(dp4307
g72
(dp4308
g99
g100
ssg81
g4297
sg74
(lp4309
S':'
asbag67
(g88
g69
NtRp4310
(dp4311
g72
(dp4312
sg81
g4297
sg74
(lp4313
g67
(g68
g69
NtRp4314
(dp4315
g72
(dp4316
g80
I5
ssg81
g4310
sg74
(lp4317
g67
(g76
g69
NtRp4318
(dp4319
g72
(dp4320
g80
I4
ssg81
Nsg74
(lp4321
g67
(g83
g69
NtRp4322
(dp4323
g72
(dp4324
sg81
g4318
sg74
(lp4325
g67
(g88
g69
NtRp4326
(dp4327
g72
(dp4328
g92
g93
ssg81
g4322
sg74
(lp4329
S'author'
p4330
asbag67
(g88
g69
NtRp4331
(dp4332
g72
(dp4333
g99
g100
ssg81
g4322
sg74
(lp4334
S':'
asbag67
(g88
g69
NtRp4335
(dp4336
g72
(dp4337
sg81
g4322
sg74
(lp4338
g67
(g68
g69
NtRp4339
(dp4340
g72
(dp4341
g80
I4
ssg81
g4335
sg74
(lp4342
S'Your Name <you@example.com>'
p4343
asbasbasbag67
(g83
g69
NtRp4344
(dp4345
g72
(dp4346
sg81
g4318
sg74
(lp4347
g67
(g88
g69
NtRp4348
(dp4349
g72
(dp4350
g92
g93
ssg81
g4344
sg74
(lp4351
S'copyright'
p4352
asbag67
(g88
g69
NtRp4353
(dp4354
g72
(dp4355
g99
g100
ssg81
g4344
sg74
(lp4356
S':'
asbag67
(g88
g69
NtRp4357
(dp4358
g72
(dp4359
sg81
g4344
sg74
(lp4360
g67
(g68
g69
NtRp4361
(dp4362
g72
(dp4363
g80
I4
ssg81
g4357
sg74
(lp4364
S'Copyright 2011'
p4365
asbasbasbag67
(g83
g69
NtRp4366
(dp4367
g72
(dp4368
sg81
g4318
sg74
(lp4369
g67
(g88
g69
NtRp4370
(dp4371
g72
(dp4372
g92
g93
ssg81
g4366
sg74
(lp4373
S'description'
p4374
asbag67
(g88
g69
NtRp4375
(dp4376
g72
(dp4377
g99
g100
ssg81
g4366
sg74
(lp4378
S':'
asbag67
(g88
g69
NtRp4379
(dp4380
g72
(dp4381
sg81
g4366
sg74
(lp4382
g67
(g68
g69
NtRp4383
(dp4384
g72
(dp4385
g80
I4
ssg81
g4379
sg74
(lp4386
S'a cool new app'
p4387
asbasbasbag67
(g83
g69
NtRp4388
(dp4389
g72
(dp4390
sg81
g4318
sg74
(lp4391
g67
(g88
g69
NtRp4392
(dp4393
g72
(dp4394
g92
g93
ssg81
g4388
sg74
(lp4395
S'generator'
p4396
asbag67
(g88
g69
NtRp4397
(dp4398
g72
(dp4399
g99
g100
ssg81
g4388
sg74
(lp4400
S':'
asbag67
(g88
g69
NtRp4401
(dp4402
g72
(dp4403
sg81
g4388
sg74
(lp4404
g67
(g68
g69
NtRp4405
(dp4406
g72
(dp4407
g80
I4
ssg81
g4401
sg74
(lp4408
S'Web2py Web Framework'
p4409
asbasbasbag67
(g83
g69
NtRp4410
(dp4411
g72
(dp4412
sg81
g4318
sg74
(lp4413
g67
(g88
g69
NtRp4414
(dp4415
g72
(dp4416
g92
g93
ssg81
g4410
sg74
(lp4417
S'keywords'
p4418
asbag67
(g88
g69
NtRp4419
(dp4420
g72
(dp4421
g99
g100
ssg81
g4410
sg74
(lp4422
S':'
asbag67
(g88
g69
NtRp4423
(dp4424
g72
(dp4425
sg81
g4410
sg74
(lp4426
g67
(g68
g69
NtRp4427
(dp4428
g72
(dp4429
g80
I4
ssg81
g4423
sg74
(lp4430
S'web2py, python, framework'
p4431
asbasbasbasbasbasbasbag67
(g83
g69
NtRp4432
(dp4433
g72
(dp4434
sg81
g3399
sg74
(lp4435
g67
(g88
g69
NtRp4436
(dp4437
g72
(dp4438
g92
g93
ssg81
g4432
sg74
(lp4439
S'postprocessing'
p4440
asbag67
(g88
g69
NtRp4441
(dp4442
g72
(dp4443
g99
g100
ssg81
g4432
sg74
(lp4444
S':'
asbag67
(g88
g69
NtRp4445
(dp4446
g72
(dp4447
sg81
g4432
sg74
(lp4448
g67
(g68
g69
NtRp4449
(dp4450
g72
(dp4451
g80
I5
ssg81
g4445
sg74
(lp4452
g67
(g76
g69
NtRp4453
(dp4454
g72
(dp4455
g80
I4
ssg81
Nsg74
(lp4456
sbasbasbasbag67
(g83
g69
NtRp4457
(dp4458
g72
(dp4459
sg81
g3399
sg74
(lp4460
g67
(g88
g69
NtRp4461
(dp4462
g72
(dp4463
g92
g93
ssg81
g4457
sg74
(lp4464
S'session_filename'
p4465
asbag67
(g88
g69
NtRp4466
(dp4467
g72
(dp4468
g99
g100
ssg81
g4457
sg74
(lp4469
S':'
asbag67
(g88
g69
NtRp4470
(dp4471
g72
(dp4472
sg81
g4457
sg74
(lp4473
g67
(g68
g69
NtRp4474
(dp4475
g72
(dp4476
g80
I5
ssg81
g4470
sg74
(lp4477
S'/home/brencam/web2py/applications/gallery/sessions/127.0.0.1-b2a2ce48-6323-4ba8-b86b-b54b65d8fc73'
p4478
asbasbasbag67
(g83
g69
NtRp4479
(dp4480
g72
(dp4481
sg81
g3399
sg74
(lp4482
g67
(g88
g69
NtRp4483
(dp4484
g72
(dp4485
g92
g93
ssg81
g4479
sg74
(lp4486
S'session_id'
p4487
asbag67
(g88
g69
NtRp4488
(dp4489
g72
(dp4490
g99
g100
ssg81
g4479
sg74
(lp4491
S':'
asbag67
(g88
g69
NtRp4492
(dp4493
g72
(dp4494
sg81
g4479
sg74
(lp4495
g67
(g68
g69
NtRp4496
(dp4497
g72
(dp4498
g80
I5
ssg81
g4492
sg74
(lp4499
S'127.0.0.1-b2a2ce48-6323-4ba8-b86b-b54b65d8fc73'
p4500
asbasbasbag67
(g83
g69
NtRp4501
(dp4502
g72
(dp4503
sg81
g3399
sg74
(lp4504
g67
(g88
g69
NtRp4505
(dp4506
g72
(dp4507
g92
g93
ssg81
g4501
sg74
(lp4508
S'session_id_name'
p4509
asbag67
(g88
g69
NtRp4510
(dp4511
g72
(dp4512
g99
g100
ssg81
g4501
sg74
(lp4513
S':'
asbag67
(g88
g69
NtRp4514
(dp4515
g72
(dp4516
sg81
g4501
sg74
(lp4517
g67
(g68
g69
NtRp4518
(dp4519
g72
(dp4520
g80
I5
ssg81
g4514
sg74
(lp4521
g3456
asbasbasbag67
(g83
g69
NtRp4522
(dp4523
g72
(dp4524
sg81
g3399
sg74
(lp4525
g67
(g88
g69
NtRp4526
(dp4527
g72
(dp4528
g92
g93
ssg81
g4522
sg74
(lp4529
S'session_new'
p4530
asbag67
(g88
g69
NtRp4531
(dp4532
g72
(dp4533
g99
g100
ssg81
g4522
sg74
(lp4534
S':'
asbag67
(g88
g69
NtRp4535
(dp4536
g72
(dp4537
sg81
g4522
sg74
(lp4538
g67
(g68
g69
NtRp4539
(dp4540
g72
(dp4541
g80
I5
ssg81
g4535
sg74
(lp4542
g110
asbasbasbag67
(g83
g69
NtRp4543
(dp4544
g72
(dp4545
sg81
g3399
sg74
(lp4546
g67
(g88
g69
NtRp4547
(dp4548
g72
(dp4549
g92
g93
ssg81
g4543
sg74
(lp4550
S'status'
p4551
asbag67
(g88
g69
NtRp4552
(dp4553
g72
(dp4554
g99
g100
ssg81
g4543
sg74
(lp4555
S':'
asbag67
(g88
g69
NtRp4556
(dp4557
g72
(dp4558
sg81
g4543
sg74
(lp4559
g67
(g68
g69
NtRp4560
(dp4561
g72
(dp4562
g80
I5
ssg81
g4556
sg74
(lp4563
S'200'
p4564
asbasbasbag67
(g83
g69
NtRp4565
(dp4566
g72
(dp4567
sg81
g3399
sg74
(lp4568
g67
(g88
g69
NtRp4569
(dp4570
g72
(dp4571
g92
g93
ssg81
g4565
sg74
(lp4572
S'subtitle'
p4573
asbag67
(g88
g69
NtRp4574
(dp4575
g72
(dp4576
g99
g100
ssg81
g4565
sg74
(lp4577
S':'
asbag67
(g88
g69
NtRp4578
(dp4579
g72
(dp4580
sg81
g4565
sg74
(lp4581
g67
(g68
g69
NtRp4582
(dp4583
g72
(dp4584
g80
I5
ssg81
g4578
sg74
(lp4585
g3904
(S's1\x00\x00\x00Web2py and CSS, JQuery vs Dojo Image Gallery Demo'
tRp4586
asbasbasbag67
(g83
g69
NtRp4587
(dp4588
g72
(dp4589
sg81
g3399
sg74
(lp4590
g67
(g88
g69
NtRp4591
(dp4592
g72
(dp4593
g92
g93
ssg81
g4587
sg74
(lp4594
S'title'
p4595
asbag67
(g88
g69
NtRp4596
(dp4597
g72
(dp4598
g99
g100
ssg81
g4587
sg74
(lp4599
S':'
asbag67
(g88
g69
NtRp4600
(dp4601
g72
(dp4602
sg81
g4587
sg74
(lp4603
g67
(g68
g69
NtRp4604
(dp4605
g72
(dp4606
g80
I5
ssg81
g4600
sg74
(lp4607
S'My Photo Gallery Demo'
p4608
asbasbasbag67
(g83
g69
NtRp4609
(dp4610
g72
(dp4611
sg81
g3399
sg74
(lp4612
g67
(g88
g69
NtRp4613
(dp4614
g72
(dp4615
g92
g93
ssg81
g4609
sg74
(lp4616
g2582
asbag67
(g88
g69
NtRp4617
(dp4618
g72
(dp4619
g99
g100
ssg81
g4609
sg74
(lp4620
S':'
asbag67
(g88
g69
NtRp4621
(dp4622
g72
(dp4623
sg81
g4609
sg74
(lp4624
g67
(g68
g69
NtRp4625
(dp4626
g72
(dp4627
g80
I5
ssg81
g4621
sg74
(lp4628
g2595
asbasbasbag67
(g83
g69
NtRp4629
(dp4630
g72
(dp4631
sg81
g3399
sg74
(lp4632
g67
(g88
g69
NtRp4633
(dp4634
g72
(dp4635
g92
g93
ssg81
g4629
sg74
(lp4636
S'view'
p4637
asbag67
(g88
g69
NtRp4638
(dp4639
g72
(dp4640
g99
g100
ssg81
g4629
sg74
(lp4641
S':'
asbag67
(g88
g69
NtRp4642
(dp4643
g72
(dp4644
sg81
g4629
sg74
(lp4645
g67
(g68
g69
NtRp4646
(dp4647
g72
(dp4648
g80
I5
ssg81
g4642
sg74
(lp4649
S'search/getnames.html'
p4650
asbasbasbasbasbsS'locals'
p4651
(dp4652
g3
S"'/home/brencam/web2py/applications/gallery/controllers/search.py'"
p4653
sg5
S"'# Search Controller\\nimport datetime\\n\\ndef getname...]))\\n\\n\\n\\nresponse._vars=response._caller(getnames)\\n'"
p4654
sssS'traceback'
p4655
S'Traceback (most recent call last):\n  File "/home/brencam/web2py/gluon/restricted.py", line 193, in restricted\n    ccode = compile2(code,layer)\n  File "/home/brencam/web2py/gluon/restricted.py", line 179, in compile2\n    return compile(code.rstrip().replace(\'\\r\\n\',\'\\n\')+\'\\n\', layer, \'exec\')\n  File "/home/brencam/web2py/applications/gallery/controllers/search.py", line 35\n    s+= "</div>"\n    ^\nSyntaxError: invalid syntax\n'
p4656
s.