(dp1
S'output'
p2
S''
sS'layer'
p3
S'/home/brencam/web2py/applications/gallery/models/db.py'
p4
sS'code'
p5
S'# -*- coding: utf-8 -*-\n\n#########################################################################\n## This scaffolding model makes your app work on Google App Engine too\n## File is released under public domain and you can use without limitations\n#########################################################################\n\n#response.title = "My Photo Gallery Demo"\n\nif not request.env.web2py_runtime_gae:     \n    ## if NOT running on Google App Engine use SQLite or other DB\n    db = DAL(\'sqlite://storage.sqlite\') \nelse:\n    ## connect to Google BigTable (optional \'google:datastore://namespace\')\n    db = DAL(\'google:datastore\') \n    ## store sessions and tickets there\n    session.connect(request, response, db = db) \n    ## or store session in Memcache, Redis, etc.\n    ## from gluon.contrib.memdb import MEMDB\n    ## from google.appengine.api.memcache import Client\n    ## session.connect(request, response, db = MEMDB(Client()))\n\n## by default give a view/generic.extension to all actions from localhost\n## none otherwise. a pattern can be \'controller/function.extension\'\nresponse.generic_patterns = [\'*\'] if request.is_local else []\n\n#########################################################################\n## Here is sample code if you need for\n## - email capabilities\n## - authentication (registration, login, logout, ... )\n## - authorization (role based authorization)\n## - services (xml, csv, json, xmlrpc, jsonrpc, amf, rss)\n## - old style crud actions\n## (more options discussed in gluon/tools.py)\n#########################################################################\n\nfrom gluon.tools import Auth, Crud, Service, PluginManager, prettydate\nauth = Auth(db, hmac_key=Auth.get_or_create_key()) \ncrud, service, plugins = Crud(db), Service(), PluginManager()\n\n## create all tables needed by auth if not custom tables\nauth.define_tables() \n\n## configure email\nmail=auth.settings.mailer\nmail.settings.server = \'logging\' or \'smtp.gmail.com:587\'\nmail.settings.sender = \'you@gmail.com\'\nmail.settings.login = \'username:password\'\n\n## configure auth policy\nauth.settings.registration_requires_verification = False\nauth.settings.registration_requires_approval = False\nauth.settings.reset_password_requires_verification = True\n\n## if you need to use OpenID, Facebook, MySpace, Twitter, Linkedin, etc.\n## register with janrain.com, write your domain:api_key in private/janrain.key\n## from gluon.contrib.login_methods.rpx_account import use_janrain\n## use_janrain(auth,filename=\'private/janrain.key\')\n\n#########################################################################\n## Define your tables below (or better in another model file) for example\n##\n## >>> db.define_table(\'mytable\',Field(\'myfield\',\'string\'))\n##\n## Fields can be \'string\',\'text\',\'password\',\'integer\',\'double\',\'boolean\'\n##       \'date\',\'time\',\'datetime\',\'blob\',\'upload\', \'reference TABLENAME\'\n## There is an implicit \'id integer autoincrement\' field\n## Consult manual for more options, validators, etc.\n##\n## More API examples for controllers:\n##\n## >>> db.mytable.insert(myfield=\'value\')\n## >>> rows=db(db.mytable.myfield==\'value\').select(db.mytable.ALL)\n## >>> for row in rows: print row.id, row.myfield\n#########################################################################\n\n\n## 10/28/2011 - db for image gallery\n\ndb.define_table(\'image\',\n   Field(\'title\', unique=True),\n   Field(\'file\', \'upload\'),\n   format = \'%(title)s\')\n\ndb.define_table(\'comment\',\n   Field(\'image_id\', db.image),\n   Field(\'author\'),\n   Field(\'email\'),\n   Field(\'body\', \'text\'))\n\ndb.image.title.requires = IS_NOT_IN_DB(db, db.image.title)\ndb.comment.image_id.requires = IS_IN_DB(db, db.image.id, \'%(title)s\')\ndb.comment.author.requires = IS_NOT_EMPTY()\ndb.comment.email.requires = IS_EMAIL()\ndb.comment.body.requires = IS_NOT_EMPTY()\n\ndb.comment.image_id.writable = db.comment.image_id.readable = False\n\n'
p6
sS'snapshot'
p7
(dp8
S'exception'
p9
(dp10
S'__module__'
p11
S"'sqlite3'"
p12
sS'__getslice__'
p13
S"<method-wrapper '__getslice__' of OperationalError object>"
p14
sS'__str__'
p15
S"<method-wrapper '__str__' of OperationalError object>"
p16
sS'__reduce__'
p17
S'<built-in method __reduce__ of OperationalError object>'
p18
sS'__dict__'
p19
S'{}'
p20
sS'__sizeof__'
p21
S'<built-in method __sizeof__ of OperationalError object>'
p22
sS'__weakref__'
p23
S'None'
p24
sS'__init__'
p25
S"<method-wrapper '__init__' of OperationalError object>"
p26
sS'__setattr__'
p27
S"<method-wrapper '__setattr__' of OperationalError object>"
p28
sS'__reduce_ex__'
p29
S'<built-in method __reduce_ex__ of OperationalError object>'
p30
sS'__new__'
p31
S'<built-in method __new__ of type object>'
p32
sS'__format__'
p33
S'<built-in method __format__ of OperationalError object>'
p34
sS'__class__'
p35
S"<class 'sqlite3.OperationalError'>"
p36
sS'__doc__'
p37
S'None'
p38
sS'__getitem__'
p39
S"<method-wrapper '__getitem__' of OperationalError object>"
p40
sS'__setstate__'
p41
S'<built-in method __setstate__ of OperationalError object>'
p42
sS'__getattribute__'
p43
S"<method-wrapper '__getattribute__' of OperationalError object>"
p44
sS'args'
p45
S"('table auth_user already exists',)"
p46
sS'__subclasshook__'
p47
S'<built-in method __subclasshook__ of type object>'
p48
sS'__unicode__'
p49
S'<built-in method __unicode__ of OperationalError object>'
p50
sS'__delattr__'
p51
S"<method-wrapper '__delattr__' of OperationalError object>"
p52
sS'__repr__'
p53
S"<method-wrapper '__repr__' of OperationalError object>"
p54
sS'__hash__'
p55
S"<method-wrapper '__hash__' of OperationalError object>"
p56
ssS'evalue'
p57
S'table auth_user already exists'
p58
sS'request'
p59
ccopy_reg
_reconstructor
p60
(cgluon.html
BEAUTIFY
p61
c__builtin__
object
p62
NtRp63
(dp64
S'attributes'
p65
(dp66
sS'components'
p67
(lp68
g60
(cgluon.html
TABLE
p69
g62
NtRp70
(dp71
g65
(dp72
S'level'
p73
I5
ssS'parent'
p74
Nsg67
(lp75
g60
(cgluon.html
TR
p76
g62
NtRp77
(dp78
g65
(dp79
sg74
g70
sg67
(lp80
g60
(cgluon.html
TD
p81
g62
NtRp82
(dp83
g65
(dp84
S'_style'
p85
S'font-weight:bold;'
p86
ssg74
g77
sg67
(lp87
S'ajax'
p88
asbag60
(g81
g62
NtRp89
(dp90
g65
(dp91
S'_valign'
p92
S'top'
p93
ssg74
g77
sg67
(lp94
S':'
asbag60
(g81
g62
NtRp95
(dp96
g65
(dp97
sg74
g77
sg67
(lp98
g60
(g61
g62
NtRp99
(dp100
g65
(dp101
g73
I5
ssg74
g95
sg67
(lp102
S'False'
p103
asbasbasbag60
(g76
g62
NtRp104
(dp105
g65
(dp106
sg74
g70
sg67
(lp107
g60
(g81
g62
NtRp108
(dp109
g65
(dp110
g85
g86
ssg74
g104
sg67
(lp111
S'application'
p112
asbag60
(g81
g62
NtRp113
(dp114
g65
(dp115
g92
g93
ssg74
g104
sg67
(lp116
S':'
asbag60
(g81
g62
NtRp117
(dp118
g65
(dp119
sg74
g104
sg67
(lp120
g60
(g61
g62
NtRp121
(dp122
g65
(dp123
g73
I5
ssg74
g117
sg67
(lp124
S'gallery'
p125
asbasbasbag60
(g76
g62
NtRp126
(dp127
g65
(dp128
sg74
g70
sg67
(lp129
g60
(g81
g62
NtRp130
(dp131
g65
(dp132
g85
g86
ssg74
g126
sg67
(lp133
g45
asbag60
(g81
g62
NtRp134
(dp135
g65
(dp136
g92
g93
ssg74
g126
sg67
(lp137
S':'
asbag60
(g81
g62
NtRp138
(dp139
g65
(dp140
sg74
g126
sg67
(lp141
g60
(g61
g62
NtRp142
(dp143
g65
(dp144
g73
I5
ssg74
g138
sg67
(lp145
g60
(g69
g62
NtRp146
(dp147
g65
(dp148
g73
I4
ssg74
Nsg67
(lp149
sbasbasbasbag60
(g76
g62
NtRp150
(dp151
g65
(dp152
sg74
g70
sg67
(lp153
g60
(g81
g62
NtRp154
(dp155
g65
(dp156
g85
g86
ssg74
g150
sg67
(lp157
S'body'
p158
asbag60
(g81
g62
NtRp159
(dp160
g65
(dp161
g92
g93
ssg74
g150
sg67
(lp162
S':'
asbag60
(g81
g62
NtRp163
(dp164
g65
(dp165
sg74
g150
sg67
(lp166
g60
(g61
g62
NtRp167
(dp168
g65
(dp169
g73
I5
ssg74
g163
sg67
(lp170
S'<cStringIO.StringO object at 0xaf771640>'
p171
asbasbasbag60
(g76
g62
NtRp172
(dp173
g65
(dp174
sg74
g70
sg67
(lp175
g60
(g81
g62
NtRp176
(dp177
g65
(dp178
g85
g86
ssg74
g172
sg67
(lp179
S'client'
p180
asbag60
(g81
g62
NtRp181
(dp182
g65
(dp183
g92
g93
ssg74
g172
sg67
(lp184
S':'
asbag60
(g81
g62
NtRp185
(dp186
g65
(dp187
sg74
g172
sg67
(lp188
g60
(g61
g62
NtRp189
(dp190
g65
(dp191
g73
I5
ssg74
g185
sg67
(lp192
S'127.0.0.1'
p193
asbasbasbag60
(g76
g62
NtRp194
(dp195
g65
(dp196
sg74
g70
sg67
(lp197
g60
(g81
g62
NtRp198
(dp199
g65
(dp200
g85
g86
ssg74
g194
sg67
(lp201
S'controller'
p202
asbag60
(g81
g62
NtRp203
(dp204
g65
(dp205
g92
g93
ssg74
g194
sg67
(lp206
S':'
asbag60
(g81
g62
NtRp207
(dp208
g65
(dp209
sg74
g194
sg67
(lp210
g60
(g61
g62
NtRp211
(dp212
g65
(dp213
g73
I5
ssg74
g207
sg67
(lp214
S'default'
p215
asbasbasbag60
(g76
g62
NtRp216
(dp217
g65
(dp218
sg74
g70
sg67
(lp219
g60
(g81
g62
NtRp220
(dp221
g65
(dp222
g85
g86
ssg74
g216
sg67
(lp223
S'cookies'
p224
asbag60
(g81
g62
NtRp225
(dp226
g65
(dp227
g92
g93
ssg74
g216
sg67
(lp228
S':'
asbag60
(g81
g62
NtRp229
(dp230
g65
(dp231
sg74
g216
sg67
(lp232
g60
(g61
g62
NtRp233
(dp234
g65
(dp235
g73
I5
ssg74
g229
sg67
(lp236
g60
(g69
g62
NtRp237
(dp238
g65
(dp239
g73
I4
ssg74
Nsg67
(lp240
g60
(g76
g62
NtRp241
(dp242
g65
(dp243
sg74
g237
sg67
(lp244
g60
(g81
g62
NtRp245
(dp246
g65
(dp247
g85
g86
ssg74
g241
sg67
(lp248
S'csrftoken'
p249
asbag60
(g81
g62
NtRp250
(dp251
g65
(dp252
g92
g93
ssg74
g241
sg67
(lp253
S':'
asbag60
(g81
g62
NtRp254
(dp255
g65
(dp256
sg74
g241
sg67
(lp257
g60
(g61
g62
NtRp258
(dp259
g65
(dp260
g73
I4
ssg74
g254
sg67
(lp261
g60
(g69
g62
NtRp262
(dp263
g65
(dp264
g73
I3
ssg74
Nsg67
(lp265
g60
(g76
g62
NtRp266
(dp267
g65
(dp268
sg74
g262
sg67
(lp269
g60
(g81
g62
NtRp270
(dp271
g65
(dp272
g85
g86
ssg74
g266
sg67
(lp273
S'comment'
p274
asbag60
(g81
g62
NtRp275
(dp276
g65
(dp277
g92
g93
ssg74
g266
sg67
(lp278
S':'
asbag60
(g81
g62
NtRp279
(dp280
g65
(dp281
sg74
g266
sg67
(lp282
g60
(g61
g62
NtRp283
(dp284
g65
(dp285
g73
I3
ssg74
g279
sg67
(lp286
S''
asbasbasbag60
(g76
g62
NtRp287
(dp288
g65
(dp289
sg74
g262
sg67
(lp290
g60
(g81
g62
NtRp291
(dp292
g65
(dp293
g85
g86
ssg74
g287
sg67
(lp294
S'domain'
p295
asbag60
(g81
g62
NtRp296
(dp297
g65
(dp298
g92
g93
ssg74
g287
sg67
(lp299
S':'
asbag60
(g81
g62
NtRp300
(dp301
g65
(dp302
sg74
g287
sg67
(lp303
g60
(g61
g62
NtRp304
(dp305
g65
(dp306
g73
I3
ssg74
g300
sg67
(lp307
S''
asbasbasbag60
(g76
g62
NtRp308
(dp309
g65
(dp310
sg74
g262
sg67
(lp311
g60
(g81
g62
NtRp312
(dp313
g65
(dp314
g85
g86
ssg74
g308
sg67
(lp315
S'expires'
p316
asbag60
(g81
g62
NtRp317
(dp318
g65
(dp319
g92
g93
ssg74
g308
sg67
(lp320
S':'
asbag60
(g81
g62
NtRp321
(dp322
g65
(dp323
sg74
g308
sg67
(lp324
g60
(g61
g62
NtRp325
(dp326
g65
(dp327
g73
I3
ssg74
g321
sg67
(lp328
S''
asbasbasbag60
(g76
g62
NtRp329
(dp330
g65
(dp331
sg74
g262
sg67
(lp332
g60
(g81
g62
NtRp333
(dp334
g65
(dp335
g85
g86
ssg74
g329
sg67
(lp336
S'httponly'
p337
asbag60
(g81
g62
NtRp338
(dp339
g65
(dp340
g92
g93
ssg74
g329
sg67
(lp341
S':'
asbag60
(g81
g62
NtRp342
(dp343
g65
(dp344
sg74
g329
sg67
(lp345
g60
(g61
g62
NtRp346
(dp347
g65
(dp348
g73
I3
ssg74
g342
sg67
(lp349
S''
asbasbasbag60
(g76
g62
NtRp350
(dp351
g65
(dp352
sg74
g262
sg67
(lp353
g60
(g81
g62
NtRp354
(dp355
g65
(dp356
g85
g86
ssg74
g350
sg67
(lp357
S'max-age'
p358
asbag60
(g81
g62
NtRp359
(dp360
g65
(dp361
g92
g93
ssg74
g350
sg67
(lp362
S':'
asbag60
(g81
g62
NtRp363
(dp364
g65
(dp365
sg74
g350
sg67
(lp366
g60
(g61
g62
NtRp367
(dp368
g65
(dp369
g73
I3
ssg74
g363
sg67
(lp370
S''
asbasbasbag60
(g76
g62
NtRp371
(dp372
g65
(dp373
sg74
g262
sg67
(lp374
g60
(g81
g62
NtRp375
(dp376
g65
(dp377
g85
g86
ssg74
g371
sg67
(lp378
S'path'
p379
asbag60
(g81
g62
NtRp380
(dp381
g65
(dp382
g92
g93
ssg74
g371
sg67
(lp383
S':'
asbag60
(g81
g62
NtRp384
(dp385
g65
(dp386
sg74
g371
sg67
(lp387
g60
(g61
g62
NtRp388
(dp389
g65
(dp390
g73
I3
ssg74
g384
sg67
(lp391
S''
asbasbasbag60
(g76
g62
NtRp392
(dp393
g65
(dp394
sg74
g262
sg67
(lp395
g60
(g81
g62
NtRp396
(dp397
g65
(dp398
g85
g86
ssg74
g392
sg67
(lp399
S'secure'
p400
asbag60
(g81
g62
NtRp401
(dp402
g65
(dp403
g92
g93
ssg74
g392
sg67
(lp404
S':'
asbag60
(g81
g62
NtRp405
(dp406
g65
(dp407
sg74
g392
sg67
(lp408
g60
(g61
g62
NtRp409
(dp410
g65
(dp411
g73
I3
ssg74
g405
sg67
(lp412
S''
asbasbasbag60
(g76
g62
NtRp413
(dp414
g65
(dp415
sg74
g262
sg67
(lp416
g60
(g81
g62
NtRp417
(dp418
g65
(dp419
g85
g86
ssg74
g413
sg67
(lp420
S'version'
p421
asbag60
(g81
g62
NtRp422
(dp423
g65
(dp424
g92
g93
ssg74
g413
sg67
(lp425
S':'
asbag60
(g81
g62
NtRp426
(dp427
g65
(dp428
sg74
g413
sg67
(lp429
g60
(g61
g62
NtRp430
(dp431
g65
(dp432
g73
I3
ssg74
g426
sg67
(lp433
S''
asbasbasbasbasbasbasbag60
(g76
g62
NtRp434
(dp435
g65
(dp436
sg74
g237
sg67
(lp437
g60
(g81
g62
NtRp438
(dp439
g65
(dp440
g85
g86
ssg74
g434
sg67
(lp441
S'session_id_admin'
p442
asbag60
(g81
g62
NtRp443
(dp444
g65
(dp445
g92
g93
ssg74
g434
sg67
(lp446
S':'
asbag60
(g81
g62
NtRp447
(dp448
g65
(dp449
sg74
g434
sg67
(lp450
g60
(g61
g62
NtRp451
(dp452
g65
(dp453
g73
I4
ssg74
g447
sg67
(lp454
g60
(g69
g62
NtRp455
(dp456
g65
(dp457
g73
I3
ssg74
Nsg67
(lp458
g60
(g76
g62
NtRp459
(dp460
g65
(dp461
sg74
g455
sg67
(lp462
g60
(g81
g62
NtRp463
(dp464
g65
(dp465
g85
g86
ssg74
g459
sg67
(lp466
g274
asbag60
(g81
g62
NtRp467
(dp468
g65
(dp469
g92
g93
ssg74
g459
sg67
(lp470
S':'
asbag60
(g81
g62
NtRp471
(dp472
g65
(dp473
sg74
g459
sg67
(lp474
g60
(g61
g62
NtRp475
(dp476
g65
(dp477
g73
I3
ssg74
g471
sg67
(lp478
S''
asbasbasbag60
(g76
g62
NtRp479
(dp480
g65
(dp481
sg74
g455
sg67
(lp482
g60
(g81
g62
NtRp483
(dp484
g65
(dp485
g85
g86
ssg74
g479
sg67
(lp486
g295
asbag60
(g81
g62
NtRp487
(dp488
g65
(dp489
g92
g93
ssg74
g479
sg67
(lp490
S':'
asbag60
(g81
g62
NtRp491
(dp492
g65
(dp493
sg74
g479
sg67
(lp494
g60
(g61
g62
NtRp495
(dp496
g65
(dp497
g73
I3
ssg74
g491
sg67
(lp498
S''
asbasbasbag60
(g76
g62
NtRp499
(dp500
g65
(dp501
sg74
g455
sg67
(lp502
g60
(g81
g62
NtRp503
(dp504
g65
(dp505
g85
g86
ssg74
g499
sg67
(lp506
g316
asbag60
(g81
g62
NtRp507
(dp508
g65
(dp509
g92
g93
ssg74
g499
sg67
(lp510
S':'
asbag60
(g81
g62
NtRp511
(dp512
g65
(dp513
sg74
g499
sg67
(lp514
g60
(g61
g62
NtRp515
(dp516
g65
(dp517
g73
I3
ssg74
g511
sg67
(lp518
S''
asbasbasbag60
(g76
g62
NtRp519
(dp520
g65
(dp521
sg74
g455
sg67
(lp522
g60
(g81
g62
NtRp523
(dp524
g65
(dp525
g85
g86
ssg74
g519
sg67
(lp526
g337
asbag60
(g81
g62
NtRp527
(dp528
g65
(dp529
g92
g93
ssg74
g519
sg67
(lp530
S':'
asbag60
(g81
g62
NtRp531
(dp532
g65
(dp533
sg74
g519
sg67
(lp534
g60
(g61
g62
NtRp535
(dp536
g65
(dp537
g73
I3
ssg74
g531
sg67
(lp538
S''
asbasbasbag60
(g76
g62
NtRp539
(dp540
g65
(dp541
sg74
g455
sg67
(lp542
g60
(g81
g62
NtRp543
(dp544
g65
(dp545
g85
g86
ssg74
g539
sg67
(lp546
g358
asbag60
(g81
g62
NtRp547
(dp548
g65
(dp549
g92
g93
ssg74
g539
sg67
(lp550
S':'
asbag60
(g81
g62
NtRp551
(dp552
g65
(dp553
sg74
g539
sg67
(lp554
g60
(g61
g62
NtRp555
(dp556
g65
(dp557
g73
I3
ssg74
g551
sg67
(lp558
S''
asbasbasbag60
(g76
g62
NtRp559
(dp560
g65
(dp561
sg74
g455
sg67
(lp562
g60
(g81
g62
NtRp563
(dp564
g65
(dp565
g85
g86
ssg74
g559
sg67
(lp566
g379
asbag60
(g81
g62
NtRp567
(dp568
g65
(dp569
g92
g93
ssg74
g559
sg67
(lp570
S':'
asbag60
(g81
g62
NtRp571
(dp572
g65
(dp573
sg74
g559
sg67
(lp574
g60
(g61
g62
NtRp575
(dp576
g65
(dp577
g73
I3
ssg74
g571
sg67
(lp578
S''
asbasbasbag60
(g76
g62
NtRp579
(dp580
g65
(dp581
sg74
g455
sg67
(lp582
g60
(g81
g62
NtRp583
(dp584
g65
(dp585
g85
g86
ssg74
g579
sg67
(lp586
g400
asbag60
(g81
g62
NtRp587
(dp588
g65
(dp589
g92
g93
ssg74
g579
sg67
(lp590
S':'
asbag60
(g81
g62
NtRp591
(dp592
g65
(dp593
sg74
g579
sg67
(lp594
g60
(g61
g62
NtRp595
(dp596
g65
(dp597
g73
I3
ssg74
g591
sg67
(lp598
S''
asbasbasbag60
(g76
g62
NtRp599
(dp600
g65
(dp601
sg74
g455
sg67
(lp602
g60
(g81
g62
NtRp603
(dp604
g65
(dp605
g85
g86
ssg74
g599
sg67
(lp606
g421
asbag60
(g81
g62
NtRp607
(dp608
g65
(dp609
g92
g93
ssg74
g599
sg67
(lp610
S':'
asbag60
(g81
g62
NtRp611
(dp612
g65
(dp613
sg74
g599
sg67
(lp614
g60
(g61
g62
NtRp615
(dp616
g65
(dp617
g73
I3
ssg74
g611
sg67
(lp618
S''
asbasbasbasbasbasbasbag60
(g76
g62
NtRp619
(dp620
g65
(dp621
sg74
g237
sg67
(lp622
g60
(g81
g62
NtRp623
(dp624
g65
(dp625
g85
g86
ssg74
g619
sg67
(lp626
S'session_id_gallery'
p627
asbag60
(g81
g62
NtRp628
(dp629
g65
(dp630
g92
g93
ssg74
g619
sg67
(lp631
S':'
asbag60
(g81
g62
NtRp632
(dp633
g65
(dp634
sg74
g619
sg67
(lp635
g60
(g61
g62
NtRp636
(dp637
g65
(dp638
g73
I4
ssg74
g632
sg67
(lp639
g60
(g69
g62
NtRp640
(dp641
g65
(dp642
g73
I3
ssg74
Nsg67
(lp643
g60
(g76
g62
NtRp644
(dp645
g65
(dp646
sg74
g640
sg67
(lp647
g60
(g81
g62
NtRp648
(dp649
g65
(dp650
g85
g86
ssg74
g644
sg67
(lp651
g274
asbag60
(g81
g62
NtRp652
(dp653
g65
(dp654
g92
g93
ssg74
g644
sg67
(lp655
S':'
asbag60
(g81
g62
NtRp656
(dp657
g65
(dp658
sg74
g644
sg67
(lp659
g60
(g61
g62
NtRp660
(dp661
g65
(dp662
g73
I3
ssg74
g656
sg67
(lp663
S''
asbasbasbag60
(g76
g62
NtRp664
(dp665
g65
(dp666
sg74
g640
sg67
(lp667
g60
(g81
g62
NtRp668
(dp669
g65
(dp670
g85
g86
ssg74
g664
sg67
(lp671
g295
asbag60
(g81
g62
NtRp672
(dp673
g65
(dp674
g92
g93
ssg74
g664
sg67
(lp675
S':'
asbag60
(g81
g62
NtRp676
(dp677
g65
(dp678
sg74
g664
sg67
(lp679
g60
(g61
g62
NtRp680
(dp681
g65
(dp682
g73
I3
ssg74
g676
sg67
(lp683
S''
asbasbasbag60
(g76
g62
NtRp684
(dp685
g65
(dp686
sg74
g640
sg67
(lp687
g60
(g81
g62
NtRp688
(dp689
g65
(dp690
g85
g86
ssg74
g684
sg67
(lp691
g316
asbag60
(g81
g62
NtRp692
(dp693
g65
(dp694
g92
g93
ssg74
g684
sg67
(lp695
S':'
asbag60
(g81
g62
NtRp696
(dp697
g65
(dp698
sg74
g684
sg67
(lp699
g60
(g61
g62
NtRp700
(dp701
g65
(dp702
g73
I3
ssg74
g696
sg67
(lp703
S''
asbasbasbag60
(g76
g62
NtRp704
(dp705
g65
(dp706
sg74
g640
sg67
(lp707
g60
(g81
g62
NtRp708
(dp709
g65
(dp710
g85
g86
ssg74
g704
sg67
(lp711
g337
asbag60
(g81
g62
NtRp712
(dp713
g65
(dp714
g92
g93
ssg74
g704
sg67
(lp715
S':'
asbag60
(g81
g62
NtRp716
(dp717
g65
(dp718
sg74
g704
sg67
(lp719
g60
(g61
g62
NtRp720
(dp721
g65
(dp722
g73
I3
ssg74
g716
sg67
(lp723
S''
asbasbasbag60
(g76
g62
NtRp724
(dp725
g65
(dp726
sg74
g640
sg67
(lp727
g60
(g81
g62
NtRp728
(dp729
g65
(dp730
g85
g86
ssg74
g724
sg67
(lp731
g358
asbag60
(g81
g62
NtRp732
(dp733
g65
(dp734
g92
g93
ssg74
g724
sg67
(lp735
S':'
asbag60
(g81
g62
NtRp736
(dp737
g65
(dp738
sg74
g724
sg67
(lp739
g60
(g61
g62
NtRp740
(dp741
g65
(dp742
g73
I3
ssg74
g736
sg67
(lp743
S''
asbasbasbag60
(g76
g62
NtRp744
(dp745
g65
(dp746
sg74
g640
sg67
(lp747
g60
(g81
g62
NtRp748
(dp749
g65
(dp750
g85
g86
ssg74
g744
sg67
(lp751
g379
asbag60
(g81
g62
NtRp752
(dp753
g65
(dp754
g92
g93
ssg74
g744
sg67
(lp755
S':'
asbag60
(g81
g62
NtRp756
(dp757
g65
(dp758
sg74
g744
sg67
(lp759
g60
(g61
g62
NtRp760
(dp761
g65
(dp762
g73
I3
ssg74
g756
sg67
(lp763
S''
asbasbasbag60
(g76
g62
NtRp764
(dp765
g65
(dp766
sg74
g640
sg67
(lp767
g60
(g81
g62
NtRp768
(dp769
g65
(dp770
g85
g86
ssg74
g764
sg67
(lp771
g400
asbag60
(g81
g62
NtRp772
(dp773
g65
(dp774
g92
g93
ssg74
g764
sg67
(lp775
S':'
asbag60
(g81
g62
NtRp776
(dp777
g65
(dp778
sg74
g764
sg67
(lp779
g60
(g61
g62
NtRp780
(dp781
g65
(dp782
g73
I3
ssg74
g776
sg67
(lp783
S''
asbasbasbag60
(g76
g62
NtRp784
(dp785
g65
(dp786
sg74
g640
sg67
(lp787
g60
(g81
g62
NtRp788
(dp789
g65
(dp790
g85
g86
ssg74
g784
sg67
(lp791
g421
asbag60
(g81
g62
NtRp792
(dp793
g65
(dp794
g92
g93
ssg74
g784
sg67
(lp795
S':'
asbag60
(g81
g62
NtRp796
(dp797
g65
(dp798
sg74
g784
sg67
(lp799
g60
(g61
g62
NtRp800
(dp801
g65
(dp802
g73
I3
ssg74
g796
sg67
(lp803
S''
asbasbasbasbasbasbasbag60
(g76
g62
NtRp804
(dp805
g65
(dp806
sg74
g237
sg67
(lp807
g60
(g81
g62
NtRp808
(dp809
g65
(dp810
g85
g86
ssg74
g804
sg67
(lp811
S'session_id_welcome'
p812
asbag60
(g81
g62
NtRp813
(dp814
g65
(dp815
g92
g93
ssg74
g804
sg67
(lp816
S':'
asbag60
(g81
g62
NtRp817
(dp818
g65
(dp819
sg74
g804
sg67
(lp820
g60
(g61
g62
NtRp821
(dp822
g65
(dp823
g73
I4
ssg74
g817
sg67
(lp824
g60
(g69
g62
NtRp825
(dp826
g65
(dp827
g73
I3
ssg74
Nsg67
(lp828
g60
(g76
g62
NtRp829
(dp830
g65
(dp831
sg74
g825
sg67
(lp832
g60
(g81
g62
NtRp833
(dp834
g65
(dp835
g85
g86
ssg74
g829
sg67
(lp836
g274
asbag60
(g81
g62
NtRp837
(dp838
g65
(dp839
g92
g93
ssg74
g829
sg67
(lp840
S':'
asbag60
(g81
g62
NtRp841
(dp842
g65
(dp843
sg74
g829
sg67
(lp844
g60
(g61
g62
NtRp845
(dp846
g65
(dp847
g73
I3
ssg74
g841
sg67
(lp848
S''
asbasbasbag60
(g76
g62
NtRp849
(dp850
g65
(dp851
sg74
g825
sg67
(lp852
g60
(g81
g62
NtRp853
(dp854
g65
(dp855
g85
g86
ssg74
g849
sg67
(lp856
g295
asbag60
(g81
g62
NtRp857
(dp858
g65
(dp859
g92
g93
ssg74
g849
sg67
(lp860
S':'
asbag60
(g81
g62
NtRp861
(dp862
g65
(dp863
sg74
g849
sg67
(lp864
g60
(g61
g62
NtRp865
(dp866
g65
(dp867
g73
I3
ssg74
g861
sg67
(lp868
S''
asbasbasbag60
(g76
g62
NtRp869
(dp870
g65
(dp871
sg74
g825
sg67
(lp872
g60
(g81
g62
NtRp873
(dp874
g65
(dp875
g85
g86
ssg74
g869
sg67
(lp876
g316
asbag60
(g81
g62
NtRp877
(dp878
g65
(dp879
g92
g93
ssg74
g869
sg67
(lp880
S':'
asbag60
(g81
g62
NtRp881
(dp882
g65
(dp883
sg74
g869
sg67
(lp884
g60
(g61
g62
NtRp885
(dp886
g65
(dp887
g73
I3
ssg74
g881
sg67
(lp888
S''
asbasbasbag60
(g76
g62
NtRp889
(dp890
g65
(dp891
sg74
g825
sg67
(lp892
g60
(g81
g62
NtRp893
(dp894
g65
(dp895
g85
g86
ssg74
g889
sg67
(lp896
g337
asbag60
(g81
g62
NtRp897
(dp898
g65
(dp899
g92
g93
ssg74
g889
sg67
(lp900
S':'
asbag60
(g81
g62
NtRp901
(dp902
g65
(dp903
sg74
g889
sg67
(lp904
g60
(g61
g62
NtRp905
(dp906
g65
(dp907
g73
I3
ssg74
g901
sg67
(lp908
S''
asbasbasbag60
(g76
g62
NtRp909
(dp910
g65
(dp911
sg74
g825
sg67
(lp912
g60
(g81
g62
NtRp913
(dp914
g65
(dp915
g85
g86
ssg74
g909
sg67
(lp916
g358
asbag60
(g81
g62
NtRp917
(dp918
g65
(dp919
g92
g93
ssg74
g909
sg67
(lp920
S':'
asbag60
(g81
g62
NtRp921
(dp922
g65
(dp923
sg74
g909
sg67
(lp924
g60
(g61
g62
NtRp925
(dp926
g65
(dp927
g73
I3
ssg74
g921
sg67
(lp928
S''
asbasbasbag60
(g76
g62
NtRp929
(dp930
g65
(dp931
sg74
g825
sg67
(lp932
g60
(g81
g62
NtRp933
(dp934
g65
(dp935
g85
g86
ssg74
g929
sg67
(lp936
g379
asbag60
(g81
g62
NtRp937
(dp938
g65
(dp939
g92
g93
ssg74
g929
sg67
(lp940
S':'
asbag60
(g81
g62
NtRp941
(dp942
g65
(dp943
sg74
g929
sg67
(lp944
g60
(g61
g62
NtRp945
(dp946
g65
(dp947
g73
I3
ssg74
g941
sg67
(lp948
S''
asbasbasbag60
(g76
g62
NtRp949
(dp950
g65
(dp951
sg74
g825
sg67
(lp952
g60
(g81
g62
NtRp953
(dp954
g65
(dp955
g85
g86
ssg74
g949
sg67
(lp956
g400
asbag60
(g81
g62
NtRp957
(dp958
g65
(dp959
g92
g93
ssg74
g949
sg67
(lp960
S':'
asbag60
(g81
g62
NtRp961
(dp962
g65
(dp963
sg74
g949
sg67
(lp964
g60
(g61
g62
NtRp965
(dp966
g65
(dp967
g73
I3
ssg74
g961
sg67
(lp968
S''
asbasbasbag60
(g76
g62
NtRp969
(dp970
g65
(dp971
sg74
g825
sg67
(lp972
g60
(g81
g62
NtRp973
(dp974
g65
(dp975
g85
g86
ssg74
g969
sg67
(lp976
g421
asbag60
(g81
g62
NtRp977
(dp978
g65
(dp979
g92
g93
ssg74
g969
sg67
(lp980
S':'
asbag60
(g81
g62
NtRp981
(dp982
g65
(dp983
sg74
g969
sg67
(lp984
g60
(g61
g62
NtRp985
(dp986
g65
(dp987
g73
I3
ssg74
g981
sg67
(lp988
S''
asbasbasbasbasbasbasbasbasbasbasbag60
(g76
g62
NtRp989
(dp990
g65
(dp991
sg74
g70
sg67
(lp992
g60
(g81
g62
NtRp993
(dp994
g65
(dp995
g85
g86
ssg74
g989
sg67
(lp996
S'env'
p997
asbag60
(g81
g62
NtRp998
(dp999
g65
(dp1000
g92
g93
ssg74
g989
sg67
(lp1001
S':'
asbag60
(g81
g62
NtRp1002
(dp1003
g65
(dp1004
sg74
g989
sg67
(lp1005
g60
(g61
g62
NtRp1006
(dp1007
g65
(dp1008
g73
I5
ssg74
g1002
sg67
(lp1009
g60
(g69
g62
NtRp1010
(dp1011
g65
(dp1012
g73
I4
ssg74
Nsg67
(lp1013
g60
(g76
g62
NtRp1014
(dp1015
g65
(dp1016
sg74
g1010
sg67
(lp1017
g60
(g81
g62
NtRp1018
(dp1019
g65
(dp1020
g85
g86
ssg74
g1014
sg67
(lp1021
S'app_folders'
p1022
asbag60
(g81
g62
NtRp1023
(dp1024
g65
(dp1025
g92
g93
ssg74
g1014
sg67
(lp1026
S':'
asbag60
(g81
g62
NtRp1027
(dp1028
g65
(dp1029
sg74
g1014
sg67
(lp1030
g60
(g61
g62
NtRp1031
(dp1032
g65
(dp1033
g73
I4
ssg74
g1027
sg67
(lp1034
S"set(['/home/brencam/web2py/applications/gallery/'])"
p1035
asbasbasbag60
(g76
g62
NtRp1036
(dp1037
g65
(dp1038
sg74
g1010
sg67
(lp1039
g60
(g81
g62
NtRp1040
(dp1041
g65
(dp1042
g85
g86
ssg74
g1036
sg67
(lp1043
S'applications_parent'
p1044
asbag60
(g81
g62
NtRp1045
(dp1046
g65
(dp1047
g92
g93
ssg74
g1036
sg67
(lp1048
S':'
asbag60
(g81
g62
NtRp1049
(dp1050
g65
(dp1051
sg74
g1036
sg67
(lp1052
g60
(g61
g62
NtRp1053
(dp1054
g65
(dp1055
g73
I4
ssg74
g1049
sg67
(lp1056
S'/home/brencam/web2py'
p1057
asbasbasbag60
(g76
g62
NtRp1058
(dp1059
g65
(dp1060
sg74
g1010
sg67
(lp1061
g60
(g81
g62
NtRp1062
(dp1063
g65
(dp1064
g85
g86
ssg74
g1058
sg67
(lp1065
S'cmd_args'
p1066
asbag60
(g81
g62
NtRp1067
(dp1068
g65
(dp1069
g92
g93
ssg74
g1058
sg67
(lp1070
S':'
asbag60
(g81
g62
NtRp1071
(dp1072
g65
(dp1073
sg74
g1058
sg67
(lp1074
g60
(g61
g62
NtRp1075
(dp1076
g65
(dp1077
g73
I4
ssg74
g1071
sg67
(lp1078
g60
(g69
g62
NtRp1079
(dp1080
g65
(dp1081
g73
I3
ssg74
Nsg67
(lp1082
sbasbasbasbag60
(g76
g62
NtRp1083
(dp1084
g65
(dp1085
sg74
g1010
sg67
(lp1086
g60
(g81
g62
NtRp1087
(dp1088
g65
(dp1089
g85
g86
ssg74
g1083
sg67
(lp1090
S'cmd_options'
p1091
asbag60
(g81
g62
NtRp1092
(dp1093
g65
(dp1094
g92
g93
ssg74
g1083
sg67
(lp1095
S':'
asbag60
(g81
g62
NtRp1096
(dp1097
g65
(dp1098
sg74
g1083
sg67
(lp1099
g60
(g61
g62
NtRp1100
(dp1101
g65
(dp1102
g73
I4
ssg74
g1096
sg67
(lp1103
S"<Values at 0x8e5026c: {'verbose': False, 'ip': '127.0.0.1', 'shutdown_timeout': 5, 'taskbar': False, 'nocron': False, 'pid_filename': 'httpserver.pid', 'maxthreads': None, 'softcron': False, 'server_name': 'localhost.localdomain', 'bpython': False, 'nogui': False, 'port': 8000, 'extcron': False, 'debuglevel': 30, 'test': None, 'folder': '/home/brencam/web2py', 'config': '', 'import_models': False, 'winservice': '', 'shell': None, 'run': '', 'log_filename': 'httpserver.log', 'args': [''], 'ssl_ca_certificate': None, 'scheduler': None, 'profiler_filename': None, 'ssl_private_key': '', 'password': 'admin', 'request_queue_size': 5, 'ssl_certificate': '', 'cronjob': False, 'plain': False, 'quiet': False, 'interfaces': None, 'minthreads': None, 'timeout': 10, 'numthreads': None, 'nobanner': False}>"
p1104
asbasbasbag60
(g76
g62
NtRp1105
(dp1106
g65
(dp1107
sg74
g1010
sg67
(lp1108
g60
(g81
g62
NtRp1109
(dp1110
g65
(dp1111
g85
g86
ssg74
g1105
sg67
(lp1112
S'db_sessions'
p1113
asbag60
(g81
g62
NtRp1114
(dp1115
g65
(dp1116
g92
g93
ssg74
g1105
sg67
(lp1117
S':'
asbag60
(g81
g62
NtRp1118
(dp1119
g65
(dp1120
sg74
g1105
sg67
(lp1121
g60
(g61
g62
NtRp1122
(dp1123
g65
(dp1124
g73
I4
ssg74
g1118
sg67
(lp1125
S'set([])'
p1126
asbasbasbag60
(g76
g62
NtRp1127
(dp1128
g65
(dp1129
sg74
g1010
sg67
(lp1130
g60
(g81
g62
NtRp1131
(dp1132
g65
(dp1133
g85
g86
ssg74
g1127
sg67
(lp1134
S'debugging'
p1135
asbag60
(g81
g62
NtRp1136
(dp1137
g65
(dp1138
g92
g93
ssg74
g1127
sg67
(lp1139
S':'
asbag60
(g81
g62
NtRp1140
(dp1141
g65
(dp1142
sg74
g1127
sg67
(lp1143
g60
(g61
g62
NtRp1144
(dp1145
g65
(dp1146
g73
I4
ssg74
g1140
sg67
(lp1147
g103
asbasbasbag60
(g76
g62
NtRp1148
(dp1149
g65
(dp1150
sg74
g1010
sg67
(lp1151
g60
(g81
g62
NtRp1152
(dp1153
g65
(dp1154
g85
g86
ssg74
g1148
sg67
(lp1155
S'gluon_parent'
p1156
asbag60
(g81
g62
NtRp1157
(dp1158
g65
(dp1159
g92
g93
ssg74
g1148
sg67
(lp1160
S':'
asbag60
(g81
g62
NtRp1161
(dp1162
g65
(dp1163
sg74
g1148
sg67
(lp1164
g60
(g61
g62
NtRp1165
(dp1166
g65
(dp1167
g73
I4
ssg74
g1161
sg67
(lp1168
S'/home/brencam/web2py'
p1169
asbasbasbag60
(g76
g62
NtRp1170
(dp1171
g65
(dp1172
sg74
g1010
sg67
(lp1173
g60
(g81
g62
NtRp1174
(dp1175
g65
(dp1176
g85
g86
ssg74
g1170
sg67
(lp1177
S'http_accept'
p1178
asbag60
(g81
g62
NtRp1179
(dp1180
g65
(dp1181
g92
g93
ssg74
g1170
sg67
(lp1182
S':'
asbag60
(g81
g62
NtRp1183
(dp1184
g65
(dp1185
sg74
g1170
sg67
(lp1186
g60
(g61
g62
NtRp1187
(dp1188
g65
(dp1189
g73
I4
ssg74
g1183
sg67
(lp1190
S'text/html,application/xhtml+xml,application/xml;q=0.9,*/*;q=0.8'
p1191
asbasbasbag60
(g76
g62
NtRp1192
(dp1193
g65
(dp1194
sg74
g1010
sg67
(lp1195
g60
(g81
g62
NtRp1196
(dp1197
g65
(dp1198
g85
g86
ssg74
g1192
sg67
(lp1199
S'http_accept_charset'
p1200
asbag60
(g81
g62
NtRp1201
(dp1202
g65
(dp1203
g92
g93
ssg74
g1192
sg67
(lp1204
S':'
asbag60
(g81
g62
NtRp1205
(dp1206
g65
(dp1207
sg74
g1192
sg67
(lp1208
g60
(g61
g62
NtRp1209
(dp1210
g65
(dp1211
g73
I4
ssg74
g1205
sg67
(lp1212
S'ISO-8859-1,utf-8;q=0.7,*;q=0.3'
p1213
asbasbasbag60
(g76
g62
NtRp1214
(dp1215
g65
(dp1216
sg74
g1010
sg67
(lp1217
g60
(g81
g62
NtRp1218
(dp1219
g65
(dp1220
g85
g86
ssg74
g1214
sg67
(lp1221
S'http_accept_encoding'
p1222
asbag60
(g81
g62
NtRp1223
(dp1224
g65
(dp1225
g92
g93
ssg74
g1214
sg67
(lp1226
S':'
asbag60
(g81
g62
NtRp1227
(dp1228
g65
(dp1229
sg74
g1214
sg67
(lp1230
g60
(g61
g62
NtRp1231
(dp1232
g65
(dp1233
g73
I4
ssg74
g1227
sg67
(lp1234
S'gzip,deflate,sdch'
p1235
asbasbasbag60
(g76
g62
NtRp1236
(dp1237
g65
(dp1238
sg74
g1010
sg67
(lp1239
g60
(g81
g62
NtRp1240
(dp1241
g65
(dp1242
g85
g86
ssg74
g1236
sg67
(lp1243
S'http_accept_language'
p1244
asbag60
(g81
g62
NtRp1245
(dp1246
g65
(dp1247
g92
g93
ssg74
g1236
sg67
(lp1248
S':'
asbag60
(g81
g62
NtRp1249
(dp1250
g65
(dp1251
sg74
g1236
sg67
(lp1252
g60
(g61
g62
NtRp1253
(dp1254
g65
(dp1255
g73
I4
ssg74
g1249
sg67
(lp1256
S'en-US,en;q=0.8'
p1257
asbasbasbag60
(g76
g62
NtRp1258
(dp1259
g65
(dp1260
sg74
g1010
sg67
(lp1261
g60
(g81
g62
NtRp1262
(dp1263
g65
(dp1264
g85
g86
ssg74
g1258
sg67
(lp1265
S'http_cache_control'
p1266
asbag60
(g81
g62
NtRp1267
(dp1268
g65
(dp1269
g92
g93
ssg74
g1258
sg67
(lp1270
S':'
asbag60
(g81
g62
NtRp1271
(dp1272
g65
(dp1273
sg74
g1258
sg67
(lp1274
g60
(g61
g62
NtRp1275
(dp1276
g65
(dp1277
g73
I4
ssg74
g1271
sg67
(lp1278
S'max-age=0'
p1279
asbasbasbag60
(g76
g62
NtRp1280
(dp1281
g65
(dp1282
sg74
g1010
sg67
(lp1283
g60
(g81
g62
NtRp1284
(dp1285
g65
(dp1286
g85
g86
ssg74
g1280
sg67
(lp1287
S'http_connection'
p1288
asbag60
(g81
g62
NtRp1289
(dp1290
g65
(dp1291
g92
g93
ssg74
g1280
sg67
(lp1292
S':'
asbag60
(g81
g62
NtRp1293
(dp1294
g65
(dp1295
sg74
g1280
sg67
(lp1296
g60
(g61
g62
NtRp1297
(dp1298
g65
(dp1299
g73
I4
ssg74
g1293
sg67
(lp1300
S'keep-alive'
p1301
asbasbasbag60
(g76
g62
NtRp1302
(dp1303
g65
(dp1304
sg74
g1010
sg67
(lp1305
g60
(g81
g62
NtRp1306
(dp1307
g65
(dp1308
g85
g86
ssg74
g1302
sg67
(lp1309
S'http_cookie'
p1310
asbag60
(g81
g62
NtRp1311
(dp1312
g65
(dp1313
g92
g93
ssg74
g1302
sg67
(lp1314
S':'
asbag60
(g81
g62
NtRp1315
(dp1316
g65
(dp1317
sg74
g1302
sg67
(lp1318
g60
(g61
g62
NtRp1319
(dp1320
g65
(dp1321
g73
I4
ssg74
g1315
sg67
(lp1322
S'__utma=96992031.552746526.1281494094.1291180555.1291186411.9; csrftoken=7b3621df70ed8d65c15785486fff8908; __utma_a2a=7438973308.1350086890.1318529964.1318645324.1318645410.28; session_id_welcome=127.0.0.1-9322c3cc-e1a6-4fc2-b7c8-5cd888a9f623; session_id_admin=127.0.0.1-b8619749-4c92-404b-8804-b812f3f5a3ed; session_id_gallery=127.0.0.1-5764d7f9-8178-4db1-bc94-76589577a2e3'
p1323
asbasbasbag60
(g76
g62
NtRp1324
(dp1325
g65
(dp1326
sg74
g1010
sg67
(lp1327
g60
(g81
g62
NtRp1328
(dp1329
g65
(dp1330
g85
g86
ssg74
g1324
sg67
(lp1331
S'http_host'
p1332
asbag60
(g81
g62
NtRp1333
(dp1334
g65
(dp1335
g92
g93
ssg74
g1324
sg67
(lp1336
S':'
asbag60
(g81
g62
NtRp1337
(dp1338
g65
(dp1339
sg74
g1324
sg67
(lp1340
g60
(g61
g62
NtRp1341
(dp1342
g65
(dp1343
g73
I4
ssg74
g1337
sg67
(lp1344
S'127.0.0.1:8000'
p1345
asbasbasbag60
(g76
g62
NtRp1346
(dp1347
g65
(dp1348
sg74
g1010
sg67
(lp1349
g60
(g81
g62
NtRp1350
(dp1351
g65
(dp1352
g85
g86
ssg74
g1346
sg67
(lp1353
S'http_referer'
p1354
asbag60
(g81
g62
NtRp1355
(dp1356
g65
(dp1357
g92
g93
ssg74
g1346
sg67
(lp1358
S':'
asbag60
(g81
g62
NtRp1359
(dp1360
g65
(dp1361
sg74
g1346
sg67
(lp1362
g60
(g61
g62
NtRp1363
(dp1364
g65
(dp1365
g73
I4
ssg74
g1359
sg67
(lp1366
S'http://127.0.0.1:8000/gallery/default/showcss'
p1367
asbasbasbag60
(g76
g62
NtRp1368
(dp1369
g65
(dp1370
sg74
g1010
sg67
(lp1371
g60
(g81
g62
NtRp1372
(dp1373
g65
(dp1374
g85
g86
ssg74
g1368
sg67
(lp1375
S'http_user_agent'
p1376
asbag60
(g81
g62
NtRp1377
(dp1378
g65
(dp1379
g92
g93
ssg74
g1368
sg67
(lp1380
S':'
asbag60
(g81
g62
NtRp1381
(dp1382
g65
(dp1383
sg74
g1368
sg67
(lp1384
g60
(g61
g62
NtRp1385
(dp1386
g65
(dp1387
g73
I4
ssg74
g1381
sg67
(lp1388
S'Mozilla/5.0 (X11; Linux i686) AppleWebKit/535.1 (KHTML, like Gecko) Chrome/14.0.835.204 Safari/535.1'
p1389
asbasbasbag60
(g76
g62
NtRp1390
(dp1391
g65
(dp1392
sg74
g1010
sg67
(lp1393
g60
(g81
g62
NtRp1394
(dp1395
g65
(dp1396
g85
g86
ssg74
g1390
sg67
(lp1397
S'is_jython'
p1398
asbag60
(g81
g62
NtRp1399
(dp1400
g65
(dp1401
g92
g93
ssg74
g1390
sg67
(lp1402
S':'
asbag60
(g81
g62
NtRp1403
(dp1404
g65
(dp1405
sg74
g1390
sg67
(lp1406
g60
(g61
g62
NtRp1407
(dp1408
g65
(dp1409
g73
I4
ssg74
g1403
sg67
(lp1410
g103
asbasbasbag60
(g76
g62
NtRp1411
(dp1412
g65
(dp1413
sg74
g1010
sg67
(lp1414
g60
(g81
g62
NtRp1415
(dp1416
g65
(dp1417
g85
g86
ssg74
g1411
sg67
(lp1418
S'path_info'
p1419
asbag60
(g81
g62
NtRp1420
(dp1421
g65
(dp1422
g92
g93
ssg74
g1411
sg67
(lp1423
S':'
asbag60
(g81
g62
NtRp1424
(dp1425
g65
(dp1426
sg74
g1411
sg67
(lp1427
g60
(g61
g62
NtRp1428
(dp1429
g65
(dp1430
g73
I4
ssg74
g1424
sg67
(lp1431
S'/gallery/default/sendform'
p1432
asbasbasbag60
(g76
g62
NtRp1433
(dp1434
g65
(dp1435
sg74
g1010
sg67
(lp1436
g60
(g81
g62
NtRp1437
(dp1438
g65
(dp1439
g85
g86
ssg74
g1433
sg67
(lp1440
S'query_string'
p1441
asbag60
(g81
g62
NtRp1442
(dp1443
g65
(dp1444
g92
g93
ssg74
g1433
sg67
(lp1445
S':'
asbag60
(g81
g62
NtRp1446
(dp1447
g65
(dp1448
sg74
g1433
sg67
(lp1449
g60
(g61
g62
NtRp1450
(dp1451
g65
(dp1452
g73
I4
ssg74
g1446
sg67
(lp1453
S''
asbasbasbag60
(g76
g62
NtRp1454
(dp1455
g65
(dp1456
sg74
g1010
sg67
(lp1457
g60
(g81
g62
NtRp1458
(dp1459
g65
(dp1460
g85
g86
ssg74
g1454
sg67
(lp1461
S'remote_addr'
p1462
asbag60
(g81
g62
NtRp1463
(dp1464
g65
(dp1465
g92
g93
ssg74
g1454
sg67
(lp1466
S':'
asbag60
(g81
g62
NtRp1467
(dp1468
g65
(dp1469
sg74
g1454
sg67
(lp1470
g60
(g61
g62
NtRp1471
(dp1472
g65
(dp1473
g73
I4
ssg74
g1467
sg67
(lp1474
g193
asbasbasbag60
(g76
g62
NtRp1475
(dp1476
g65
(dp1477
sg74
g1010
sg67
(lp1478
g60
(g81
g62
NtRp1479
(dp1480
g65
(dp1481
g85
g86
ssg74
g1475
sg67
(lp1482
S'remote_port'
p1483
asbag60
(g81
g62
NtRp1484
(dp1485
g65
(dp1486
g92
g93
ssg74
g1475
sg67
(lp1487
S':'
asbag60
(g81
g62
NtRp1488
(dp1489
g65
(dp1490
sg74
g1475
sg67
(lp1491
g60
(g61
g62
NtRp1492
(dp1493
g65
(dp1494
g73
I4
ssg74
g1488
sg67
(lp1495
S'59001'
p1496
asbasbasbag60
(g76
g62
NtRp1497
(dp1498
g65
(dp1499
sg74
g1010
sg67
(lp1500
g60
(g81
g62
NtRp1501
(dp1502
g65
(dp1503
g85
g86
ssg74
g1497
sg67
(lp1504
S'request_method'
p1505
asbag60
(g81
g62
NtRp1506
(dp1507
g65
(dp1508
g92
g93
ssg74
g1497
sg67
(lp1509
S':'
asbag60
(g81
g62
NtRp1510
(dp1511
g65
(dp1512
sg74
g1497
sg67
(lp1513
g60
(g61
g62
NtRp1514
(dp1515
g65
(dp1516
g73
I4
ssg74
g1510
sg67
(lp1517
S'GET'
p1518
asbasbasbag60
(g76
g62
NtRp1519
(dp1520
g65
(dp1521
sg74
g1010
sg67
(lp1522
g60
(g81
g62
NtRp1523
(dp1524
g65
(dp1525
g85
g86
ssg74
g1519
sg67
(lp1526
S'script_name'
p1527
asbag60
(g81
g62
NtRp1528
(dp1529
g65
(dp1530
g92
g93
ssg74
g1519
sg67
(lp1531
S':'
asbag60
(g81
g62
NtRp1532
(dp1533
g65
(dp1534
sg74
g1519
sg67
(lp1535
g60
(g61
g62
NtRp1536
(dp1537
g65
(dp1538
g73
I4
ssg74
g1532
sg67
(lp1539
S''
asbasbasbag60
(g76
g62
NtRp1540
(dp1541
g65
(dp1542
sg74
g1010
sg67
(lp1543
g60
(g81
g62
NtRp1544
(dp1545
g65
(dp1546
g85
g86
ssg74
g1540
sg67
(lp1547
S'server_name'
p1548
asbag60
(g81
g62
NtRp1549
(dp1550
g65
(dp1551
g92
g93
ssg74
g1540
sg67
(lp1552
S':'
asbag60
(g81
g62
NtRp1553
(dp1554
g65
(dp1555
sg74
g1540
sg67
(lp1556
g60
(g61
g62
NtRp1557
(dp1558
g65
(dp1559
g73
I4
ssg74
g1553
sg67
(lp1560
S'localhost.localdomain'
p1561
asbasbasbag60
(g76
g62
NtRp1562
(dp1563
g65
(dp1564
sg74
g1010
sg67
(lp1565
g60
(g81
g62
NtRp1566
(dp1567
g65
(dp1568
g85
g86
ssg74
g1562
sg67
(lp1569
S'server_port'
p1570
asbag60
(g81
g62
NtRp1571
(dp1572
g65
(dp1573
g92
g93
ssg74
g1562
sg67
(lp1574
S':'
asbag60
(g81
g62
NtRp1575
(dp1576
g65
(dp1577
sg74
g1562
sg67
(lp1578
g60
(g61
g62
NtRp1579
(dp1580
g65
(dp1581
g73
I4
ssg74
g1575
sg67
(lp1582
S'8000'
p1583
asbasbasbag60
(g76
g62
NtRp1584
(dp1585
g65
(dp1586
sg74
g1010
sg67
(lp1587
g60
(g81
g62
NtRp1588
(dp1589
g65
(dp1590
g85
g86
ssg74
g1584
sg67
(lp1591
S'server_protocol'
p1592
asbag60
(g81
g62
NtRp1593
(dp1594
g65
(dp1595
g92
g93
ssg74
g1584
sg67
(lp1596
S':'
asbag60
(g81
g62
NtRp1597
(dp1598
g65
(dp1599
sg74
g1584
sg67
(lp1600
g60
(g61
g62
NtRp1601
(dp1602
g65
(dp1603
g73
I4
ssg74
g1597
sg67
(lp1604
S'HTTP/1.1'
p1605
asbasbasbag60
(g76
g62
NtRp1606
(dp1607
g65
(dp1608
sg74
g1010
sg67
(lp1609
g60
(g81
g62
NtRp1610
(dp1611
g65
(dp1612
g85
g86
ssg74
g1606
sg67
(lp1613
S'server_software'
p1614
asbag60
(g81
g62
NtRp1615
(dp1616
g65
(dp1617
g92
g93
ssg74
g1606
sg67
(lp1618
S':'
asbag60
(g81
g62
NtRp1619
(dp1620
g65
(dp1621
sg74
g1606
sg67
(lp1622
g60
(g61
g62
NtRp1623
(dp1624
g65
(dp1625
g73
I4
ssg74
g1619
sg67
(lp1626
S'Rocket 1.2.4'
p1627
asbasbasbag60
(g76
g62
NtRp1628
(dp1629
g65
(dp1630
sg74
g1010
sg67
(lp1631
g60
(g81
g62
NtRp1632
(dp1633
g65
(dp1634
g85
g86
ssg74
g1628
sg67
(lp1635
S'web2py_crontype'
p1636
asbag60
(g81
g62
NtRp1637
(dp1638
g65
(dp1639
g92
g93
ssg74
g1628
sg67
(lp1640
S':'
asbag60
(g81
g62
NtRp1641
(dp1642
g65
(dp1643
sg74
g1628
sg67
(lp1644
g60
(g61
g62
NtRp1645
(dp1646
g65
(dp1647
g73
I4
ssg74
g1641
sg67
(lp1648
S'hard'
p1649
asbasbasbag60
(g76
g62
NtRp1650
(dp1651
g65
(dp1652
sg74
g1010
sg67
(lp1653
g60
(g81
g62
NtRp1654
(dp1655
g65
(dp1656
g85
g86
ssg74
g1650
sg67
(lp1657
S'web2py_path'
p1658
asbag60
(g81
g62
NtRp1659
(dp1660
g65
(dp1661
g92
g93
ssg74
g1650
sg67
(lp1662
S':'
asbag60
(g81
g62
NtRp1663
(dp1664
g65
(dp1665
sg74
g1650
sg67
(lp1666
g60
(g61
g62
NtRp1667
(dp1668
g65
(dp1669
g73
I4
ssg74
g1663
sg67
(lp1670
g1057
asbasbasbag60
(g76
g62
NtRp1671
(dp1672
g65
(dp1673
sg74
g1010
sg67
(lp1674
g60
(g81
g62
NtRp1675
(dp1676
g65
(dp1677
g85
g86
ssg74
g1671
sg67
(lp1678
S'web2py_version'
p1679
asbag60
(g81
g62
NtRp1680
(dp1681
g65
(dp1682
g92
g93
ssg74
g1671
sg67
(lp1683
S':'
asbag60
(g81
g62
NtRp1684
(dp1685
g65
(dp1686
sg74
g1671
sg67
(lp1687
g60
(g61
g62
NtRp1688
(dp1689
g65
(dp1690
g73
I4
ssg74
g1684
sg67
(lp1691
g60
(g69
g62
NtRp1692
(dp1693
g65
(dp1694
g73
I3
ssg74
Nsg67
(lp1695
g60
(g76
g62
NtRp1696
(dp1697
g65
(dp1698
sg74
g1692
sg67
(lp1699
g60
(g81
g62
NtRp1700
(dp1701
g65
(dp1702
sg74
g1696
sg67
(lp1703
g60
(g61
g62
NtRp1704
(dp1705
g65
(dp1706
g73
I3
ssg74
g1700
sg67
(lp1707
S'1'
asbasbasbag60
(g76
g62
NtRp1708
(dp1709
g65
(dp1710
sg74
g1692
sg67
(lp1711
g60
(g81
g62
NtRp1712
(dp1713
g65
(dp1714
sg74
g1708
sg67
(lp1715
g60
(g61
g62
NtRp1716
(dp1717
g65
(dp1718
g73
I3
ssg74
g1712
sg67
(lp1719
S'99'
p1720
asbasbasbag60
(g76
g62
NtRp1721
(dp1722
g65
(dp1723
sg74
g1692
sg67
(lp1724
g60
(g81
g62
NtRp1725
(dp1726
g65
(dp1727
sg74
g1721
sg67
(lp1728
g60
(g61
g62
NtRp1729
(dp1730
g65
(dp1731
g73
I3
ssg74
g1725
sg67
(lp1732
S'2'
asbasbasbag60
(g76
g62
NtRp1733
(dp1734
g65
(dp1735
sg74
g1692
sg67
(lp1736
g60
(g81
g62
NtRp1737
(dp1738
g65
(dp1739
sg74
g1733
sg67
(lp1740
g60
(g61
g62
NtRp1741
(dp1742
g65
(dp1743
g73
I3
ssg74
g1737
sg67
(lp1744
S'datetime.datetime(2011, 9, 26, 6, 55, 33)'
p1745
asbasbasbag60
(g76
g62
NtRp1746
(dp1747
g65
(dp1748
sg74
g1692
sg67
(lp1749
g60
(g81
g62
NtRp1750
(dp1751
g65
(dp1752
sg74
g1746
sg67
(lp1753
g60
(g61
g62
NtRp1754
(dp1755
g65
(dp1756
g73
I3
ssg74
g1750
sg67
(lp1757
S'stable'
p1758
asbasbasbasbasbasbasbag60
(g76
g62
NtRp1759
(dp1760
g65
(dp1761
sg74
g1010
sg67
(lp1762
g60
(g81
g62
NtRp1763
(dp1764
g65
(dp1765
g85
g86
ssg74
g1759
sg67
(lp1766
S'wsgi_errors'
p1767
asbag60
(g81
g62
NtRp1768
(dp1769
g65
(dp1770
g92
g93
ssg74
g1759
sg67
(lp1771
S':'
asbag60
(g81
g62
NtRp1772
(dp1773
g65
(dp1774
sg74
g1759
sg67
(lp1775
g60
(g61
g62
NtRp1776
(dp1777
g65
(dp1778
g73
I4
ssg74
g1772
sg67
(lp1779
S"<open file '<stderr>', mode 'w' at 0xb75610d0>"
p1780
asbasbasbag60
(g76
g62
NtRp1781
(dp1782
g65
(dp1783
sg74
g1010
sg67
(lp1784
g60
(g81
g62
NtRp1785
(dp1786
g65
(dp1787
g85
g86
ssg74
g1781
sg67
(lp1788
S'wsgi_file_wrapper'
p1789
asbag60
(g81
g62
NtRp1790
(dp1791
g65
(dp1792
g92
g93
ssg74
g1781
sg67
(lp1793
S':'
asbag60
(g81
g62
NtRp1794
(dp1795
g65
(dp1796
sg74
g1781
sg67
(lp1797
g60
(g61
g62
NtRp1798
(dp1799
g65
(dp1800
g73
I4
ssg74
g1794
sg67
(lp1801
S'<class wsgiref.util.FileWrapper at 0x8a4d50c>'
p1802
asbasbasbag60
(g76
g62
NtRp1803
(dp1804
g65
(dp1805
sg74
g1010
sg67
(lp1806
g60
(g81
g62
NtRp1807
(dp1808
g65
(dp1809
g85
g86
ssg74
g1803
sg67
(lp1810
S'wsgi_input'
p1811
asbag60
(g81
g62
NtRp1812
(dp1813
g65
(dp1814
g92
g93
ssg74
g1803
sg67
(lp1815
S':'
asbag60
(g81
g62
NtRp1816
(dp1817
g65
(dp1818
sg74
g1803
sg67
(lp1819
g60
(g61
g62
NtRp1820
(dp1821
g65
(dp1822
g73
I4
ssg74
g1816
sg67
(lp1823
S'<socket._fileobject object at 0xaf04552c>'
p1824
asbasbasbag60
(g76
g62
NtRp1825
(dp1826
g65
(dp1827
sg74
g1010
sg67
(lp1828
g60
(g81
g62
NtRp1829
(dp1830
g65
(dp1831
g85
g86
ssg74
g1825
sg67
(lp1832
S'wsgi_multiprocess'
p1833
asbag60
(g81
g62
NtRp1834
(dp1835
g65
(dp1836
g92
g93
ssg74
g1825
sg67
(lp1837
S':'
asbag60
(g81
g62
NtRp1838
(dp1839
g65
(dp1840
sg74
g1825
sg67
(lp1841
g60
(g61
g62
NtRp1842
(dp1843
g65
(dp1844
g73
I4
ssg74
g1838
sg67
(lp1845
g103
asbasbasbag60
(g76
g62
NtRp1846
(dp1847
g65
(dp1848
sg74
g1010
sg67
(lp1849
g60
(g81
g62
NtRp1850
(dp1851
g65
(dp1852
g85
g86
ssg74
g1846
sg67
(lp1853
S'wsgi_multithread'
p1854
asbag60
(g81
g62
NtRp1855
(dp1856
g65
(dp1857
g92
g93
ssg74
g1846
sg67
(lp1858
S':'
asbag60
(g81
g62
NtRp1859
(dp1860
g65
(dp1861
sg74
g1846
sg67
(lp1862
g60
(g61
g62
NtRp1863
(dp1864
g65
(dp1865
g73
I4
ssg74
g1859
sg67
(lp1866
S'True'
p1867
asbasbasbag60
(g76
g62
NtRp1868
(dp1869
g65
(dp1870
sg74
g1010
sg67
(lp1871
g60
(g81
g62
NtRp1872
(dp1873
g65
(dp1874
g85
g86
ssg74
g1868
sg67
(lp1875
S'wsgi_run_once'
p1876
asbag60
(g81
g62
NtRp1877
(dp1878
g65
(dp1879
g92
g93
ssg74
g1868
sg67
(lp1880
S':'
asbag60
(g81
g62
NtRp1881
(dp1882
g65
(dp1883
sg74
g1868
sg67
(lp1884
g60
(g61
g62
NtRp1885
(dp1886
g65
(dp1887
g73
I4
ssg74
g1881
sg67
(lp1888
g103
asbasbasbag60
(g76
g62
NtRp1889
(dp1890
g65
(dp1891
sg74
g1010
sg67
(lp1892
g60
(g81
g62
NtRp1893
(dp1894
g65
(dp1895
g85
g86
ssg74
g1889
sg67
(lp1896
S'wsgi_url_scheme'
p1897
asbag60
(g81
g62
NtRp1898
(dp1899
g65
(dp1900
g92
g93
ssg74
g1889
sg67
(lp1901
S':'
asbag60
(g81
g62
NtRp1902
(dp1903
g65
(dp1904
sg74
g1889
sg67
(lp1905
g60
(g61
g62
NtRp1906
(dp1907
g65
(dp1908
g73
I4
ssg74
g1902
sg67
(lp1909
S'http'
p1910
asbasbasbag60
(g76
g62
NtRp1911
(dp1912
g65
(dp1913
sg74
g1010
sg67
(lp1914
g60
(g81
g62
NtRp1915
(dp1916
g65
(dp1917
g85
g86
ssg74
g1911
sg67
(lp1918
S'wsgi_version'
p1919
asbag60
(g81
g62
NtRp1920
(dp1921
g65
(dp1922
g92
g93
ssg74
g1911
sg67
(lp1923
S':'
asbag60
(g81
g62
NtRp1924
(dp1925
g65
(dp1926
sg74
g1911
sg67
(lp1927
g60
(g61
g62
NtRp1928
(dp1929
g65
(dp1930
g73
I4
ssg74
g1924
sg67
(lp1931
g60
(g69
g62
NtRp1932
(dp1933
g65
(dp1934
g73
I3
ssg74
Nsg67
(lp1935
g60
(g76
g62
NtRp1936
(dp1937
g65
(dp1938
sg74
g1932
sg67
(lp1939
g60
(g81
g62
NtRp1940
(dp1941
g65
(dp1942
sg74
g1936
sg67
(lp1943
g60
(g61
g62
NtRp1944
(dp1945
g65
(dp1946
g73
I3
ssg74
g1940
sg67
(lp1947
S'1'
asbasbasbag60
(g76
g62
NtRp1948
(dp1949
g65
(dp1950
sg74
g1932
sg67
(lp1951
g60
(g81
g62
NtRp1952
(dp1953
g65
(dp1954
sg74
g1948
sg67
(lp1955
g60
(g61
g62
NtRp1956
(dp1957
g65
(dp1958
g73
I3
ssg74
g1952
sg67
(lp1959
S'0'
asbasbasbasbasbasbasbasbasbasbasbag60
(g76
g62
NtRp1960
(dp1961
g65
(dp1962
sg74
g70
sg67
(lp1963
g60
(g81
g62
NtRp1964
(dp1965
g65
(dp1966
g85
g86
ssg74
g1960
sg67
(lp1967
S'extension'
p1968
asbag60
(g81
g62
NtRp1969
(dp1970
g65
(dp1971
g92
g93
ssg74
g1960
sg67
(lp1972
S':'
asbag60
(g81
g62
NtRp1973
(dp1974
g65
(dp1975
sg74
g1960
sg67
(lp1976
g60
(g61
g62
NtRp1977
(dp1978
g65
(dp1979
g73
I5
ssg74
g1973
sg67
(lp1980
S'html'
p1981
asbasbasbag60
(g76
g62
NtRp1982
(dp1983
g65
(dp1984
sg74
g70
sg67
(lp1985
g60
(g81
g62
NtRp1986
(dp1987
g65
(dp1988
g85
g86
ssg74
g1982
sg67
(lp1989
S'folder'
p1990
asbag60
(g81
g62
NtRp1991
(dp1992
g65
(dp1993
g92
g93
ssg74
g1982
sg67
(lp1994
S':'
asbag60
(g81
g62
NtRp1995
(dp1996
g65
(dp1997
sg74
g1982
sg67
(lp1998
g60
(g61
g62
NtRp1999
(dp2000
g65
(dp2001
g73
I5
ssg74
g1995
sg67
(lp2002
S'/home/brencam/web2py/applications/gallery/'
p2003
asbasbasbag60
(g76
g62
NtRp2004
(dp2005
g65
(dp2006
sg74
g70
sg67
(lp2007
g60
(g81
g62
NtRp2008
(dp2009
g65
(dp2010
g85
g86
ssg74
g2004
sg67
(lp2011
S'function'
p2012
asbag60
(g81
g62
NtRp2013
(dp2014
g65
(dp2015
g92
g93
ssg74
g2004
sg67
(lp2016
S':'
asbag60
(g81
g62
NtRp2017
(dp2018
g65
(dp2019
sg74
g2004
sg67
(lp2020
g60
(g61
g62
NtRp2021
(dp2022
g65
(dp2023
g73
I5
ssg74
g2017
sg67
(lp2024
S'sendform'
p2025
asbasbasbag60
(g76
g62
NtRp2026
(dp2027
g65
(dp2028
sg74
g70
sg67
(lp2029
g60
(g81
g62
NtRp2030
(dp2031
g65
(dp2032
g85
g86
ssg74
g2026
sg67
(lp2033
S'get_vars'
p2034
asbag60
(g81
g62
NtRp2035
(dp2036
g65
(dp2037
g92
g93
ssg74
g2026
sg67
(lp2038
S':'
asbag60
(g81
g62
NtRp2039
(dp2040
g65
(dp2041
sg74
g2026
sg67
(lp2042
g60
(g61
g62
NtRp2043
(dp2044
g65
(dp2045
g73
I5
ssg74
g2039
sg67
(lp2046
g60
(g69
g62
NtRp2047
(dp2048
g65
(dp2049
g73
I4
ssg74
Nsg67
(lp2050
sbasbasbasbag60
(g76
g62
NtRp2051
(dp2052
g65
(dp2053
sg74
g70
sg67
(lp2054
g60
(g81
g62
NtRp2055
(dp2056
g65
(dp2057
g85
g86
ssg74
g2051
sg67
(lp2058
S'global_settings'
p2059
asbag60
(g81
g62
NtRp2060
(dp2061
g65
(dp2062
g92
g93
ssg74
g2051
sg67
(lp2063
S':'
asbag60
(g81
g62
NtRp2064
(dp2065
g65
(dp2066
sg74
g2051
sg67
(lp2067
g60
(g61
g62
NtRp2068
(dp2069
g65
(dp2070
g73
I5
ssg74
g2064
sg67
(lp2071
g60
(g69
g62
NtRp2072
(dp2073
g65
(dp2074
g73
I4
ssg74
Nsg67
(lp2075
g60
(g76
g62
NtRp2076
(dp2077
g65
(dp2078
sg74
g2072
sg67
(lp2079
g60
(g81
g62
NtRp2080
(dp2081
g65
(dp2082
g85
g86
ssg74
g2076
sg67
(lp2083
g1022
asbag60
(g81
g62
NtRp2084
(dp2085
g65
(dp2086
g92
g93
ssg74
g2076
sg67
(lp2087
S':'
asbag60
(g81
g62
NtRp2088
(dp2089
g65
(dp2090
sg74
g2076
sg67
(lp2091
g60
(g61
g62
NtRp2092
(dp2093
g65
(dp2094
g73
I4
ssg74
g2088
sg67
(lp2095
S"set(['/home/brencam/web2py/applications/gallery/'])"
p2096
asbasbasbag60
(g76
g62
NtRp2097
(dp2098
g65
(dp2099
sg74
g2072
sg67
(lp2100
g60
(g81
g62
NtRp2101
(dp2102
g65
(dp2103
g85
g86
ssg74
g2097
sg67
(lp2104
g1044
asbag60
(g81
g62
NtRp2105
(dp2106
g65
(dp2107
g92
g93
ssg74
g2097
sg67
(lp2108
S':'
asbag60
(g81
g62
NtRp2109
(dp2110
g65
(dp2111
sg74
g2097
sg67
(lp2112
g60
(g61
g62
NtRp2113
(dp2114
g65
(dp2115
g73
I4
ssg74
g2109
sg67
(lp2116
g1057
asbasbasbag60
(g76
g62
NtRp2117
(dp2118
g65
(dp2119
sg74
g2072
sg67
(lp2120
g60
(g81
g62
NtRp2121
(dp2122
g65
(dp2123
g85
g86
ssg74
g2117
sg67
(lp2124
g1066
asbag60
(g81
g62
NtRp2125
(dp2126
g65
(dp2127
g92
g93
ssg74
g2117
sg67
(lp2128
S':'
asbag60
(g81
g62
NtRp2129
(dp2130
g65
(dp2131
sg74
g2117
sg67
(lp2132
g60
(g61
g62
NtRp2133
(dp2134
g65
(dp2135
g73
I4
ssg74
g2129
sg67
(lp2136
g60
(g69
g62
NtRp2137
(dp2138
g65
(dp2139
g73
I3
ssg74
Nsg67
(lp2140
sbasbasbasbag60
(g76
g62
NtRp2141
(dp2142
g65
(dp2143
sg74
g2072
sg67
(lp2144
g60
(g81
g62
NtRp2145
(dp2146
g65
(dp2147
g85
g86
ssg74
g2141
sg67
(lp2148
g1091
asbag60
(g81
g62
NtRp2149
(dp2150
g65
(dp2151
g92
g93
ssg74
g2141
sg67
(lp2152
S':'
asbag60
(g81
g62
NtRp2153
(dp2154
g65
(dp2155
sg74
g2141
sg67
(lp2156
g60
(g61
g62
NtRp2157
(dp2158
g65
(dp2159
g73
I4
ssg74
g2153
sg67
(lp2160
S"<Values at 0x8e5026c: {'verbose': False, 'ip': '127.0.0.1', 'shutdown_timeout': 5, 'taskbar': False, 'nocron': False, 'pid_filename': 'httpserver.pid', 'maxthreads': None, 'softcron': False, 'server_name': 'localhost.localdomain', 'bpython': False, 'nogui': False, 'port': 8000, 'extcron': False, 'debuglevel': 30, 'test': None, 'folder': '/home/brencam/web2py', 'config': '', 'import_models': False, 'winservice': '', 'shell': None, 'run': '', 'log_filename': 'httpserver.log', 'args': [''], 'ssl_ca_certificate': None, 'scheduler': None, 'profiler_filename': None, 'ssl_private_key': '', 'password': 'admin', 'request_queue_size': 5, 'ssl_certificate': '', 'cronjob': False, 'plain': False, 'quiet': False, 'interfaces': None, 'minthreads': None, 'timeout': 10, 'numthreads': None, 'nobanner': False}>"
p2161
asbasbasbag60
(g76
g62
NtRp2162
(dp2163
g65
(dp2164
sg74
g2072
sg67
(lp2165
g60
(g81
g62
NtRp2166
(dp2167
g65
(dp2168
g85
g86
ssg74
g2162
sg67
(lp2169
g1113
asbag60
(g81
g62
NtRp2170
(dp2171
g65
(dp2172
g92
g93
ssg74
g2162
sg67
(lp2173
S':'
asbag60
(g81
g62
NtRp2174
(dp2175
g65
(dp2176
sg74
g2162
sg67
(lp2177
g60
(g61
g62
NtRp2178
(dp2179
g65
(dp2180
g73
I4
ssg74
g2174
sg67
(lp2181
S'set([])'
p2182
asbasbasbag60
(g76
g62
NtRp2183
(dp2184
g65
(dp2185
sg74
g2072
sg67
(lp2186
g60
(g81
g62
NtRp2187
(dp2188
g65
(dp2189
g85
g86
ssg74
g2183
sg67
(lp2190
g1135
asbag60
(g81
g62
NtRp2191
(dp2192
g65
(dp2193
g92
g93
ssg74
g2183
sg67
(lp2194
S':'
asbag60
(g81
g62
NtRp2195
(dp2196
g65
(dp2197
sg74
g2183
sg67
(lp2198
g60
(g61
g62
NtRp2199
(dp2200
g65
(dp2201
g73
I4
ssg74
g2195
sg67
(lp2202
g103
asbasbasbag60
(g76
g62
NtRp2203
(dp2204
g65
(dp2205
sg74
g2072
sg67
(lp2206
g60
(g81
g62
NtRp2207
(dp2208
g65
(dp2209
g85
g86
ssg74
g2203
sg67
(lp2210
g1156
asbag60
(g81
g62
NtRp2211
(dp2212
g65
(dp2213
g92
g93
ssg74
g2203
sg67
(lp2214
S':'
asbag60
(g81
g62
NtRp2215
(dp2216
g65
(dp2217
sg74
g2203
sg67
(lp2218
g60
(g61
g62
NtRp2219
(dp2220
g65
(dp2221
g73
I4
ssg74
g2215
sg67
(lp2222
g1169
asbasbasbag60
(g76
g62
NtRp2223
(dp2224
g65
(dp2225
sg74
g2072
sg67
(lp2226
g60
(g81
g62
NtRp2227
(dp2228
g65
(dp2229
g85
g86
ssg74
g2223
sg67
(lp2230
g1398
asbag60
(g81
g62
NtRp2231
(dp2232
g65
(dp2233
g92
g93
ssg74
g2223
sg67
(lp2234
S':'
asbag60
(g81
g62
NtRp2235
(dp2236
g65
(dp2237
sg74
g2223
sg67
(lp2238
g60
(g61
g62
NtRp2239
(dp2240
g65
(dp2241
g73
I4
ssg74
g2235
sg67
(lp2242
g103
asbasbasbag60
(g76
g62
NtRp2243
(dp2244
g65
(dp2245
sg74
g2072
sg67
(lp2246
g60
(g81
g62
NtRp2247
(dp2248
g65
(dp2249
g85
g86
ssg74
g2243
sg67
(lp2250
g1636
asbag60
(g81
g62
NtRp2251
(dp2252
g65
(dp2253
g92
g93
ssg74
g2243
sg67
(lp2254
S':'
asbag60
(g81
g62
NtRp2255
(dp2256
g65
(dp2257
sg74
g2243
sg67
(lp2258
g60
(g61
g62
NtRp2259
(dp2260
g65
(dp2261
g73
I4
ssg74
g2255
sg67
(lp2262
g1649
asbasbasbag60
(g76
g62
NtRp2263
(dp2264
g65
(dp2265
sg74
g2072
sg67
(lp2266
g60
(g81
g62
NtRp2267
(dp2268
g65
(dp2269
g85
g86
ssg74
g2263
sg67
(lp2270
g1679
asbag60
(g81
g62
NtRp2271
(dp2272
g65
(dp2273
g92
g93
ssg74
g2263
sg67
(lp2274
S':'
asbag60
(g81
g62
NtRp2275
(dp2276
g65
(dp2277
sg74
g2263
sg67
(lp2278
g60
(g61
g62
NtRp2279
(dp2280
g65
(dp2281
g73
I4
ssg74
g2275
sg67
(lp2282
g60
(g69
g62
NtRp2283
(dp2284
g65
(dp2285
g73
I3
ssg74
Nsg67
(lp2286
g60
(g76
g62
NtRp2287
(dp2288
g65
(dp2289
sg74
g2283
sg67
(lp2290
g60
(g81
g62
NtRp2291
(dp2292
g65
(dp2293
sg74
g2287
sg67
(lp2294
g60
(g61
g62
NtRp2295
(dp2296
g65
(dp2297
g73
I3
ssg74
g2291
sg67
(lp2298
S'1'
asbasbasbag60
(g76
g62
NtRp2299
(dp2300
g65
(dp2301
sg74
g2283
sg67
(lp2302
g60
(g81
g62
NtRp2303
(dp2304
g65
(dp2305
sg74
g2299
sg67
(lp2306
g60
(g61
g62
NtRp2307
(dp2308
g65
(dp2309
g73
I3
ssg74
g2303
sg67
(lp2310
S'99'
p2311
asbasbasbag60
(g76
g62
NtRp2312
(dp2313
g65
(dp2314
sg74
g2283
sg67
(lp2315
g60
(g81
g62
NtRp2316
(dp2317
g65
(dp2318
sg74
g2312
sg67
(lp2319
g60
(g61
g62
NtRp2320
(dp2321
g65
(dp2322
g73
I3
ssg74
g2316
sg67
(lp2323
S'2'
asbasbasbag60
(g76
g62
NtRp2324
(dp2325
g65
(dp2326
sg74
g2283
sg67
(lp2327
g60
(g81
g62
NtRp2328
(dp2329
g65
(dp2330
sg74
g2324
sg67
(lp2331
g60
(g61
g62
NtRp2332
(dp2333
g65
(dp2334
g73
I3
ssg74
g2328
sg67
(lp2335
S'datetime.datetime(2011, 9, 26, 6, 55, 33)'
p2336
asbasbasbag60
(g76
g62
NtRp2337
(dp2338
g65
(dp2339
sg74
g2283
sg67
(lp2340
g60
(g81
g62
NtRp2341
(dp2342
g65
(dp2343
sg74
g2337
sg67
(lp2344
g60
(g61
g62
NtRp2345
(dp2346
g65
(dp2347
g73
I3
ssg74
g2341
sg67
(lp2348
g1758
asbasbasbasbasbasbasbasbasbasbasbag60
(g76
g62
NtRp2349
(dp2350
g65
(dp2351
sg74
g70
sg67
(lp2352
g60
(g81
g62
NtRp2353
(dp2354
g65
(dp2355
g85
g86
ssg74
g2349
sg67
(lp2356
S'is_https'
p2357
asbag60
(g81
g62
NtRp2358
(dp2359
g65
(dp2360
g92
g93
ssg74
g2349
sg67
(lp2361
S':'
asbag60
(g81
g62
NtRp2362
(dp2363
g65
(dp2364
sg74
g2349
sg67
(lp2365
g60
(g61
g62
NtRp2366
(dp2367
g65
(dp2368
g73
I5
ssg74
g2362
sg67
(lp2369
g103
asbasbasbag60
(g76
g62
NtRp2370
(dp2371
g65
(dp2372
sg74
g70
sg67
(lp2373
g60
(g81
g62
NtRp2374
(dp2375
g65
(dp2376
g85
g86
ssg74
g2370
sg67
(lp2377
S'is_local'
p2378
asbag60
(g81
g62
NtRp2379
(dp2380
g65
(dp2381
g92
g93
ssg74
g2370
sg67
(lp2382
S':'
asbag60
(g81
g62
NtRp2383
(dp2384
g65
(dp2385
sg74
g2370
sg67
(lp2386
g60
(g61
g62
NtRp2387
(dp2388
g65
(dp2389
g73
I5
ssg74
g2383
sg67
(lp2390
g1867
asbasbasbag60
(g76
g62
NtRp2391
(dp2392
g65
(dp2393
sg74
g70
sg67
(lp2394
g60
(g81
g62
NtRp2395
(dp2396
g65
(dp2397
g85
g86
ssg74
g2391
sg67
(lp2398
S'is_restful'
p2399
asbag60
(g81
g62
NtRp2400
(dp2401
g65
(dp2402
g92
g93
ssg74
g2391
sg67
(lp2403
S':'
asbag60
(g81
g62
NtRp2404
(dp2405
g65
(dp2406
sg74
g2391
sg67
(lp2407
g60
(g61
g62
NtRp2408
(dp2409
g65
(dp2410
g73
I5
ssg74
g2404
sg67
(lp2411
g103
asbasbasbag60
(g76
g62
NtRp2412
(dp2413
g65
(dp2414
sg74
g70
sg67
(lp2415
g60
(g81
g62
NtRp2416
(dp2417
g65
(dp2418
g85
g86
ssg74
g2412
sg67
(lp2419
S'now'
p2420
asbag60
(g81
g62
NtRp2421
(dp2422
g65
(dp2423
g92
g93
ssg74
g2412
sg67
(lp2424
S':'
asbag60
(g81
g62
NtRp2425
(dp2426
g65
(dp2427
sg74
g2412
sg67
(lp2428
g60
(g61
g62
NtRp2429
(dp2430
g65
(dp2431
g73
I5
ssg74
g2425
sg67
(lp2432
S'datetime.datetime(2011, 11, 2, 23, 22, 54, 902705)'
p2433
asbasbasbag60
(g76
g62
NtRp2434
(dp2435
g65
(dp2436
sg74
g70
sg67
(lp2437
g60
(g81
g62
NtRp2438
(dp2439
g65
(dp2440
g85
g86
ssg74
g2434
sg67
(lp2441
S'post_vars'
p2442
asbag60
(g81
g62
NtRp2443
(dp2444
g65
(dp2445
g92
g93
ssg74
g2434
sg67
(lp2446
S':'
asbag60
(g81
g62
NtRp2447
(dp2448
g65
(dp2449
sg74
g2434
sg67
(lp2450
g60
(g61
g62
NtRp2451
(dp2452
g65
(dp2453
g73
I5
ssg74
g2447
sg67
(lp2454
g60
(g69
g62
NtRp2455
(dp2456
g65
(dp2457
g73
I4
ssg74
Nsg67
(lp2458
sbasbasbasbag60
(g76
g62
NtRp2459
(dp2460
g65
(dp2461
sg74
g70
sg67
(lp2462
g60
(g81
g62
NtRp2463
(dp2464
g65
(dp2465
g85
g86
ssg74
g2459
sg67
(lp2466
S'url'
p2467
asbag60
(g81
g62
NtRp2468
(dp2469
g65
(dp2470
g92
g93
ssg74
g2459
sg67
(lp2471
S':'
asbag60
(g81
g62
NtRp2472
(dp2473
g65
(dp2474
sg74
g2459
sg67
(lp2475
g60
(g61
g62
NtRp2476
(dp2477
g65
(dp2478
g73
I5
ssg74
g2472
sg67
(lp2479
S'/gallery/default/sendform'
p2480
asbasbasbag60
(g76
g62
NtRp2481
(dp2482
g65
(dp2483
sg74
g70
sg67
(lp2484
g60
(g81
g62
NtRp2485
(dp2486
g65
(dp2487
g85
g86
ssg74
g2481
sg67
(lp2488
S'utcnow'
p2489
asbag60
(g81
g62
NtRp2490
(dp2491
g65
(dp2492
g92
g93
ssg74
g2481
sg67
(lp2493
S':'
asbag60
(g81
g62
NtRp2494
(dp2495
g65
(dp2496
sg74
g2481
sg67
(lp2497
g60
(g61
g62
NtRp2498
(dp2499
g65
(dp2500
g73
I5
ssg74
g2494
sg67
(lp2501
S'datetime.datetime(2011, 11, 3, 6, 22, 54, 902733)'
p2502
asbasbasbag60
(g76
g62
NtRp2503
(dp2504
g65
(dp2505
sg74
g70
sg67
(lp2506
g60
(g81
g62
NtRp2507
(dp2508
g65
(dp2509
g85
g86
ssg74
g2503
sg67
(lp2510
S'uuid'
p2511
asbag60
(g81
g62
NtRp2512
(dp2513
g65
(dp2514
g92
g93
ssg74
g2503
sg67
(lp2515
S':'
asbag60
(g81
g62
NtRp2516
(dp2517
g65
(dp2518
sg74
g2503
sg67
(lp2519
g60
(g61
g62
NtRp2520
(dp2521
g65
(dp2522
g73
I5
ssg74
g2516
sg67
(lp2523
S'gallery/127.0.0.1.2011-11-02.23-22-54.34f9f68a-f6ce-4af3-a5cb-eb57c3b5a054'
p2524
asbasbasbag60
(g76
g62
NtRp2525
(dp2526
g65
(dp2527
sg74
g70
sg67
(lp2528
g60
(g81
g62
NtRp2529
(dp2530
g65
(dp2531
g85
g86
ssg74
g2525
sg67
(lp2532
S'vars'
p2533
asbag60
(g81
g62
NtRp2534
(dp2535
g65
(dp2536
g92
g93
ssg74
g2525
sg67
(lp2537
S':'
asbag60
(g81
g62
NtRp2538
(dp2539
g65
(dp2540
sg74
g2525
sg67
(lp2541
g60
(g61
g62
NtRp2542
(dp2543
g65
(dp2544
g73
I5
ssg74
g2538
sg67
(lp2545
g60
(g69
g62
NtRp2546
(dp2547
g65
(dp2548
g73
I4
ssg74
Nsg67
(lp2549
sbasbasbasbag60
(g76
g62
NtRp2550
(dp2551
g65
(dp2552
sg74
g70
sg67
(lp2553
g60
(g81
g62
NtRp2554
(dp2555
g65
(dp2556
g85
g86
ssg74
g2550
sg67
(lp2557
S'wsgi'
p2558
asbag60
(g81
g62
NtRp2559
(dp2560
g65
(dp2561
g92
g93
ssg74
g2550
sg67
(lp2562
S':'
asbag60
(g81
g62
NtRp2563
(dp2564
g65
(dp2565
sg74
g2550
sg67
(lp2566
g60
(g61
g62
NtRp2567
(dp2568
g65
(dp2569
g73
I5
ssg74
g2563
sg67
(lp2570
g60
(g69
g62
NtRp2571
(dp2572
g65
(dp2573
g73
I4
ssg74
Nsg67
(lp2574
g60
(g76
g62
NtRp2575
(dp2576
g65
(dp2577
sg74
g2571
sg67
(lp2578
g60
(g81
g62
NtRp2579
(dp2580
g65
(dp2581
g85
g86
ssg74
g2575
sg67
(lp2582
S'environ'
p2583
asbag60
(g81
g62
NtRp2584
(dp2585
g65
(dp2586
g92
g93
ssg74
g2575
sg67
(lp2587
S':'
asbag60
(g81
g62
NtRp2588
(dp2589
g65
(dp2590
sg74
g2575
sg67
(lp2591
g60
(g61
g62
NtRp2592
(dp2593
g65
(dp2594
g73
I4
ssg74
g2588
sg67
(lp2595
g60
(g69
g62
NtRp2596
(dp2597
g65
(dp2598
g73
I3
ssg74
Nsg67
(lp2599
g60
(g76
g62
NtRp2600
(dp2601
g65
(dp2602
sg74
g2596
sg67
(lp2603
g60
(g81
g62
NtRp2604
(dp2605
g65
(dp2606
g85
g86
ssg74
g2600
sg67
(lp2607
S'HTTP_ACCEPT'
p2608
asbag60
(g81
g62
NtRp2609
(dp2610
g65
(dp2611
g92
g93
ssg74
g2600
sg67
(lp2612
S':'
asbag60
(g81
g62
NtRp2613
(dp2614
g65
(dp2615
sg74
g2600
sg67
(lp2616
g60
(g61
g62
NtRp2617
(dp2618
g65
(dp2619
g73
I3
ssg74
g2613
sg67
(lp2620
g1191
asbasbasbag60
(g76
g62
NtRp2621
(dp2622
g65
(dp2623
sg74
g2596
sg67
(lp2624
g60
(g81
g62
NtRp2625
(dp2626
g65
(dp2627
g85
g86
ssg74
g2621
sg67
(lp2628
S'HTTP_ACCEPT_CHARSET'
p2629
asbag60
(g81
g62
NtRp2630
(dp2631
g65
(dp2632
g92
g93
ssg74
g2621
sg67
(lp2633
S':'
asbag60
(g81
g62
NtRp2634
(dp2635
g65
(dp2636
sg74
g2621
sg67
(lp2637
g60
(g61
g62
NtRp2638
(dp2639
g65
(dp2640
g73
I3
ssg74
g2634
sg67
(lp2641
g1213
asbasbasbag60
(g76
g62
NtRp2642
(dp2643
g65
(dp2644
sg74
g2596
sg67
(lp2645
g60
(g81
g62
NtRp2646
(dp2647
g65
(dp2648
g85
g86
ssg74
g2642
sg67
(lp2649
S'HTTP_ACCEPT_ENCODING'
p2650
asbag60
(g81
g62
NtRp2651
(dp2652
g65
(dp2653
g92
g93
ssg74
g2642
sg67
(lp2654
S':'
asbag60
(g81
g62
NtRp2655
(dp2656
g65
(dp2657
sg74
g2642
sg67
(lp2658
g60
(g61
g62
NtRp2659
(dp2660
g65
(dp2661
g73
I3
ssg74
g2655
sg67
(lp2662
g1235
asbasbasbag60
(g76
g62
NtRp2663
(dp2664
g65
(dp2665
sg74
g2596
sg67
(lp2666
g60
(g81
g62
NtRp2667
(dp2668
g65
(dp2669
g85
g86
ssg74
g2663
sg67
(lp2670
S'HTTP_ACCEPT_LANGUAGE'
p2671
asbag60
(g81
g62
NtRp2672
(dp2673
g65
(dp2674
g92
g93
ssg74
g2663
sg67
(lp2675
S':'
asbag60
(g81
g62
NtRp2676
(dp2677
g65
(dp2678
sg74
g2663
sg67
(lp2679
g60
(g61
g62
NtRp2680
(dp2681
g65
(dp2682
g73
I3
ssg74
g2676
sg67
(lp2683
g1257
asbasbasbag60
(g76
g62
NtRp2684
(dp2685
g65
(dp2686
sg74
g2596
sg67
(lp2687
g60
(g81
g62
NtRp2688
(dp2689
g65
(dp2690
g85
g86
ssg74
g2684
sg67
(lp2691
S'HTTP_CACHE_CONTROL'
p2692
asbag60
(g81
g62
NtRp2693
(dp2694
g65
(dp2695
g92
g93
ssg74
g2684
sg67
(lp2696
S':'
asbag60
(g81
g62
NtRp2697
(dp2698
g65
(dp2699
sg74
g2684
sg67
(lp2700
g60
(g61
g62
NtRp2701
(dp2702
g65
(dp2703
g73
I3
ssg74
g2697
sg67
(lp2704
g1279
asbasbasbag60
(g76
g62
NtRp2705
(dp2706
g65
(dp2707
sg74
g2596
sg67
(lp2708
g60
(g81
g62
NtRp2709
(dp2710
g65
(dp2711
g85
g86
ssg74
g2705
sg67
(lp2712
S'HTTP_CONNECTION'
p2713
asbag60
(g81
g62
NtRp2714
(dp2715
g65
(dp2716
g92
g93
ssg74
g2705
sg67
(lp2717
S':'
asbag60
(g81
g62
NtRp2718
(dp2719
g65
(dp2720
sg74
g2705
sg67
(lp2721
g60
(g61
g62
NtRp2722
(dp2723
g65
(dp2724
g73
I3
ssg74
g2718
sg67
(lp2725
g1301
asbasbasbag60
(g76
g62
NtRp2726
(dp2727
g65
(dp2728
sg74
g2596
sg67
(lp2729
g60
(g81
g62
NtRp2730
(dp2731
g65
(dp2732
g85
g86
ssg74
g2726
sg67
(lp2733
S'HTTP_COOKIE'
p2734
asbag60
(g81
g62
NtRp2735
(dp2736
g65
(dp2737
g92
g93
ssg74
g2726
sg67
(lp2738
S':'
asbag60
(g81
g62
NtRp2739
(dp2740
g65
(dp2741
sg74
g2726
sg67
(lp2742
g60
(g61
g62
NtRp2743
(dp2744
g65
(dp2745
g73
I3
ssg74
g2739
sg67
(lp2746
g1323
asbasbasbag60
(g76
g62
NtRp2747
(dp2748
g65
(dp2749
sg74
g2596
sg67
(lp2750
g60
(g81
g62
NtRp2751
(dp2752
g65
(dp2753
g85
g86
ssg74
g2747
sg67
(lp2754
S'HTTP_HOST'
p2755
asbag60
(g81
g62
NtRp2756
(dp2757
g65
(dp2758
g92
g93
ssg74
g2747
sg67
(lp2759
S':'
asbag60
(g81
g62
NtRp2760
(dp2761
g65
(dp2762
sg74
g2747
sg67
(lp2763
g60
(g61
g62
NtRp2764
(dp2765
g65
(dp2766
g73
I3
ssg74
g2760
sg67
(lp2767
g1345
asbasbasbag60
(g76
g62
NtRp2768
(dp2769
g65
(dp2770
sg74
g2596
sg67
(lp2771
g60
(g81
g62
NtRp2772
(dp2773
g65
(dp2774
g85
g86
ssg74
g2768
sg67
(lp2775
S'HTTP_REFERER'
p2776
asbag60
(g81
g62
NtRp2777
(dp2778
g65
(dp2779
g92
g93
ssg74
g2768
sg67
(lp2780
S':'
asbag60
(g81
g62
NtRp2781
(dp2782
g65
(dp2783
sg74
g2768
sg67
(lp2784
g60
(g61
g62
NtRp2785
(dp2786
g65
(dp2787
g73
I3
ssg74
g2781
sg67
(lp2788
g1367
asbasbasbag60
(g76
g62
NtRp2789
(dp2790
g65
(dp2791
sg74
g2596
sg67
(lp2792
g60
(g81
g62
NtRp2793
(dp2794
g65
(dp2795
g85
g86
ssg74
g2789
sg67
(lp2796
S'HTTP_USER_AGENT'
p2797
asbag60
(g81
g62
NtRp2798
(dp2799
g65
(dp2800
g92
g93
ssg74
g2789
sg67
(lp2801
S':'
asbag60
(g81
g62
NtRp2802
(dp2803
g65
(dp2804
sg74
g2789
sg67
(lp2805
g60
(g61
g62
NtRp2806
(dp2807
g65
(dp2808
g73
I3
ssg74
g2802
sg67
(lp2809
g1389
asbasbasbag60
(g76
g62
NtRp2810
(dp2811
g65
(dp2812
sg74
g2596
sg67
(lp2813
g60
(g81
g62
NtRp2814
(dp2815
g65
(dp2816
g85
g86
ssg74
g2810
sg67
(lp2817
S'PATH_INFO'
p2818
asbag60
(g81
g62
NtRp2819
(dp2820
g65
(dp2821
g92
g93
ssg74
g2810
sg67
(lp2822
S':'
asbag60
(g81
g62
NtRp2823
(dp2824
g65
(dp2825
sg74
g2810
sg67
(lp2826
g60
(g61
g62
NtRp2827
(dp2828
g65
(dp2829
g73
I3
ssg74
g2823
sg67
(lp2830
g1432
asbasbasbag60
(g76
g62
NtRp2831
(dp2832
g65
(dp2833
sg74
g2596
sg67
(lp2834
g60
(g81
g62
NtRp2835
(dp2836
g65
(dp2837
g85
g86
ssg74
g2831
sg67
(lp2838
S'QUERY_STRING'
p2839
asbag60
(g81
g62
NtRp2840
(dp2841
g65
(dp2842
g92
g93
ssg74
g2831
sg67
(lp2843
S':'
asbag60
(g81
g62
NtRp2844
(dp2845
g65
(dp2846
sg74
g2831
sg67
(lp2847
g60
(g61
g62
NtRp2848
(dp2849
g65
(dp2850
g73
I3
ssg74
g2844
sg67
(lp2851
S''
asbasbasbag60
(g76
g62
NtRp2852
(dp2853
g65
(dp2854
sg74
g2596
sg67
(lp2855
g60
(g81
g62
NtRp2856
(dp2857
g65
(dp2858
g85
g86
ssg74
g2852
sg67
(lp2859
S'REMOTE_ADDR'
p2860
asbag60
(g81
g62
NtRp2861
(dp2862
g65
(dp2863
g92
g93
ssg74
g2852
sg67
(lp2864
S':'
asbag60
(g81
g62
NtRp2865
(dp2866
g65
(dp2867
sg74
g2852
sg67
(lp2868
g60
(g61
g62
NtRp2869
(dp2870
g65
(dp2871
g73
I3
ssg74
g2865
sg67
(lp2872
g193
asbasbasbag60
(g76
g62
NtRp2873
(dp2874
g65
(dp2875
sg74
g2596
sg67
(lp2876
g60
(g81
g62
NtRp2877
(dp2878
g65
(dp2879
g85
g86
ssg74
g2873
sg67
(lp2880
S'REMOTE_PORT'
p2881
asbag60
(g81
g62
NtRp2882
(dp2883
g65
(dp2884
g92
g93
ssg74
g2873
sg67
(lp2885
S':'
asbag60
(g81
g62
NtRp2886
(dp2887
g65
(dp2888
sg74
g2873
sg67
(lp2889
g60
(g61
g62
NtRp2890
(dp2891
g65
(dp2892
g73
I3
ssg74
g2886
sg67
(lp2893
g1496
asbasbasbag60
(g76
g62
NtRp2894
(dp2895
g65
(dp2896
sg74
g2596
sg67
(lp2897
g60
(g81
g62
NtRp2898
(dp2899
g65
(dp2900
g85
g86
ssg74
g2894
sg67
(lp2901
S'REQUEST_METHOD'
p2902
asbag60
(g81
g62
NtRp2903
(dp2904
g65
(dp2905
g92
g93
ssg74
g2894
sg67
(lp2906
S':'
asbag60
(g81
g62
NtRp2907
(dp2908
g65
(dp2909
sg74
g2894
sg67
(lp2910
g60
(g61
g62
NtRp2911
(dp2912
g65
(dp2913
g73
I3
ssg74
g2907
sg67
(lp2914
g1518
asbasbasbag60
(g76
g62
NtRp2915
(dp2916
g65
(dp2917
sg74
g2596
sg67
(lp2918
g60
(g81
g62
NtRp2919
(dp2920
g65
(dp2921
g85
g86
ssg74
g2915
sg67
(lp2922
S'SCRIPT_NAME'
p2923
asbag60
(g81
g62
NtRp2924
(dp2925
g65
(dp2926
g92
g93
ssg74
g2915
sg67
(lp2927
S':'
asbag60
(g81
g62
NtRp2928
(dp2929
g65
(dp2930
sg74
g2915
sg67
(lp2931
g60
(g61
g62
NtRp2932
(dp2933
g65
(dp2934
g73
I3
ssg74
g2928
sg67
(lp2935
S''
asbasbasbag60
(g76
g62
NtRp2936
(dp2937
g65
(dp2938
sg74
g2596
sg67
(lp2939
g60
(g81
g62
NtRp2940
(dp2941
g65
(dp2942
g85
g86
ssg74
g2936
sg67
(lp2943
S'SERVER_NAME'
p2944
asbag60
(g81
g62
NtRp2945
(dp2946
g65
(dp2947
g92
g93
ssg74
g2936
sg67
(lp2948
S':'
asbag60
(g81
g62
NtRp2949
(dp2950
g65
(dp2951
sg74
g2936
sg67
(lp2952
g60
(g61
g62
NtRp2953
(dp2954
g65
(dp2955
g73
I3
ssg74
g2949
sg67
(lp2956
g1561
asbasbasbag60
(g76
g62
NtRp2957
(dp2958
g65
(dp2959
sg74
g2596
sg67
(lp2960
g60
(g81
g62
NtRp2961
(dp2962
g65
(dp2963
g85
g86
ssg74
g2957
sg67
(lp2964
S'SERVER_PORT'
p2965
asbag60
(g81
g62
NtRp2966
(dp2967
g65
(dp2968
g92
g93
ssg74
g2957
sg67
(lp2969
S':'
asbag60
(g81
g62
NtRp2970
(dp2971
g65
(dp2972
sg74
g2957
sg67
(lp2973
g60
(g61
g62
NtRp2974
(dp2975
g65
(dp2976
g73
I3
ssg74
g2970
sg67
(lp2977
g1583
asbasbasbag60
(g76
g62
NtRp2978
(dp2979
g65
(dp2980
sg74
g2596
sg67
(lp2981
g60
(g81
g62
NtRp2982
(dp2983
g65
(dp2984
g85
g86
ssg74
g2978
sg67
(lp2985
S'SERVER_PROTOCOL'
p2986
asbag60
(g81
g62
NtRp2987
(dp2988
g65
(dp2989
g92
g93
ssg74
g2978
sg67
(lp2990
S':'
asbag60
(g81
g62
NtRp2991
(dp2992
g65
(dp2993
sg74
g2978
sg67
(lp2994
g60
(g61
g62
NtRp2995
(dp2996
g65
(dp2997
g73
I3
ssg74
g2991
sg67
(lp2998
g1605
asbasbasbag60
(g76
g62
NtRp2999
(dp3000
g65
(dp3001
sg74
g2596
sg67
(lp3002
g60
(g81
g62
NtRp3003
(dp3004
g65
(dp3005
g85
g86
ssg74
g2999
sg67
(lp3006
S'SERVER_SOFTWARE'
p3007
asbag60
(g81
g62
NtRp3008
(dp3009
g65
(dp3010
g92
g93
ssg74
g2999
sg67
(lp3011
S':'
asbag60
(g81
g62
NtRp3012
(dp3013
g65
(dp3014
sg74
g2999
sg67
(lp3015
g60
(g61
g62
NtRp3016
(dp3017
g65
(dp3018
g73
I3
ssg74
g3012
sg67
(lp3019
g1627
asbasbasbag60
(g76
g62
NtRp3020
(dp3021
g65
(dp3022
sg74
g2596
sg67
(lp3023
g60
(g81
g62
NtRp3024
(dp3025
g65
(dp3026
g85
g86
ssg74
g3020
sg67
(lp3027
S'wsgi.errors'
p3028
asbag60
(g81
g62
NtRp3029
(dp3030
g65
(dp3031
g92
g93
ssg74
g3020
sg67
(lp3032
S':'
asbag60
(g81
g62
NtRp3033
(dp3034
g65
(dp3035
sg74
g3020
sg67
(lp3036
g60
(g61
g62
NtRp3037
(dp3038
g65
(dp3039
g73
I3
ssg74
g3033
sg67
(lp3040
S"<open file '<stderr>', mode 'w' at 0xb75610d0>"
p3041
asbasbasbag60
(g76
g62
NtRp3042
(dp3043
g65
(dp3044
sg74
g2596
sg67
(lp3045
g60
(g81
g62
NtRp3046
(dp3047
g65
(dp3048
g85
g86
ssg74
g3042
sg67
(lp3049
S'wsgi.file_wrapper'
p3050
asbag60
(g81
g62
NtRp3051
(dp3052
g65
(dp3053
g92
g93
ssg74
g3042
sg67
(lp3054
S':'
asbag60
(g81
g62
NtRp3055
(dp3056
g65
(dp3057
sg74
g3042
sg67
(lp3058
g60
(g61
g62
NtRp3059
(dp3060
g65
(dp3061
g73
I3
ssg74
g3055
sg67
(lp3062
S'<class wsgiref.util.FileWrapper at 0x8a4d50c>'
p3063
asbasbasbag60
(g76
g62
NtRp3064
(dp3065
g65
(dp3066
sg74
g2596
sg67
(lp3067
g60
(g81
g62
NtRp3068
(dp3069
g65
(dp3070
g85
g86
ssg74
g3064
sg67
(lp3071
S'wsgi.input'
p3072
asbag60
(g81
g62
NtRp3073
(dp3074
g65
(dp3075
g92
g93
ssg74
g3064
sg67
(lp3076
S':'
asbag60
(g81
g62
NtRp3077
(dp3078
g65
(dp3079
sg74
g3064
sg67
(lp3080
g60
(g61
g62
NtRp3081
(dp3082
g65
(dp3083
g73
I3
ssg74
g3077
sg67
(lp3084
S'<cStringIO.StringO object at 0xaf771640>'
p3085
asbasbasbag60
(g76
g62
NtRp3086
(dp3087
g65
(dp3088
sg74
g2596
sg67
(lp3089
g60
(g81
g62
NtRp3090
(dp3091
g65
(dp3092
g85
g86
ssg74
g3086
sg67
(lp3093
S'wsgi.multiprocess'
p3094
asbag60
(g81
g62
NtRp3095
(dp3096
g65
(dp3097
g92
g93
ssg74
g3086
sg67
(lp3098
S':'
asbag60
(g81
g62
NtRp3099
(dp3100
g65
(dp3101
sg74
g3086
sg67
(lp3102
g60
(g61
g62
NtRp3103
(dp3104
g65
(dp3105
g73
I3
ssg74
g3099
sg67
(lp3106
g103
asbasbasbag60
(g76
g62
NtRp3107
(dp3108
g65
(dp3109
sg74
g2596
sg67
(lp3110
g60
(g81
g62
NtRp3111
(dp3112
g65
(dp3113
g85
g86
ssg74
g3107
sg67
(lp3114
S'wsgi.multithread'
p3115
asbag60
(g81
g62
NtRp3116
(dp3117
g65
(dp3118
g92
g93
ssg74
g3107
sg67
(lp3119
S':'
asbag60
(g81
g62
NtRp3120
(dp3121
g65
(dp3122
sg74
g3107
sg67
(lp3123
g60
(g61
g62
NtRp3124
(dp3125
g65
(dp3126
g73
I3
ssg74
g3120
sg67
(lp3127
g1867
asbasbasbag60
(g76
g62
NtRp3128
(dp3129
g65
(dp3130
sg74
g2596
sg67
(lp3131
g60
(g81
g62
NtRp3132
(dp3133
g65
(dp3134
g85
g86
ssg74
g3128
sg67
(lp3135
S'wsgi.run_once'
p3136
asbag60
(g81
g62
NtRp3137
(dp3138
g65
(dp3139
g92
g93
ssg74
g3128
sg67
(lp3140
S':'
asbag60
(g81
g62
NtRp3141
(dp3142
g65
(dp3143
sg74
g3128
sg67
(lp3144
g60
(g61
g62
NtRp3145
(dp3146
g65
(dp3147
g73
I3
ssg74
g3141
sg67
(lp3148
g103
asbasbasbag60
(g76
g62
NtRp3149
(dp3150
g65
(dp3151
sg74
g2596
sg67
(lp3152
g60
(g81
g62
NtRp3153
(dp3154
g65
(dp3155
g85
g86
ssg74
g3149
sg67
(lp3156
S'wsgi.url_scheme'
p3157
asbag60
(g81
g62
NtRp3158
(dp3159
g65
(dp3160
g92
g93
ssg74
g3149
sg67
(lp3161
S':'
asbag60
(g81
g62
NtRp3162
(dp3163
g65
(dp3164
sg74
g3149
sg67
(lp3165
g60
(g61
g62
NtRp3166
(dp3167
g65
(dp3168
g73
I3
ssg74
g3162
sg67
(lp3169
g1910
asbasbasbag60
(g76
g62
NtRp3170
(dp3171
g65
(dp3172
sg74
g2596
sg67
(lp3173
g60
(g81
g62
NtRp3174
(dp3175
g65
(dp3176
g85
g86
ssg74
g3170
sg67
(lp3177
S'wsgi.version'
p3178
asbag60
(g81
g62
NtRp3179
(dp3180
g65
(dp3181
g92
g93
ssg74
g3170
sg67
(lp3182
S':'
asbag60
(g81
g62
NtRp3183
(dp3184
g65
(dp3185
sg74
g3170
sg67
(lp3186
g60
(g61
g62
NtRp3187
(dp3188
g65
(dp3189
g73
I3
ssg74
g3183
sg67
(lp3190
S'1'
asbasbasbasbasbasbasbasbasbasbasbasbasbsS'frames'
p3191
(lp3192
(dp3193
S'file'
p3194
S'/home/brencam/web2py/gluon/restricted.py'
p3195
sS'dump'
p3196
(dp3197
S'environment'
p3198
S"{'A': <class 'gluon.html.A'>, 'Auth': <class 'gluon.tools.Auth'>, 'B': <class 'gluon.html.B'>, 'BEAUTIFY': <class 'gluon.html.BEAUTIFY'>, 'BODY': <class 'gluon.html.BODY'>, 'BR': <class 'gluon.html.BR'>, 'BUTTON': <class 'gluon.html.BUTTON'>, 'CAT': <class 'gluon.html.CAT'>, 'CENTER': <class 'gluon.html.CENTER'>, 'CLEANUP': <class 'gluon.validators.CLEANUP'>, ...}"
p3199
sS'ccode'
p3200
S'<code object <module> at 0xaf3b9d58, file "/home...b2py/applications/gallery/models/db.py", line 10>'
p3201
ssS'lnum'
p3202
I194
sS'lines'
p3203
(dp3204
I192
S'        else:'
p3205
sI193
S'            ccode = compile2(code,layer)'
p3206
sI194
S'        exec ccode in environment'
p3207
sI195
S'    except HTTP:'
p3208
sI196
S'        raise'
p3209
sI197
S'    except Exception, error:'
p3210
sI198
S'        # XXX Show exception in Wing IDE if running in debugger'
p3211
sI189
S'    try:'
p3212
sI190
S'        if type(code) == types.CodeType:'
p3213
sI191
S'            ccode = code'
p3214
ssS'call'
p3215
S"(code='# -*- coding: utf-8 -*-\\n\\n#######################...writable = db.comment.image_id.readable = False\\n\\n', environment={'A': <class 'gluon.html.A'>, 'Auth': <class 'gluon.tools.Auth'>, 'B': <class 'gluon.html.B'>, 'BEAUTIFY': <class 'gluon.html.BEAUTIFY'>, 'BODY': <class 'gluon.html.BODY'>, 'BR': <class 'gluon.html.BR'>, 'BUTTON': <class 'gluon.html.BUTTON'>, 'CAT': <class 'gluon.html.CAT'>, 'CENTER': <class 'gluon.html.CENTER'>, 'CLEANUP': <class 'gluon.validators.CLEANUP'>, ...}, layer='/home/brencam/web2py/applications/gallery/models/db.py')"
p3216
sS'func'
p3217
S'restricted'
p3218
sa(dp3219
g3194
S'/home/brencam/web2py/applications/gallery/models/db.py'
p3220
sg3196
(dp3221
S'auth.define_tables'
p3222
S'<bound method Auth.define_tables of <gluon.tools.Auth object>>'
p3223
sS'auth'
p3224
S'<gluon.tools.Auth object>'
p3225
ssg3202
I42
sg3203
(dp3226
I37
S'from gluon.tools import Auth, Crud, Service, PluginManager, prettydate'
p3227
sI38
S'auth = Auth(db, hmac_key=Auth.get_or_create_key())'
p3228
sI39
S'crud, service, plugins = Crud(db), Service(), PluginManager()'
p3229
sI40
S''
sI41
S'## create all tables needed by auth if not custom tables'
p3230
sI42
S'auth.define_tables()'
p3231
sI43
S''
sI44
S'## configure email'
p3232
sI45
S'mail=auth.settings.mailer'
p3233
sI46
S"mail.settings.server = 'logging' or 'smtp.gmail.com:587'"
p3234
ssg3215
S'()'
p3235
sg3217
S'<module>'
p3236
sa(dp3237
g3194
S'/home/brencam/web2py/gluon/tools.py'
p3238
sg3196
(dp3239
S'builtinformat'
p3240
S'<built-in function format>'
p3241
ssg3202
I1256
sg3203
(dp3242
I1251
S'                    *settings.extra_fields.get(settings.table_user_name,[]),'
p3243
sI1252
S'                    **dict('
p3244
sI1253
S'                        migrate=self.__get_migrate(settings.table_user_name,'
p3245
sI1254
S'                                                   migrate),'
p3246
sI1255
S'                        fake_migrate=fake_migrate,'
p3247
sI1256
S"                        format='%(first_name)s %(last_name)s (%(id)s)'))"
p3248
sI1257
S'            table.first_name.requires = \\'
p3249
sI1258
S'                IS_NOT_EMPTY(error_message=self.messages.is_empty)'
p3250
sI1259
S'            table.last_name.requires = \\'
p3251
sI1260
S'                IS_NOT_EMPTY(error_message=self.messages.is_empty)'
p3252
ssg3215
S'(self=<gluon.tools.Auth object>, username=False, migrate=True, fake_migrate=False)'
p3253
sg3217
S'define_tables'
p3254
sa(dp3255
g3194
S'/home/brencam/web2py/gluon/dal.py'
p3256
sg3196
(dp3257
S'polymodel'
p3258
S'None'
p3259
ssg3202
I4491
sg3203
(dp3260
I4486
S"        if migrate or self._adapter.dbengine=='google:datastore':"
p3261
sI4487
S'            try:'
p3262
sI4488
S'                sql_locker.acquire()'
p3263
sI4489
S'                self._adapter.create_table(t,migrate=migrate,'
p3264
sI4490
S'                                           fake_migrate=fake_migrate,'
p3265
sI4491
S'                                           polymodel=polymodel)'
p3266
sI4492
S'            finally:'
p3267
sI4493
S'                sql_locker.release()'
p3268
sI4494
S'        else:'
p3269
sI4495
S'            t._dbt = None'
p3270
ssg3215
S"(self=<DAL {'_migrate_enabled': True, '_lastsql': 'CRE...'_uri_hash': 'c8b669d15150d7109e5f7ab36744a5b7'}>, tablename='auth_user', *fields=(<gluon.dal.Field object>, <gluon.dal.Field object>, <gluon.dal.Field object>, <gluon.dal.Field object>, <gluon.dal.Field object>, <gluon.dal.Field object>), **args={'fake_migrate': False, 'format': '%(first_name)s %(last_name)s (%(id)s)', 'migrate': True})"
p3271
sg3217
S'define_table'
p3272
sa(dp3273
g3194
S'/home/brencam/web2py/gluon/dal.py'
p3274
sg3196
(dp3275
S'query'
p3276
S"'CREATE TABLE auth_user(\\n    id INTEGER PRIMARY K...ey CHAR(512),\\n    reset_password_key CHAR(512)\\n);'"
p3277
sS'self'
p3278
S'<gluon.dal.SQLiteAdapter object>'
p3279
sS'table'
p3280
S"<Table {'first_name': <gluon.dal.Field object at...>, 'id': <gluon.dal.Field object at 0xaf77bd4c>}>"
p3281
sS'self.create_sequence_and_triggers'
p3282
S'<bound method SQLiteAdapter.create_sequence_and_triggers of <gluon.dal.SQLiteAdapter object>>'
p3283
ssg3202
I677
sg3203
(dp3284
I672
S'            if table._dbt:'
p3285
sI673
S"                logfile.write('timestamp: %s\\n'"
p3286
sI674
S'                               % datetime.datetime.today().isoformat())'
p3287
sI675
S"                logfile.write(query + '\\n')"
p3288
sI676
S'            if not fake_migrate:'
p3289
sI677
S'                self.create_sequence_and_triggers(query,table)'
p3290
sI678
S'                table._db.commit()'
p3291
sI679
S'            if table._dbt:'
p3292
sI680
S"                tfile = self.file_open(table._dbt, 'w')"
p3293
sI681
S'                cPickle.dump(sql_fields, tfile)'
p3294
ssg3215
S"(self=<gluon.dal.SQLiteAdapter object>, table=<Table {'first_name': <gluon.dal.Field object at...>, 'id': <gluon.dal.Field object at 0xaf77bd4c>}>, migrate=True, fake_migrate=False, polymodel=None)"
p3295
sg3217
S'create_table'
p3296
sa(dp3297
g3194
S'/home/brencam/web2py/gluon/dal.py'
p3298
sg3196
(dp3299
S'query'
p3300
S"'CREATE TABLE auth_user(\\n    id INTEGER PRIMARY K...ey CHAR(512),\\n    reset_password_key CHAR(512)\\n);'"
p3301
sS'self'
p3302
S'<gluon.dal.SQLiteAdapter object>'
p3303
sS'self.execute'
p3304
S'<bound method SQLiteAdapter.execute of <gluon.dal.SQLiteAdapter object>>'
p3305
ssg3202
I1299
sg3203
(dp3306
I1294
S''
sI1295
S'    def constraint_name(self, table, fieldname):'
p3307
sI1296
S"        return '%s_%s__constraint' % (table,fieldname)"
p3308
sI1297
S''
sI1298
S'    def create_sequence_and_triggers(self, query, table, **args):'
p3309
sI1299
S'        self.execute(query)'
p3310
sI1300
S''
sI1301
S'    def log_execute(self,*a,**b):'
p3311
sI1302
S'        self.db._lastsql = a[0]'
p3312
sI1303
S'        t0 = time.time()'
p3313
ssg3215
S"(self=<gluon.dal.SQLiteAdapter object>, query='CREATE TABLE auth_user(\\n    id INTEGER PRIMARY K...ey CHAR(512),\\n    reset_password_key CHAR(512)\\n);', table=<Table {'first_name': <gluon.dal.Field object at...>, 'id': <gluon.dal.Field object at 0xaf77bd4c>}>, **args={})"
p3314
sg3217
S'create_sequence_and_triggers'
p3315
sa(dp3316
g3194
S'/home/brencam/web2py/gluon/dal.py'
p3317
sg3196
(dp3318
S'a'
S"('CREATE TABLE auth_user(\\n    id INTEGER PRIMARY K...ey CHAR(512),\\n    reset_password_key CHAR(512)\\n);',)"
p3319
sS'self'
p3320
S'<gluon.dal.SQLiteAdapter object>'
p3321
sS'b'
g20
sS'self.log_execute'
p3322
S'<bound method SQLiteAdapter.log_execute of <gluon.dal.SQLiteAdapter object>>'
p3323
ssg3202
I1309
sg3203
(dp3324
I1312
S'        if isinstance(obj,CALLABLETYPES):'
p3325
sI1313
S'            obj = obj()'
p3326
sI1304
S'        ret = self.cursor.execute(*a,**b)'
p3327
sI1305
S'        self.db._timings.append((a[0],time.time()-t0))'
p3328
sI1306
S'        return ret'
p3329
sI1307
S''
sI1308
S'    def execute(self,*a,**b):'
p3330
sI1309
S'        return self.log_execute(*a, **b)'
p3331
sI1310
S''
sI1311
S'    def represent(self, obj, fieldtype):'
p3332
ssg3215
S"(self=<gluon.dal.SQLiteAdapter object>, *a=('CREATE TABLE auth_user(\\n    id INTEGER PRIMARY K...ey CHAR(512),\\n    reset_password_key CHAR(512)\\n);',), **b={})"
p3333
sg3217
S'execute'
p3334
sa(dp3335
g3194
S'/home/brencam/web2py/gluon/dal.py'
p3336
sg3196
(dp3337
S'a'
S"('CREATE TABLE auth_user(\\n    id INTEGER PRIMARY K...ey CHAR(512),\\n    reset_password_key CHAR(512)\\n);',)"
p3338
sS'b'
g20
sS'self'
p3339
S'<gluon.dal.SQLiteAdapter object>'
p3340
sS'ret'
p3341
S'undefined'
p3342
sS'self.cursor'
p3343
S'<sqlite3.Cursor object>'
p3344
sS'self.cursor.execute'
p3345
S'<built-in method execute of sqlite3.Cursor object>'
p3346
ssg3202
I1304
sg3203
(dp3347
I1299
S'        self.execute(query)'
p3348
sI1300
S''
sI1301
S'    def log_execute(self,*a,**b):'
p3349
sI1302
S'        self.db._lastsql = a[0]'
p3350
sI1303
S'        t0 = time.time()'
p3351
sI1304
S'        ret = self.cursor.execute(*a,**b)'
p3352
sI1305
S'        self.db._timings.append((a[0],time.time()-t0))'
p3353
sI1306
S'        return ret'
p3354
sI1307
S''
sI1308
S'    def execute(self,*a,**b):'
p3355
ssg3215
S"(self=<gluon.dal.SQLiteAdapter object>, *a=('CREATE TABLE auth_user(\\n    id INTEGER PRIMARY K...ey CHAR(512),\\n    reset_password_key CHAR(512)\\n);',), **b={})"
p3356
sg3217
S'log_execute'
p3357
sasS'pyver'
p3358
S'Python 2.6.6: /usr/bin/python'
p3359
sS'session'
p3360
g60
(g61
g62
NtRp3361
(dp3362
g65
(dp3363
sg67
(lp3364
g60
(g69
g62
NtRp3365
(dp3366
g65
(dp3367
g73
I5
ssg74
Nsg67
(lp3368
sbasbsS'etype'
p3369
S"<class 'sqlite3.OperationalError'>"
p3370
sS'date'
p3371
S'Wed Nov  2 23:22:54 2011'
p3372
sS'response'
p3373
g60
(g61
g62
NtRp3374
(dp3375
g65
(dp3376
sg67
(lp3377
g60
(g69
g62
NtRp3378
(dp3379
g65
(dp3380
g73
I5
ssg74
Nsg67
(lp3381
g60
(g76
g62
NtRp3382
(dp3383
g65
(dp3384
sg74
g3378
sg67
(lp3385
g60
(g81
g62
NtRp3386
(dp3387
g65
(dp3388
g85
g86
ssg74
g3382
sg67
(lp3389
g158
asbag60
(g81
g62
NtRp3390
(dp3391
g65
(dp3392
g92
g93
ssg74
g3382
sg67
(lp3393
S':'
asbag60
(g81
g62
NtRp3394
(dp3395
g65
(dp3396
sg74
g3382
sg67
(lp3397
g60
(g61
g62
NtRp3398
(dp3399
g65
(dp3400
g73
I5
ssg74
g3394
sg67
(lp3401
S'<cStringIO.StringO object at 0xaf771540>'
p3402
asbasbasbag60
(g76
g62
NtRp3403
(dp3404
g65
(dp3405
sg74
g3378
sg67
(lp3406
g60
(g81
g62
NtRp3407
(dp3408
g65
(dp3409
g85
g86
ssg74
g3403
sg67
(lp3410
g224
asbag60
(g81
g62
NtRp3411
(dp3412
g65
(dp3413
g92
g93
ssg74
g3403
sg67
(lp3414
S':'
asbag60
(g81
g62
NtRp3415
(dp3416
g65
(dp3417
sg74
g3403
sg67
(lp3418
g60
(g61
g62
NtRp3419
(dp3420
g65
(dp3421
g73
I5
ssg74
g3415
sg67
(lp3422
g60
(g69
g62
NtRp3423
(dp3424
g65
(dp3425
g73
I4
ssg74
Nsg67
(lp3426
g60
(g76
g62
NtRp3427
(dp3428
g65
(dp3429
sg74
g3423
sg67
(lp3430
g60
(g81
g62
NtRp3431
(dp3432
g65
(dp3433
g85
g86
ssg74
g3427
sg67
(lp3434
S'session_id_gallery'
p3435
asbag60
(g81
g62
NtRp3436
(dp3437
g65
(dp3438
g92
g93
ssg74
g3427
sg67
(lp3439
S':'
asbag60
(g81
g62
NtRp3440
(dp3441
g65
(dp3442
sg74
g3427
sg67
(lp3443
g60
(g61
g62
NtRp3444
(dp3445
g65
(dp3446
g73
I4
ssg74
g3440
sg67
(lp3447
g60
(g69
g62
NtRp3448
(dp3449
g65
(dp3450
g73
I3
ssg74
Nsg67
(lp3451
g60
(g76
g62
NtRp3452
(dp3453
g65
(dp3454
sg74
g3448
sg67
(lp3455
g60
(g81
g62
NtRp3456
(dp3457
g65
(dp3458
g85
g86
ssg74
g3452
sg67
(lp3459
g274
asbag60
(g81
g62
NtRp3460
(dp3461
g65
(dp3462
g92
g93
ssg74
g3452
sg67
(lp3463
S':'
asbag60
(g81
g62
NtRp3464
(dp3465
g65
(dp3466
sg74
g3452
sg67
(lp3467
g60
(g61
g62
NtRp3468
(dp3469
g65
(dp3470
g73
I3
ssg74
g3464
sg67
(lp3471
S''
asbasbasbag60
(g76
g62
NtRp3472
(dp3473
g65
(dp3474
sg74
g3448
sg67
(lp3475
g60
(g81
g62
NtRp3476
(dp3477
g65
(dp3478
g85
g86
ssg74
g3472
sg67
(lp3479
g295
asbag60
(g81
g62
NtRp3480
(dp3481
g65
(dp3482
g92
g93
ssg74
g3472
sg67
(lp3483
S':'
asbag60
(g81
g62
NtRp3484
(dp3485
g65
(dp3486
sg74
g3472
sg67
(lp3487
g60
(g61
g62
NtRp3488
(dp3489
g65
(dp3490
g73
I3
ssg74
g3484
sg67
(lp3491
S''
asbasbasbag60
(g76
g62
NtRp3492
(dp3493
g65
(dp3494
sg74
g3448
sg67
(lp3495
g60
(g81
g62
NtRp3496
(dp3497
g65
(dp3498
g85
g86
ssg74
g3492
sg67
(lp3499
g316
asbag60
(g81
g62
NtRp3500
(dp3501
g65
(dp3502
g92
g93
ssg74
g3492
sg67
(lp3503
S':'
asbag60
(g81
g62
NtRp3504
(dp3505
g65
(dp3506
sg74
g3492
sg67
(lp3507
g60
(g61
g62
NtRp3508
(dp3509
g65
(dp3510
g73
I3
ssg74
g3504
sg67
(lp3511
S''
asbasbasbag60
(g76
g62
NtRp3512
(dp3513
g65
(dp3514
sg74
g3448
sg67
(lp3515
g60
(g81
g62
NtRp3516
(dp3517
g65
(dp3518
g85
g86
ssg74
g3512
sg67
(lp3519
g337
asbag60
(g81
g62
NtRp3520
(dp3521
g65
(dp3522
g92
g93
ssg74
g3512
sg67
(lp3523
S':'
asbag60
(g81
g62
NtRp3524
(dp3525
g65
(dp3526
sg74
g3512
sg67
(lp3527
g60
(g61
g62
NtRp3528
(dp3529
g65
(dp3530
g73
I3
ssg74
g3524
sg67
(lp3531
S''
asbasbasbag60
(g76
g62
NtRp3532
(dp3533
g65
(dp3534
sg74
g3448
sg67
(lp3535
g60
(g81
g62
NtRp3536
(dp3537
g65
(dp3538
g85
g86
ssg74
g3532
sg67
(lp3539
g358
asbag60
(g81
g62
NtRp3540
(dp3541
g65
(dp3542
g92
g93
ssg74
g3532
sg67
(lp3543
S':'
asbag60
(g81
g62
NtRp3544
(dp3545
g65
(dp3546
sg74
g3532
sg67
(lp3547
g60
(g61
g62
NtRp3548
(dp3549
g65
(dp3550
g73
I3
ssg74
g3544
sg67
(lp3551
S''
asbasbasbag60
(g76
g62
NtRp3552
(dp3553
g65
(dp3554
sg74
g3448
sg67
(lp3555
g60
(g81
g62
NtRp3556
(dp3557
g65
(dp3558
g85
g86
ssg74
g3552
sg67
(lp3559
g379
asbag60
(g81
g62
NtRp3560
(dp3561
g65
(dp3562
g92
g93
ssg74
g3552
sg67
(lp3563
S':'
asbag60
(g81
g62
NtRp3564
(dp3565
g65
(dp3566
sg74
g3552
sg67
(lp3567
g60
(g61
g62
NtRp3568
(dp3569
g65
(dp3570
g73
I3
ssg74
g3564
sg67
(lp3571
S'/'
asbasbasbag60
(g76
g62
NtRp3572
(dp3573
g65
(dp3574
sg74
g3448
sg67
(lp3575
g60
(g81
g62
NtRp3576
(dp3577
g65
(dp3578
g85
g86
ssg74
g3572
sg67
(lp3579
g400
asbag60
(g81
g62
NtRp3580
(dp3581
g65
(dp3582
g92
g93
ssg74
g3572
sg67
(lp3583
S':'
asbag60
(g81
g62
NtRp3584
(dp3585
g65
(dp3586
sg74
g3572
sg67
(lp3587
g60
(g61
g62
NtRp3588
(dp3589
g65
(dp3590
g73
I3
ssg74
g3584
sg67
(lp3591
S''
asbasbasbag60
(g76
g62
NtRp3592
(dp3593
g65
(dp3594
sg74
g3448
sg67
(lp3595
g60
(g81
g62
NtRp3596
(dp3597
g65
(dp3598
g85
g86
ssg74
g3592
sg67
(lp3599
g421
asbag60
(g81
g62
NtRp3600
(dp3601
g65
(dp3602
g92
g93
ssg74
g3592
sg67
(lp3603
S':'
asbag60
(g81
g62
NtRp3604
(dp3605
g65
(dp3606
sg74
g3592
sg67
(lp3607
g60
(g61
g62
NtRp3608
(dp3609
g65
(dp3610
g73
I3
ssg74
g3604
sg67
(lp3611
S''
asbasbasbasbasbasbasbasbasbasbasbag60
(g76
g62
NtRp3612
(dp3613
g65
(dp3614
sg74
g3378
sg67
(lp3615
g60
(g81
g62
NtRp3616
(dp3617
g65
(dp3618
g85
g86
ssg74
g3612
sg67
(lp3619
S'files'
p3620
asbag60
(g81
g62
NtRp3621
(dp3622
g65
(dp3623
g92
g93
ssg74
g3612
sg67
(lp3624
S':'
asbag60
(g81
g62
NtRp3625
(dp3626
g65
(dp3627
sg74
g3612
sg67
(lp3628
g60
(g61
g62
NtRp3629
(dp3630
g65
(dp3631
g73
I5
ssg74
g3625
sg67
(lp3632
g60
(g69
g62
NtRp3633
(dp3634
g65
(dp3635
g73
I4
ssg74
Nsg67
(lp3636
sbasbasbasbag60
(g76
g62
NtRp3637
(dp3638
g65
(dp3639
sg74
g3378
sg67
(lp3640
g60
(g81
g62
NtRp3641
(dp3642
g65
(dp3643
g85
g86
ssg74
g3637
sg67
(lp3644
S'flash'
p3645
asbag60
(g81
g62
NtRp3646
(dp3647
g65
(dp3648
g92
g93
ssg74
g3637
sg67
(lp3649
S':'
asbag60
(g81
g62
NtRp3650
(dp3651
g65
(dp3652
sg74
g3637
sg67
(lp3653
g60
(g61
g62
NtRp3654
(dp3655
g65
(dp3656
g73
I5
ssg74
g3650
sg67
(lp3657
S''
asbasbasbag60
(g76
g62
NtRp3658
(dp3659
g65
(dp3660
sg74
g3378
sg67
(lp3661
g60
(g81
g62
NtRp3662
(dp3663
g65
(dp3664
g85
g86
ssg74
g3658
sg67
(lp3665
S'generic_patterns'
p3666
asbag60
(g81
g62
NtRp3667
(dp3668
g65
(dp3669
g92
g93
ssg74
g3658
sg67
(lp3670
S':'
asbag60
(g81
g62
NtRp3671
(dp3672
g65
(dp3673
sg74
g3658
sg67
(lp3674
g60
(g61
g62
NtRp3675
(dp3676
g65
(dp3677
g73
I5
ssg74
g3671
sg67
(lp3678
g60
(g69
g62
NtRp3679
(dp3680
g65
(dp3681
g73
I4
ssg74
Nsg67
(lp3682
g60
(g76
g62
NtRp3683
(dp3684
g65
(dp3685
sg74
g3679
sg67
(lp3686
g60
(g81
g62
NtRp3687
(dp3688
g65
(dp3689
sg74
g3683
sg67
(lp3690
g60
(g61
g62
NtRp3691
(dp3692
g65
(dp3693
g73
I4
ssg74
g3687
sg67
(lp3694
S'*'
asbasbasbasbasbasbasbag60
(g76
g62
NtRp3695
(dp3696
g65
(dp3697
sg74
g3378
sg67
(lp3698
g60
(g81
g62
NtRp3699
(dp3700
g65
(dp3701
g85
g86
ssg74
g3695
sg67
(lp3702
S'headers'
p3703
asbag60
(g81
g62
NtRp3704
(dp3705
g65
(dp3706
g92
g93
ssg74
g3695
sg67
(lp3707
S':'
asbag60
(g81
g62
NtRp3708
(dp3709
g65
(dp3710
sg74
g3695
sg67
(lp3711
g60
(g61
g62
NtRp3712
(dp3713
g65
(dp3714
g73
I5
ssg74
g3708
sg67
(lp3715
g60
(g69
g62
NtRp3716
(dp3717
g65
(dp3718
g73
I4
ssg74
Nsg67
(lp3719
g60
(g76
g62
NtRp3720
(dp3721
g65
(dp3722
sg74
g3716
sg67
(lp3723
g60
(g81
g62
NtRp3724
(dp3725
g65
(dp3726
g85
g86
ssg74
g3720
sg67
(lp3727
S'Cache-Control'
p3728
asbag60
(g81
g62
NtRp3729
(dp3730
g65
(dp3731
g92
g93
ssg74
g3720
sg67
(lp3732
S':'
asbag60
(g81
g62
NtRp3733
(dp3734
g65
(dp3735
sg74
g3720
sg67
(lp3736
g60
(g61
g62
NtRp3737
(dp3738
g65
(dp3739
g73
I4
ssg74
g3733
sg67
(lp3740
S'no-store, no-cache, must-revalidate, post-check=0, pre-check=0'
p3741
asbasbasbag60
(g76
g62
NtRp3742
(dp3743
g65
(dp3744
sg74
g3716
sg67
(lp3745
g60
(g81
g62
NtRp3746
(dp3747
g65
(dp3748
g85
g86
ssg74
g3742
sg67
(lp3749
S'Content-Type'
p3750
asbag60
(g81
g62
NtRp3751
(dp3752
g65
(dp3753
g92
g93
ssg74
g3742
sg67
(lp3754
S':'
asbag60
(g81
g62
NtRp3755
(dp3756
g65
(dp3757
sg74
g3742
sg67
(lp3758
g60
(g61
g62
NtRp3759
(dp3760
g65
(dp3761
g73
I4
ssg74
g3755
sg67
(lp3762
S'text/html; charset=utf-8'
p3763
asbasbasbag60
(g76
g62
NtRp3764
(dp3765
g65
(dp3766
sg74
g3716
sg67
(lp3767
g60
(g81
g62
NtRp3768
(dp3769
g65
(dp3770
g85
g86
ssg74
g3764
sg67
(lp3771
S'Expires'
p3772
asbag60
(g81
g62
NtRp3773
(dp3774
g65
(dp3775
g92
g93
ssg74
g3764
sg67
(lp3776
S':'
asbag60
(g81
g62
NtRp3777
(dp3778
g65
(dp3779
sg74
g3764
sg67
(lp3780
g60
(g61
g62
NtRp3781
(dp3782
g65
(dp3783
g73
I4
ssg74
g3777
sg67
(lp3784
S'Thu, 03 Nov 2011 06:22:54 GMT'
p3785
asbasbasbag60
(g76
g62
NtRp3786
(dp3787
g65
(dp3788
sg74
g3716
sg67
(lp3789
g60
(g81
g62
NtRp3790
(dp3791
g65
(dp3792
g85
g86
ssg74
g3786
sg67
(lp3793
S'Pragma'
p3794
asbag60
(g81
g62
NtRp3795
(dp3796
g65
(dp3797
g92
g93
ssg74
g3786
sg67
(lp3798
S':'
asbag60
(g81
g62
NtRp3799
(dp3800
g65
(dp3801
sg74
g3786
sg67
(lp3802
g60
(g61
g62
NtRp3803
(dp3804
g65
(dp3805
g73
I4
ssg74
g3799
sg67
(lp3806
S'no-cache'
p3807
asbasbasbag60
(g76
g62
NtRp3808
(dp3809
g65
(dp3810
sg74
g3716
sg67
(lp3811
g60
(g81
g62
NtRp3812
(dp3813
g65
(dp3814
g85
g86
ssg74
g3808
sg67
(lp3815
S'X-Powered-By'
p3816
asbag60
(g81
g62
NtRp3817
(dp3818
g65
(dp3819
g92
g93
ssg74
g3808
sg67
(lp3820
S':'
asbag60
(g81
g62
NtRp3821
(dp3822
g65
(dp3823
sg74
g3808
sg67
(lp3824
g60
(g61
g62
NtRp3825
(dp3826
g65
(dp3827
g73
I4
ssg74
g3821
sg67
(lp3828
S'web2py'
p3829
asbasbasbasbasbasbasbag60
(g76
g62
NtRp3830
(dp3831
g65
(dp3832
sg74
g3378
sg67
(lp3833
g60
(g81
g62
NtRp3834
(dp3835
g65
(dp3836
g85
g86
ssg74
g3830
sg67
(lp3837
S'menu'
p3838
asbag60
(g81
g62
NtRp3839
(dp3840
g65
(dp3841
g92
g93
ssg74
g3830
sg67
(lp3842
S':'
asbag60
(g81
g62
NtRp3843
(dp3844
g65
(dp3845
sg74
g3830
sg67
(lp3846
g60
(g61
g62
NtRp3847
(dp3848
g65
(dp3849
g73
I5
ssg74
g3843
sg67
(lp3850
g60
(g69
g62
NtRp3851
(dp3852
g65
(dp3853
g73
I4
ssg74
Nsg67
(lp3854
sbasbasbasbag60
(g76
g62
NtRp3855
(dp3856
g65
(dp3857
sg74
g3378
sg67
(lp3858
g60
(g81
g62
NtRp3859
(dp3860
g65
(dp3861
g85
g86
ssg74
g3855
sg67
(lp3862
S'meta'
p3863
asbag60
(g81
g62
NtRp3864
(dp3865
g65
(dp3866
g92
g93
ssg74
g3855
sg67
(lp3867
S':'
asbag60
(g81
g62
NtRp3868
(dp3869
g65
(dp3870
sg74
g3855
sg67
(lp3871
g60
(g61
g62
NtRp3872
(dp3873
g65
(dp3874
g73
I5
ssg74
g3868
sg67
(lp3875
g60
(g69
g62
NtRp3876
(dp3877
g65
(dp3878
g73
I4
ssg74
Nsg67
(lp3879
sbasbasbasbag60
(g76
g62
NtRp3880
(dp3881
g65
(dp3882
sg74
g3378
sg67
(lp3883
g60
(g81
g62
NtRp3884
(dp3885
g65
(dp3886
g85
g86
ssg74
g3880
sg67
(lp3887
S'postprocessing'
p3888
asbag60
(g81
g62
NtRp3889
(dp3890
g65
(dp3891
g92
g93
ssg74
g3880
sg67
(lp3892
S':'
asbag60
(g81
g62
NtRp3893
(dp3894
g65
(dp3895
sg74
g3880
sg67
(lp3896
g60
(g61
g62
NtRp3897
(dp3898
g65
(dp3899
g73
I5
ssg74
g3893
sg67
(lp3900
g60
(g69
g62
NtRp3901
(dp3902
g65
(dp3903
g73
I4
ssg74
Nsg67
(lp3904
sbasbasbasbag60
(g76
g62
NtRp3905
(dp3906
g65
(dp3907
sg74
g3378
sg67
(lp3908
g60
(g81
g62
NtRp3909
(dp3910
g65
(dp3911
g85
g86
ssg74
g3905
sg67
(lp3912
S'session_file'
p3913
asbag60
(g81
g62
NtRp3914
(dp3915
g65
(dp3916
g92
g93
ssg74
g3905
sg67
(lp3917
S':'
asbag60
(g81
g62
NtRp3918
(dp3919
g65
(dp3920
sg74
g3905
sg67
(lp3921
g60
(g61
g62
NtRp3922
(dp3923
g65
(dp3924
g73
I5
ssg74
g3918
sg67
(lp3925
S"<open file '/home/brencam/web2py/applications/gallery/sessions/127.0.0.1-5764d7f9-8178-4db1-bc94-76589577a2e3', mode 'rb+' at 0xaf59fa70>"
p3926
asbasbasbag60
(g76
g62
NtRp3927
(dp3928
g65
(dp3929
sg74
g3378
sg67
(lp3930
g60
(g81
g62
NtRp3931
(dp3932
g65
(dp3933
g85
g86
ssg74
g3927
sg67
(lp3934
S'session_filename'
p3935
asbag60
(g81
g62
NtRp3936
(dp3937
g65
(dp3938
g92
g93
ssg74
g3927
sg67
(lp3939
S':'
asbag60
(g81
g62
NtRp3940
(dp3941
g65
(dp3942
sg74
g3927
sg67
(lp3943
g60
(g61
g62
NtRp3944
(dp3945
g65
(dp3946
g73
I5
ssg74
g3940
sg67
(lp3947
S'/home/brencam/web2py/applications/gallery/sessions/127.0.0.1-5764d7f9-8178-4db1-bc94-76589577a2e3'
p3948
asbasbasbag60
(g76
g62
NtRp3949
(dp3950
g65
(dp3951
sg74
g3378
sg67
(lp3952
g60
(g81
g62
NtRp3953
(dp3954
g65
(dp3955
g85
g86
ssg74
g3949
sg67
(lp3956
S'session_id'
p3957
asbag60
(g81
g62
NtRp3958
(dp3959
g65
(dp3960
g92
g93
ssg74
g3949
sg67
(lp3961
S':'
asbag60
(g81
g62
NtRp3962
(dp3963
g65
(dp3964
sg74
g3949
sg67
(lp3965
g60
(g61
g62
NtRp3966
(dp3967
g65
(dp3968
g73
I5
ssg74
g3962
sg67
(lp3969
S'127.0.0.1-5764d7f9-8178-4db1-bc94-76589577a2e3'
p3970
asbasbasbag60
(g76
g62
NtRp3971
(dp3972
g65
(dp3973
sg74
g3378
sg67
(lp3974
g60
(g81
g62
NtRp3975
(dp3976
g65
(dp3977
g85
g86
ssg74
g3971
sg67
(lp3978
S'session_id_name'
p3979
asbag60
(g81
g62
NtRp3980
(dp3981
g65
(dp3982
g92
g93
ssg74
g3971
sg67
(lp3983
S':'
asbag60
(g81
g62
NtRp3984
(dp3985
g65
(dp3986
sg74
g3971
sg67
(lp3987
g60
(g61
g62
NtRp3988
(dp3989
g65
(dp3990
g73
I5
ssg74
g3984
sg67
(lp3991
g3435
asbasbasbag60
(g76
g62
NtRp3992
(dp3993
g65
(dp3994
sg74
g3378
sg67
(lp3995
g60
(g81
g62
NtRp3996
(dp3997
g65
(dp3998
g85
g86
ssg74
g3992
sg67
(lp3999
S'session_locked'
p4000
asbag60
(g81
g62
NtRp4001
(dp4002
g65
(dp4003
g92
g93
ssg74
g3992
sg67
(lp4004
S':'
asbag60
(g81
g62
NtRp4005
(dp4006
g65
(dp4007
sg74
g3992
sg67
(lp4008
g60
(g61
g62
NtRp4009
(dp4010
g65
(dp4011
g73
I5
ssg74
g4005
sg67
(lp4012
g1867
asbasbasbag60
(g76
g62
NtRp4013
(dp4014
g65
(dp4015
sg74
g3378
sg67
(lp4016
g60
(g81
g62
NtRp4017
(dp4018
g65
(dp4019
g85
g86
ssg74
g4013
sg67
(lp4020
S'session_new'
p4021
asbag60
(g81
g62
NtRp4022
(dp4023
g65
(dp4024
g92
g93
ssg74
g4013
sg67
(lp4025
S':'
asbag60
(g81
g62
NtRp4026
(dp4027
g65
(dp4028
sg74
g4013
sg67
(lp4029
g60
(g61
g62
NtRp4030
(dp4031
g65
(dp4032
g73
I5
ssg74
g4026
sg67
(lp4033
g103
asbasbasbag60
(g76
g62
NtRp4034
(dp4035
g65
(dp4036
sg74
g3378
sg67
(lp4037
g60
(g81
g62
NtRp4038
(dp4039
g65
(dp4040
g85
g86
ssg74
g4034
sg67
(lp4041
S'status'
p4042
asbag60
(g81
g62
NtRp4043
(dp4044
g65
(dp4045
g92
g93
ssg74
g4034
sg67
(lp4046
S':'
asbag60
(g81
g62
NtRp4047
(dp4048
g65
(dp4049
sg74
g4034
sg67
(lp4050
g60
(g61
g62
NtRp4051
(dp4052
g65
(dp4053
g73
I5
ssg74
g4047
sg67
(lp4054
S'200'
p4055
asbasbasbag60
(g76
g62
NtRp4056
(dp4057
g65
(dp4058
sg74
g3378
sg67
(lp4059
g60
(g81
g62
NtRp4060
(dp4061
g65
(dp4062
g85
g86
ssg74
g4056
sg67
(lp4063
g2511
asbag60
(g81
g62
NtRp4064
(dp4065
g65
(dp4066
g92
g93
ssg74
g4056
sg67
(lp4067
S':'
asbag60
(g81
g62
NtRp4068
(dp4069
g65
(dp4070
sg74
g4056
sg67
(lp4071
g60
(g61
g62
NtRp4072
(dp4073
g65
(dp4074
g73
I5
ssg74
g4068
sg67
(lp4075
g2524
asbasbasbag60
(g76
g62
NtRp4076
(dp4077
g65
(dp4078
sg74
g3378
sg67
(lp4079
g60
(g81
g62
NtRp4080
(dp4081
g65
(dp4082
g85
g86
ssg74
g4076
sg67
(lp4083
S'view'
p4084
asbag60
(g81
g62
NtRp4085
(dp4086
g65
(dp4087
g92
g93
ssg74
g4076
sg67
(lp4088
S':'
asbag60
(g81
g62
NtRp4089
(dp4090
g65
(dp4091
sg74
g4076
sg67
(lp4092
g60
(g61
g62
NtRp4093
(dp4094
g65
(dp4095
g73
I5
ssg74
g4089
sg67
(lp4096
S'default/sendform.html'
p4097
asbasbasbasbasbsS'locals'
p4098
(dp4099
S'a'
S"('CREATE TABLE auth_user(\\n    id INTEGER PRIMARY K...ey CHAR(512),\\n    reset_password_key CHAR(512)\\n);',)"
p4100
sS'self'
p4101
S'<gluon.dal.SQLiteAdapter object>'
p4102
sS'b'
g20
sS't0'
p4103
S'1320301374.9136181'
p4104
sssS'traceback'
p4105
S'Traceback (most recent call last):\n  File "/home/brencam/web2py/gluon/restricted.py", line 194, in restricted\n    exec ccode in environment\n  File "/home/brencam/web2py/applications/gallery/models/db.py", line 42, in <module>\n    auth.define_tables()\n  File "/home/brencam/web2py/gluon/tools.py", line 1256, in define_tables\n    format=\'%(first_name)s %(last_name)s (%(id)s)\'))\n  File "/home/brencam/web2py/gluon/dal.py", line 4491, in define_table\n    polymodel=polymodel)\n  File "/home/brencam/web2py/gluon/dal.py", line 677, in create_table\n    self.create_sequence_and_triggers(query,table)\n  File "/home/brencam/web2py/gluon/dal.py", line 1299, in create_sequence_and_triggers\n    self.execute(query)\n  File "/home/brencam/web2py/gluon/dal.py", line 1309, in execute\n    return self.log_execute(*a, **b)\n  File "/home/brencam/web2py/gluon/dal.py", line 1304, in log_execute\n    ret = self.cursor.execute(*a,**b)\nOperationalError: table auth_user already exists\n'
p4106
s.